 ListDemo_ud

 Timestamp is 54bcacc4 (Mon Jan 19 15:05:40 2015)

 Preferred load address is 00400000

 Start         Length     Name                   Class
 0001:00000000 000522e6H .text                   CODE
 0001:000522f0 000011d3H .text$x                 CODE
 0001:000534d0 00000234H .text$yc                CODE
 0001:00053710 00000171H .text$yd                CODE
 0002:00000000 000003e8H .idata$5                DATA
 0002:000003e8 00000004H .CRT$XCA                DATA
 0002:000003ec 0000000cH .CRT$XCC                DATA
 0002:000003f8 0000001cH .CRT$XCL                DATA
 0002:00000414 0000002cH .CRT$XCU                DATA
 0002:00000440 00000004H .CRT$XCZ                DATA
 0002:00000444 00000004H .CRT$XIA                DATA
 0002:00000448 00000010H .CRT$XIC                DATA
 0002:00000458 00000004H .CRT$XID                DATA
 0002:0000045c 00000004H .CRT$XIY                DATA
 0002:00000460 00000004H .CRT$XIZ                DATA
 0002:00000464 00000004H .CRT$XPA                DATA
 0002:00000468 00000008H .CRT$XPX                DATA
 0002:00000470 00000004H .CRT$XPXA               DATA
 0002:00000474 00000004H .CRT$XPZ                DATA
 0002:00000478 00000004H .CRT$XTA                DATA
 0002:0000047c 00000004H .CRT$XTZ                DATA
 0002:00000480 0000d540H .rdata                  DATA
 0002:0000d9c0 0000005cH .rdata$debug            DATA
 0002:0000da1c 00000e70H .rdata$r                DATA
 0002:0000e890 00000154H .rdata$sxdata           DATA
 0002:0000e9e4 00000004H .rtc$IAA                DATA
 0002:0000e9e8 00000004H .rtc$IMZ                DATA
 0002:0000e9ec 00000004H .rtc$IZZ                DATA
 0002:0000e9f0 00000004H .rtc$TAA                DATA
 0002:0000e9f4 00000004H .rtc$TMZ                DATA
 0002:0000e9f8 00000004H .rtc$TZZ                DATA
 0002:0000ea00 00001cecH .xdata$x                DATA
 0002:000106ec 00000050H .idata$2                DATA
 0002:0001073c 00000014H .idata$3                DATA
 0002:00010750 000003e8H .idata$4                DATA
 0002:00010b38 00002086H .idata$6                DATA
 0002:00012bbe 00000000H .edata                  DATA
 0003:00000000 00001950H .data                   DATA
 0003:00001960 000021d8H .bss                    DATA

  Address         Publics by Value              Rva+Base       Lib:Object

 0000:00000000       __except_list              00000000     <absolute>
 0000:00000055       ___safe_se_handler_count   00000055     <absolute>
 0000:00000000       ___ImageBase               00400000     <linker-defined>
 0001:00000000       ??_H@YGXPAXIHP6EPAX0@Z@Z   00401000 f i Main.obj
 0001:00000040       _WinMain@16                00401040 f   Main.obj
 0001:00000220       ??0ListMainForm@@QAE@XZ    00401220 f i Main.obj
 0001:000002a0       ??0INotifyUI@DuiLib@@QAE@XZ 004012a0 f i Main.obj
 0001:000002c0       ?GetWindowClassName@ListMainForm@@UBEPB_WXZ 004012c0 f i Main.obj
 0001:000002e0       ?GetClassStyle@ListMainForm@@UBEIXZ 004012e0 f i Main.obj
 0001:00000300       ?OnFinalMessage@ListMainForm@@UAEXPAUHWND__@@@Z 00401300 f i Main.obj
 0001:00000360       ?GetItemText@ListMainForm@@UAEPB_WPAVCControlUI@DuiLib@@HH@Z 00401360 f i Main.obj
 0001:00000640       ?Notify@ListMainForm@@UAEXAAUtagTNotifyUI@DuiLib@@@Z 00401640 f i Main.obj
 0001:00000dd0       ??0CMenuWnd@@QAE@XZ        00401dd0 f i Main.obj
 0001:00000e50       ?Init@CMenuWnd@@QAEXPAVCControlUI@DuiLib@@UtagPOINT@@@Z 00401e50 f i Main.obj
 0001:00000f70       ?GetWindowClassName@CMenuWnd@@UBEPB_WXZ 00401f70 f i Main.obj
 0001:00000f90       ?OnFinalMessage@CMenuWnd@@UAEXPAUHWND__@@@Z 00401f90 f i Main.obj
 0001:00000ff0       ?Notify@CMenuWnd@@UAEXAAUtagTNotifyUI@DuiLib@@@Z 00401ff0 f i Main.obj
 0001:000011a0       ?Create@CMenuWnd@@QAEPAUHWND__@@PAU2@PB_WKKHHHHPAUHMENU__@@@Z 004021a0 f i Main.obj
 0001:000012d0       ??0CShadowWnd@@QAE@XZ      004022d0 f i Main.obj
 0001:00001330       ?GetWindowClassName@CShadowWnd@@UBEPB_WXZ 00402330 f i Main.obj
 0001:00001350       ?GetClassStyle@CShadowWnd@@UBEIXZ 00402350 f i Main.obj
 0001:00001370       ?OnFinalMessage@CShadowWnd@@UAEXPAUHWND__@@@Z 00402370 f i Main.obj
 0001:000013d0       ?HandleMessage@CShadowWnd@@UAEJIIJ@Z 004023d0 f i Main.obj
 0001:000014c0       ?RePaint@CShadowWnd@@QAEXXZ 004024c0 f i Main.obj
 0001:000017b0       ?CreateMyBitmap@@YAPAUHBITMAP__@@PAUHDC__@@HHPAPAK@Z 004027b0 f i Main.obj
 0001:000018b0       ??_GCShadowWnd@@QAEPAXI@Z  004028b0 f i Main.obj
 0001:000018f0       ??1CShadowWnd@@QAE@XZ      004028f0 f i Main.obj
 0001:00001930       ?HandleMessage@CMenuWnd@@UAEJIIJ@Z 00402930 f i Main.obj
 0001:00001b40       ?OnCreate@CMenuWnd@@QAEJIIJAAH@Z 00402b40 f i Main.obj
 0001:00001db0       ??0STRINGorID@DuiLib@@QAE@PB_W@Z 00402db0 f i Main.obj
 0001:00001dd0       ?AdjustPostion@CMenuWnd@@QAEXXZ 00402dd0 f i Main.obj
 0001:00002020       ?OnClose@CMenuWnd@@QAEJIIJAAH@Z 00403020 f i Main.obj
 0001:00002080       ?OnKillFocus@CMenuWnd@@QAEJIIJAAH@Z 00403080 f i Main.obj
 0001:00002140       ?OnKeyDown@CMenuWnd@@QAEJIIJAAH@Z 00403140 f i Main.obj
 0001:00002180       ?OnSize@CMenuWnd@@QAEJIIJAAH@Z 00403180 f i Main.obj
 0001:00002380       ?OnMove@CMenuWnd@@QAEJIIJAAH@Z 00403380 f i Main.obj
 0001:00002490       ??_GCMenuWnd@@QAEPAXI@Z    00403490 f i Main.obj
 0001:000024d0       ??1CMenuWnd@@QAE@XZ        004034d0 f i Main.obj
 0001:00002510       ?OnPrepare@ListMainForm@@QAEXAAUtagTNotifyUI@DuiLib@@@Z 00403510 f i Main.obj
 0001:00002530       ?OnSearch@ListMainForm@@QAEXXZ 00403530 f i Main.obj
 0001:00002810       ?Search@ListMainForm@@SGKPAX@Z 00403810 f i Main.obj
 0001:00002c60       ?HandleMessage@ListMainForm@@UAEJIIJ@Z 00403c60 f i Main.obj
 0001:00002f70       ?OnAddListItem@ListMainForm@@QAEJIIJAAH@Z 00403f70 f i Main.obj
 0001:00002ff0       ?OnCreate@ListMainForm@@QAEJIIJAAH@Z 00403ff0 f i Main.obj
 0001:00003220       ?Init@ListMainForm@@QAEXXZ 00404220 f i Main.obj
 0001:000032f0       ?OnClose@ListMainForm@@QAEJIIJAAH@Z 004042f0 f i Main.obj
 0001:00003310       ?OnDestroy@ListMainForm@@QAEJIIJAAH@Z 00404310 f i Main.obj
 0001:00003350       ?OnNcActivate@ListMainForm@@QAEJIIJAAH@Z 00404350 f i Main.obj
 0001:000033b0       ?OnNcCalcSize@ListMainForm@@QAEJIIJAAH@Z 004043b0 f i Main.obj
 0001:000033d0       ?OnNcPaint@ListMainForm@@QAEJIIJAAH@Z 004043d0 f i Main.obj
 0001:000033f0       ?OnNcHitTest@ListMainForm@@QAEJIIJAAH@Z 004043f0 f i Main.obj
 0001:00003720       ?OnSize@ListMainForm@@QAEJIIJAAH@Z 00404720 f i Main.obj
 0001:00003950       ?OnGetMinMaxInfo@ListMainForm@@QAEJIIJAAH@Z 00404950 f i Main.obj
 0001:00003aa0       ?OnSysCommand@ListMainForm@@QAEJIIJAAH@Z 00404aa0 f i Main.obj
 0001:00003c70       ??0IListCallbackUI@DuiLib@@QAE@XZ 00404c70 f i Main.obj
 0001:00003c90       ??_GListMainForm@@QAEPAXI@Z 00404c90 f i Main.obj
 0001:00003cd0       ??_D?$basic_stringstream@DU?$char_traits@D@std@@V?$allocator@D@2@@std@@QAEXXZ 00404cd0 f i Main.obj
 0001:00003d10       ??_ECListTextElementUI@DuiLib@@UAEPAXI@Z 00404d10 f i Main.obj
 0001:00003d10       ??_GCListTextElementUI@DuiLib@@UAEPAXI@Z 00404d10 f i Main.obj
 0001:00003d60       ??_GPrama@@QAEPAXI@Z       00404d60 f i Main.obj
 0001:00003da0       ??0Prama@@QAE@XZ           00404da0 f i Main.obj
 0001:00003de0       ??1?$_Vector_iterator@V?$_Vector_val@V?$basic_string@DU?$char_traits@D@std@@V?$allocator@D@2@@std@@V?$allocator@V?$basic_string@DU?$char_traits@D@std@@V?$allocator@D@2@@std@@@2@@std@@@std@@QAE@XZ 00404de0 f i Main.obj
 0001:00003e10       ??0?$_Vector_const_iterator@V?$_Vector_val@V?$basic_string@DU?$char_traits@D@std@@V?$allocator@D@2@@std@@V?$allocator@V?$basic_string@DU?$char_traits@D@std@@V?$allocator@D@2@@std@@@2@@std@@@std@@QAE@ABV01@@Z 00404e10 f i Main.obj
 0001:00003e50       ??1?$_Vector_const_iterator@V?$_Vector_val@V?$basic_string@DU?$char_traits@D@std@@V?$allocator@D@2@@std@@V?$allocator@V?$basic_string@DU?$char_traits@D@std@@V?$allocator@D@2@@std@@@2@@std@@@std@@QAE@XZ 00404e50 f i Main.obj
 0001:00003e80       ??1ListMainForm@@QAE@XZ    00404e80 f i Main.obj
 0001:00003ec0       ??1Prama@@QAE@XZ           00404ec0 f i Main.obj
 0001:00003f00       ??0?$_Iterator012@Urandom_access_iterator_tag@std@@V?$basic_string@DU?$char_traits@D@std@@V?$allocator@D@2@@2@HPBV32@ABV32@U_Iterator_base12@2@@std@@QAE@ABU01@@Z 00404f00 f i Main.obj
 0001:00003f30       ??0_Iterator_base12@std@@QAE@ABU01@@Z 00404f30 f i Main.obj
 0001:00003f70       ??4_Iterator_base12@std@@QAEAAU01@ABU01@@Z 00404f70 f i Main.obj
 0001:00003fb0       ?_Adopt@_Iterator_base12@std@@QAEXPBU_Container_base12@2@@Z 00404fb0 f i Main.obj
 0001:000040a0       ?_Orphan_me@_Iterator_base12@std@@QAEXXZ 004050a0 f i Main.obj
 0001:00004130       ??1?$_Iterator012@Urandom_access_iterator_tag@std@@V?$basic_string@DU?$char_traits@D@std@@V?$allocator@D@2@@2@HPBV32@ABV32@U_Iterator_base12@2@@std@@QAE@XZ 00405130 f i Main.obj
 0001:00004160       ??1_Iterator_base12@std@@QAE@XZ 00405160 f i Main.obj
 0001:00004210       ??1?$basic_string@DU?$char_traits@D@std@@V?$allocator@D@2@@std@@QAE@XZ 00405210 f i Main.obj
 0001:00004280       ?c_str@?$basic_string@DU?$char_traits@D@std@@V?$allocator@D@2@@std@@QBEPBDXZ 00405280 f i Main.obj
 0001:000042b0       ?length@?$basic_string@DU?$char_traits@D@std@@V?$allocator@D@2@@std@@QBEIXZ 004052b0 f i Main.obj
 0001:000042d0       ??6?$basic_ostream@DU?$char_traits@D@std@@@std@@QAEAAV01@H@Z 004052d0 f i Main.obj
 0001:000044f0       ??1locale@std@@QAE@XZ      004054f0 f i Main.obj
 0001:00004530       ?_Decref@facet@locale@std@@QAEPAV123@XZ 00405530 f i Main.obj
 0001:000045d0       ?flags@ios_base@std@@QBEHXZ 004055d0 f i Main.obj
 0001:000045f0       ?getloc@ios_base@std@@QBE?AVlocale@2@XZ 004055f0 f i Main.obj
 0001:00004640       ??0locale@std@@QAE@ABV01@@Z 00405640 f i Main.obj
 0001:00004680       ?_Incref@facet@locale@std@@QAEXXZ 00405680 f i Main.obj
 0001:00004700       ??1?$basic_ios@DU?$char_traits@D@std@@@std@@UAE@XZ 00405700 f i Main.obj
 0001:00004730       ??1ios_base@std@@UAE@XZ    00405730 f i Main.obj
 0001:00004770       ??_Eios_base@std@@UAEPAXI@Z 00405770 f i Main.obj
 0001:00004770       ??_Gios_base@std@@UAEPAXI@Z 00405770 f i Main.obj
 0001:000047b0       ?clear@?$basic_ios@DU?$char_traits@D@std@@@std@@QAEXH_N@Z 004057b0 f i Main.obj
 0001:00004810       ?clear@ios_base@std@@QAEXH_N@Z 00405810 f i Main.obj
 0001:00004920       ??0runtime_error@std@@QAE@ABV01@@Z 00405920 f i Main.obj
 0001:00004960       ??_Eruntime_error@std@@UAEPAXI@Z 00405960 f i Main.obj
 0001:00004960       ??_Gruntime_error@std@@UAEPAXI@Z 00405960 f i Main.obj
 0001:000049a0       ??1runtime_error@std@@UAE@XZ 004059a0 f i Main.obj
 0001:000049d0       ?make_error_code@std@@YA?AVerror_code@1@W4io_errc@31@@Z 004059d0 f i Main.obj
 0001:00004a00       ??0error_code@std@@QAE@HABVerror_category@1@@Z 00405a00 f i Main.obj
 0001:00004a30       ??0failure@ios_base@std@@QAE@PBDABVerror_code@2@@Z 00405a30 f i Main.obj
 0001:00004a70       ??0system_error@std@@QAE@Verror_code@1@PBD@Z 00405a70 f i Main.obj
 0001:00004b00       ??0runtime_error@std@@QAE@PBD@Z 00405b00 f i Main.obj
 0001:00004b40       ?_Makestr@system_error@std@@AAEXXZ 00405b40 f i Main.obj
 0001:00004b60       ??_Esystem_error@std@@UAEPAXI@Z 00405b60 f i Main.obj
 0001:00004b60       ??_Gsystem_error@std@@UAEPAXI@Z 00405b60 f i Main.obj
 0001:00004ba0       ??1system_error@std@@UAE@XZ 00405ba0 f i Main.obj
 0001:00004bd0       ??_Efailure@ios_base@std@@UAEPAXI@Z 00405bd0 f i Main.obj
 0001:00004bd0       ??_Gfailure@ios_base@std@@UAEPAXI@Z 00405bd0 f i Main.obj
 0001:00004c10       ??1failure@ios_base@std@@UAE@XZ 00405c10 f i Main.obj
 0001:00004c40       ??0failure@ios_base@std@@QAE@ABV012@@Z 00405c40 f i Main.obj
 0001:00004c80       ??0system_error@std@@QAE@ABV01@@Z 00405c80 f i Main.obj
 0001:00004cd0       ?setstate@?$basic_ios@DU?$char_traits@D@std@@@std@@QAEXH_N@Z 00405cd0 f i Main.obj
 0001:00004d10       ?rdstate@ios_base@std@@QBEHXZ 00405d10 f i Main.obj
 0001:00004d30       ?rdbuf@?$basic_ios@DU?$char_traits@D@std@@@std@@QBEPAV?$basic_streambuf@DU?$char_traits@D@std@@@2@XZ 00405d30 f i Main.obj
 0001:00004d50       ?push_back@?$vector@V?$basic_string@DU?$char_traits@D@std@@V?$allocator@D@2@@std@@V?$allocator@V?$basic_string@DU?$char_traits@D@std@@V?$allocator@D@2@@std@@@2@@std@@QAEX$$QAV?$basic_string@DU?$char_traits@D@std@@V?$allocator@D@2@@2@@Z 00405d50 f i Main.obj
 0001:00004e80       ?begin@?$vector@V?$basic_string@DU?$char_traits@D@std@@V?$allocator@D@2@@std@@V?$allocator@V?$basic_string@DU?$char_traits@D@std@@V?$allocator@D@2@@std@@@2@@std@@QAE?AV?$_Vector_iterator@V?$_Vector_val@V?$basic_string@DU?$char_traits@D@std@@V?$allocator@D@2@@std@@V?$allocator@V?$basic_string@DU?$char_traits@D@std@@V?$allocator@D@2@@std@@@2@@std@@@2@XZ 00405e80 f i Main.obj
 0001:00004ed0       ?resize@?$vector@V?$basic_string@DU?$char_traits@D@std@@V?$allocator@D@2@@std@@V?$allocator@V?$basic_string@DU?$char_traits@D@std@@V?$allocator@D@2@@std@@@2@@std@@QAEXI@Z 00405ed0 f i Main.obj
 0001:00005070       ?empty@?$vector@V?$basic_string@DU?$char_traits@D@std@@V?$allocator@D@2@@std@@V?$allocator@V?$basic_string@DU?$char_traits@D@std@@V?$allocator@D@2@@std@@@2@@std@@QBE_NXZ 00406070 f i Main.obj
 0001:000050a0       ??A?$vector@V?$basic_string@DU?$char_traits@D@std@@V?$allocator@D@2@@std@@V?$allocator@V?$basic_string@DU?$char_traits@D@std@@V?$allocator@D@2@@std@@@2@@std@@QAEAAV?$basic_string@DU?$char_traits@D@std@@V?$allocator@D@2@@1@I@Z 004060a0 f i Main.obj
 0001:00005140       ?erase@?$vector@V?$basic_string@DU?$char_traits@D@std@@V?$allocator@D@2@@std@@V?$allocator@V?$basic_string@DU?$char_traits@D@std@@V?$allocator@D@2@@std@@@2@@std@@QAE?AV?$_Vector_iterator@V?$_Vector_val@V?$basic_string@DU?$char_traits@D@std@@V?$allocator@D@2@@std@@V?$allocator@V?$basic_string@DU?$char_traits@D@std@@V?$allocator@D@2@@std@@@2@@std@@@2@V?$_Vector_const_iterator@V?$_Vector_val@V?$basic_string@DU?$char_traits@D@std@@V?$allocator@D@2@@std@@V?$allocator@V?$basic_string@DU?$char_traits@D@std@@V?$allocator@D@2@@std@@@2@@std@@@2@@Z 00406140 f i Main.obj
 0001:00005270       ?_Getcont@_Iterator_base12@std@@QBEPBU_Container_base12@2@XZ 00406270 f i Main.obj
 0001:000052b0       ??0?$basic_stringstream@DU?$char_traits@D@std@@V?$allocator@D@2@@std@@QAE@H@Z 004062b0 f i Main.obj
 0001:00005380       ??1?$basic_stringstream@DU?$char_traits@D@std@@V?$allocator@D@2@@std@@UAE@XZ 00406380 f i Main.obj
 0001:00005400       ?str@?$basic_stringstream@DU?$char_traits@D@std@@V?$allocator@D@2@@std@@QBE?AV?$basic_string@DU?$char_traits@D@std@@V?$allocator@D@2@@2@XZ 00406400 f i Main.obj
 0001:00005450       ??1?$basic_iostream@DU?$char_traits@D@std@@@std@@UAE@XZ 00406450 f i Main.obj
 0001:000054d0       ??1?$basic_ostream@DU?$char_traits@D@std@@@std@@UAE@XZ 004064d0 f i Main.obj
 0001:00005500       ??1?$basic_istream@DU?$char_traits@D@std@@@std@@UAE@XZ 00406500 f i Main.obj
 0001:00005530       ??1?$basic_stringbuf@DU?$char_traits@D@std@@V?$allocator@D@2@@std@@UAE@XZ 00406530 f i Main.obj
 0001:000055a0       ??1?$basic_streambuf@DU?$char_traits@D@std@@@std@@UAE@XZ 004065a0 f i Main.obj
 0001:00005620       ?_Lock@?$basic_streambuf@DU?$char_traits@D@std@@@std@@UAEXXZ 00406620 f i Main.obj
 0001:00005650       ?_Unlock@?$basic_streambuf@DU?$char_traits@D@std@@@std@@UAEXXZ 00406650 f i Main.obj
 0001:00005680       ?overflow@?$basic_streambuf@DU?$char_traits@D@std@@@std@@MAEHH@Z 00406680 f i Main.obj
 0001:000056b0       ?eof@?$char_traits@D@std@@SAHXZ 004066b0 f i Main.obj
 0001:000056c0       ?pbackfail@?$basic_streambuf@DU?$char_traits@D@std@@@std@@MAEHH@Z 004066c0 f i Main.obj
 0001:000056f0       ?showmanyc@?$basic_streambuf@DU?$char_traits@D@std@@@std@@MAE_JXZ 004066f0 f i Main.obj
 0001:00005710       ?underflow@?$basic_streambuf@DU?$char_traits@D@std@@@std@@MAEHXZ 00406710 f i Main.obj
 0001:00005740       ?uflow@?$basic_streambuf@DU?$char_traits@D@std@@@std@@MAEHXZ 00406740 f i Main.obj
 0001:000057d0       ?to_int_type@?$char_traits@D@std@@SAHABD@Z 004067d0 f i Main.obj
 0001:000057e0       ?eq_int_type@?$char_traits@D@std@@SA_NABH0@Z 004067e0 f i Main.obj
 0001:00005800       ?xsgetn@?$basic_streambuf@DU?$char_traits@D@std@@@std@@MAE_JPAD_J@Z 00406800 f i Main.obj
 0001:000059a0       ?copy@?$char_traits@D@std@@SAPADPADPBDI@Z 004069a0 f i Main.obj
 0001:000059c0       ?to_char_type@?$char_traits@D@std@@SADABH@Z 004069c0 f i Main.obj
 0001:000059d0       ?xsputn@?$basic_streambuf@DU?$char_traits@D@std@@@std@@MAE_JPBD_J@Z 004069d0 f i Main.obj
 0001:00005b40       ?seekoff@?$basic_streambuf@DU?$char_traits@D@std@@@std@@MAE?AV?$fpos@H@2@_JHH@Z 00406b40 f i Main.obj
 0001:00005b80       ?seekpos@?$basic_streambuf@DU?$char_traits@D@std@@@std@@MAE?AV?$fpos@H@2@V32@H@Z 00406b80 f i Main.obj
 0001:00005bc0       ?setbuf@?$basic_streambuf@DU?$char_traits@D@std@@@std@@MAEPAV12@PAD_J@Z 00406bc0 f i Main.obj
 0001:00005be0       ?sync@?$basic_streambuf@DU?$char_traits@D@std@@@std@@MAEHXZ 00406be0 f i Main.obj
 0001:00005c00       ?imbue@?$basic_streambuf@DU?$char_traits@D@std@@@std@@MAEXABVlocale@2@@Z 00406c00 f i Main.obj
 0001:00005c20       ?overflow@?$basic_stringbuf@DU?$char_traits@D@std@@V?$allocator@D@2@@std@@MAEHH@Z 00406c20 f i Main.obj
 0001:00005f30       ?not_eof@?$char_traits@D@std@@SAHABH@Z 00406f30 f i Main.obj
 0001:00005f80       ?pbackfail@?$basic_stringbuf@DU?$char_traits@D@std@@V?$allocator@D@2@@std@@MAEHH@Z 00406f80 f i Main.obj
 0001:00006080       ?eq@?$char_traits@D@std@@SA_NABD0@Z 00407080 f i Main.obj
 0001:000060a0       ?underflow@?$basic_stringbuf@DU?$char_traits@D@std@@V?$allocator@D@2@@std@@MAEHXZ 004070a0 f i Main.obj
 0001:000061a0       ?seekoff@?$basic_stringbuf@DU?$char_traits@D@std@@V?$allocator@D@2@@std@@MAE?AV?$fpos@H@2@_JHH@Z 004071a0 f i Main.obj
 0001:00006470       ?seekpos@?$basic_stringbuf@DU?$char_traits@D@std@@V?$allocator@D@2@@std@@MAE?AV?$fpos@H@2@V32@H@Z 00407470 f i Main.obj
 0001:00006680       ??H?$_Vector_iterator@V?$_Vector_val@V?$basic_string@DU?$char_traits@D@std@@V?$allocator@D@2@@std@@V?$allocator@V?$basic_string@DU?$char_traits@D@std@@V?$allocator@D@2@@std@@@2@@std@@@std@@QBE?AV01@H@Z 00407680 f i Main.obj
 0001:00006760       ??_G?$basic_ostream@DU?$char_traits@D@std@@@std@@UAEPAXI@Z 00407760 f i Main.obj
 0001:00006760       ??_E?$basic_ostream@DU?$char_traits@D@std@@@std@@UAEPAXI@Z 00407760 f i Main.obj
 0001:000067b0       ??_G?$basic_ios@DU?$char_traits@D@std@@@std@@UAEPAXI@Z 004077b0 f i Main.obj
 0001:000067b0       ??_E?$basic_ios@DU?$char_traits@D@std@@@std@@UAEPAXI@Z 004077b0 f i Main.obj
 0001:000067f0       ??_E?$basic_istream@DU?$char_traits@D@std@@@std@@UAEPAXI@Z 004077f0 f i Main.obj
 0001:000067f0       ??_G?$basic_istream@DU?$char_traits@D@std@@@std@@UAEPAXI@Z 004077f0 f i Main.obj
 0001:00006840       ??_G?$basic_streambuf@DU?$char_traits@D@std@@@std@@UAEPAXI@Z 00407840 f i Main.obj
 0001:00006840       ??_E?$basic_streambuf@DU?$char_traits@D@std@@@std@@UAEPAXI@Z 00407840 f i Main.obj
 0001:00006880       ??_E?$basic_stringstream@DU?$char_traits@D@std@@V?$allocator@D@2@@std@@UAEPAXI@Z 00407880 f i Main.obj
 0001:00006880       ??_G?$basic_stringstream@DU?$char_traits@D@std@@V?$allocator@D@2@@std@@UAEPAXI@Z 00407880 f i Main.obj
 0001:000068d0       ??_G?$basic_iostream@DU?$char_traits@D@std@@@std@@UAEPAXI@Z 004078d0 f i Main.obj
 0001:000068d0       ??_E?$basic_iostream@DU?$char_traits@D@std@@@std@@UAEPAXI@Z 004078d0 f i Main.obj
 0001:00006920       ??_G?$basic_stringbuf@DU?$char_traits@D@std@@V?$allocator@D@2@@std@@UAEPAXI@Z 00407920 f i Main.obj
 0001:00006920       ??_E?$basic_stringbuf@DU?$char_traits@D@std@@V?$allocator@D@2@@std@@UAEPAXI@Z 00407920 f i Main.obj
 0001:00006960       ??0?$_Vector_iterator@V?$_Vector_val@V?$basic_string@DU?$char_traits@D@std@@V?$allocator@D@2@@std@@V?$allocator@V?$basic_string@DU?$char_traits@D@std@@V?$allocator@D@2@@std@@@2@@std@@@std@@QAE@ABV01@@Z 00407960 f i Main.obj
 0001:00006990       ??_D?$basic_ostream@DU?$char_traits@D@std@@@std@@QAEXXZ 00407990 f i Main.obj
 0001:000069d0       ??_D?$basic_istream@DU?$char_traits@D@std@@@std@@QAEXXZ 004079d0 f i Main.obj
 0001:00006a10       ??_D?$basic_iostream@DU?$char_traits@D@std@@@std@@QAEXXZ 00407a10 f i Main.obj
 0001:00006a50       ?_Tidy@?$basic_string@DU?$char_traits@D@std@@V?$allocator@D@2@@std@@QAEX_NI@Z 00407a50 f i Main.obj
 0001:00006ae0       ?_Myptr@?$basic_string@DU?$char_traits@D@std@@V?$allocator@D@2@@std@@QBEPBDXZ 00407ae0 f i Main.obj
 0001:00006b20       ??1?$_String_val@DV?$allocator@D@std@@@std@@QAE@XZ 00407b20 f i Main.obj
 0001:00006c00       ??1_Container_base12@std@@QAE@XZ 00407c00 f i Main.obj
 0001:00006c30       ?_Orphan_all@_Container_base12@std@@QAEXXZ 00407c30 f i Main.obj
 0001:00006ce0       ?deallocate@?$allocator@D@std@@QAEXPADI@Z 00407ce0 f i Main.obj
 0001:00006d10       ?allocate@?$allocator@D@std@@QAEPADI@Z 00407d10 f i Main.obj
 0001:00006d40       ?fill@?$basic_ios@DU?$char_traits@D@std@@@std@@QBEDXZ 00407d40 f i Main.obj
 0001:00006d60       ??0?$basic_ios@DU?$char_traits@D@std@@@std@@IAE@XZ 00407d60 f i Main.obj
 0001:00006d90       ??0ios_base@std@@IAE@XZ    00407d90 f i Main.obj
 0001:00006db0       ?eback@?$basic_streambuf@DU?$char_traits@D@std@@@std@@IBEPADXZ 00407db0 f i Main.obj
 0001:00006dd0       ?gptr@?$basic_streambuf@DU?$char_traits@D@std@@@std@@IBEPADXZ 00407dd0 f i Main.obj
 0001:00006df0       ?pbase@?$basic_streambuf@DU?$char_traits@D@std@@@std@@IBEPADXZ 00407df0 f i Main.obj
 0001:00006e10       ?pptr@?$basic_streambuf@DU?$char_traits@D@std@@@std@@IBEPADXZ 00407e10 f i Main.obj
 0001:00006e30       ?egptr@?$basic_streambuf@DU?$char_traits@D@std@@@std@@IBEPADXZ 00407e30 f i Main.obj
 0001:00006e60       ?gbump@?$basic_streambuf@DU?$char_traits@D@std@@@std@@IAEXH@Z 00407e60 f i Main.obj
 0001:00006ea0       ?setg@?$basic_streambuf@DU?$char_traits@D@std@@@std@@IAEXPAD00@Z 00407ea0 f i Main.obj
 0001:00006ee0       ?epptr@?$basic_streambuf@DU?$char_traits@D@std@@@std@@IBEPADXZ 00407ee0 f i Main.obj
 0001:00006f10       ?_Gninc@?$basic_streambuf@DU?$char_traits@D@std@@@std@@IAEPADXZ 00407f10 f i Main.obj
 0001:00006f60       ?_Gnavail@?$basic_streambuf@DU?$char_traits@D@std@@@std@@IBE_JXZ 00407f60 f i Main.obj
 0001:00006fa0       ?pbump@?$basic_streambuf@DU?$char_traits@D@std@@@std@@IAEXH@Z 00407fa0 f i Main.obj
 0001:00006fe0       ?setp@?$basic_streambuf@DU?$char_traits@D@std@@@std@@IAEXPAD0@Z 00407fe0 f i Main.obj
 0001:00007020       ?setp@?$basic_streambuf@DU?$char_traits@D@std@@@std@@IAEXPAD00@Z 00408020 f i Main.obj
 0001:00007060       ?_Pninc@?$basic_streambuf@DU?$char_traits@D@std@@@std@@IAEPADXZ 00408060 f i Main.obj
 0001:000070b0       ?_Pnavail@?$basic_streambuf@DU?$char_traits@D@std@@@std@@IBE_JXZ 004080b0 f i Main.obj
 0001:000070f0       ?end@?$vector@V?$basic_string@DU?$char_traits@D@std@@V?$allocator@D@2@@std@@V?$allocator@V?$basic_string@DU?$char_traits@D@std@@V?$allocator@D@2@@std@@@2@@std@@QAE?AV?$_Vector_iterator@V?$_Vector_val@V?$basic_string@DU?$char_traits@D@std@@V?$allocator@D@2@@std@@V?$allocator@V?$basic_string@DU?$char_traits@D@std@@V?$allocator@D@2@@std@@@2@@std@@@2@XZ 004080f0 f i Main.obj
 0001:00007140       ?_Make_iter@?$vector@V?$basic_string@DU?$char_traits@D@std@@V?$allocator@D@2@@std@@V?$allocator@V?$basic_string@DU?$char_traits@D@std@@V?$allocator@D@2@@std@@@2@@std@@QBE?AV?$_Vector_iterator@V?$_Vector_val@V?$basic_string@DU?$char_traits@D@std@@V?$allocator@D@2@@std@@V?$allocator@V?$basic_string@DU?$char_traits@D@std@@V?$allocator@D@2@@std@@@2@@std@@@2@V?$_Vector_const_iterator@V?$_Vector_val@V?$basic_string@DU?$char_traits@D@std@@V?$allocator@D@2@@std@@V?$allocator@V?$basic_string@DU?$char_traits@D@std@@V?$allocator@D@2@@std@@@2@@std@@@2@@Z 00408140 f i Main.obj
 0001:000071d0       ?size@?$vector@V?$basic_string@DU?$char_traits@D@std@@V?$allocator@D@2@@std@@V?$allocator@V?$basic_string@DU?$char_traits@D@std@@V?$allocator@D@2@@std@@@2@@std@@QBEIXZ 004081d0 f i Main.obj
 0001:00007200       ?erase@?$vector@V?$basic_string@DU?$char_traits@D@std@@V?$allocator@D@2@@std@@V?$allocator@V?$basic_string@DU?$char_traits@D@std@@V?$allocator@D@2@@std@@@2@@std@@QAE?AV?$_Vector_iterator@V?$_Vector_val@V?$basic_string@DU?$char_traits@D@std@@V?$allocator@D@2@@std@@V?$allocator@V?$basic_string@DU?$char_traits@D@std@@V?$allocator@D@2@@std@@@2@@std@@@2@V?$_Vector_const_iterator@V?$_Vector_val@V?$basic_string@DU?$char_traits@D@std@@V?$allocator@D@2@@std@@V?$allocator@V?$basic_string@DU?$char_traits@D@std@@V?$allocator@D@2@@std@@@2@@std@@@2@0@Z 00408200 f i Main.obj
 0001:00007400       ?_Destroy@?$vector@V?$basic_string@DU?$char_traits@D@std@@V?$allocator@D@2@@std@@V?$allocator@V?$basic_string@DU?$char_traits@D@std@@V?$allocator@D@2@@std@@@2@@std@@IAEXPAV?$basic_string@DU?$char_traits@D@std@@V?$allocator@D@2@@2@0@Z 00408400 f i Main.obj
 0001:00007440       ?_Inside@?$vector@V?$basic_string@DU?$char_traits@D@std@@V?$allocator@D@2@@std@@V?$allocator@V?$basic_string@DU?$char_traits@D@std@@V?$allocator@D@2@@std@@@2@@std@@IBE_NPBV?$basic_string@DU?$char_traits@D@std@@V?$allocator@D@2@@2@@Z 00408440 f i Main.obj
 0001:00007490       ?_Reserve@?$vector@V?$basic_string@DU?$char_traits@D@std@@V?$allocator@D@2@@std@@V?$allocator@V?$basic_string@DU?$char_traits@D@std@@V?$allocator@D@2@@std@@@2@@std@@IAEXI@Z 00408490 f i Main.obj
 0001:00007510       ?_Orphan_range@?$vector@V?$basic_string@DU?$char_traits@D@std@@V?$allocator@D@2@@std@@V?$allocator@V?$basic_string@DU?$char_traits@D@std@@V?$allocator@D@2@@std@@@2@@std@@IBEXPAV?$basic_string@DU?$char_traits@D@std@@V?$allocator@D@2@@2@0@Z 00408510 f i Main.obj
 0001:00007620       ?_Getpfirst@_Container_base12@std@@QBEPAPAU_Iterator_base12@2@XZ 00408620 f i Main.obj
 0001:00007660       ?_Clrcont@_Iterator_base12@std@@QAEXXZ 00408660 f i Main.obj
 0001:00007680       ?_Getpnext@_Iterator_base12@std@@QAEPAPAU12@XZ 00408680 f i Main.obj
 0001:000076a0       ??0?$basic_iostream@DU?$char_traits@D@std@@@std@@QAE@PAV?$basic_streambuf@DU?$char_traits@D@std@@@1@@Z 004086a0 f i Main.obj
 0001:00007770       ??0?$basic_stringbuf@DU?$char_traits@D@std@@V?$allocator@D@2@@std@@QAE@H@Z 00408770 f i Main.obj
 0001:00007800       ??0?$allocator@D@std@@QAE@XZ 00408800 f i Main.obj
 0001:00007820       ?str@?$basic_stringbuf@DU?$char_traits@D@std@@V?$allocator@D@2@@std@@QBE?AV?$basic_string@DU?$char_traits@D@std@@V?$allocator@D@2@@2@XZ 00408820 f i Main.obj
 0001:00007a50       ??0?$basic_string@DU?$char_traits@D@std@@V?$allocator@D@2@@std@@QAE@XZ 00408a50 f i Main.obj
 0001:00007ad0       ??0?$basic_string@DU?$char_traits@D@std@@V?$allocator@D@2@@std@@QAE@$$QAV01@@Z 00408ad0 f i Main.obj
 0001:00007b80       ?assign@?$basic_string@DU?$char_traits@D@std@@V?$allocator@D@2@@std@@QAEAAV12@$$QAV12@@Z 00408b80 f i Main.obj
 0001:00007c70       ?move@?$char_traits@D@std@@SAPADPADPBDI@Z 00408c70 f i Main.obj
 0001:00007c90       ??0?$_String_val@DV?$allocator@D@std@@@std@@QAE@V?$allocator@D@1@@Z 00408c90 f i Main.obj
 0001:00007d90       ??0_Container_proxy@std@@QAE@XZ 00408d90 f i Main.obj
 0001:00007dc0       ??0_Container_base12@std@@QAE@XZ 00408dc0 f i Main.obj
 0001:00007de0       ??0?$allocator@D@std@@QAE@ABV01@@Z 00408de0 f i Main.obj
 0001:00007e00       ?_Tidy@?$basic_stringbuf@DU?$char_traits@D@std@@V?$allocator@D@2@@std@@IAEXXZ 00408e00 f i Main.obj
 0001:00007eb0       ??0?$_Vector_iterator@V?$_Vector_val@V?$basic_string@DU?$char_traits@D@std@@V?$allocator@D@2@@std@@V?$allocator@V?$basic_string@DU?$char_traits@D@std@@V?$allocator@D@2@@std@@@2@@std@@@std@@QAE@PAV?$basic_string@DU?$char_traits@D@std@@V?$allocator@D@2@@1@PBU_Container_base12@1@@Z 00408eb0 f i Main.obj
 0001:00007ef0       ??Y?$_Vector_iterator@V?$_Vector_val@V?$basic_string@DU?$char_traits@D@std@@V?$allocator@D@2@@std@@V?$allocator@V?$basic_string@DU?$char_traits@D@std@@V?$allocator@D@2@@std@@@2@@std@@@std@@QAEAAV01@H@Z 00408ef0 f i Main.obj
 0001:00007f20       ??0sentry@?$basic_ostream@DU?$char_traits@D@std@@@std@@QAE@AAV12@@Z 00408f20 f i Main.obj
 0001:00007ff0       ?good@ios_base@std@@QBE_NXZ 00408ff0 f i Main.obj
 0001:00008020       ?flush@?$basic_ostream@DU?$char_traits@D@std@@@std@@QAEAAV12@XZ 00409020 f i Main.obj
 0001:000080b0       ?fail@ios_base@std@@QBE_NXZ 004090b0 f i Main.obj
 0001:000080e0       ?pubsync@?$basic_streambuf@DU?$char_traits@D@std@@@std@@QAEHXZ 004090e0 f i Main.obj
 0001:00008120       ??1sentry@?$basic_ostream@DU?$char_traits@D@std@@@std@@QAE@XZ 00409120 f i Main.obj
 0001:000081a0       ??Bsentry@?$basic_ostream@DU?$char_traits@D@std@@@std@@QBEPQ_Bool_struct@2@HXZ 004091a0 f i Main.obj
 0001:000081d0       ?put@?$num_put@DV?$ostreambuf_iterator@DU?$char_traits@D@std@@@std@@@std@@QBE?AV?$ostreambuf_iterator@DU?$char_traits@D@std@@@2@V32@AAVios_base@2@DJ@Z 004091d0 f i Main.obj
 0001:00008230       ??0?$ostreambuf_iterator@DU?$char_traits@D@std@@@std@@QAE@PAV?$basic_streambuf@DU?$char_traits@D@std@@@1@@Z 00409230 f i Main.obj
 0001:00008260       ?failed@?$ostreambuf_iterator@DU?$char_traits@D@std@@@std@@QBE_NXZ 00409260 f i Main.obj
 0001:00008280       ??0?$fpos@H@std@@QAE@_J@Z  00409280 f i Main.obj
 0001:000082d0       ??B?$fpos@H@std@@QBE_JXZ   004092d0 f i Main.obj
 0001:00008300       ??0?$basic_string@DU?$char_traits@D@std@@V?$allocator@D@2@@std@@QAE@PBDI@Z 00409300 f i Main.obj
 0001:000083a0       ??4?$basic_string@DU?$char_traits@D@std@@V?$allocator@D@2@@std@@QAEAAV01@ABV01@@Z 004093a0 f i Main.obj
 0001:000083d0       ?assign@?$basic_string@DU?$char_traits@D@std@@V?$allocator@D@2@@std@@QAEAAV12@PBDI@Z 004093d0 f i Main.obj
 0001:00008480       ?get_allocator@?$basic_string@DU?$char_traits@D@std@@V?$allocator@D@2@@std@@QBE?AV?$allocator@D@2@XZ 00409480 f i Main.obj
 0001:000084b0       ?_Eos@?$basic_string@DU?$char_traits@D@std@@V?$allocator@D@2@@std@@QAEXI@Z 004094b0 f i Main.obj
 0001:00008500       ?assign@?$char_traits@D@std@@SAXAADABD@Z 00409500 f i Main.obj
 0001:00008510       ?_Myptr@?$basic_string@DU?$char_traits@D@std@@V?$allocator@D@2@@std@@QAEPADXZ 00409510 f i Main.obj
 0001:00008550       ??0?$basic_ostream@DU?$char_traits@D@std@@@std@@QAE@W4_Uninitialized@1@_N@Z 00409550 f i Main.obj
 0001:00008630       ?_Osfx@?$basic_ostream@DU?$char_traits@D@std@@@std@@QAEXXZ 00409630 f i Main.obj
 0001:000086d0       ?tie@?$basic_ios@DU?$char_traits@D@std@@@std@@QBEPAV?$basic_ostream@DU?$char_traits@D@std@@@2@XZ 004096d0 f i Main.obj
 0001:000086f0       ??0?$basic_istream@DU?$char_traits@D@std@@@std@@QAE@PAV?$basic_streambuf@DU?$char_traits@D@std@@@1@_N@Z 004096f0 f i Main.obj
 0001:000087c0       ??0?$basic_streambuf@DU?$char_traits@D@std@@@std@@IAE@XZ 004097c0 f i Main.obj
 0001:00008880       ??0locale@std@@QAE@XZ      00409880 f i Main.obj
 0001:000088c0       ?reserve@?$vector@V?$basic_string@DU?$char_traits@D@std@@V?$allocator@D@2@@std@@V?$allocator@V?$basic_string@DU?$char_traits@D@std@@V?$allocator@D@2@@std@@@2@@std@@QAEXI@Z 004098c0 f i Main.obj
 0001:00008a30       ?capacity@?$vector@V?$basic_string@DU?$char_traits@D@std@@V?$allocator@D@2@@std@@V?$allocator@V?$basic_string@DU?$char_traits@D@std@@V?$allocator@D@2@@std@@@2@@std@@QBEIXZ 00409a30 f i Main.obj
 0001:00008a60       ?max_size@?$vector@V?$basic_string@DU?$char_traits@D@std@@V?$allocator@D@2@@std@@V?$allocator@V?$basic_string@DU?$char_traits@D@std@@V?$allocator@D@2@@std@@@2@@std@@QBEIXZ 00409a60 f i Main.obj
 0001:00008a90       ?_Grow_to@?$vector@V?$basic_string@DU?$char_traits@D@std@@V?$allocator@D@2@@std@@V?$allocator@V?$basic_string@DU?$char_traits@D@std@@V?$allocator@D@2@@std@@@2@@std@@IBEII@Z 00409a90 f i Main.obj
 0001:00008b10       ?_Xlen@?$vector@V?$basic_string@DU?$char_traits@D@std@@V?$allocator@D@2@@std@@V?$allocator@V?$basic_string@DU?$char_traits@D@std@@V?$allocator@D@2@@std@@@2@@std@@IBEXXZ 00409b10 f i Main.obj
 0001:00008b40       ?deallocate@?$allocator@V?$basic_string@DU?$char_traits@D@std@@V?$allocator@D@2@@std@@@std@@QAEXPAV?$basic_string@DU?$char_traits@D@std@@V?$allocator@D@2@@2@I@Z 00409b40 f i Main.obj
 0001:00008b70       ?_Init@?$basic_stringbuf@DU?$char_traits@D@std@@V?$allocator@D@2@@std@@IAEXPBDIH@Z 00409b70 f i Main.obj
 0001:00008c90       ?_Getstate@?$basic_stringbuf@DU?$char_traits@D@std@@V?$allocator@D@2@@std@@AAEHH@Z 00409c90 f i Main.obj
 0001:00008d00       ??0?$_Vector_const_iterator@V?$_Vector_val@V?$basic_string@DU?$char_traits@D@std@@V?$allocator@D@2@@std@@V?$allocator@V?$basic_string@DU?$char_traits@D@std@@V?$allocator@D@2@@std@@@2@@std@@@std@@QAE@PAV?$basic_string@DU?$char_traits@D@std@@V?$allocator@D@2@@1@PBU_Container_base12@1@@Z 00409d00 f i Main.obj
 0001:00008d80       ??Y?$_Vector_const_iterator@V?$_Vector_val@V?$basic_string@DU?$char_traits@D@std@@V?$allocator@D@2@@std@@V?$allocator@V?$basic_string@DU?$char_traits@D@std@@V?$allocator@D@2@@std@@@2@@std@@@std@@QAEAAV01@H@Z 00409d80 f i Main.obj
 0001:00008e60       ??9?$_Vector_const_iterator@V?$_Vector_val@V?$basic_string@DU?$char_traits@D@std@@V?$allocator@D@2@@std@@V?$allocator@V?$basic_string@DU?$char_traits@D@std@@V?$allocator@D@2@@std@@@2@@std@@@std@@QBE_NABV01@@Z 00409e60 f i Main.obj
 0001:00008ea0       ??M?$_Vector_const_iterator@V?$_Vector_val@V?$basic_string@DU?$char_traits@D@std@@V?$allocator@D@2@@std@@V?$allocator@V?$basic_string@DU?$char_traits@D@std@@V?$allocator@D@2@@std@@@2@@std@@@std@@QBE_NABV01@@Z 00409ea0 f i Main.obj
 0001:00008ee0       ??0_Sentry_base@?$basic_ostream@DU?$char_traits@D@std@@@std@@QAE@AAV12@@Z 00409ee0 f i Main.obj
 0001:00008f60       ??1_Sentry_base@?$basic_ostream@DU?$char_traits@D@std@@@std@@QAE@XZ 00409f60 f i Main.obj
 0001:00008fd0       ?deallocate@?$allocator@U_Container_proxy@std@@@std@@QAEXPAU_Container_proxy@2@I@Z 00409fd0 f i Main.obj
 0001:00009000       ?allocate@?$allocator@U_Container_proxy@std@@@std@@QAEPAU_Container_proxy@2@I@Z 0040a000 f i Main.obj
 0001:00009030       ??0?$_Iterator012@Urandom_access_iterator_tag@std@@V?$basic_string@DU?$char_traits@D@std@@V?$allocator@D@2@@2@HPBV32@ABV32@U_Iterator_base12@2@@std@@QAE@XZ 0040a030 f i Main.obj
 0001:00009060       ??0_Iterator_base12@std@@QAE@XZ 0040a060 f i Main.obj
 0001:00009090       ?assign@?$basic_string@DU?$char_traits@D@std@@V?$allocator@D@2@@std@@QAEAAV12@ABV12@@Z 0040a090 f i Main.obj
 0001:000090d0       ?assign@?$basic_string@DU?$char_traits@D@std@@V?$allocator@D@2@@std@@QAEAAV12@ABV12@II@Z 0040a0d0 f i Main.obj
 0001:000091a0       ?size@?$basic_string@DU?$char_traits@D@std@@V?$allocator@D@2@@std@@QBEIXZ 0040a1a0 f i Main.obj
 0001:000091c0       ?_Xran@?$basic_string@DU?$char_traits@D@std@@V?$allocator@D@2@@std@@QBEXXZ 0040a1c0 f i Main.obj
 0001:000091f0       ?_Grow@?$basic_string@DU?$char_traits@D@std@@V?$allocator@D@2@@std@@QAE_NI_N@Z 0040a1f0 f i Main.obj
 0001:000092a0       ?_Inside@?$basic_string@DU?$char_traits@D@std@@V?$allocator@D@2@@std@@QAE_NPBD@Z 0040a2a0 f i Main.obj
 0001:000092f0       ?_Xlen@?$basic_string@DU?$char_traits@D@std@@V?$allocator@D@2@@std@@QBEXXZ 0040a2f0 f i Main.obj
 0001:00009320       ?init@?$basic_ios@DU?$char_traits@D@std@@@std@@IAEXPAV?$basic_streambuf@DU?$char_traits@D@std@@@2@_N@Z 0040a320 f i Main.obj
 0001:000093a0       ?_Init@ios_base@std@@IAEXXZ 0040a3a0 f i Main.obj
 0001:00009480       ?clear@ios_base@std@@QAEXH@Z 0040a480 f i Main.obj
 0001:000094b0       ?_Init@?$basic_streambuf@DU?$char_traits@D@std@@@std@@IAEXXZ 0040a4b0 f i Main.obj
 0001:00009530       ?allocate@?$allocator@V?$basic_string@DU?$char_traits@D@std@@V?$allocator@D@2@@std@@@std@@QAEPAV?$basic_string@DU?$char_traits@D@std@@V?$allocator@D@2@@2@I@Z 0040a530 f i Main.obj
 0001:00009560       ?max_size@?$allocator@V?$basic_string@DU?$char_traits@D@std@@V?$allocator@D@2@@std@@@std@@QBEIXZ 0040a560 f i Main.obj
 0001:000095b0       ??8?$_Vector_const_iterator@V?$_Vector_val@V?$basic_string@DU?$char_traits@D@std@@V?$allocator@D@2@@std@@V?$allocator@V?$basic_string@DU?$char_traits@D@std@@V?$allocator@D@2@@std@@@2@@std@@@std@@QBE_NABV01@@Z 0040a5b0 f i Main.obj
 0001:000095f0       ?_Compat@?$_Vector_const_iterator@V?$_Vector_val@V?$basic_string@DU?$char_traits@D@std@@V?$allocator@D@2@@std@@V?$allocator@V?$basic_string@DU?$char_traits@D@std@@V?$allocator@D@2@@std@@@2@@std@@@std@@QBEXABV12@@Z 0040a5f0 f i Main.obj
 0001:000096a0       ?erase@?$basic_string@DU?$char_traits@D@std@@V?$allocator@D@2@@std@@QAEAAV12@II@Z 0040a6a0 f i Main.obj
 0001:00009750       ?max_size@?$basic_string@DU?$char_traits@D@std@@V?$allocator@D@2@@std@@QBEIXZ 0040a750 f i Main.obj
 0001:000097b0       ?_Copy@?$basic_string@DU?$char_traits@D@std@@V?$allocator@D@2@@std@@QAEXII@Z 0040a7b0 f i Main.obj
 0001:00009960       ?widen@?$basic_ios@DU?$char_traits@D@std@@@std@@QBEDD@Z 0040a960 f i Main.obj
 0001:00009a00       ?widen@?$ctype@D@std@@QBEDD@Z 0040aa00 f i Main.obj
 0001:00009a40       ?max_size@?$allocator@D@std@@QBEIXZ 0040aa40 f i Main.obj
 0001:00009a90       ??$_DebugHeapDelete@Vfacet@locale@std@@@std@@YAXPAVfacet@locale@0@@Z 0040aa90 f i Main.obj
 0001:00009ad0       ??$use_facet@V?$ctype@D@std@@@std@@YAABV?$ctype@D@0@ABVlocale@0@@Z 0040aad0 f i Main.obj
 0001:00009c20       ??Bid@locale@std@@QAEIXZ   0040ac20 f i Main.obj
 0001:00009cc0       ?_Register@facet@locale@std@@QAEXXZ 0040acc0 f i Main.obj
 0001:00009cf0       ?_Getfacet@locale@std@@QBEPBVfacet@12@I@Z 0040acf0 f i Main.obj
 0001:00009da0       ?_Getcat@?$ctype@D@std@@SAIPAPBVfacet@locale@2@PBV42@@Z 0040ada0 f i Main.obj
 0001:00009ec0       ??0_Locinfo@std@@QAE@PBD@Z 0040aec0 f i Main.obj
 0001:00009fa0       ??1_Locinfo@std@@QAE@XZ    0040afa0 f i Main.obj
 0001:0000a050       ??2facet@locale@std@@SAPAXIABU_DebugHeapTag_t@2@PADH@Z 0040b050 f i Main.obj
 0001:0000a080       ??3facet@locale@std@@SAXPAXABU_DebugHeapTag_t@2@PADH@Z 0040b080 f i Main.obj
 0001:0000a0a0       ??3facet@locale@std@@SAXPAX@Z 0040b0a0 f i Main.obj
 0001:0000a0c0       ?c_str@locale@std@@QBEPBDXZ 0040b0c0 f i Main.obj
 0001:0000a0f0       ??0?$ctype@D@std@@QAE@ABV_Locinfo@1@I@Z 0040b0f0 f i Main.obj
 0001:0000a170       ??0ctype_base@std@@QAE@I@Z 0040b170 f i Main.obj
 0001:0000a1b0       ??0facet@locale@std@@IAE@I@Z 0040b1b0 f i Main.obj
 0001:0000a1e0       ??_Gfacet@locale@std@@UAEPAXI@Z 0040b1e0 f i Main.obj
 0001:0000a1e0       ??_Efacet@locale@std@@UAEPAXI@Z 0040b1e0 f i Main.obj
 0001:0000a220       ??1facet@locale@std@@UAE@XZ 0040b220 f i Main.obj
 0001:0000a240       ??1ctype_base@std@@UAE@XZ  0040b240 f i Main.obj
 0001:0000a270       ??_Ectype_base@std@@UAEPAXI@Z 0040b270 f i Main.obj
 0001:0000a270       ??_Gctype_base@std@@UAEPAXI@Z 0040b270 f i Main.obj
 0001:0000a2b0       ?_Init@?$ctype@D@std@@IAEXABV_Locinfo@2@@Z 0040b2b0 f i Main.obj
 0001:0000a310       ?_Getctype@_Locinfo@std@@QBE?AU_Ctypevec@@XZ 0040b310 f i Main.obj
 0001:0000a390       ?do_tolower@?$ctype@D@std@@MBEDD@Z 0040b390 f i Main.obj
 0001:0000a3d0       ?do_tolower@?$ctype@D@std@@MBEPBDPADPBD@Z 0040b3d0 f i Main.obj
 0001:0000a440       ?do_toupper@?$ctype@D@std@@MBEDD@Z 0040b440 f i Main.obj
 0001:0000a480       ?do_toupper@?$ctype@D@std@@MBEPBDPADPBD@Z 0040b480 f i Main.obj
 0001:0000a4f0       ?do_widen@?$ctype@D@std@@MBEDD@Z 0040b4f0 f i Main.obj
 0001:0000a510       ?do_widen@?$ctype@D@std@@MBEPBDPBD0PAD@Z 0040b510 f i Main.obj
 0001:0000a580       ?do_narrow@?$ctype@D@std@@MBEDDD@Z 0040b580 f i Main.obj
 0001:0000a5a0       ?do_narrow@?$ctype@D@std@@MBEPBDPBD0DPAD@Z 0040b5a0 f i Main.obj
 0001:0000a610       ??_G?$ctype@D@std@@MAEPAXI@Z 0040b610 f i Main.obj
 0001:0000a610       ??_E?$ctype@D@std@@MAEPAXI@Z 0040b610 f i Main.obj
 0001:0000a650       ??1?$ctype@D@std@@MAE@XZ   0040b650 f i Main.obj
 0001:0000a6c0       ?_Tidy@?$ctype@D@std@@IAEXXZ 0040b6c0 f i Main.obj
 0001:0000a720       ??0?$_Yarn@D@std@@QAE@XZ   0040b720 f i Main.obj
 0001:0000a750       ??1?$_Yarn@D@std@@QAE@XZ   0040b750 f i Main.obj
 0001:0000a780       ?c_str@?$_Yarn@D@std@@QBEPBDXZ 0040b780 f i Main.obj
 0001:0000a7c0       ?_Tidy@?$_Yarn@D@std@@AAEXXZ 0040b7c0 f i Main.obj
 0001:0000a800       ??$_Debug_range@PBD@std@@YAXPBD0PB_WI@Z 0040b800 f i Main.obj
 0001:0000a850       ??$_Debug_pointer@D@std@@YAXPADPB_WI@Z 0040b850 f i Main.obj
 0001:0000a880       ??$?6U?$char_traits@D@std@@@std@@YAAAV?$basic_ostream@DU?$char_traits@D@std@@@0@AAV10@PBD@Z 0040b880 f i Main.obj
 0001:0000ac20       ?length@?$char_traits@D@std@@SAIPBD@Z 0040bc20 f i Main.obj
 0001:0000ac40       ?width@ios_base@std@@QBE_JXZ 0040bc40 f i Main.obj
 0001:0000ac60       ?width@ios_base@std@@QAE_J_J@Z 0040bc60 f i Main.obj
 0001:0000acb0       ?sputc@?$basic_streambuf@DU?$char_traits@D@std@@@std@@QAEHD@Z 0040bcb0 f i Main.obj
 0001:0000ad50       ??$forward@V?$allocator@D@std@@@std@@YA$$QAV?$allocator@D@0@AAV10@@Z 0040bd50 f i Main.obj
 0001:0000ad60       ??$forward@V?$basic_string@DU?$char_traits@D@std@@V?$allocator@D@2@@std@@@std@@YA$$QAV?$basic_string@DU?$char_traits@D@std@@V?$allocator@D@2@@0@AAV10@@Z 0040bd60 f i Main.obj
 0001:0000ad70       ??$_Debug_pointer@D@std@@YAXPBDPB_WI@Z 0040bd70 f i Main.obj
 0001:0000ada0       ??$use_facet@V?$num_put@DV?$ostreambuf_iterator@DU?$char_traits@D@std@@@std@@@std@@@std@@YAABV?$num_put@DV?$ostreambuf_iterator@DU?$char_traits@D@std@@@std@@@0@ABVlocale@0@@Z 0040bda0 f i Main.obj
 0001:0000aef0       ??$_DebugHeapDelete@Vlocale@std@@@std@@YAXPAVlocale@0@@Z 0040bef0 f i Main.obj
 0001:0000af20       ??$addressof@V?$basic_string@DU?$char_traits@D@std@@V?$allocator@D@2@@std@@@std@@YAPAV?$basic_string@DU?$char_traits@D@std@@V?$allocator@D@2@@0@AAV10@@Z 0040bf20 f i Main.obj
 0001:0000af30       ??$_Cons_val@V?$allocator@V?$basic_string@DU?$char_traits@D@std@@V?$allocator@D@2@@std@@@std@@V?$basic_string@DU?$char_traits@D@std@@V?$allocator@D@2@@2@V32@@std@@YAXAAV?$allocator@V?$basic_string@DU?$char_traits@D@std@@V?$allocator@D@2@@std@@@0@PAV?$basic_string@DU?$char_traits@D@std@@V?$allocator@D@2@@0@$$QAV20@@Z 0040bf30 f i Main.obj
 0001:0000af60       ??$_Uninitialized_default_fill_n@PAV?$basic_string@DU?$char_traits@D@std@@V?$allocator@D@2@@std@@IV12@V?$allocator@V?$basic_string@DU?$char_traits@D@std@@V?$allocator@D@2@@std@@@2@@std@@YAXPAV?$basic_string@DU?$char_traits@D@std@@V?$allocator@D@2@@0@IPBV10@AAV?$allocator@V?$basic_string@DU?$char_traits@D@std@@V?$allocator@D@2@@std@@@0@@Z 0040bf60 f i Main.obj
 0001:0000afc0       ??$_Move@PAV?$basic_string@DU?$char_traits@D@std@@V?$allocator@D@2@@std@@PAV12@@std@@YAPAV?$basic_string@DU?$char_traits@D@std@@V?$allocator@D@2@@0@PAV10@00@Z 0040bfc0 f i Main.obj
 0001:0000b010       ??$?9DD@std@@YA_NABV?$allocator@D@0@0@Z 0040c010 f i Main.obj
 0001:0000b040       ??$?0D@?$allocator@U_Container_proxy@std@@@std@@QAE@ABV?$allocator@D@1@@Z 0040c040 f i Main.obj
 0001:0000b060       ??$_Cons_val@V?$allocator@U_Container_proxy@std@@@std@@U_Container_proxy@2@U32@@std@@YAXAAV?$allocator@U_Container_proxy@std@@@0@PAU_Container_proxy@0@$$QAU20@@Z 0040c060 f i Main.obj
 0001:0000b090       ??$_Dest_val@V?$allocator@U_Container_proxy@std@@@std@@U_Container_proxy@2@@std@@YAXAAV?$allocator@U_Container_proxy@std@@@0@PAU_Container_proxy@0@@Z 0040c090 f i Main.obj
 0001:0000b0b0       ??$_Allocate@D@std@@YAPADIPAD@Z 0040c0b0 f i Main.obj
 0001:0000b130       ??0bad_alloc@std@@QAE@PBD@Z 0040c130 f i Main.obj
 0001:0000b170       ??1bad_alloc@std@@UAE@XZ   0040c170 f i Main.obj
 0001:0000b1a0       ??_Gbad_alloc@std@@UAEPAXI@Z 0040c1a0 f i Main.obj
 0001:0000b1a0       ??_Ebad_alloc@std@@UAEPAXI@Z 0040c1a0 f i Main.obj
 0001:0000b1e0       ??$_Destroy_range@V?$allocator@V?$basic_string@DU?$char_traits@D@std@@V?$allocator@D@2@@std@@@std@@@std@@YAXPAV?$basic_string@DU?$char_traits@D@std@@V?$allocator@D@2@@0@0AAV?$allocator@V?$basic_string@DU?$char_traits@D@std@@V?$allocator@D@2@@std@@@0@@Z 0040c1e0 f i Main.obj
 0001:0000b230       ??$_Umove@PAV?$basic_string@DU?$char_traits@D@std@@V?$allocator@D@2@@std@@@?$vector@V?$basic_string@DU?$char_traits@D@std@@V?$allocator@D@2@@std@@V?$allocator@V?$basic_string@DU?$char_traits@D@std@@V?$allocator@D@2@@std@@@2@@std@@IAEPAV?$basic_string@DU?$char_traits@D@std@@V?$allocator@D@2@@1@PAV21@00@Z 0040c230 f i Main.obj
 0001:0000b270       ??$_Allocate@U_Container_proxy@std@@@std@@YAPAU_Container_proxy@0@IPAU10@@Z 0040c270 f i Main.obj
 0001:0000b2f0       ??$_Allocate@V?$basic_string@DU?$char_traits@D@std@@V?$allocator@D@2@@std@@@std@@YAPAV?$basic_string@DU?$char_traits@D@std@@V?$allocator@D@2@@0@IPAV10@@Z 0040c2f0 f i Main.obj
 0001:0000b370       ??_Glocale@std@@QAEPAXI@Z  0040c370 f i Main.obj
 0001:0000b3b0       ??0bad_alloc@std@@QAE@ABV01@@Z 0040c3b0 f i Main.obj
 0001:0000b3f0       ?sputn@?$basic_streambuf@DU?$char_traits@D@std@@@std@@QAE_JPBD_J@Z 0040c3f0 f i Main.obj
 0001:0000b440       ?construct@?$allocator@V?$basic_string@DU?$char_traits@D@std@@V?$allocator@D@2@@std@@@std@@QAEXPAV?$basic_string@DU?$char_traits@D@std@@V?$allocator@D@2@@2@$$QAV32@@Z 0040c440 f i Main.obj
 0001:0000b4e0       ??2@YAPAXIPAX@Z            0040c4e0 f i Main.obj
 0001:0000b4f0       ??3@YAXPAX0@Z              0040c4f0 f i Main.obj
 0001:0000b500       ?_Getcat@?$num_put@DV?$ostreambuf_iterator@DU?$char_traits@D@std@@@std@@@std@@SAIPAPBVfacet@locale@2@PBV42@@Z 0040c500 f i Main.obj
 0001:0000b620       ?construct@?$allocator@U_Container_proxy@std@@@std@@QAEXPAU_Container_proxy@2@$$QAU32@@Z 0040c620 f i Main.obj
 0001:0000b6d0       ?destroy@?$allocator@U_Container_proxy@std@@@std@@QAEXPAU_Container_proxy@2@@Z 0040c6d0 f i Main.obj
 0001:0000b700       ??0?$num_put@DV?$ostreambuf_iterator@DU?$char_traits@D@std@@@std@@@std@@QAE@ABV_Locinfo@1@I@Z 0040c700 f i Main.obj
 0001:0000b780       ?do_put@?$num_put@DV?$ostreambuf_iterator@DU?$char_traits@D@std@@@std@@@std@@MBE?AV?$ostreambuf_iterator@DU?$char_traits@D@std@@@2@V32@AAVios_base@2@D_N@Z 0040c780 f i Main.obj
 0001:0000baa0       ?do_put@?$num_put@DV?$ostreambuf_iterator@DU?$char_traits@D@std@@@std@@@std@@MBE?AV?$ostreambuf_iterator@DU?$char_traits@D@std@@@2@V32@AAVios_base@2@DJ@Z 0040caa0 f i Main.obj
 0001:0000bb80       ?do_put@?$num_put@DV?$ostreambuf_iterator@DU?$char_traits@D@std@@@std@@@std@@MBE?AV?$ostreambuf_iterator@DU?$char_traits@D@std@@@2@V32@AAVios_base@2@DK@Z 0040cb80 f i Main.obj
 0001:0000bc60       ?do_put@?$num_put@DV?$ostreambuf_iterator@DU?$char_traits@D@std@@@std@@@std@@MBE?AV?$ostreambuf_iterator@DU?$char_traits@D@std@@@2@V32@AAVios_base@2@D_J@Z 0040cc60 f i Main.obj
 0001:0000bd40       ?do_put@?$num_put@DV?$ostreambuf_iterator@DU?$char_traits@D@std@@@std@@@std@@MBE?AV?$ostreambuf_iterator@DU?$char_traits@D@std@@@2@V32@AAVios_base@2@D_K@Z 0040cd40 f i Main.obj
 0001:0000be20       ?do_put@?$num_put@DV?$ostreambuf_iterator@DU?$char_traits@D@std@@@std@@@std@@MBE?AV?$ostreambuf_iterator@DU?$char_traits@D@std@@@2@V32@AAVios_base@2@DN@Z 0040ce20 f i Main.obj
 0001:0000c150       ?precision@ios_base@std@@QBE_JXZ 0040d150 f i Main.obj
 0001:0000c170       ?do_put@?$num_put@DV?$ostreambuf_iterator@DU?$char_traits@D@std@@@std@@@std@@MBE?AV?$ostreambuf_iterator@DU?$char_traits@D@std@@@2@V32@AAVios_base@2@DO@Z 0040d170 f i Main.obj
 0001:0000c480       ?do_put@?$num_put@DV?$ostreambuf_iterator@DU?$char_traits@D@std@@@std@@@std@@MBE?AV?$ostreambuf_iterator@DU?$char_traits@D@std@@@2@V32@AAVios_base@2@DPBX@Z 0040d480 f i Main.obj
 0001:0000c530       ??_G?$num_put@DV?$ostreambuf_iterator@DU?$char_traits@D@std@@@std@@@std@@MAEPAXI@Z 0040d530 f i Main.obj
 0001:0000c530       ??_E?$num_put@DV?$ostreambuf_iterator@DU?$char_traits@D@std@@@std@@@std@@MAEPAXI@Z 0040d530 f i Main.obj
 0001:0000c570       ??1?$num_put@DV?$ostreambuf_iterator@DU?$char_traits@D@std@@@std@@@std@@MAE@XZ 0040d570 f i Main.obj
 0001:0000c5a0       ?_Ffmt@?$num_put@DV?$ostreambuf_iterator@DU?$char_traits@D@std@@@std@@@std@@ABAPADPADDH@Z 0040d5a0 f i Main.obj
 0001:0000c6a0       ?_Fput@?$num_put@DV?$ostreambuf_iterator@DU?$char_traits@D@std@@@std@@@std@@ABA?AV?$ostreambuf_iterator@DU?$char_traits@D@std@@@2@V32@AAVios_base@2@DPBDIIII@Z 0040d6a0 f i Main.obj
 0001:0000ce80       ?insert@?$basic_string@DU?$char_traits@D@std@@V?$allocator@D@2@@std@@QAEAAV12@IID@Z 0040de80 f i Main.obj
 0001:0000cf50       ?_Ifmt@?$num_put@DV?$ostreambuf_iterator@DU?$char_traits@D@std@@@std@@@std@@ABAPADPADPBDH@Z 0040df50 f i Main.obj
 0001:0000d060       ?_Iput@?$num_put@DV?$ostreambuf_iterator@DU?$char_traits@D@std@@@std@@@std@@ABA?AV?$ostreambuf_iterator@DU?$char_traits@D@std@@@2@V32@AAVios_base@2@DPADI@Z 0040e060 f i Main.obj
 0001:0000d430       ?_Put@?$num_put@DV?$ostreambuf_iterator@DU?$char_traits@D@std@@@std@@@std@@ABA?AV?$ostreambuf_iterator@DU?$char_traits@D@std@@@2@V32@PBDI@Z 0040e430 f i Main.obj
 0001:0000d490       ?_Rep@?$num_put@DV?$ostreambuf_iterator@DU?$char_traits@D@std@@@std@@@std@@ABA?AV?$ostreambuf_iterator@DU?$char_traits@D@std@@@2@V32@DI@Z 0040e490 f i Main.obj
 0001:0000d4e0       ?falsename@?$numpunct@D@std@@QBE?AV?$basic_string@DU?$char_traits@D@std@@V?$allocator@D@2@@2@XZ 0040e4e0 f i Main.obj
 0001:0000d540       ?truename@?$numpunct@D@std@@QBE?AV?$basic_string@DU?$char_traits@D@std@@V?$allocator@D@2@@2@XZ 0040e540 f i Main.obj
 0001:0000d5a0       ?append@?$basic_string@DU?$char_traits@D@std@@V?$allocator@D@2@@std@@QAEAAV12@PBDI@Z 0040e5a0 f i Main.obj
 0001:0000d690       ?append@?$basic_string@DU?$char_traits@D@std@@V?$allocator@D@2@@std@@QAEAAV12@ID@Z 0040e690 f i Main.obj
 0001:0000d720       ??A?$basic_string@DU?$char_traits@D@std@@V?$allocator@D@2@@std@@QAEAADI@Z 0040e720 f i Main.obj
 0001:0000d770       ?_Chassign@?$basic_string@DU?$char_traits@D@std@@V?$allocator@D@2@@std@@QAEXIID@Z 0040e770 f i Main.obj
 0001:0000d7d0       ?assign@?$char_traits@D@std@@SAPADPADID@Z 0040e7d0 f i Main.obj
 0001:0000d800       ?_Putc@?$num_put@DV?$ostreambuf_iterator@DU?$char_traits@D@std@@@std@@@std@@ABA?AV?$ostreambuf_iterator@DU?$char_traits@D@std@@@2@V32@PBDI@Z 0040e800 f i Main.obj
 0001:0000d870       ?_Putgrouped@?$num_put@DV?$ostreambuf_iterator@DU?$char_traits@D@std@@@std@@@std@@ABA?AV?$ostreambuf_iterator@DU?$char_traits@D@std@@@2@V32@PBDID@Z 0040e870 f i Main.obj
 0001:0000d970       ??4?$ostreambuf_iterator@DU?$char_traits@D@std@@@std@@QAEAAV01@D@Z 0040e970 f i Main.obj
 0001:0000d9f0       ??D?$ostreambuf_iterator@DU?$char_traits@D@std@@@std@@QAEAAV01@XZ 0040e9f0 f i Main.obj
 0001:0000da10       ??E?$ostreambuf_iterator@DU?$char_traits@D@std@@@std@@QAEAAV01@XZ 0040ea10 f i Main.obj
 0001:0000da30       ?decimal_point@?$numpunct@D@std@@QBEDXZ 0040ea30 f i Main.obj
 0001:0000da70       ?thousands_sep@?$numpunct@D@std@@QBEDXZ 0040ea70 f i Main.obj
 0001:0000dab0       ?grouping@?$numpunct@D@std@@QBE?AV?$basic_string@DU?$char_traits@D@std@@V?$allocator@D@2@@2@XZ 0040eab0 f i Main.obj
 0001:0000db10       ?append@?$basic_string@DU?$char_traits@D@std@@V?$allocator@D@2@@std@@QAEAAV12@ABV12@II@Z 0040eb10 f i Main.obj
 0001:0000dbe0       ??$_Debug_pointer@V?$ostreambuf_iterator@DU?$char_traits@D@std@@@std@@@std@@YAXAAV?$ostreambuf_iterator@DU?$char_traits@D@std@@@0@PB_WI@Z 0040ebe0 f i Main.obj
 0001:0000dbf0       ??$use_facet@V?$numpunct@D@std@@@std@@YAABV?$numpunct@D@0@ABVlocale@0@@Z 0040ebf0 f i Main.obj
 0001:0000dd40       ??$_Maklocchr@D@std@@YADDPADABU_Cvtvec@@@Z 0040ed40 f i Main.obj
 0001:0000dd50       ?_Getcat@?$numpunct@D@std@@SAIPAPBVfacet@locale@2@PBV42@@Z 0040ed50 f i Main.obj
 0001:0000de70       ??0?$numpunct@D@std@@QAE@ABV_Locinfo@1@I_N@Z 0040ee70 f i Main.obj
 0001:0000def0       ?do_decimal_point@?$numpunct@D@std@@MBEDXZ 0040eef0 f i Main.obj
 0001:0000df10       ?do_thousands_sep@?$numpunct@D@std@@MBEDXZ 0040ef10 f i Main.obj
 0001:0000df30       ?do_grouping@?$numpunct@D@std@@MBE?AV?$basic_string@DU?$char_traits@D@std@@V?$allocator@D@2@@2@XZ 0040ef30 f i Main.obj
 0001:0000df80       ??0?$basic_string@DU?$char_traits@D@std@@V?$allocator@D@2@@std@@QAE@PBD@Z 0040ef80 f i Main.obj
 0001:0000e010       ?assign@?$basic_string@DU?$char_traits@D@std@@V?$allocator@D@2@@std@@QAEAAV12@PBD@Z 0040f010 f i Main.obj
 0001:0000e060       ?do_falsename@?$numpunct@D@std@@MBE?AV?$basic_string@DU?$char_traits@D@std@@V?$allocator@D@2@@2@XZ 0040f060 f i Main.obj
 0001:0000e0b0       ?do_truename@?$numpunct@D@std@@MBE?AV?$basic_string@DU?$char_traits@D@std@@V?$allocator@D@2@@2@XZ 0040f0b0 f i Main.obj
 0001:0000e100       ??_G?$numpunct@D@std@@MAEPAXI@Z 0040f100 f i Main.obj
 0001:0000e100       ??_E?$numpunct@D@std@@MAEPAXI@Z 0040f100 f i Main.obj
 0001:0000e140       ??1?$numpunct@D@std@@MAE@XZ 0040f140 f i Main.obj
 0001:0000e1b0       ?_Tidy@?$numpunct@D@std@@AAEXXZ 0040f1b0 f i Main.obj
 0001:0000e200       ??$_DebugHeapDelete@X@std@@YAXPAX@Z 0040f200 f i Main.obj
 0001:0000e220       ?_Init@?$num_put@DV?$ostreambuf_iterator@DU?$char_traits@D@std@@@std@@@std@@IAEXABV_Locinfo@2@@Z 0040f220 f i Main.obj
 0001:0000e270       ?_Getcvt@_Locinfo@std@@QBE?AU_Cvtvec@@XZ 0040f270 f i Main.obj
 0001:0000e2c0       ?_Init@?$numpunct@D@std@@IAEXABV_Locinfo@2@_N@Z 0040f2c0 f i Main.obj
 0001:0000e4c0       ?_Getlconv@_Locinfo@std@@QBEPBUlconv@@XZ 0040f4c0 f i Main.obj
 0001:0000e4f0       ?_Getfalse@_Locinfo@std@@QBEPBDXZ 0040f4f0 f i Main.obj
 0001:0000e510       ?_Gettrue@_Locinfo@std@@QBEPBDXZ 0040f510 f i Main.obj
 0001:0000e530       ??$_Iter_cat@PBD@std@@YA?AUrandom_access_iterator_tag@0@ABQBD@Z 0040f530 f i Main.obj
 0001:0000e590       ??$_Debug_range2@PBD@std@@YAXPBD0PB_WIUrandom_access_iterator_tag@0@@Z 0040f590 f i Main.obj
 0001:0000e5f0       ??$_Val_type@PAV?$basic_string@DU?$char_traits@D@std@@V?$allocator@D@2@@std@@@std@@YAPAV?$basic_string@DU?$char_traits@D@std@@V?$allocator@D@2@@0@PAV10@@Z 0040f5f0 f i Main.obj
 0001:0000e600       ??$_Ptr_cat@V?$basic_string@DU?$char_traits@D@std@@V?$allocator@D@2@@std@@V12@@std@@YA?AU_Nonscalar_ptr_iterator_tag@0@PAV?$basic_string@DU?$char_traits@D@std@@V?$allocator@D@2@@0@0@Z 0040f600 f i Main.obj
 0001:0000e650       ??$_Uninit_def_fill_n@PAV?$basic_string@DU?$char_traits@D@std@@V?$allocator@D@2@@std@@IV12@V?$allocator@V?$basic_string@DU?$char_traits@D@std@@V?$allocator@D@2@@std@@@2@V12@@std@@YAXPAV?$basic_string@DU?$char_traits@D@std@@V?$allocator@D@2@@0@IPBV10@AAV?$allocator@V?$basic_string@DU?$char_traits@D@std@@V?$allocator@D@2@@std@@@0@0U_Nonscalar_ptr_iterator_tag@0@@Z 0040f650 f i Main.obj
 0001:0000e760       ??$_Move@PAV?$basic_string@DU?$char_traits@D@std@@V?$allocator@D@2@@std@@PAV12@@std@@YAPAV?$basic_string@DU?$char_traits@D@std@@V?$allocator@D@2@@0@PAV10@00U_Nonscalar_ptr_iterator_tag@0@@Z 0040f760 f i Main.obj
 0001:0000e7b0       ??$?8DD@std@@YA_NABV?$allocator@D@0@0@Z 0040f7b0 f i Main.obj
 0001:0000e7c0       ??$forward@U_Container_proxy@std@@@std@@YA$$QAU_Container_proxy@0@AAU10@@Z 0040f7c0 f i Main.obj
 0001:0000e7d0       ??$_Destroy_range@V?$allocator@V?$basic_string@DU?$char_traits@D@std@@V?$allocator@D@2@@std@@@std@@@std@@YAXPAV?$basic_string@DU?$char_traits@D@std@@V?$allocator@D@2@@0@0AAV?$allocator@V?$basic_string@DU?$char_traits@D@std@@V?$allocator@D@2@@std@@@0@U_Nonscalar_ptr_iterator_tag@0@@Z 0040f7d0 f i Main.obj
 0001:0000e810       ??$_Uninitialized_move@PAV?$basic_string@DU?$char_traits@D@std@@V?$allocator@D@2@@std@@PAV12@V?$allocator@V?$basic_string@DU?$char_traits@D@std@@V?$allocator@D@2@@std@@@2@@std@@YAPAV?$basic_string@DU?$char_traits@D@std@@V?$allocator@D@2@@0@PAV10@00AAV?$allocator@V?$basic_string@DU?$char_traits@D@std@@V?$allocator@D@2@@std@@@0@@Z 0040f810 f i Main.obj
 0001:0000e870       ??$_Destroy@U_Container_proxy@std@@@std@@YAXPAU_Container_proxy@0@@Z 0040f870 f i Main.obj
 0001:0000e880       ??$_Maklocstr@D@std@@YAPADPBDPADABU_Cvtvec@@@Z 0040f880 f i Main.obj
 0001:0000e920       ??4?$basic_string@DU?$char_traits@D@std@@V?$allocator@D@2@@std@@QAEAAV01@$$QAV01@@Z 0040f920 f i Main.obj
 0001:0000e960       ??$_Dest_val@V?$allocator@V?$basic_string@DU?$char_traits@D@std@@V?$allocator@D@2@@std@@@std@@V?$basic_string@DU?$char_traits@D@std@@V?$allocator@D@2@@2@@std@@YAXAAV?$allocator@V?$basic_string@DU?$char_traits@D@std@@V?$allocator@D@2@@std@@@0@PAV?$basic_string@DU?$char_traits@D@std@@V?$allocator@D@2@@0@@Z 0040f960 f i Main.obj
 0001:0000e980       ??$move@AAV?$basic_string@DU?$char_traits@D@std@@V?$allocator@D@2@@std@@@std@@YA$$QAV?$basic_string@DU?$char_traits@D@std@@V?$allocator@D@2@@0@AAV10@@Z 0040f980 f i Main.obj
 0001:0000e990       ??$_Uninit_move@PAV?$basic_string@DU?$char_traits@D@std@@V?$allocator@D@2@@std@@PAV12@V?$allocator@V?$basic_string@DU?$char_traits@D@std@@V?$allocator@D@2@@std@@@2@V12@@std@@YAPAV?$basic_string@DU?$char_traits@D@std@@V?$allocator@D@2@@0@PAV10@00AAV?$allocator@V?$basic_string@DU?$char_traits@D@std@@V?$allocator@D@2@@std@@@0@0U_Nonscalar_ptr_iterator_tag@0@@Z 0040f990 f i Main.obj
 0001:0000eaa0       ?destroy@?$allocator@V?$basic_string@DU?$char_traits@D@std@@V?$allocator@D@2@@std@@@std@@QAEXPAV?$basic_string@DU?$char_traits@D@std@@V?$allocator@D@2@@2@@Z 0040faa0 f i Main.obj
 0001:0000ead0       ??$_Debug_range@PAV?$basic_string@DU?$char_traits@D@std@@V?$allocator@D@2@@std@@@std@@YAXPAV?$basic_string@DU?$char_traits@D@std@@V?$allocator@D@2@@0@0PB_WI@Z 0040fad0 f i Main.obj
 0001:0000eb20       ??$_Debug_pointer@V?$basic_string@DU?$char_traits@D@std@@V?$allocator@D@2@@std@@@std@@YAXPAV?$basic_string@DU?$char_traits@D@std@@V?$allocator@D@2@@0@PB_WI@Z 0040fb20 f i Main.obj
 0001:0000eb50       ??$_Destroy@V?$basic_string@DU?$char_traits@D@std@@V?$allocator@D@2@@std@@@std@@YAXPAV?$basic_string@DU?$char_traits@D@std@@V?$allocator@D@2@@0@@Z 0040fb50 f i Main.obj
 0001:0000eb70       ??_G?$basic_string@DU?$char_traits@D@std@@V?$allocator@D@2@@std@@QAEPAXI@Z 0040fb70 f i Main.obj
 0001:0000ebb0       ??$_Iter_cat@PAV?$basic_string@DU?$char_traits@D@std@@V?$allocator@D@2@@std@@@std@@YA?AUrandom_access_iterator_tag@0@ABQAV?$basic_string@DU?$char_traits@D@std@@V?$allocator@D@2@@0@@Z 0040fbb0 f i Main.obj
 0001:0000ec10       ??$_Debug_range2@PAV?$basic_string@DU?$char_traits@D@std@@V?$allocator@D@2@@std@@@std@@YAXPAV?$basic_string@DU?$char_traits@D@std@@V?$allocator@D@2@@0@0PB_WIUrandom_access_iterator_tag@0@@Z 0040fc10 f i Main.obj
 0001:0000ec70       ??0?$vector@V?$basic_string@DU?$char_traits@D@std@@V?$allocator@D@2@@std@@V?$allocator@V?$basic_string@DU?$char_traits@D@std@@V?$allocator@D@2@@std@@@2@@std@@QAE@XZ 0040fc70 f i Main.obj
 0001:0000ecb0       ??0?$_Vector_val@V?$basic_string@DU?$char_traits@D@std@@V?$allocator@D@2@@std@@V?$allocator@V?$basic_string@DU?$char_traits@D@std@@V?$allocator@D@2@@std@@@2@@std@@QAE@V?$allocator@V?$basic_string@DU?$char_traits@D@std@@V?$allocator@D@2@@std@@@1@@Z 0040fcb0 f i Main.obj
 0001:0000edd0       ??0?$allocator@V?$basic_string@DU?$char_traits@D@std@@V?$allocator@D@2@@std@@@std@@QAE@XZ 0040fdd0 f i Main.obj
 0001:0000edf0       ??0?$allocator@V?$basic_string@DU?$char_traits@D@std@@V?$allocator@D@2@@std@@@std@@QAE@ABV01@@Z 0040fdf0 f i Main.obj
 0001:0000ee10       ??$?0V?$basic_string@DU?$char_traits@D@std@@V?$allocator@D@2@@std@@@?$allocator@U_Container_proxy@std@@@std@@QAE@ABV?$allocator@V?$basic_string@DU?$char_traits@D@std@@V?$allocator@D@2@@std@@@1@@Z 0040fe10 f i Main.obj
 0001:0000ee30       ??0id@locale@std@@QAE@I@Z  0040fe30 f i Main.obj
 0001:0000ee50       ??1?$vector@V?$basic_string@DU?$char_traits@D@std@@V?$allocator@D@2@@std@@V?$allocator@V?$basic_string@DU?$char_traits@D@std@@V?$allocator@D@2@@std@@@2@@std@@QAE@XZ 0040fe50 f i Main.obj
 0001:0000eec0       ?_Tidy@?$vector@V?$basic_string@DU?$char_traits@D@std@@V?$allocator@D@2@@std@@V?$allocator@V?$basic_string@DU?$char_traits@D@std@@V?$allocator@D@2@@std@@@2@@std@@IAEXXZ 0040fec0 f i Main.obj
 0001:0000ef50       ??1?$_Vector_val@V?$basic_string@DU?$char_traits@D@std@@V?$allocator@D@2@@std@@V?$allocator@V?$basic_string@DU?$char_traits@D@std@@V?$allocator@D@2@@std@@@2@@std@@QAE@XZ 0040ff50 f i Main.obj
 0001:0000f02a       _MultiByteToWideChar@24    0041002a f   kernel32:KERNEL32.dll
 0001:0000f030       _CreateThread@24           00410030 f   kernel32:KERNEL32.dll
 0001:0000f036       _Sleep@4                   00410036 f   kernel32:KERNEL32.dll
 0001:0000f03c       _ShowWindow@8              0041003c f   user32:USER32.dll
 0001:0000f042       _ClientToScreen@8          00410042 f   user32:USER32.dll
 0001:0000f048       _MessageBoxW@16            00410048 f   user32:USER32.dll
 0001:0000f04e       _PostQuitMessage@4         0041004e f   user32:USER32.dll
 0001:0000f054       _SendMessageW@16           00410054 f   user32:USER32.dll
 0001:0000f05a       _GetParent@4               0041005a f   user32:USER32.dll
 0001:0000f060       _IsIconic@4                00410060 f   user32:USER32.dll
 0001:0000f066       _KillTimer@8               00410066 f   user32:USER32.dll
 0001:0000f06c       _SetTimer@16               0041006c f   user32:USER32.dll
 0001:0000f072       _ReleaseDC@8               00410072 f   user32:USER32.dll
 0001:0000f078       _UpdateLayeredWindow@36    00410078 f   user32:USER32.dll
 0001:0000f07e       _GetWindowRect@8           0041007e f   user32:USER32.dll
 0001:0000f084       _GetDC@4                   00410084 f   user32:USER32.dll
 0001:0000f08a       _GetClientRect@8           0041008a f   user32:USER32.dll
 0001:0000f090       _SetWindowPos@28           00410090 f   user32:USER32.dll
 0001:0000f096       _GetMonitorInfoW@8         00410096 f   user32:USER32.dll
 0001:0000f09c       _MonitorFromWindow@8       0041009c f   user32:USER32.dll
 0001:0000f0a2       _SetFocus@4                004100a2 f   user32:USER32.dll
 0001:0000f0a8       _SetWindowRgn@12           004100a8 f   user32:USER32.dll
 0001:0000f0ae       _PostMessageW@16           004100ae f   user32:USER32.dll
 0001:0000f0b4       _SetWindowLongW@12         004100b4 f   user32:USER32.dll
 0001:0000f0ba       _GetWindowLongW@8          004100ba f   user32:USER32.dll
 0001:0000f0c0       _IsZoomed@4                004100c0 f   user32:USER32.dll
 0001:0000f0c6       _ScreenToClient@8          004100c6 f   user32:USER32.dll
 0001:0000f0cc       _DeleteObject@4            004100cc f   gdi32:GDI32.dll
 0001:0000f0d2       _DeleteDC@4                004100d2 f   gdi32:GDI32.dll
 0001:0000f0d8       _SelectObject@8            004100d8 f   gdi32:GDI32.dll
 0001:0000f0de       _CreateCompatibleDC@4      004100de f   gdi32:GDI32.dll
 0001:0000f0e4       _CreateDIBSection@24       004100e4 f   gdi32:GDI32.dll
 0001:0000f0ea       _CreateRectRgn@16          004100ea f   gdi32:GDI32.dll
 0001:0000f0f0       _CombineRgn@16             004100f0 f   gdi32:GDI32.dll
 0001:0000f0f6       _CreateRoundRectRgn@24     004100f6 f   gdi32:GDI32.dll
 0001:0000f0fc       _CreateRectRgnIndirect@4   004100fc f   gdi32:GDI32.dll
 0001:0000f102       ?MessageLoop@CPaintManagerUI@DuiLib@@SAXXZ 00410102 f   DuiLib_ud:DuiLib_ud.dll
 0001:0000f108       ??BCWindowWnd@DuiLib@@QBEPAUHWND__@@XZ 00410108 f   DuiLib_ud:DuiLib_ud.dll
 0001:0000f10e       ?CenterWindow@CWindowWnd@DuiLib@@QAEXXZ 0041010e f   DuiLib_ud:DuiLib_ud.dll
 0001:0000f114       ?Create@CWindowWnd@DuiLib@@QAEPAUHWND__@@PAU3@PB_WKKHHHHPAUHMENU__@@@Z 00410114 f   DuiLib_ud:DuiLib_ud.dll
 0001:0000f11a       ?SetResourceZip@CPaintManagerUI@DuiLib@@SAXPB_W_N@Z 0041011a f   DuiLib_ud:DuiLib_ud.dll
 0001:0000f120       ??1CDuiString@DuiLib@@QAE@XZ 00410120 f   DuiLib_ud:DuiLib_ud.dll
 0001:0000f126       ?SetResourcePath@CPaintManagerUI@DuiLib@@SAXPB_W@Z 00410126 f   DuiLib_ud:DuiLib_ud.dll
 0001:0000f12c       ??BCDuiString@DuiLib@@QBEPB_WXZ 0041012c f   DuiLib_ud:DuiLib_ud.dll
 0001:0000f132       ??HCDuiString@DuiLib@@QBE?AV01@PB_W@Z 00410132 f   DuiLib_ud:DuiLib_ud.dll
 0001:0000f138       ?GetInstancePath@CPaintManagerUI@DuiLib@@SA?AVCDuiString@2@XZ 00410138 f   DuiLib_ud:DuiLib_ud.dll
 0001:0000f13e       ?SetInstance@CPaintManagerUI@DuiLib@@SAXPAUHINSTANCE__@@@Z 0041013e f   DuiLib_ud:DuiLib_ud.dll
 0001:0000f144       ??0CPaintManagerUI@DuiLib@@QAE@XZ 00410144 f   DuiLib_ud:DuiLib_ud.dll
 0001:0000f14a       ??0CWindowWnd@DuiLib@@QAE@XZ 0041014a f   DuiLib_ud:DuiLib_ud.dll
 0001:0000f150       ?GetSuperClassName@CWindowWnd@DuiLib@@MBEPB_WXZ 00410150 f   DuiLib_ud:DuiLib_ud.dll
 0001:0000f156       ??9CDuiString@DuiLib@@QBE_NPB_W@Z 00410156 f   DuiLib_ud:DuiLib_ud.dll
 0001:0000f15c       ?GetData@CDuiString@DuiLib@@QBEPB_WXZ 0041015c f   DuiLib_ud:DuiLib_ud.dll
 0001:0000f162       ??YCDuiString@DuiLib@@QAEABV01@PB_W@Z 00410162 f   DuiLib_ud:DuiLib_ud.dll
 0001:0000f168       ??0CDuiString@DuiLib@@QAE@PB_WH@Z 00410168 f   DuiLib_ud:DuiLib_ud.dll
 0001:0000f16e       ?SendMessageW@CWindowWnd@DuiLib@@QAEJIIJ@Z 0041016e f   DuiLib_ud:DuiLib_ud.dll
 0001:0000f174       ??8CDuiString@DuiLib@@QBE_NPB_W@Z 00410174 f   DuiLib_ud:DuiLib_ud.dll
 0001:0000f17a       ?GetClassStyle@CWindowWnd@DuiLib@@MBEIXZ 0041017a f   DuiLib_ud:DuiLib_ud.dll
 0001:0000f180       ?GetPaintWindow@CPaintManagerUI@DuiLib@@QBEPAUHWND__@@XZ 00410180 f   DuiLib_ud:DuiLib_ud.dll
 0001:0000f186       ?SendNotify@CPaintManagerUI@DuiLib@@QAEXPAVCControlUI@2@PB_WIJ_N@Z 00410186 f   DuiLib_ud:DuiLib_ud.dll
 0001:0000f18c       ?Close@CWindowWnd@DuiLib@@QAEXI@Z 0041018c f   DuiLib_ud:DuiLib_ud.dll
 0001:0000f192       ?HandleMessage@CWindowWnd@DuiLib@@MAEJIIJ@Z 00410192 f   DuiLib_ud:DuiLib_ud.dll
 0001:0000f198       ?DrawImageString@CRenderEngine@DuiLib@@SA_NPAUHDC__@@PAVCPaintManagerUI@2@ABUtagRECT@@2PB_W3@Z 00410198 f   DuiLib_ud:DuiLib_ud.dll
 0001:0000f19e       ??1CPaintManagerUI@DuiLib@@QAE@XZ 0041019e f   DuiLib_ud:DuiLib_ud.dll
 0001:0000f1a4       ?MessageHandler@CPaintManagerUI@DuiLib@@QAE_NIIJAAJ@Z 004101a4 f   DuiLib_ud:DuiLib_ud.dll
 0001:0000f1aa       ??1CDialogBuilder@DuiLib@@QAE@XZ 004101aa f   DuiLib_ud:DuiLib_ud.dll
 0001:0000f1b0       ?FindControl@CPaintManagerUI@DuiLib@@QBEPAVCControlUI@2@PB_W@Z 004101b0 f   DuiLib_ud:DuiLib_ud.dll
 0001:0000f1b6       ?SetRoundCorner@CPaintManagerUI@DuiLib@@QAEXHH@Z 004101b6 f   DuiLib_ud:DuiLib_ud.dll
 0001:0000f1bc       ?AddNotifier@CPaintManagerUI@DuiLib@@QAE_NPAVINotifyUI@2@@Z 004101bc f   DuiLib_ud:DuiLib_ud.dll
 0001:0000f1c2       ?AttachDialog@CPaintManagerUI@DuiLib@@QAE_NPAVCControlUI@2@@Z 004101c2 f   DuiLib_ud:DuiLib_ud.dll
 0001:0000f1c8       ?Create@CDialogBuilder@DuiLib@@QAEPAVCControlUI@2@VSTRINGorID@2@PB_WPAVIDialogBuilderCallback@2@PAVCPaintManagerUI@2@PAV32@@Z 004101c8 f   DuiLib_ud:DuiLib_ud.dll
 0001:0000f1ce       ??0CDialogBuilder@DuiLib@@QAE@XZ 004101ce f   DuiLib_ud:DuiLib_ud.dll
 0001:0000f1d4       ?Init@CPaintManagerUI@DuiLib@@QAEXPAUHWND__@@@Z 004101d4 f   DuiLib_ud:DuiLib_ud.dll
 0001:0000f1da       ??0CDuiRect@DuiLib@@QAE@ABUtagRECT@@@Z 004101da f   DuiLib_ud:DuiLib_ud.dll
 0001:0000f1e0       ?GetHeight@CDuiRect@DuiLib@@QBEHXZ 004101e0 f   DuiLib_ud:DuiLib_ud.dll
 0001:0000f1e6       ?GetWidth@CDuiRect@DuiLib@@QBEHXZ 004101e6 f   DuiLib_ud:DuiLib_ud.dll
 0001:0000f1ec       ??0CDuiRect@DuiLib@@QAE@XZ 004101ec f   DuiLib_ud:DuiLib_ud.dll
 0001:0000f1f2       ?GetHWND@CWindowWnd@DuiLib@@QBEPAUHWND__@@XZ 004101f2 f   DuiLib_ud:DuiLib_ud.dll
 0001:0000f1f8       ?Offset@CDuiRect@DuiLib@@QAEXHH@Z 004101f8 f   DuiLib_ud:DuiLib_ud.dll
 0001:0000f1fe       ??4CDuiString@DuiLib@@QAEABV01@ABV01@@Z 004101fe f   DuiLib_ud:DuiLib_ud.dll
 0001:0000f204       ??0CListTextElementUI@DuiLib@@QAE@XZ 00410204 f   DuiLib_ud:DuiLib_ud.dll
 0001:0000f20a       ??0CDuiString@DuiLib@@QAE@ABV01@@Z 0041020a f   DuiLib_ud:DuiLib_ud.dll
 0001:0000f210       ?GetName@CControlUI@DuiLib@@UBE?AVCDuiString@2@XZ 00410210 f   DuiLib_ud:DuiLib_ud.dll
 0001:0000f216       ?SetName@CControlUI@DuiLib@@UAEXPB_W@Z 00410216 f   DuiLib_ud:DuiLib_ud.dll
 0001:0000f21c       ?GetClass@CListTextElementUI@DuiLib@@UBEPB_WXZ 0041021c f   DuiLib_ud:DuiLib_ud.dll
 0001:0000f222       ?GetInterface@CListTextElementUI@DuiLib@@UAEPAXPB_W@Z 00410222 f   DuiLib_ud:DuiLib_ud.dll
 0001:0000f228       ?GetControlFlags@CListTextElementUI@DuiLib@@UBEIXZ 00410228 f   DuiLib_ud:DuiLib_ud.dll
 0001:0000f22e       ?Activate@CListElementUI@DuiLib@@UAE_NXZ 0041022e f   DuiLib_ud:DuiLib_ud.dll
 0001:0000f234       ?GetManager@CControlUI@DuiLib@@UBEPAVCPaintManagerUI@2@XZ 00410234 f   DuiLib_ud:DuiLib_ud.dll
 0001:0000f23a       ?SetManager@CControlUI@DuiLib@@UAEXPAVCPaintManagerUI@2@PAV12@_N@Z 0041023a f   DuiLib_ud:DuiLib_ud.dll
 0001:0000f240       ?GetParent@CControlUI@DuiLib@@UBEPAV12@XZ 00410240 f   DuiLib_ud:DuiLib_ud.dll
 0001:0000f246       ?GetText@CControlUI@DuiLib@@UBE?AVCDuiString@2@XZ 00410246 f   DuiLib_ud:DuiLib_ud.dll
 0001:0000f24c       ?SetText@CControlUI@DuiLib@@UAEXPB_W@Z 0041024c f   DuiLib_ud:DuiLib_ud.dll
 0001:0000f252       ?GetPos@CControlUI@DuiLib@@UBEABUtagRECT@@XZ 00410252 f   DuiLib_ud:DuiLib_ud.dll
 0001:0000f258       ?SetPos@CControlUI@DuiLib@@UAEXUtagRECT@@@Z 00410258 f   DuiLib_ud:DuiLib_ud.dll
 0001:0000f25e       ?GetWidth@CControlUI@DuiLib@@UBEHXZ 0041025e f   DuiLib_ud:DuiLib_ud.dll
 0001:0000f264       ?GetHeight@CControlUI@DuiLib@@UBEHXZ 00410264 f   DuiLib_ud:DuiLib_ud.dll
 0001:0000f26a       ?GetX@CControlUI@DuiLib@@UBEHXZ 0041026a f   DuiLib_ud:DuiLib_ud.dll
 0001:0000f270       ?GetY@CControlUI@DuiLib@@UBEHXZ 00410270 f   DuiLib_ud:DuiLib_ud.dll
 0001:0000f276       ?GetPadding@CControlUI@DuiLib@@UBE?AUtagRECT@@XZ 00410276 f   DuiLib_ud:DuiLib_ud.dll
 0001:0000f27c       ?SetPadding@CControlUI@DuiLib@@UAEXUtagRECT@@@Z 0041027c f   DuiLib_ud:DuiLib_ud.dll
 0001:0000f282       ?GetFixedXY@CControlUI@DuiLib@@UBE?AUtagSIZE@@XZ 00410282 f   DuiLib_ud:DuiLib_ud.dll
 0001:0000f288       ?SetFixedXY@CControlUI@DuiLib@@UAEXUtagSIZE@@@Z 00410288 f   DuiLib_ud:DuiLib_ud.dll
 0001:0000f28e       ?GetFixedWidth@CControlUI@DuiLib@@UBEHXZ 0041028e f   DuiLib_ud:DuiLib_ud.dll
 0001:0000f294       ?SetFixedWidth@CControlUI@DuiLib@@UAEXH@Z 00410294 f   DuiLib_ud:DuiLib_ud.dll
 0001:0000f29a       ?GetFixedHeight@CControlUI@DuiLib@@UBEHXZ 0041029a f   DuiLib_ud:DuiLib_ud.dll
 0001:0000f2a0       ?SetFixedHeight@CControlUI@DuiLib@@UAEXH@Z 004102a0 f   DuiLib_ud:DuiLib_ud.dll
 0001:0000f2a6       ?GetMinWidth@CControlUI@DuiLib@@UBEHXZ 004102a6 f   DuiLib_ud:DuiLib_ud.dll
 0001:0000f2ac       ?SetMinWidth@CControlUI@DuiLib@@UAEXH@Z 004102ac f   DuiLib_ud:DuiLib_ud.dll
 0001:0000f2b2       ?GetMaxWidth@CControlUI@DuiLib@@UBEHXZ 004102b2 f   DuiLib_ud:DuiLib_ud.dll
 0001:0000f2b8       ?SetMaxWidth@CControlUI@DuiLib@@UAEXH@Z 004102b8 f   DuiLib_ud:DuiLib_ud.dll
 0001:0000f2be       ?GetMinHeight@CControlUI@DuiLib@@UBEHXZ 004102be f   DuiLib_ud:DuiLib_ud.dll
 0001:0000f2c4       ?SetMinHeight@CControlUI@DuiLib@@UAEXH@Z 004102c4 f   DuiLib_ud:DuiLib_ud.dll
 0001:0000f2ca       ?GetMaxHeight@CControlUI@DuiLib@@UBEHXZ 004102ca f   DuiLib_ud:DuiLib_ud.dll
 0001:0000f2d0       ?SetMaxHeight@CControlUI@DuiLib@@UAEXH@Z 004102d0 f   DuiLib_ud:DuiLib_ud.dll
 0001:0000f2d6       ?SetRelativePos@CControlUI@DuiLib@@UAEXUtagSIZE@@0@Z 004102d6 f   DuiLib_ud:DuiLib_ud.dll
 0001:0000f2dc       ?SetRelativeParentSize@CControlUI@DuiLib@@UAEXUtagSIZE@@@Z 004102dc f   DuiLib_ud:DuiLib_ud.dll
 0001:0000f2e2       ?GetRelativePos@CControlUI@DuiLib@@UBE?AUtagTRelativePosUI@2@XZ 004102e2 f   DuiLib_ud:DuiLib_ud.dll
 0001:0000f2e8       ?IsRelativePos@CControlUI@DuiLib@@UBE_NXZ 004102e8 f   DuiLib_ud:DuiLib_ud.dll
 0001:0000f2ee       ?GetToolTip@CControlUI@DuiLib@@UBE?AVCDuiString@2@XZ 004102ee f   DuiLib_ud:DuiLib_ud.dll
 0001:0000f2f4       ?SetToolTip@CControlUI@DuiLib@@UAEXPB_W@Z 004102f4 f   DuiLib_ud:DuiLib_ud.dll
 0001:0000f2fa       ?SetToolTipWidth@CControlUI@DuiLib@@UAEXH@Z 004102fa f   DuiLib_ud:DuiLib_ud.dll
 0001:0000f300       ?GetToolTipWidth@CControlUI@DuiLib@@UAEHXZ 00410300 f   DuiLib_ud:DuiLib_ud.dll
 0001:0000f306       ?GetShortcut@CControlUI@DuiLib@@UBE_WXZ 00410306 f   DuiLib_ud:DuiLib_ud.dll
 0001:0000f30c       ?SetShortcut@CControlUI@DuiLib@@UAEX_W@Z 0041030c f   DuiLib_ud:DuiLib_ud.dll
 0001:0000f312       ?IsContextMenuUsed@CControlUI@DuiLib@@UBE_NXZ 00410312 f   DuiLib_ud:DuiLib_ud.dll
 0001:0000f318       ?SetContextMenuUsed@CControlUI@DuiLib@@UAEX_N@Z 00410318 f   DuiLib_ud:DuiLib_ud.dll
 0001:0000f31e       ?GetUserData@CControlUI@DuiLib@@UAEABVCDuiString@2@XZ 0041031e f   DuiLib_ud:DuiLib_ud.dll
 0001:0000f324       ?SetUserData@CControlUI@DuiLib@@UAEXPB_W@Z 00410324 f   DuiLib_ud:DuiLib_ud.dll
 0001:0000f32a       ?GetTag@CControlUI@DuiLib@@UBEIXZ 0041032a f   DuiLib_ud:DuiLib_ud.dll
 0001:0000f330       ?SetTag@CControlUI@DuiLib@@UAEXI@Z 00410330 f   DuiLib_ud:DuiLib_ud.dll
 0001:0000f336       ?IsVisible@CControlUI@DuiLib@@UBE_NXZ 00410336 f   DuiLib_ud:DuiLib_ud.dll
 0001:0000f33c       ?SetVisible@CListElementUI@DuiLib@@UAEX_N@Z 0041033c f   DuiLib_ud:DuiLib_ud.dll
 0001:0000f342       ?SetInternVisible@CControlUI@DuiLib@@UAEX_N@Z 00410342 f   DuiLib_ud:DuiLib_ud.dll
 0001:0000f348       ?IsEnabled@CControlUI@DuiLib@@UBE_NXZ 00410348 f   DuiLib_ud:DuiLib_ud.dll
 0001:0000f34e       ?SetEnabled@CListElementUI@DuiLib@@UAEX_N@Z 0041034e f   DuiLib_ud:DuiLib_ud.dll
 0001:0000f354       ?IsMouseEnabled@CControlUI@DuiLib@@UBE_NXZ 00410354 f   DuiLib_ud:DuiLib_ud.dll
 0001:0000f35a       ?SetMouseEnabled@CControlUI@DuiLib@@UAEX_N@Z 0041035a f   DuiLib_ud:DuiLib_ud.dll
 0001:0000f360       ?IsKeyboardEnabled@CControlUI@DuiLib@@UBE_NXZ 00410360 f   DuiLib_ud:DuiLib_ud.dll
 0001:0000f366       ?SetKeyboardEnabled@CControlUI@DuiLib@@UAEX_N@Z 00410366 f   DuiLib_ud:DuiLib_ud.dll
 0001:0000f36c       ?IsFocused@CControlUI@DuiLib@@UBE_NXZ 0041036c f   DuiLib_ud:DuiLib_ud.dll
 0001:0000f372       ?SetFocus@CControlUI@DuiLib@@UAEXXZ 00410372 f   DuiLib_ud:DuiLib_ud.dll
 0001:0000f378       ?IsFloat@CControlUI@DuiLib@@UBE_NXZ 00410378 f   DuiLib_ud:DuiLib_ud.dll
 0001:0000f37e       ?SetFloat@CControlUI@DuiLib@@UAEX_N@Z 0041037e f   DuiLib_ud:DuiLib_ud.dll
 0001:0000f384       ?FindControl@CControlUI@DuiLib@@UAEPAV12@P6GPAV12@PAV12@PAX@Z1I@Z 00410384 f   DuiLib_ud:DuiLib_ud.dll
 0001:0000f38a       ?Init@CControlUI@DuiLib@@UAEXXZ 0041038a f   DuiLib_ud:DuiLib_ud.dll
 0001:0000f390       ?DoInit@CControlUI@DuiLib@@UAEXXZ 00410390 f   DuiLib_ud:DuiLib_ud.dll
 0001:0000f396       ?Event@CControlUI@DuiLib@@UAEXAAUtagTEventUI@2@@Z 00410396 f   DuiLib_ud:DuiLib_ud.dll
 0001:0000f39c       ?DoEvent@CListTextElementUI@DuiLib@@UAEXAAUtagTEventUI@2@@Z 0041039c f   DuiLib_ud:DuiLib_ud.dll
 0001:0000f3a2       ?SetAttribute@CListElementUI@DuiLib@@UAEXPB_W0@Z 004103a2 f   DuiLib_ud:DuiLib_ud.dll
 0001:0000f3a8       ?EstimateSize@CListTextElementUI@DuiLib@@UAE?AUtagSIZE@@U3@@Z 004103a8 f   DuiLib_ud:DuiLib_ud.dll
 0001:0000f3ae       ?DoPaint@CListLabelElementUI@DuiLib@@UAEXPAUHDC__@@ABUtagRECT@@@Z 004103ae f   DuiLib_ud:DuiLib_ud.dll
 0001:0000f3b4       ?PaintBkColor@CControlUI@DuiLib@@UAEXPAUHDC__@@@Z 004103b4 f   DuiLib_ud:DuiLib_ud.dll
 0001:0000f3ba       ?PaintBkImage@CControlUI@DuiLib@@UAEXPAUHDC__@@@Z 004103ba f   DuiLib_ud:DuiLib_ud.dll
 0001:0000f3c0       ?PaintStatusImage@CControlUI@DuiLib@@UAEXPAUHDC__@@@Z 004103c0 f   DuiLib_ud:DuiLib_ud.dll
 0001:0000f3c6       ?PaintText@CControlUI@DuiLib@@UAEXPAUHDC__@@@Z 004103c6 f   DuiLib_ud:DuiLib_ud.dll
 0001:0000f3cc       ?PaintBorder@CControlUI@DuiLib@@UAEXPAUHDC__@@@Z 004103cc f   DuiLib_ud:DuiLib_ud.dll
 0001:0000f3d2       ?DoPostPaint@CControlUI@DuiLib@@UAEXPAUHDC__@@ABUtagRECT@@@Z 004103d2 f   DuiLib_ud:DuiLib_ud.dll
 0001:0000f3d8       ?FindControl@CPaintManagerUI@DuiLib@@QBEPAVCControlUI@2@UtagPOINT@@@Z 004103d8 f   DuiLib_ud:DuiLib_ud.dll
 0001:0000f3de       ?GetCaptionRect@CPaintManagerUI@DuiLib@@QAEAAUtagRECT@@XZ 004103de f   DuiLib_ud:DuiLib_ud.dll
 0001:0000f3e4       ?GetSizeBox@CPaintManagerUI@DuiLib@@QAEAAUtagRECT@@XZ 004103e4 f   DuiLib_ud:DuiLib_ud.dll
 0001:0000f3ea       ?GetRoundCorner@CPaintManagerUI@DuiLib@@QBE?AUtagSIZE@@XZ 004103ea f   DuiLib_ud:DuiLib_ud.dll
 0001:0000f3f0       ??1CListTextElementUI@DuiLib@@UAE@XZ 004103f0 f   DuiLib_ud:DuiLib_ud.dll
 0001:0000f3f6       ??0CDuiString@DuiLib@@QAE@XZ 004103f6 f   DuiLib_ud:DuiLib_ud.dll
 0001:0000f400       ??_U@YAPAXI@Z              00410400 f   libcpmtd:newaop.obj
 0001:0000f420       ??0_Init_locks@std@@QAE@XZ 00410420 f   libcpmtd:xlock.obj
 0001:0000f470       ??1_Init_locks@std@@QAE@XZ 00410470 f   libcpmtd:xlock.obj
 0001:0000f4c0       ?_Init_locks_ctor@_Init_locks@std@@CAXPAV12@@Z 004104c0 f   libcpmtd:xlock.obj
 0001:0000f510       ?_Init_locks_dtor@_Init_locks@std@@CAXPAV12@@Z 00410510 f   libcpmtd:xlock.obj
 0001:0000f560       ??0_Lockit@std@@QAE@XZ     00410560 f   libcpmtd:xlock.obj
 0001:0000f590       ??0_Lockit@std@@QAE@H@Z    00410590 f   libcpmtd:xlock.obj
 0001:0000f5d0       ??1_Lockit@std@@QAE@XZ     004105d0 f   libcpmtd:xlock.obj
 0001:0000f600       ?_Lockit_ctor@_Lockit@std@@CAXPAV12@@Z 00410600 f   libcpmtd:xlock.obj
 0001:0000f620       ?_Lockit_ctor@_Lockit@std@@CAXPAV12@H@Z 00410620 f   libcpmtd:xlock.obj
 0001:0000f650       ?_Lockit_dtor@_Lockit@std@@CAXPAV12@@Z 00410650 f   libcpmtd:xlock.obj
 0001:0000f670       ?_Lockit_ctor@_Lockit@std@@SAXH@Z 00410670 f   libcpmtd:xlock.obj
 0001:0000f690       ?_Lockit_dtor@_Lockit@std@@SAXH@Z 00410690 f   libcpmtd:xlock.obj
 0001:0000f6b0       ?_Debug_message@std@@YAXPB_W0I@Z 004106b0 f   libcpmtd:stdthrow.obj
 0001:0000f6e0       ?_Debug_message@std@@YAXPBG0I@Z 004106e0 f   libcpmtd:stdthrow.obj
 0001:0000f700       ?_Ios_base_dtor@ios_base@std@@CAXPAV12@@Z 00410700 f   libcpmtd:ios.obj
 0001:0000f760       ?_Tidy@ios_base@std@@AAEXXZ 00410760 f i libcpmtd:ios.obj
 0001:0000f7f0       ?_Callfns@ios_base@std@@AAEXW4event@12@@Z 004107f0 f i libcpmtd:ios.obj
 0001:0000f840       ?_Addstd@ios_base@std@@SAXPAV12@@Z 00410840 f   libcpmtd:ios.obj
 0001:0000f8e0       ??$_DebugHeapDelete@U_Iosarray@ios_base@std@@@std@@YAXPAU_Iosarray@ios_base@0@@Z 004108e0 f i libcpmtd:ios.obj
 0001:0000f900       ??$_DebugHeapDelete@U_Fnarray@ios_base@std@@@std@@YAXPAU_Fnarray@ios_base@0@@Z 00410900 f i libcpmtd:ios.obj
 0001:0000f920       ?generic_category@std@@YAABVerror_category@1@XZ 00410920 f   libcpmtd:syserror.obj
 0001:0000f930       ?iostream_category@std@@YAABVerror_category@1@XZ 00410930 f   libcpmtd:syserror.obj
 0001:0000f940       ?system_category@std@@YAABVerror_category@1@XZ 00410940 f   libcpmtd:syserror.obj
 0001:0000f950       ??0_Generic_error_category@std@@QAE@XZ 00410950 f i libcpmtd:syserror.obj
 0001:0000f980       ??0error_category@std@@QAE@XZ 00410980 f i libcpmtd:syserror.obj
 0001:0000f9a0       ??_Gerror_category@std@@UAEPAXI@Z 004109a0 f i libcpmtd:syserror.obj
 0001:0000f9a0       ??_Eerror_category@std@@UAEPAXI@Z 004109a0 f i libcpmtd:syserror.obj
 0001:0000f9d0       ??1error_category@std@@UAE@XZ 004109d0 f i libcpmtd:syserror.obj
 0001:0000f9f0       ?default_error_condition@error_category@std@@UBE?AVerror_condition@2@H@Z 004109f0 f i libcpmtd:syserror.obj
 0001:0000fa20       ??0error_condition@std@@QAE@HABVerror_category@1@@Z 00410a20 f i libcpmtd:syserror.obj
 0001:0000fa50       ?equivalent@error_category@std@@UBE_NHABVerror_condition@2@@Z 00410a50 f i libcpmtd:syserror.obj
 0001:0000fa90       ??8error_condition@std@@QBE_NABV01@@Z 00410a90 f i libcpmtd:syserror.obj
 0001:0000faf0       ??8error_category@std@@QBE_NABV01@@Z 00410af0 f i libcpmtd:syserror.obj
 0001:0000fb10       ?value@error_condition@std@@QBEHXZ 00410b10 f i libcpmtd:syserror.obj
 0001:0000fb30       ?category@error_condition@std@@QBEABVerror_category@2@XZ 00410b30 f i libcpmtd:syserror.obj
 0001:0000fb50       ?equivalent@error_category@std@@UBE_NABVerror_code@2@H@Z 00410b50 f i libcpmtd:syserror.obj
 0001:0000fba0       ?value@error_code@std@@QBEHXZ 00410ba0 f i libcpmtd:syserror.obj
 0001:0000fbc0       ?category@error_code@std@@QBEABVerror_category@2@XZ 00410bc0 f i libcpmtd:syserror.obj
 0001:0000fbe0       ?name@_Generic_error_category@std@@UBEPBDXZ 00410be0 f i libcpmtd:syserror.obj
 0001:0000fc00       ?message@_Generic_error_category@std@@UBE?AV?$basic_string@DU?$char_traits@D@std@@V?$allocator@D@2@@2@H@Z 00410c00 f i libcpmtd:syserror.obj
 0001:0000fc40       ??_E_Generic_error_category@std@@UAEPAXI@Z 00410c40 f i libcpmtd:syserror.obj
 0001:0000fc40       ??_G_Generic_error_category@std@@UAEPAXI@Z 00410c40 f i libcpmtd:syserror.obj
 0001:0000fc70       ??1_Generic_error_category@std@@UAE@XZ 00410c70 f i libcpmtd:syserror.obj
 0001:0000fc90       ??0_Iostream_error_category@std@@QAE@XZ 00410c90 f i libcpmtd:syserror.obj
 0001:0000fcc0       ?name@_Iostream_error_category@std@@UBEPBDXZ 00410cc0 f i libcpmtd:syserror.obj
 0001:0000fce0       ?message@_Iostream_error_category@std@@UBE?AV?$basic_string@DU?$char_traits@D@std@@V?$allocator@D@2@@2@H@Z 00410ce0 f i libcpmtd:syserror.obj
 0001:0000fd40       ??_G_Iostream_error_category@std@@UAEPAXI@Z 00410d40 f i libcpmtd:syserror.obj
 0001:0000fd40       ??_E_Iostream_error_category@std@@UAEPAXI@Z 00410d40 f i libcpmtd:syserror.obj
 0001:0000fd70       ??1_Iostream_error_category@std@@UAE@XZ 00410d70 f i libcpmtd:syserror.obj
 0001:0000fd90       ??0_System_error_category@std@@QAE@XZ 00410d90 f i libcpmtd:syserror.obj
 0001:0000fdc0       ?name@_System_error_category@std@@UBEPBDXZ 00410dc0 f i libcpmtd:syserror.obj
 0001:0000fde0       ?default_error_condition@_System_error_category@std@@UBE?AVerror_condition@2@H@Z 00410de0 f i libcpmtd:syserror.obj
 0001:0000fe10       ??_E_System_error_category@std@@UAEPAXI@Z 00410e10 f i libcpmtd:syserror.obj
 0001:0000fe10       ??_G_System_error_category@std@@UAEPAXI@Z 00410e10 f i libcpmtd:syserror.obj
 0001:0000fe40       ??1_System_error_category@std@@UAE@XZ 00410e40 f i libcpmtd:syserror.obj
 0001:0000fe60       ??0_Mutex@std@@QAE@XZ      00410e60 f   libcpmtd:xmutex.obj
 0001:0000feb0       ??1_Mutex@std@@QAE@XZ      00410eb0 f   libcpmtd:xmutex.obj
 0001:0000fee0       ?_Lock@_Mutex@std@@QAEXXZ  00410ee0 f   libcpmtd:xmutex.obj
 0001:0000ff00       ?_Unlock@_Mutex@std@@QAEXXZ 00410f00 f   libcpmtd:xmutex.obj
 0001:0000ff20       ?_Mutex_ctor@_Mutex@std@@CAXPAV12@@Z 00410f20 f   libcpmtd:xmutex.obj
 0001:0000ff60       ?_Mutex_dtor@_Mutex@std@@CAXPAV12@@Z 00410f60 f   libcpmtd:xmutex.obj
 0001:0000ff90       ?_Mutex_Lock@_Mutex@std@@CAXPAV12@@Z 00410f90 f   libcpmtd:xmutex.obj
 0001:0000ffb0       ?_Mutex_Unlock@_Mutex@std@@CAXPAV12@@Z 00410fb0 f   libcpmtd:xmutex.obj
 0001:0000ffd0       ??$_DebugHeapDelete@U_RTL_CRITICAL_SECTION@@@std@@YAXPAU_RTL_CRITICAL_SECTION@@@Z 00410fd0 f i libcpmtd:xmutex.obj
 0001:0000fff0       ?uncaught_exception@std@@YA_NXZ 00410ff0 f   libcpmtd:uncaught.obj
 0001:00010000       ??2@YAPAXIABU_DebugHeapTag_t@std@@PADH@Z 00411000 f   libcpmtd:xdebug.obj
 0001:00010080       ??0bad_alloc@std@@QAE@XZ   00411080 f i libcpmtd:xdebug.obj
 0001:000100b0       ??_U@YAPAXIABU_DebugHeapTag_t@std@@PADH@Z 004110b0 f   libcpmtd:xdebug.obj
 0001:000100d0       ??3@YAXPAXABU_DebugHeapTag_t@std@@PADH@Z 004110d0 f   libcpmtd:xdebug.obj
 0001:000100f0       ??_V@YAXPAXABU_DebugHeapTag_t@std@@PADH@Z 004110f0 f   libcpmtd:xdebug.obj
 0001:00010110       ?_DebugHeapTag_func@std@@YAABU_DebugHeapTag_t@1@XZ 00411110 f   libcpmtd:xdebug.obj
 0001:00010120       ?_Facet_Register@facet@locale@std@@CAXPAV123@@Z 00411120 f   libcpmtd:locale0.obj
 0001:000101c0       ??0_Fac_node@std@@QAE@PAU01@PAVfacet@locale@1@@Z 004111c0 f i libcpmtd:locale0.obj
 0001:000101f0       __Deletegloballocale       004111f0 f   libcpmtd:locale0.obj
 0001:00010220       ?_Getgloballocale@locale@std@@CAPAV_Locimp@12@XZ 00411220 f   libcpmtd:locale0.obj
 0001:00010230       ?_Setgloballocale@locale@std@@CAXPAX@Z 00411230 f   libcpmtd:locale0.obj
 0001:000102a0       ?classic@locale@std@@SAABV12@XZ 004112a0 f   libcpmtd:locale0.obj
 0001:000102c0       ?empty@locale@std@@SA?AV12@XZ 004112c0 f   libcpmtd:locale0.obj
 0001:00010370       ??0_Locimp@locale@std@@AAE@_N@Z 00411370 f i libcpmtd:locale0.obj
 0001:00010410       ??0locale@std@@AAE@PAV_Locimp@01@@Z 00411410 f i libcpmtd:locale0.obj
 0001:00010430       ??_G_Locimp@locale@std@@MAEPAXI@Z 00411430 f i libcpmtd:locale0.obj
 0001:00010430       ??_E_Locimp@locale@std@@MAEPAXI@Z 00411430 f i libcpmtd:locale0.obj
 0001:00010460       ??1_Locimp@locale@std@@MAE@XZ 00411460 f i libcpmtd:locale0.obj
 0001:000104e0       ?_Init@locale@std@@CAPAV_Locimp@12@XZ 004114e0 f   libcpmtd:locale0.obj
 0001:00010630       ?_Locimp_dtor@_Locimp@locale@std@@CAXPAV123@@Z 00411630 f   libcpmtd:locale0.obj
 0001:000106e0       ?_Locinfo_ctor@_Locinfo@std@@SAXPAV12@PBD@Z 004116e0 f   libcpmtd:locale0.obj
 0001:00010760       ?_Locinfo_dtor@_Locinfo@std@@SAXPAV12@@Z 00411760 f   libcpmtd:locale0.obj
 0001:00010790       ??0?$_Yarn@D@std@@QAE@PBD@Z 00411790 f i libcpmtd:locale0.obj
 0001:000107c0       ??4?$_Yarn@D@std@@QAEAAV01@PBD@Z 004117c0 f i libcpmtd:locale0.obj
 0001:00010860       ?_Empty@?$_Yarn@D@std@@QBE_NXZ 00411860 f i libcpmtd:locale0.obj
 0001:00010880       ?_C_str@?$_Yarn@D@std@@QBEPBDXZ 00411880 f i libcpmtd:locale0.obj
 0001:000108b0       ??0locale@std@@QAE@W4_Uninitialized@1@@Z 004118b0 f i libcpmtd:locale0.obj
 0001:000108d0       ??1_Fac_tidy_reg_t@std@@QAE@XZ 004118d0 f i libcpmtd:locale0.obj
 0001:00010970       ??$_DebugHeapDelete@U_Fac_node@std@@@std@@YAXPAU_Fac_node@0@@Z 00411970 f i libcpmtd:locale0.obj
 0001:000109a0       ??_G_Fac_node@std@@QAEPAXI@Z 004119a0 f i libcpmtd:locale0.obj
 0001:000109d0       ??1_Fac_node@std@@QAE@XZ   004119d0 f i libcpmtd:locale0.obj
 0001:00010a00       ?_Xinvalid_argument@std@@YAXPBD@Z 00411a00 f   libcpmtd:xthrow.obj
 0001:00010a30       ??0invalid_argument@std@@QAE@PBD@Z 00411a30 f i libcpmtd:xthrow.obj
 0001:00010a60       ??0logic_error@std@@QAE@PBD@Z 00411a60 f i libcpmtd:xthrow.obj
 0001:00010a90       ??_Glogic_error@std@@UAEPAXI@Z 00411a90 f i libcpmtd:xthrow.obj
 0001:00010a90       ??_Elogic_error@std@@UAEPAXI@Z 00411a90 f i libcpmtd:xthrow.obj
 0001:00010ac0       ??1logic_error@std@@UAE@XZ 00411ac0 f i libcpmtd:xthrow.obj
 0001:00010ae0       ??_Ginvalid_argument@std@@UAEPAXI@Z 00411ae0 f i libcpmtd:xthrow.obj
 0001:00010ae0       ??_Einvalid_argument@std@@UAEPAXI@Z 00411ae0 f i libcpmtd:xthrow.obj
 0001:00010b10       ??1invalid_argument@std@@UAE@XZ 00411b10 f i libcpmtd:xthrow.obj
 0001:00010b30       ??0invalid_argument@std@@QAE@ABV01@@Z 00411b30 f i libcpmtd:xthrow.obj
 0001:00010b60       ??0logic_error@std@@QAE@ABV01@@Z 00411b60 f i libcpmtd:xthrow.obj
 0001:00010b90       ?_Xlength_error@std@@YAXPBD@Z 00411b90 f   libcpmtd:xthrow.obj
 0001:00010bc0       ??0length_error@std@@QAE@PBD@Z 00411bc0 f i libcpmtd:xthrow.obj
 0001:00010bf0       ??_Glength_error@std@@UAEPAXI@Z 00411bf0 f i libcpmtd:xthrow.obj
 0001:00010bf0       ??_Elength_error@std@@UAEPAXI@Z 00411bf0 f i libcpmtd:xthrow.obj
 0001:00010c20       ??1length_error@std@@UAE@XZ 00411c20 f i libcpmtd:xthrow.obj
 0001:00010c40       ??0length_error@std@@QAE@ABV01@@Z 00411c40 f i libcpmtd:xthrow.obj
 0001:00010c70       ?_Xout_of_range@std@@YAXPBD@Z 00411c70 f   libcpmtd:xthrow.obj
 0001:00010ca0       ??0out_of_range@std@@QAE@PBD@Z 00411ca0 f i libcpmtd:xthrow.obj
 0001:00010cd0       ??_Eout_of_range@std@@UAEPAXI@Z 00411cd0 f i libcpmtd:xthrow.obj
 0001:00010cd0       ??_Gout_of_range@std@@UAEPAXI@Z 00411cd0 f i libcpmtd:xthrow.obj
 0001:00010d00       ??1out_of_range@std@@UAE@XZ 00411d00 f i libcpmtd:xthrow.obj
 0001:00010d20       ??0out_of_range@std@@QAE@ABV01@@Z 00411d20 f i libcpmtd:xthrow.obj
 0001:00010d50       ?_Xoverflow_error@std@@YAXPBD@Z 00411d50 f   libcpmtd:xthrow.obj
 0001:00010d80       ??0overflow_error@std@@QAE@PBD@Z 00411d80 f i libcpmtd:xthrow.obj
 0001:00010db0       ??_Eoverflow_error@std@@UAEPAXI@Z 00411db0 f i libcpmtd:xthrow.obj
 0001:00010db0       ??_Goverflow_error@std@@UAEPAXI@Z 00411db0 f i libcpmtd:xthrow.obj
 0001:00010de0       ??1overflow_error@std@@UAE@XZ 00411de0 f i libcpmtd:xthrow.obj
 0001:00010e00       ??0overflow_error@std@@QAE@ABV01@@Z 00411e00 f i libcpmtd:xthrow.obj
 0001:00010e30       ?_Xruntime_error@std@@YAXPBD@Z 00411e30 f   libcpmtd:xthrow.obj
 0001:00010e60       __Tolower                  00411e60 f   libcpmtd:_tolower.obj
 0001:00010fe0       __Getctype                 00411fe0 f   libcpmtd:_tolower.obj
 0001:00011070       __Toupper                  00412070 f   libcpmtd:_toupper.obj
 0001:000111f0       ___Wcrtomb_lk              004121f0 f   libcpmtd:xwctomb.obj
 0001:00011210       __Wcrtomb                  00412210 f   libcpmtd:xwctomb.obj
 0001:000112e0       __Getcvt                   004122e0 f   libcpmtd:xwctomb.obj
 0001:00011310       __Once                     00412310 f   libcpmtd:xmtx.obj
 0001:00011370       __Mtxinit                  00412370 f   libcpmtd:xmtx.obj
 0001:00011390       __Mtxdst                   00412390 f   libcpmtd:xmtx.obj
 0001:000113b0       __Mtxlock                  004123b0 f   libcpmtd:xmtx.obj
 0001:000113d0       __Mtxunlock                004123d0 f   libcpmtd:xmtx.obj
 0001:000113f0       ?_Atexit@@YAXP6AXXZ@Z      004123f0 f   libcpmtd:iosptrs.obj
 0001:00011430       ??1_Init_atexit@@QAE@XZ    00412430 f i libcpmtd:iosptrs.obj
 0001:00011480       __Mbrtowc                  00412480 f   libcpmtd:xmbtowc.obj
 0001:00011700       __GetLocaleForCP           00412700 f   libcpmtd:xmbtowc.obj
 0001:00011900       __RTC_CheckEsp             00412900 f   LIBCMTD:_stack_.obj
 0001:00011930       @_RTC_CheckStackVars@8     00412930 f   LIBCMTD:_stack_.obj
 0001:000119a0       @_RTC_AllocaHelper@12      004129a0 f   LIBCMTD:_stack_.obj
 0001:000119e0       @_RTC_CheckStackVars2@12   004129e0 f   LIBCMTD:_stack_.obj
 0001:00011ac0       __RTC_InitBase             00412ac0 f   LIBCMTD:_init_.obj
 0001:00011af0       __RTC_Shutdown             00412af0 f   LIBCMTD:_init_.obj
 0001:00011b10       ??2@YAPAXI@Z               00412b10 f   LIBCMTD:new.obj
 0001:00011b90       @__security_check_cookie@4 00412b90 f   LIBCMTD:secchk.obj
 0001:00011ba0       ?name@type_info@@QBEPBDPAU__type_info_node@@@Z 00412ba0 f   LIBCMTD:typinfo.obj
 0001:00011bc0       ??1type_info@@UAE@XZ       00412bc0 f   LIBCMTD:typinfo.obj
 0001:00011bf0       ??_Gtype_info@@UAEPAXI@Z   00412bf0 f i LIBCMTD:typinfo.obj
 0001:00011bf0       ??_Etype_info@@UAEPAXI@Z   00412bf0 f i LIBCMTD:typinfo.obj
 0001:00011c20       ?_name_internal_method@type_info@@QBEPBDPAU__type_info_node@@@Z 00412c20 f   LIBCMTD:typinfo.obj
 0001:00011c40       ?_type_info_dtor_internal_method@type_info@@QAEXXZ 00412c40 f   LIBCMTD:typinfo.obj
 0001:00011c60       ??8type_info@@QBE_NABV0@@Z 00412c60 f   LIBCMTD:typinfo.obj
 0001:00011c90       ??9type_info@@QBE_NABV0@@Z 00412c90 f   LIBCMTD:typinfo.obj
 0001:00011cc0       ?before@type_info@@QBEHABV1@@Z 00412cc0 f   LIBCMTD:typinfo.obj
 0001:00011cf0       ?raw_name@type_info@@QBEPBDXZ 00412cf0 f   LIBCMTD:typinfo.obj
 0001:00011d10       ??0type_info@@AAE@ABV0@@Z  00412d10 f   LIBCMTD:typinfo.obj
 0001:00011d30       ??4type_info@@AAEAAV0@ABV0@@Z 00412d30 f   LIBCMTD:typinfo.obj
 0001:00011d50       __purecall                 00412d50 f   LIBCMTD:purevirt.obj
 0001:00011d90       __set_purecall_handler     00412d90 f   LIBCMTD:purevirt.obj
 0001:00011dd0       __get_purecall_handler     00412dd0 f   LIBCMTD:purevirt.obj
 0001:00011df0       ??_V@YAXPAX@Z              00412df0 f   LIBCMTD:delete2.obj
 0001:00011e10       _memset                    00412e10 f   LIBCMTD:memset.obj
 0001:00011e90       __swprintf                 00412e90 f   LIBCMTD:swprintf.obj
 0001:00012090       ___swprintf_l              00413090 f   LIBCMTD:swprintf.obj
 0001:000120c0       _swprintf_s                004130c0 f   LIBCMTD:swprintf.obj
 0001:000120f0       __snwprintf_s              004130f0 f   LIBCMTD:swprintf.obj
 0001:00012120       __swprintf_p               00413120 f   LIBCMTD:swprintf.obj
 0001:00012150       __swprintf_s_l             00413150 f   LIBCMTD:swprintf.obj
 0001:00012180       __snwprintf_s_l            00413180 f   LIBCMTD:swprintf.obj
 0001:000121b0       __swprintf_p_l             004131b0 f   LIBCMTD:swprintf.obj
 0001:000121e0       __scwprintf                004131e0 f   LIBCMTD:swprintf.obj
 0001:00012200       __scwprintf_p              00413200 f   LIBCMTD:swprintf.obj
 0001:00012220       __scwprintf_l              00413220 f   LIBCMTD:swprintf.obj
 0001:00012250       __scwprintf_p_l            00413250 f   LIBCMTD:swprintf.obj
 0001:00012280       ??3@YAXPAX@Z               00413280 f   LIBCMTD:dbgdel.obj
 0001:00012370       ?_JumpToContinuation@@YGXPAXPAUEHRegistrationNode@@@Z 00413370 f   LIBCMTD:_trnsctrl_.obj
 0001:000123b0       ?_CallMemberFunction0@@YGXPAX0@Z 004133b0 f   LIBCMTD:_trnsctrl_.obj
 0001:000123c0       ?_CallMemberFunction1@@YGXPAX00@Z 004133c0 f   LIBCMTD:_trnsctrl_.obj
 0001:000123d0       ?_CallMemberFunction2@@YGXPAX00H@Z 004133d0 f   LIBCMTD:_trnsctrl_.obj
 0001:000123e0       ?_UnwindNestedFrames@@YGXPAUEHRegistrationNode@@PAUEHExceptionRecord@@@Z 004133e0 f   LIBCMTD:_trnsctrl_.obj
 0001:00012440       ___CxxFrameHandler         00413440 f   LIBCMTD:_trnsctrl_.obj
 0001:00012480       ___CxxFrameHandler3        00413480 f   LIBCMTD:_trnsctrl_.obj
 0001:000124c0       ___CxxFrameHandler2        004134c0 f   LIBCMTD:_trnsctrl_.obj
 0001:00012500       ___CxxLongjmpUnwind@4      00413500 f   LIBCMTD:_trnsctrl_.obj
 0001:00012530       ?_CallCatchBlock2@@YAPAXPAUEHRegistrationNode@@PBU_s_FuncInfo@@PAXHK@Z 00413530 f   LIBCMTD:_trnsctrl_.obj
 0001:000125f0       ?_CallSETranslator@@YAHPAUEHExceptionRecord@@PAUEHRegistrationNode@@PAX2PBU_s_FuncInfo@@H1@Z 004135f0 f   LIBCMTD:_trnsctrl_.obj
 0001:00012790       ?_GetRangeOfTrysToCheck@@YAPBU_s_TryBlockMapEntry@@PBU_s_FuncInfo@@HHPAI1@Z 00413790 f   LIBCMTD:_trnsctrl_.obj
 0001:00012810       __CreateFrameInfo          00413810 f   LIBCMTD:_trnsctrl_.obj
 0001:00012840       __IsExceptionObjectToBeDestroyed 00413840 f   LIBCMTD:_trnsctrl_.obj
 0001:00012870       __FindAndUnlinkFrame       00413870 f   LIBCMTD:_trnsctrl_.obj
 0001:000128d0       __CrtSetReportHookW2       004138d0 f   LIBCMTD:dbgrptw.obj
 0001:00012c00       __CrtDbgReportW            00413c00 f   LIBCMTD:dbgrptw.obj
 0001:00012c40       __CrtDbgReportWV           00413c40 f i LIBCMTD:dbgrptw.obj
 0001:00012c70       ___crtMessageWindowW       00413c70 f   LIBCMTD:dbgrptw.obj
 0001:00013070       __invoke_watson_if_error   00414070 f i LIBCMTD:dbgrptw.obj
 0001:000130a0       __invoke_watson_if_oneof   004140a0 f i LIBCMTD:dbgrptw.obj
 0001:000130e0       ?_CrtDbgReportW@@YAHHPBGH00ZZ 004140e0 f   LIBCMTD:dbgrptw.obj
 0001:00013120       _wcscmp                    00414120 f   LIBCMTD:wcscmp.obj
 0001:00013190       __CxxThrowException@8      00414190 f   LIBCMTD:throw.obj
 0001:000131f0       ??0exception@std@@QAE@XZ   004141f0 f   LIBCMTD:stdexcpt.obj
 0001:00013220       ??_Gexception@std@@UAEPAXI@Z 00414220 f i LIBCMTD:stdexcpt.obj
 0001:00013220       ??_Eexception@std@@UAEPAXI@Z 00414220 f i LIBCMTD:stdexcpt.obj
 0001:00013250       ??0exception@std@@QAE@ABQBD@Z 00414250 f   LIBCMTD:stdexcpt.obj
 0001:00013290       ??0exception@std@@QAE@ABQBDH@Z 00414290 f   LIBCMTD:stdexcpt.obj
 0001:000132c0       ??0exception@std@@QAE@ABV01@@Z 004142c0 f   LIBCMTD:stdexcpt.obj
 0001:00013300       ??4exception@std@@QAEAAV01@ABV01@@Z 00414300 f   LIBCMTD:stdexcpt.obj
 0001:00013350       ??1exception@std@@UAE@XZ   00414350 f   LIBCMTD:stdexcpt.obj
 0001:00013370       ?what@exception@std@@UBEPBDXZ 00414370 f   LIBCMTD:stdexcpt.obj
 0001:000133a0       ?_Copy_str@exception@std@@AAEXPBD@Z 004143a0 f   LIBCMTD:stdexcpt.obj
 0001:00013410       ?_Tidy@exception@std@@AAEXXZ 00414410 f   LIBCMTD:stdexcpt.obj
 0001:00013450       ??0bad_cast@std@@QAE@PBD@Z 00414450 f   LIBCMTD:stdexcpt.obj
 0001:00013480       ??_Gbad_cast@std@@UAEPAXI@Z 00414480 f i LIBCMTD:stdexcpt.obj
 0001:00013480       ??_Ebad_cast@std@@UAEPAXI@Z 00414480 f i LIBCMTD:stdexcpt.obj
 0001:000134b0       ??0bad_cast@std@@QAE@ABV01@@Z 004144b0 f   LIBCMTD:stdexcpt.obj
 0001:000134e0       ??1bad_cast@std@@UAE@XZ    004144e0 f   LIBCMTD:stdexcpt.obj
 0001:00013500       ??0bad_typeid@std@@QAE@PBD@Z 00414500 f   LIBCMTD:stdexcpt.obj
 0001:00013530       ??_Ebad_typeid@std@@UAEPAXI@Z 00414530 f i LIBCMTD:stdexcpt.obj
 0001:00013530       ??_Gbad_typeid@std@@UAEPAXI@Z 00414530 f i LIBCMTD:stdexcpt.obj
 0001:00013560       ??0bad_typeid@std@@QAE@ABV01@@Z 00414560 f   LIBCMTD:stdexcpt.obj
 0001:00013590       ??1bad_typeid@std@@UAE@XZ  00414590 f   LIBCMTD:stdexcpt.obj
 0001:000135b0       ??0__non_rtti_object@std@@QAE@PBD@Z 004145b0 f   LIBCMTD:stdexcpt.obj
 0001:000135e0       ??_E__non_rtti_object@std@@UAEPAXI@Z 004145e0 f i LIBCMTD:stdexcpt.obj
 0001:000135e0       ??_G__non_rtti_object@std@@UAEPAXI@Z 004145e0 f i LIBCMTD:stdexcpt.obj
 0001:00013610       ??0__non_rtti_object@std@@QAE@ABV01@@Z 00414610 f   LIBCMTD:stdexcpt.obj
 0001:00013640       ??1__non_rtti_object@std@@UAE@XZ 00414640 f   LIBCMTD:stdexcpt.obj
 0001:00013660       __initp_misc_invarg        00414660 f   LIBCMTD:invarg.obj
 0001:00013670       __invalid_parameter        00414670 f   LIBCMTD:invarg.obj
 0001:000136d0       __invoke_watson            004146d0 f   LIBCMTD:invarg.obj
 0001:00013700       __call_reportfault         00414700 f   LIBCMTD:invarg.obj
 0001:00013850       __set_invalid_parameter_handler 00414850 f   LIBCMTD:invarg.obj
 0001:00013890       __get_invalid_parameter_handler 00414890 f   LIBCMTD:invarg.obj
 0001:000138c0       ?_invalid_parameter@@YAXPBG00II@Z 004148c0 f   LIBCMTD:invarg.obj
 0001:000138f0       ?_invoke_watson@@YAXPBG00II@Z 004148f0 f   LIBCMTD:invarg.obj
 0001:00013910       _memcpy                    00414910 f   LIBCMTD:memcpy.obj
 0001:00013c80       _memmove                   00414c80 f   LIBCMTD:memmove.obj
 0001:00013ff0       _free                      00414ff0 f   LIBCMTD:dbgfree.obj
 0001:00014010       __malloc_dbg               00415010 f   LIBCMTD:dbgheap.obj
 0001:00014040       __nh_malloc                00415040 f   LIBCMTD:dbgheap.obj
 0001:00014060       __nh_malloc_dbg            00415060 f   LIBCMTD:dbgheap.obj
 0001:00014140       __heap_alloc               00415140 f   LIBCMTD:dbgheap.obj
 0001:00014520       __heap_alloc_dbg           00415520 f   LIBCMTD:dbgheap.obj
 0001:00014580       __calloc_dbg_impl          00415580 f   LIBCMTD:dbgheap.obj
 0001:00014600       __calloc_dbg               00415600 f   LIBCMTD:dbgheap.obj
 0001:00014660       __recalloc                 00415660 f   LIBCMTD:dbgheap.obj
 0001:00014690       __realloc_dbg              00415690 f   LIBCMTD:dbgheap.obj
 0001:00014d30       __recalloc_dbg             00415d30 f   LIBCMTD:dbgheap.obj
 0001:00014de0       __expand                   00415de0 f   LIBCMTD:dbgheap.obj
 0001:00014e10       __expand_dbg               00415e10 f   LIBCMTD:dbgheap.obj
 0001:00014f20       __free_nolock              00415f20 f   LIBCMTD:dbgheap.obj
 0001:00014f40       __free_dbg                 00415f40 f   LIBCMTD:dbgheap.obj
 0001:00014fc0       __free_dbg_nolock          00415fc0 f   LIBCMTD:dbgheap.obj
 0001:000154a0       __msize                    004164a0 f   LIBCMTD:dbgheap.obj
 0001:000154c0       __msize_dbg                004164c0 f   LIBCMTD:dbgheap.obj
 0001:000156b0       __CrtSetBreakAlloc         004166b0 f   LIBCMTD:dbgheap.obj
 0001:000156d0       __CrtSetDbgBlockType       004166d0 f   LIBCMTD:dbgheap.obj
 0001:000157c0       __CrtSetAllocHook          004167c0 f   LIBCMTD:dbgheap.obj
 0001:000157e0       __CrtGetAllocHook          004167e0 f   LIBCMTD:dbgheap.obj
 0001:00015830       __CrtCheckMemory           00416830 f   LIBCMTD:dbgheap.obj
 0001:00015c90       __CrtSetDbgFlag            00416c90 f   LIBCMTD:dbgheap.obj
 0001:00015de0       __CrtDoForAllClientObjects 00416de0 f   LIBCMTD:dbgheap.obj
 0001:00015f00       __CrtIsValidPointer        00416f00 f   LIBCMTD:dbgheap.obj
 0001:00015f10       __CrtIsValidHeapPointer    00416f10 f   LIBCMTD:dbgheap.obj
 0001:00015f60       __CrtIsMemoryBlock         00416f60 f   LIBCMTD:dbgheap.obj
 0001:000160d0       __CrtReportBlockType       004170d0 f   LIBCMTD:dbgheap.obj
 0001:00016100       __CrtSetDumpClient         00417100 f   LIBCMTD:dbgheap.obj
 0001:00016120       __CrtGetDumpClient         00417120 f   LIBCMTD:dbgheap.obj
 0001:00016130       __CrtMemCheckpoint         00417130 f   LIBCMTD:dbgheap.obj
 0001:00016350       __CrtMemDifference         00417350 f   LIBCMTD:dbgheap.obj
 0001:00016570       __CrtMemDumpAllObjectsSince 00417570 f   LIBCMTD:dbgheap.obj
 0001:000165b0       ??0_LocaleUpdate@@QAE@PAUlocaleinfo_struct@@@Z 004175b0 f i LIBCMTD:dbgheap.obj
 0001:00016690       ??1_LocaleUpdate@@QAE@XZ   00417690 f i LIBCMTD:dbgheap.obj
 0001:000166c0       ?GetLocaleT@_LocaleUpdate@@QAEPAUlocaleinfo_struct@@XZ 004176c0 f i LIBCMTD:dbgheap.obj
 0001:00016b80       __CrtDumpMemoryLeaks       00417b80 f   LIBCMTD:dbgheap.obj
 0001:00016c00       __CrtMemDumpStatistics     00417c00 f   LIBCMTD:dbgheap.obj
 0001:00016d10       __aligned_malloc           00417d10 f   LIBCMTD:dbgheap.obj
 0001:00016d30       __aligned_malloc_dbg       00417d30 f   LIBCMTD:dbgheap.obj
 0001:00016d60       __aligned_realloc          00417d60 f   LIBCMTD:dbgheap.obj
 0001:00016d90       __aligned_recalloc         00417d90 f   LIBCMTD:dbgheap.obj
 0001:00016dc0       __aligned_realloc_dbg      00417dc0 f   LIBCMTD:dbgheap.obj
 0001:00016df0       __aligned_recalloc_dbg     00417df0 f   LIBCMTD:dbgheap.obj
 0001:00016e20       __aligned_offset_malloc    00417e20 f   LIBCMTD:dbgheap.obj
 0001:00016e40       __aligned_offset_malloc_dbg 00417e40 f   LIBCMTD:dbgheap.obj
 0001:00017000       __aligned_offset_realloc   00418000 f   LIBCMTD:dbgheap.obj
 0001:00017030       __aligned_offset_recalloc  00418030 f   LIBCMTD:dbgheap.obj
 0001:00017060       __aligned_offset_realloc_dbg 00418060 f   LIBCMTD:dbgheap.obj
 0001:00017350       __aligned_offset_recalloc_dbg 00418350 f   LIBCMTD:dbgheap.obj
 0001:00017410       __aligned_free             00418410 f   LIBCMTD:dbgheap.obj
 0001:00017430       __aligned_free_dbg         00418430 f   LIBCMTD:dbgheap.obj
 0001:000174e0       __CrtSetDebugFillThreshold 004184e0 f   LIBCMTD:dbgheap.obj
 0001:00017500       __CrtSetCheckCount         00418500 f   LIBCMTD:dbgheap.obj
 0001:00017520       __CrtGetCheckCount         00418520 f   LIBCMTD:dbgheap.obj
 0001:00017530       __aligned_msize            00418530 f   LIBCMTD:dbgheap.obj
 0001:00017550       __aligned_msize_dbg        00418550 f   LIBCMTD:dbgheap.obj
 0001:00017660       _strlen                    00418660 f   LIBCMTD:strlen.obj
 0001:000176f0       _sprintf                   004186f0 f   LIBCMTD:sprintf.obj
 0001:00017890       __sprintf_l                00418890 f   LIBCMTD:sprintf.obj
 0001:000178c0       _sprintf_s                 004188c0 f   LIBCMTD:sprintf.obj
 0001:000178f0       __sprintf_s_l              004188f0 f   LIBCMTD:sprintf.obj
 0001:00017920       __snprintf_s               00418920 f   LIBCMTD:sprintf.obj
 0001:00017950       __snprintf_s_l             00418950 f   LIBCMTD:sprintf.obj
 0001:00017980       __sprintf_p                00418980 f   LIBCMTD:sprintf.obj
 0001:000179b0       __sprintf_p_l              004189b0 f   LIBCMTD:sprintf.obj
 0001:000179e0       __scprintf                 004189e0 f   LIBCMTD:sprintf.obj
 0001:00017a00       __scprintf_p               00418a00 f   LIBCMTD:sprintf.obj
 0001:00017a20       __scprintf_l               00418a20 f   LIBCMTD:sprintf.obj
 0001:00017a50       __scprintf_p_l             00418a50 f   LIBCMTD:sprintf.obj
 0001:00017a80       __fpmath                   00418a80 f   LIBCMTD:_fpinit_.obj
 0001:00017aa0       __cfltcvt_init             00418aa0 f   LIBCMTD:_fpinit_.obj
 0001:00017b10       ___setfflag                00418b10 f   LIBCMTD:_fpinit_.obj
 0001:00017b30       _strcspn                   00418b30 f   LIBCMTD:strcspn.obj
 0001:00017b80       _memchr                    00418b80 f   LIBCMTD:memchr.obj
 0001:00017c30       _localeconv                00418c30 f   LIBCMTD:lconv.obj
 0001:00017c80       _memmove_s                 00418c80 f   LIBCMTD:memmove_s.obj
 0001:00017de0       __onexit                   00418de0 f   LIBCMTD:onexit.obj
 0001:00017fb0       _atexit                    00418fb0 f   LIBCMTD:onexit.obj
 0001:00017fd0       ___onexitinit              00418fd0 f   LIBCMTD:onexit.obj
 0001:00018030       _WinMainCRTStartup         00419030 f   LIBCMTD:wincrt0.obj
 0001:000182b0       _strerror                  004192b0 f   LIBCMTD:strerror.obj
 0001:00018360       __get_sys_err_msg          00419360 f i LIBCMTD:strerror.obj
 0001:000183a0       _strerror_s                004193a0 f   LIBCMTD:strerror.obj
 0001:000184c0       ___InternalCxxFrameHandler 004194c0 f   LIBCMTD:frame.obj
 0001:00018ac0       ??0bad_exception@std@@QAE@PBD@Z 00419ac0 f i LIBCMTD:frame.obj
 0001:00018af0       ??1bad_exception@std@@UAE@XZ 00419af0 f i LIBCMTD:frame.obj
 0001:00018b10       ??_Gbad_exception@std@@UAEPAXI@Z 00419b10 f i LIBCMTD:frame.obj
 0001:00018b10       ??_Ebad_exception@std@@UAEPAXI@Z 00419b10 f i LIBCMTD:frame.obj
 0001:00018b40       ??0bad_exception@std@@QAE@ABV01@@Z 00419b40 f i LIBCMTD:frame.obj
 0001:00018d00       ___TypeMatch               00419d00 f   LIBCMTD:frame.obj
 0001:00018db0       ___FrameUnwindFilter       00419db0 f   LIBCMTD:frame.obj
 0001:00018e30       ___FrameUnwindToState      00419e30 f   LIBCMTD:frame.obj
 0001:00019370       ___BuildCatchObjectHelper  0041a370 f   LIBCMTD:frame.obj
 0001:000195e0       ___BuildCatchObject        0041a5e0 f   LIBCMTD:frame.obj
 0001:000196f0       ___DestructExceptionObject 0041a6f0 f   LIBCMTD:frame.obj
 0001:000197a0       ___AdjustPointer           0041a7a0 f   LIBCMTD:frame.obj
 0001:000197f0       ?__uncaught_exception@@YA_NXZ 0041a7f0 f   LIBCMTD:frame.obj
 0001:00019810       ___CxxExceptionFilter      0041a810 f   LIBCMTD:frame.obj
 0001:00019a10       ___CxxRegisterExceptionObject 0041aa10 f   LIBCMTD:frame.obj
 0001:00019b40       ___CxxDetectRethrow        0041ab40 f   LIBCMTD:frame.obj
 0001:00019bd0       ___CxxUnregisterExceptionObject 0041abd0 f   LIBCMTD:frame.obj
 0001:00019d50       ___CxxQueryExceptionSize   0041ad50 f   LIBCMTD:frame.obj
 0001:00019d60       ___CxxCallUnwindDtor       0041ad60 f   LIBCMTD:frame.obj
 0001:00019de0       ___CxxCallUnwindDelDtor    0041ade0 f   LIBCMTD:frame.obj
 0001:00019e60       ___CxxCallUnwindStdDelDtor 0041ae60 f   LIBCMTD:frame.obj
 0001:00019ee0       ___CxxCallUnwindVecDtor    0041aee0 f   LIBCMTD:frame.obj
 0001:0001a110       ?_is_exception_typeof@@YAHABVtype_info@@PAU_EXCEPTION_POINTERS@@@Z 0041b110 f   LIBCMTD:frame.obj
 0001:0001a1f0       ____setlc_active_func      0041b1f0 f   LIBCMTD:setlocal.obj
 0001:0001a200       ____unguarded_readlc_active_add_func 0041b200 f   LIBCMTD:setlocal.obj
 0001:0001a210       __configthreadlocale       0041b210 f   LIBCMTD:setlocal.obj
 0001:0001a320       __locterm                  0041b320 f   LIBCMTD:setlocal.obj
 0001:0001a3c0       __free_locale              0041b3c0 f   LIBCMTD:setlocal.obj
 0001:0001a500       ___free_locale             0041b500 f   LIBCMTD:setlocal.obj
 0001:0001a520       __create_locale            0041b520 f   LIBCMTD:setlocal.obj
 0001:0001a750       ___create_locale           0041b750 f   LIBCMTD:setlocal.obj
 0001:0001a770       __get_current_locale       0041b770 f   LIBCMTD:setlocal.obj
 0001:0001a890       ___get_current_locale      0041b890 f   LIBCMTD:setlocal.obj
 0001:0001a8a0       _setlocale                 0041b8a0 f   LIBCMTD:setlocal.obj
 0001:0001b750       __expandlocale             0041c750 f   LIBCMTD:setlocal.obj
 0001:0001ba00       ___init_dummy              0041ca00 f   LIBCMTD:setlocal.obj
 0001:0001ba10       __strcats                  0041ca10 f   LIBCMTD:setlocal.obj
 0001:0001ba90       ___lc_strtolc              0041ca90 f   LIBCMTD:setlocal.obj
 0001:0001bc90       ___lc_lctostr              0041cc90 f   LIBCMTD:setlocal.obj
 0001:0001bd30       ___crtLCMapStringA         0041cd30 f   LIBCMTD:a_map.obj
 0001:0001c020       __MarkAllocaS              0041d020 f i LIBCMTD:a_map.obj
 0001:0001c050       __freea                    0041d050 f i LIBCMTD:a_map.obj
 0001:0001c110       ___pwctype_func            0041d110 f   LIBCMTD:ctype.obj
 0001:0001c120       ___pctype_func             0041d120 f   LIBCMTD:ctype.obj
 0001:0001c170       __isalpha_l                0041d170 f i LIBCMTD:_ctype.obj
 0001:0001c200       _isalpha                   0041d200 f i LIBCMTD:_ctype.obj
 0001:0001c240       __isupper_l                0041d240 f i LIBCMTD:_ctype.obj
 0001:0001c2c0       _isupper                   0041d2c0 f i LIBCMTD:_ctype.obj
 0001:0001c2f0       __islower_l                0041d2f0 f i LIBCMTD:_ctype.obj
 0001:0001c370       _islower                   0041d370 f i LIBCMTD:_ctype.obj
 0001:0001c3a0       __isdigit_l                0041d3a0 f i LIBCMTD:_ctype.obj
 0001:0001c420       _isdigit                   0041d420 f i LIBCMTD:_ctype.obj
 0001:0001c450       __isxdigit_l               0041d450 f i LIBCMTD:_ctype.obj
 0001:0001c4e0       _isxdigit                  0041d4e0 f i LIBCMTD:_ctype.obj
 0001:0001c520       __isspace_l                0041d520 f i LIBCMTD:_ctype.obj
 0001:0001c5a0       _isspace                   0041d5a0 f i LIBCMTD:_ctype.obj
 0001:0001c5d0       __ispunct_l                0041d5d0 f i LIBCMTD:_ctype.obj
 0001:0001c650       _ispunct                   0041d650 f i LIBCMTD:_ctype.obj
 0001:0001c680       __isalnum_l                0041d680 f i LIBCMTD:_ctype.obj
 0001:0001c710       _isalnum                   0041d710 f i LIBCMTD:_ctype.obj
 0001:0001c750       __isprint_l                0041d750 f i LIBCMTD:_ctype.obj
 0001:0001c7e0       _isprint                   0041d7e0 f i LIBCMTD:_ctype.obj
 0001:0001c820       __isgraph_l                0041d820 f i LIBCMTD:_ctype.obj
 0001:0001c8b0       _isgraph                   0041d8b0 f i LIBCMTD:_ctype.obj
 0001:0001c8f0       __iscntrl_l                0041d8f0 f i LIBCMTD:_ctype.obj
 0001:0001c970       _iscntrl                   0041d970 f i LIBCMTD:_ctype.obj
 0001:0001c9a0       ___isascii                 0041d9a0 f i LIBCMTD:_ctype.obj
 0001:0001c9c0       ___toascii                 0041d9c0 f i LIBCMTD:_ctype.obj
 0001:0001c9d0       __iscsymf_l                0041d9d0 f i LIBCMTD:_ctype.obj
 0001:0001ca10       ___iscsymf                 0041da10 f i LIBCMTD:_ctype.obj
 0001:0001ca50       __iscsym_l                 0041da50 f i LIBCMTD:_ctype.obj
 0001:0001ca90       ___iscsym                  0041da90 f i LIBCMTD:_ctype.obj
 0001:0001cad0       ___init_ctype              0041dad0 f   LIBCMTD:initctyp.obj
 0001:0001d080       ____mb_cur_max_func        0041e080 f   LIBCMTD:initctyp.obj
 0001:0001d0d0       ____mb_cur_max_l_func      0041e0d0 f   LIBCMTD:initctyp.obj
 0001:0001d100       ____lc_codepage_func       0041e100 f   LIBCMTD:initctyp.obj
 0001:0001d150       ____lc_collate_cp_func     0041e150 f   LIBCMTD:initctyp.obj
 0001:0001d1a0       ____lc_handle_func         0041e1a0 f   LIBCMTD:initctyp.obj
 0001:0001d1f0       __dosmaperr                0041e1f0 f   LIBCMTD:dosmap.obj
 0001:0001d220       __get_errno_from_oserr     0041e220 f   LIBCMTD:dosmap.obj
 0001:0001d2a0       __set_errno                0041e2a0 f   LIBCMTD:dosmap.obj
 0001:0001d2d0       __get_errno                0041e2d0 f   LIBCMTD:dosmap.obj
 0001:0001d350       __set_doserrno             0041e350 f   LIBCMTD:dosmap.obj
 0001:0001d380       __get_doserrno             0041e380 f   LIBCMTD:dosmap.obj
 0001:0001d400       __errno                    0041e400 f   LIBCMTD:dosmap.obj
 0001:0001d430       ___doserrno                0041e430 f   LIBCMTD:dosmap.obj
 0001:0001d460       _abort                     0041e460 f   LIBCMTD:abort.obj
 0001:0001d4c0       __set_abort_behavior       0041e4c0 f   LIBCMTD:abort.obj
 0001:0001d4f0       __itoa_s                   0041e4f0 f   LIBCMTD:xtoas.obj
 0001:0001d8c0       __ltoa_s                   0041e8c0 f   LIBCMTD:xtoas.obj
 0001:0001d900       __ultoa_s                  0041e900 f   LIBCMTD:xtoas.obj
 0001:0001d920       __i64toa_s                 0041e920 f   LIBCMTD:xtoas.obj
 0001:0001dd20       __ui64toa_s                0041ed20 f   LIBCMTD:xtoas.obj
 0001:0001dd40       ?_RTC_Failure@@YAXPAXH@Z   0041ed40 f   LIBCMTD:_error_.obj
 0001:0001e0f0       ?_RTC_StackFailure@@YAXPAXPBD@Z 0041f0f0 f   LIBCMTD:_error_.obj
 0001:0001e1f0       ?_RTC_AllocaFailure@@YAXPAXPAU_RTC_ALLOCA_NODE@@H@Z 0041f1f0 f   LIBCMTD:_error_.obj
 0001:0001e3a0       __RTC_UninitUse            0041f3a0 f   LIBCMTD:_error_.obj
 0001:0001e490       __RTC_NumErrors            0041f490 f   LIBCMTD:_userapi_.obj
 0001:0001e4a0       __RTC_GetErrDesc           0041f4a0 f   LIBCMTD:_userapi_.obj
 0001:0001e4c0       __RTC_SetErrorType         0041f4c0 f   LIBCMTD:_userapi_.obj
 0001:0001e4f0       __RTC_SetErrorFunc         0041f4f0 f   LIBCMTD:_userapi_.obj
 0001:0001e510       __RTC_SetErrorFuncW        0041f510 f   LIBCMTD:_userapi_.obj
 0001:0001e530       ?_RTC_GetErrorFunc@@YAP6AHHPBDH00ZZPBX@Z 0041f530 f   LIBCMTD:_userapi_.obj
 0001:0001e540       ?_RTC_GetErrorFuncW@@YAP6AHHPB_WH00ZZPBX@Z 0041f540 f   LIBCMTD:_userapi_.obj
 0001:0001e550       __chkesp                   0041f550 f   LIBCMTD:chkesp.obj
 0001:0001e590       __CRT_RTC_INIT             0041f590 f   LIBCMTD:chkesp.obj
 0001:0001e5a0       __CRT_RTC_INITW            0041f5a0 f   LIBCMTD:chkesp.obj
 0001:0001e5b0       __initp_heap_handler       0041f5b0 f   LIBCMTD:handler.obj
 0001:0001e5c0       ?_set_new_handler@@YAP6AHI@ZP6AHI@Z@Z 0041f5c0 f   LIBCMTD:handler.obj
 0001:0001e600       ?_set_new_handler@@YAP6AHI@ZH@Z 0041f600 f   LIBCMTD:handler.obj
 0001:0001e640       ?_query_new_handler@@YAP6AHI@ZXZ 0041f640 f   LIBCMTD:handler.obj
 0001:0001e660       __callnewh                 0041f660 f   LIBCMTD:handler.obj
 0001:0001e6a0       _malloc                    0041f6a0 f   LIBCMTD:dbgmalloc.obj
 0001:0001e6d0       ___report_gsfailure        0041f6d0 f   LIBCMTD:gs_report.obj
 0001:0001e7e0       ?_Type_info_dtor@type_info@@CAXPAV1@@Z 0041f7e0 f   LIBCMTD:typname.obj
 0001:0001e8f0       ?_Name_base@type_info@@CAPBDPBV1@PAU__type_info_node@@@Z 0041f8f0 f   LIBCMTD:typname.obj
 0001:0001eaa0       ?_Type_info_dtor_internal@type_info@@CAXPAV1@@Z 0041faa0 f   LIBCMTD:typname.obj
 0001:0001ebb0       ___unDNameHelper           0041fbb0 f   LIBCMTD:typname.obj
 0001:0001ebf0       ?_Name_base_internal@type_info@@CAPBDPBV1@PAU__type_info_node@@@Z 0041fbf0 f   LIBCMTD:typname.obj
 0001:0001edb0       ___clean_type_info_names_internal 0041fdb0 f   LIBCMTD:typname.obj
 0001:0001ee70       _strcmp                    0041fe70 f   LIBCMTD:strcmp.obj
 0001:0001ef00       __FF_MSGBANNER             0041ff00 f   LIBCMTD:crt0msg.obj
 0001:0001ef50       __GET_RTERRMSG             0041ff50 f   LIBCMTD:crt0msg.obj
 0001:0001efa0       __NMSG_WRITE               0041ffa0 f   LIBCMTD:crt0msg.obj
 0001:0001f2e0       ___getlocaleinfo           004202e0 f   LIBCMTD:inithelp.obj
 0001:0001f5c0       __initp_misc_purevirt      004205c0 f   LIBCMTD:inithelp.obj
 0001:0001f5d0       __VEC_memzero              004205d0 f   LIBCMTD:p4_memset.obj
 0001:0001f690       ___sse2_available_init     00420690 f   LIBCMTD:cpu_disp.obj
 0001:0001f6b0       __flsbuf                   004206b0 f   LIBCMTD:_flsbuf.obj
 0001:0001f970       __woutput_l                00420970 f   LIBCMTD:woutput.obj
 0001:00020b70       _get_int_arg               00421b70 f i LIBCMTD:woutput.obj
 0001:00020b90       _get_int64_arg             00421b90 f i LIBCMTD:woutput.obj
 0001:00020bb0       __vswprintf_l              00421bb0 f   LIBCMTD:vswprint.obj
 0001:00020da0       __vswprintf                00421da0 f   LIBCMTD:vswprint.obj
 0001:00020dc0       ___vswprintf_l             00421dc0 f   LIBCMTD:vswprint.obj
 0001:00020de0       __vscwprintf_helper        00421de0 f   LIBCMTD:vswprint.obj
 0001:00020ec0       __vscwprintf               00421ec0 f   LIBCMTD:vswprint.obj
 0001:00020ee0       __vscwprintf_l             00421ee0 f   LIBCMTD:vswprint.obj
 0001:00020f00       __vscwprintf_p             00421f00 f   LIBCMTD:vswprint.obj
 0001:00020f20       __vscwprintf_p_l           00421f20 f   LIBCMTD:vswprint.obj
 0001:00020f50       __vswprintf_helper         00421f50 f   LIBCMTD:vswprnc.obj
 0001:000211b0       __vswprintf_c              004221b0 f   LIBCMTD:vswprnc.obj
 0001:00021200       __vswprintf_c_l            00422200 f   LIBCMTD:vswprnc.obj
 0001:00021250       __vswprintf_s_l            00422250 f   LIBCMTD:vswprnc.obj
 0001:000214c0       _vswprintf_s               004224c0 f   LIBCMTD:vswprnc.obj
 0001:000214f0       __vsnwprintf_s_l           004224f0 f   LIBCMTD:vswprnc.obj
 0001:000218a0       __vsnwprintf_s             004228a0 f   LIBCMTD:vswprnc.obj
 0001:000218d0       __vswprintf_p              004228d0 f   LIBCMTD:vswprnc.obj
 0001:00021920       __vswprintf_p_l            00422920 f   LIBCMTD:vswprnc.obj
 0001:00021970       __mtinitlocks              00422970 f   LIBCMTD:mlock.obj
 0001:00021a00       __mtdeletelocks            00422a00 f   LIBCMTD:mlock.obj
 0001:00021ac0       __mtinitlocknum            00422ac0 f   LIBCMTD:mlock.obj
 0001:00021c10       __lock                     00422c10 f   LIBCMTD:mlock.obj
 0001:00021c50       __unlock                   00422c50 f   LIBCMTD:mlock.obj
 0001:00021c70       __lockerr_exit             00422c70 f   LIBCMTD:mlock.obj
 0001:00021c90       __except_handler4          00422c90 f   LIBCMTD:chandler4.obj
 0001:00021eb0       __CallSettingFrame@12      00422eb0 f   LIBCMTD:lowhelpr.obj
 0001:00021ed7       __NLG_Return               00422ed7     LIBCMTD:lowhelpr.obj
 0001:00021f00       __encoded_null             00422f00 f   LIBCMTD:tidtable.obj
 0001:00021f10       ___crtTlsAlloc@4           00422f10 f   LIBCMTD:tidtable.obj
 0001:00021f20       ___fls_getvalue@4          00422f20 f   LIBCMTD:tidtable.obj
 0001:00021f40       ___get_flsindex            00422f40 f   LIBCMTD:tidtable.obj
 0001:00021f50       ___set_flsgetvalue         00422f50 f   LIBCMTD:tidtable.obj
 0001:00021fa0       ___fls_setvalue@8          00422fa0 f   LIBCMTD:tidtable.obj
 0001:00021fd0       __mtinit                   00422fd0 f   LIBCMTD:tidtable.obj
 0001:000221d0       __mtterm                   004231d0 f   LIBCMTD:tidtable.obj
 0001:00022230       __initptd                  00423230 f   LIBCMTD:tidtable.obj
 0001:00022360       __getptd_noexit            00423360 f   LIBCMTD:tidtable.obj
 0001:00022420       __getptd                   00423420 f   LIBCMTD:tidtable.obj
 0001:00022450       __freefls@4                00423450 f   LIBCMTD:tidtable.obj
 0001:00022660       __freeptd                  00423660 f   LIBCMTD:tidtable.obj
 0001:000226e0       ___threadid                004236e0 f   LIBCMTD:tidtable.obj
 0001:000226f0       ___threadhandle            004236f0 f   LIBCMTD:tidtable.obj
 0001:00022700       __initp_eh_hooks           00423700 f   LIBCMTD:hooks.obj
 0001:00022720       ?terminate@@YAXXZ          00423720 f   LIBCMTD:hooks.obj
 0001:000227a0       ?unexpected@@YAXXZ         004237a0 f   LIBCMTD:hooks.obj
 0001:000227d0       ?_inconsistency@@YAXXZ     004237d0 f   LIBCMTD:hooks.obj
 0001:00022860       __CrtDbgBreak              00423860 f   LIBCMTD:dbgrptt.obj
 0001:00022870       __CrtSetReportMode         00423870 f   LIBCMTD:dbgrptt.obj
 0001:000229b0       __CrtSetReportFile         004239b0 f   LIBCMTD:dbgrptt.obj
 0001:00022ab0       __CrtSetReportHook         00423ab0 f   LIBCMTD:dbgrptt.obj
 0001:00022ad0       __CrtGetReportHook         00423ad0 f   LIBCMTD:dbgrptt.obj
 0001:00022ae0       __VCrtDbgReportA           00423ae0 f   LIBCMTD:dbgrptt.obj
 0001:00023310       __VCrtDbgReportW           00424310 f   LIBCMTD:dbgrptt.obj
 0001:00023c40       __cinit                    00424c40 f   LIBCMTD:crt0dat.obj
 0001:00023ce0       _exit                      00424ce0 f   LIBCMTD:crt0dat.obj
 0001:00023d00       __exit                     00424d00 f   LIBCMTD:crt0dat.obj
 0001:00023d20       __cexit                    00424d20 f   LIBCMTD:crt0dat.obj
 0001:00023d40       __c_exit                   00424d40 f   LIBCMTD:crt0dat.obj
 0001:00023d60       __amsg_exit                00424d60 f   LIBCMTD:crt0dat.obj
 0001:00023d90       ___freeCrtMemory           00424d90 f   LIBCMTD:crt0dat.obj
 0001:000240d0       ___crtCorExitProcess       004250d0 f   LIBCMTD:crt0dat.obj
 0001:00024110       ___crtExitProcess          00425110 f   LIBCMTD:crt0dat.obj
 0001:00024130       __lockexit                 00425130 f   LIBCMTD:crt0dat.obj
 0001:00024150       __unlockexit               00425150 f   LIBCMTD:crt0dat.obj
 0001:00024170       __init_pointers            00425170 f   LIBCMTD:crt0dat.obj
 0001:00024200       __initterm_e               00425200 f   LIBCMTD:crt0dat.obj
 0001:00024240       __get_wpgmptr              00425240 f   LIBCMTD:crt0dat.obj
 0001:00024330       __get_pgmptr               00425330 f   LIBCMTD:crt0dat.obj
 0001:00024420       __initp_misc_winsig        00425420 f   LIBCMTD:winsig.obj
 0001:00024450       _signal                    00425450 f   LIBCMTD:winsig.obj
 0001:000248f0       _raise                     004258f0 f   LIBCMTD:winsig.obj
 0001:00024c60       ___get_sigabrt             00425c60 f   LIBCMTD:winsig.obj
 0001:00024c80       ___fpecode                 00425c80 f   LIBCMTD:winsig.obj
 0001:00024c90       ___pxcptinfoptrs           00425c90 f   LIBCMTD:winsig.obj
 0001:00024ca0       ___crtMessageBoxW          00425ca0 f   LIBCMTD:crtmboxw.obj
 0001:00024ec0       _memcpy_s                  00425ec0 f   LIBCMTD:memcpy_s.obj
 0001:00025050       _wcslen                    00426050 f   LIBCMTD:wcslen.obj
 0001:00025080       _wcscpy_s                  00426080 f   LIBCMTD:wcscpy_s.obj
 0001:00025360       __chkstk                   00426360 f   LIBCMTD:chkstk.obj
 0001:00025360       __alloca_probe             00426360     LIBCMTD:chkstk.obj
 0001:00025390       _strcpy_s                  00426390 f   LIBCMTD:strcpy_s.obj
 0001:00025670       __CrtDefaultAllocHook      00426670 f   LIBCMTD:dbghook.obj
 0001:00025680       __crt_debugger_hook        00426680 f   LIBCMTD:dbghook.obj
 0001:000256a0       __VEC_memcpy               004266a0 f   LIBCMTD:p4_memcpy.obj
 0001:000257b0       __malloc_base              004267b0 f   LIBCMTD:malloc.obj
 0001:00025840       __heap_alloc_base          00426840 f i LIBCMTD:malloc.obj
 0001:000258a0       __CrtSetReportHook2        004268a0 f   LIBCMTD:dbgrpt.obj
 0001:00025bd0       __CrtDbgReport             00426bd0 f   LIBCMTD:dbgrpt.obj
 0001:00025c10       __CrtDbgReportV            00426c10 f i LIBCMTD:dbgrpt.obj
 0001:00025c40       ___crtMessageWindowA       00426c40 f   LIBCMTD:dbgrpt.obj
 0001:00026040       __expand_base              00427040 f   LIBCMTD:expand.obj
 0001:000261a0       __realloc_base             004271a0 f   LIBCMTD:realloc.obj
 0001:000262a0       __free_base                004272a0 f   LIBCMTD:free.obj
 0001:000262f0       __heapchk                  004272f0 f   LIBCMTD:heapchk.obj
 0001:00026320       __heapset                  00427320 f   LIBCMTD:heapchk.obj
 0001:00026330       __heap_init                00427330 f   LIBCMTD:heapinit.obj
 0001:00026370       __heap_term                00427370 f   LIBCMTD:heapinit.obj
 0001:00026390       __get_heap_handle          00427390 f   LIBCMTD:heapinit.obj
 0001:000263d0       ___updatetmbcinfo          004273d0 f   LIBCMTD:mbctype.obj
 0001:000264e0       __setmbcp                  004274e0 f   LIBCMTD:mbctype.obj
 0001:00026890       __setmbcp_nolock           00427890 f   LIBCMTD:mbctype.obj
 0001:00027080       __getmbcp                  00428080 f   LIBCMTD:mbctype.obj
 0001:000270f0       ___initmbctable            004280f0 f   LIBCMTD:mbctype.obj
 0001:00027120       ___addlocaleref            00428120 f   LIBCMTD:localref.obj
 0001:00027240       ___removelocaleref         00428240 f   LIBCMTD:localref.obj
 0001:00027370       ___freetlocinfo            00428370 f   LIBCMTD:localref.obj
 0001:00027650       __updatetlocinfoEx_nolock  00428650 f   LIBCMTD:localref.obj
 0001:000276d0       ___updatetlocinfo          004286d0 f   LIBCMTD:localref.obj
 0001:000277a0       __chvalidator              004287a0 f   LIBCMTD:isctype.obj
 0001:000277f0       __chvalidator_l            004287f0 f   LIBCMTD:isctype.obj
 0001:000278a0       __isctype_l                004288a0 f   LIBCMTD:isctype.obj
 0001:000279c0       __isctype                  004289c0 f   LIBCMTD:isctype.obj
 0001:00027a00       __output_l                 00428a00 f   LIBCMTD:output.obj
 0001:00028e70       _get_short_arg             00429e70 f i LIBCMTD:output.obj
 0001:00028e90       __vsprintf_l               00429e90 f   LIBCMTD:vsprintf.obj
 0001:00029030       _vsprintf                  0042a030 f   LIBCMTD:vsprintf.obj
 0001:00029050       __vscprintf_helper         0042a050 f   LIBCMTD:vsprintf.obj
 0001:00029130       __vscprintf                0042a130 f   LIBCMTD:vsprintf.obj
 0001:00029150       __vscprintf_l              0042a150 f   LIBCMTD:vsprintf.obj
 0001:00029170       __vscprintf_p              0042a170 f   LIBCMTD:vsprintf.obj
 0001:00029190       __vscprintf_p_l            0042a190 f   LIBCMTD:vsprintf.obj
 0001:000291b0       __vsnprintf_helper         0042a1b0 f   LIBCMTD:vsnprnc.obj
 0001:000293a0       __vsnprintf_c              0042a3a0 f   LIBCMTD:vsnprnc.obj
 0001:000293f0       __vsnprintf_c_l            0042a3f0 f   LIBCMTD:vsnprnc.obj
 0001:00029440       __vsprintf_s_l             0042a440 f   LIBCMTD:vsnprnc.obj
 0001:000296b0       _vsprintf_s                0042a6b0 f   LIBCMTD:vsnprnc.obj
 0001:000296e0       __vsnprintf_s_l            0042a6e0 f   LIBCMTD:vsnprnc.obj
 0001:00029a80       __vsnprintf_s              0042aa80 f   LIBCMTD:vsnprnc.obj
 0001:00029ab0       __vsprintf_p               0042aab0 f   LIBCMTD:vsnprnc.obj
 0001:00029b00       __vsprintf_p_l             0042ab00 f   LIBCMTD:vsnprnc.obj
 0001:00029b50       __setdefaultprecision      0042ab50 f   LIBCMTD:fp8.obj
 0001:00029b90       __forcdecpt                0042ab90 f   LIBCMTD:cvt.obj
 0001:00029bb0       __forcdecpt_l              0042abb0 f   LIBCMTD:cvt.obj
 0001:00029c70       __cropzeros                0042ac70 f   LIBCMTD:cvt.obj
 0001:00029c90       __cropzeros_l              0042ac90 f   LIBCMTD:cvt.obj
 0001:00029da0       __positive                 0042ada0 f   LIBCMTD:cvt.obj
 0001:00029dd0       __fassign_l                0042add0 f   LIBCMTD:cvt.obj
 0001:00029e30       __fassign                  0042ae30 f   LIBCMTD:cvt.obj
 0001:00029e50       __cftoe_l                  0042ae50 f   LIBCMTD:cvt.obj
 0001:0002a3a0       __cftoe                    0042b3a0 f   LIBCMTD:cvt.obj
 0001:0002a3d0       __cftoa_l                  0042b3d0 f   LIBCMTD:cvt.obj
 0001:0002abb0       ?strrchr@@YAPADPADH@Z      0042bbb0 f i LIBCMTD:cvt.obj
 0001:0002abd0       __cftoa                    0042bbd0 f   LIBCMTD:cvt.obj
 0001:0002ac00       __cftof_l                  0042bc00 f   LIBCMTD:cvt.obj
 0001:0002b010       __cftof                    0042c010 f   LIBCMTD:cvt.obj
 0001:0002b040       __cftog_l                  0042c040 f   LIBCMTD:cvt.obj
 0001:0002b270       __cftog                    0042c270 f   LIBCMTD:cvt.obj
 0001:0002b2a0       __cfltcvt_l                0042c2a0 f   LIBCMTD:cvt.obj
 0001:0002b360       __cfltcvt                  0042c360 f   LIBCMTD:cvt.obj
 0001:0002b3c0       __initp_misc_cfltcvt_tab   0042c3c0 f   LIBCMTD:cmiscdat.obj
 0001:0002b400       ?__CxxUnhandledExceptionFilter@@YGJPAU_EXCEPTION_POINTERS@@@Z 0042c400 f   LIBCMTD:unhandld.obj
 0001:0002b470       ___CxxSetUnhandledExceptionFilter 0042c470 f   LIBCMTD:unhandld.obj
 0001:0002b490       ___security_init_cookie    0042c490 f   LIBCMTD:gs_support.obj
 0001:0002b570       ___CppXcptFilter           0042c570 f   LIBCMTD:winxfltr.obj
 0001:0002b5a0       __XcptFilter               0042c5a0 f   LIBCMTD:winxfltr.obj
 0001:0002b800       __wincmdln                 0042c800 f   LIBCMTD:wincmdln.obj
 0001:0002b8d0       __setenvp                  0042c8d0 f   LIBCMTD:stdenvp.obj
 0001:0002ba70       __setargv                  0042ca70 f   LIBCMTD:stdargv.obj
 0001:0002bb90       __set_pgmptr               0042cb90 f i LIBCMTD:stdargv.obj
 0001:0002bf00       ___crtGetEnvironmentStringsA 0042cf00 f   LIBCMTD:a_env.obj
 0001:0002c000       __ioinit                   0042d000 f   LIBCMTD:ioinit.obj
 0001:0002c410       __ioterm                   0042d410 f   LIBCMTD:ioinit.obj
 0001:0002c4b0       __RTC_Initialize           0042d4b0 f   LIBCMTD:_initsect_.obj
 0001:0002c4e0       __RTC_Terminate            0042d4e0 f   LIBCMTD:_initsect_.obj
 0001:0002c510       ___sys_nerr                0042d510 f   LIBCMTD:syserr.obj
 0001:0002c520       ___sys_errlist             0042d520 f   LIBCMTD:syserr.obj
 0001:0002c530       _strncpy_s                 0042d530 f   LIBCMTD:strncpy_s.obj
 0001:0002c920       ?_ValidateRead@@YAHPBXI@Z  0042d920 f   LIBCMTD:validate.obj
 0001:0002c950       ?_ValidateWrite@@YAHPAXI@Z 0042d950 f   LIBCMTD:validate.obj
 0001:0002c980       ?_ValidateExecute@@YAHP6GHXZ@Z 0042d980 f   LIBCMTD:validate.obj
 0001:0002c9b0       ___init_time               0042d9b0 f   LIBCMTD:inittime.obj
 0001:0002d6e0       ___free_lc_time            0042e6e0 f   LIBCMTD:inittime.obj
 0001:0002dd50       ___init_numeric            0042ed50 f   LIBCMTD:initnum.obj
 0001:0002e100       ___free_lconv_num          0042f100 f   LIBCMTD:initnum.obj
 0001:0002e1b0       ___init_monetary           0042f1b0 f   LIBCMTD:initmon.obj
 0001:0002e7a0       ___free_lconv_mon          0042f7a0 f   LIBCMTD:initmon.obj
 0001:0002e950       ___init_collate            0042f950 f   LIBCMTD:initcoll.obj
 0001:0002e960       _strncmp                   0042f960 f   LIBCMTD:strncmp.obj
 0001:0002eae0       _strpbrk                   0042fae0 f   LIBCMTD:strpbrk.obj
 0001:0002eb20       _memcmp                    0042fb20 f   LIBCMTD:memcmp.obj
 0001:0002f590       ___crtGetStringTypeA       00430590 f   LIBCMTD:a_str.obj
 0001:0002f700       _strcat_s                  00430700 f   LIBCMTD:strcat_s.obj
 0001:0002fae0       ___get_qualified_locale    00430ae0 f   LIBCMTD:getqloc.obj
 0001:00030940       __aulldiv                  00431940 f   LIBCMTD:ulldiv.obj
 0001:000309b0       __aullrem                  004319b0 f   LIBCMTD:ullrem.obj
 0001:00030a30       ?_RTC_GetSrcLine@@YAHPAEPA_WKPAH1K@Z 00431a30 f   LIBCMTD:_pdblkup_.obj
 0001:00031080       ___unDName                 00432080 f   LIBCMTD:undname.obj
 0001:00031160       ?Constructor@_HeapManager@@QAEXP6APAXI@ZP6AXPAX@Z@Z 00432160 f i LIBCMTD:undname.obj
 0001:000311a0       ?Destructor@_HeapManager@@QAEXXZ 004321a0 f i LIBCMTD:undname.obj
 0001:000311f0       ___unDNameEx               004321f0 f   LIBCMTD:undname.obj
 0001:000312d0       ??0UnDecorator@@QAE@PADPBDHP6APADJ@ZK@Z 004322d0 f i LIBCMTD:undname.obj
 0001:00031370       ??BUnDecorator@@QAEPADXZ   00432370 f i LIBCMTD:undname.obj
 0001:000315a0       ?dbGetString@DName@@QBEPADXZ 004325a0 f   LIBCMTD:undname.obj
 0001:000315d0       ?getDecoratedName@UnDecorator@@CA?AVDName@@XZ 004325d0 f   LIBCMTD:undname.obj
 0001:000318e0       ?getSymbolName@UnDecorator@@CA?AVDName@@XZ 004328e0 f i LIBCMTD:undname.obj
 0001:00031960       ?getZName@UnDecorator@@CA?AVDName@@_N0@Z 00432960 f   LIBCMTD:undname.obj
 0001:00031c00       ?getOperatorName@UnDecorator@@CA?AVDName@@_NPA_N@Z 00432c00 f i LIBCMTD:undname.obj
 0001:00032570       ?getStringEncoding@UnDecorator@@CA?AVDName@@PADH@Z 00433570 f   LIBCMTD:undname.obj
 0001:00032670       ?getScope@UnDecorator@@CA?AVDName@@XZ 00433670 f   LIBCMTD:undname.obj
 0001:00032a50       ?getSignedDimension@UnDecorator@@CA?AVDName@@XZ 00433a50 f   LIBCMTD:undname.obj
 0001:00032ad0       ?getDimension@UnDecorator@@CA?AVDName@@_N@Z 00433ad0 f   LIBCMTD:undname.obj
 0001:00032d80       ?getNumberOfDimensions@UnDecorator@@CAHXZ 00433d80 f   LIBCMTD:undname.obj
 0001:00032e80       ?getTemplateName@UnDecorator@@CA?AVDName@@_N@Z 00433e80 f   LIBCMTD:undname.obj
 0001:00033040       ?getTemplateArgumentList@UnDecorator@@CA?AVDName@@XZ 00434040 f   LIBCMTD:undname.obj
 0001:000332c0       ?getTemplateConstant@UnDecorator@@CA?AVDName@@XZ 004342c0 f   LIBCMTD:undname.obj
 0001:00033750       ?composeDeclaration@UnDecorator@@CA?AVDName@@ABV2@@Z 00434750 f i LIBCMTD:undname.obj
 0001:00034d50       ?getTypeEncoding@UnDecorator@@CAHXZ 00435d50 f i LIBCMTD:undname.obj
 0001:00035790       ?getBasedType@UnDecorator@@CA?AVDName@@XZ 00436790 f   LIBCMTD:undname.obj
 0001:00035850       ?getScopedName@UnDecorator@@CA?AVDName@@XZ 00436850 f   LIBCMTD:undname.obj
 0001:00035970       ?getCallingConvention@UnDecorator@@CA?AVDName@@XZ 00436970 f   LIBCMTD:undname.obj
 0001:00035af0       ?getReturnType@UnDecorator@@CA?AVDName@@PAV2@@Z 00436af0 f   LIBCMTD:undname.obj
 0001:00035b40       ?getDataType@UnDecorator@@CA?AVDName@@PAV2@@Z 00436b40 f   LIBCMTD:undname.obj
 0001:00035c60       ?getPrimaryDataType@UnDecorator@@CA?AVDName@@ABV2@@Z 00436c60 f   LIBCMTD:undname.obj
 0001:00036000       ?getArgumentTypes@UnDecorator@@CA?AVDName@@XZ 00437000 f   LIBCMTD:undname.obj
 0001:00036160       ?getArgumentList@UnDecorator@@CA?AVDName@@XZ 00437160 f   LIBCMTD:undname.obj
 0001:000362b0       ?getThrowTypes@UnDecorator@@CA?AVDName@@XZ 004372b0 f   LIBCMTD:undname.obj
 0001:00036360       ?getBasicDataType@UnDecorator@@CA?AVDName@@ABV2@@Z 00437360 f   LIBCMTD:undname.obj
 0001:00036920       ?getECSUDataType@UnDecorator@@CA?AVDName@@XZ 00437920 f   LIBCMTD:undname.obj
 0001:00036af0       ?getECSUName@UnDecorator@@CA?AVDName@@XZ 00437af0 f i LIBCMTD:undname.obj
 0001:00036b10       ?getEnumType@UnDecorator@@CA?AVDName@@XZ 00437b10 f i LIBCMTD:undname.obj
 0001:00036c60       ?getFunctionIndirectType@UnDecorator@@CA?AVDName@@ABV2@@Z 00437c60 f   LIBCMTD:undname.obj
 0001:000370a0       ?getPtrRefType@UnDecorator@@CA?AVDName@@ABV2@0PBD@Z 004380a0 f   LIBCMTD:undname.obj
 0001:00037200       ?getExtendedDataIndirectType@UnDecorator@@CA?AVDName@@AAPBDAA_NH@Z 00438200 f   LIBCMTD:undname.obj
 0001:00037420       ?getDataIndirectType@UnDecorator@@CA?AVDName@@ABV2@PBD0H@Z 00438420 f   LIBCMTD:undname.obj
 0001:00037b20       ?getPtrRefDataType@UnDecorator@@CA?AVDName@@ABV2@H@Z 00438b20 f i LIBCMTD:undname.obj
 0001:00037c60       ?getArrayType@UnDecorator@@CA?AVDName@@ABV2@@Z 00438c60 f i LIBCMTD:undname.obj
 0001:00037e90       ?getLexicalFrame@UnDecorator@@CA?AVDName@@XZ 00438e90 f i LIBCMTD:undname.obj
 0001:00037ed0       ?getThisType@UnDecorator@@CA?AVDName@@XZ 00438ed0 f i LIBCMTD:undname.obj
 0001:00037f10       ?getPointerType@UnDecorator@@CA?AVDName@@ABV2@0@Z 00438f10 f i LIBCMTD:undname.obj
 0001:00037f40       ?getPointerTypeArray@UnDecorator@@CA?AVDName@@ABV2@0@Z 00438f40 f i LIBCMTD:undname.obj
 0001:00037f70       ?getReferenceType@UnDecorator@@CA?AVDName@@ABV2@0PBD@Z 00438f70 f i LIBCMTD:undname.obj
 0001:00037fa0       ?getDisplacement@UnDecorator@@CA?AVDName@@XZ 00438fa0 f i LIBCMTD:undname.obj
 0001:00037fc0       ?getCallIndex@UnDecorator@@CA?AVDName@@XZ 00438fc0 f i LIBCMTD:undname.obj
 0001:00037fe0       ?getGuardNumber@UnDecorator@@CA?AVDName@@XZ 00438fe0 f i LIBCMTD:undname.obj
 0001:00038000       ?getVbTableType@UnDecorator@@CA?AVDName@@ABV2@@Z 00439000 f i LIBCMTD:undname.obj
 0001:00038020       ?getVCallThunkType@UnDecorator@@CA?AVDName@@XZ 00439020 f i LIBCMTD:undname.obj
 0001:00038080       ?getVfTableType@UnDecorator@@CA?AVDName@@ABV2@@Z 00439080 f i LIBCMTD:undname.obj
 0001:00038240       ?getStorageConvention@UnDecorator@@CA?AVDName@@XZ 00439240 f i LIBCMTD:undname.obj
 0001:00038260       ?getDataIndirectType@UnDecorator@@CA?AVDName@@XZ 00439260 f i LIBCMTD:undname.obj
 0001:000382a0       ?getVdispMapType@UnDecorator@@CA?AVDName@@ABV2@@Z 004392a0 f i LIBCMTD:undname.obj
 0001:00038310       ?getExternalDataType@UnDecorator@@CA?AVDName@@ABV2@@Z 00439310 f i LIBCMTD:undname.obj
 0001:000383a0       ?doMSKeywords@UnDecorator@@SAHXZ 004393a0 f i LIBCMTD:undname.obj
 0001:000383c0       ?doPtr64@UnDecorator@@SAHXZ 004393c0 f i LIBCMTD:undname.obj
 0001:000383e0       ?doFunctionReturns@UnDecorator@@SAHXZ 004393e0 f i LIBCMTD:undname.obj
 0001:00038400       ?doAllocationModel@UnDecorator@@SAHXZ 00439400 f i LIBCMTD:undname.obj
 0001:00038420       ?doAllocationLanguage@UnDecorator@@SAHXZ 00439420 f i LIBCMTD:undname.obj
 0001:00038440       ?doThisTypes@UnDecorator@@SAHXZ 00439440 f i LIBCMTD:undname.obj
 0001:00038460       ?doAccessSpecifiers@UnDecorator@@SAHXZ 00439460 f i LIBCMTD:undname.obj
 0001:00038480       ?doThrowTypes@UnDecorator@@SAHXZ 00439480 f i LIBCMTD:undname.obj
 0001:000384a0       ?doMemberTypes@UnDecorator@@SAHXZ 004394a0 f i LIBCMTD:undname.obj
 0001:000384c0       ?doNameOnly@UnDecorator@@SAHXZ 004394c0 f i LIBCMTD:undname.obj
 0001:000384e0       ?doTypeOnly@UnDecorator@@SAHXZ 004394e0 f i LIBCMTD:undname.obj
 0001:00038500       ?haveTemplateParameters@UnDecorator@@SAHXZ 00439500 f i LIBCMTD:undname.obj
 0001:00038520       ?doEcsu@UnDecorator@@SAHXZ 00439520 f i LIBCMTD:undname.obj
 0001:00038540       ?doEllipsis@UnDecorator@@SAHXZ 00439540 f i LIBCMTD:undname.obj
 0001:00038560       ?UScore@UnDecorator@@SAPBDW4Tokens@@@Z 00439560 f   LIBCMTD:undname.obj
 0001:00038590       ?doUnderScore@UnDecorator@@SAHXZ 00439590 f i LIBCMTD:undname.obj
 0001:000385b0       ??2@YAPAXIAAV_HeapManager@@H@Z 004395b0 f i LIBCMTD:undname.obj
 0001:000385d0       ?getMemory@_HeapManager@@QAEPAXIH@Z 004395d0 f   LIBCMTD:undname.obj
 0001:000386e0       ??0Block@_HeapManager@@QAE@XZ 004396e0 f i LIBCMTD:undname.obj
 0001:00038700       ??H@YA?AVDName@@DABV0@@Z   00439700 f i LIBCMTD:undname.obj
 0001:00038730       ??H@YA?AVDName@@W4DNameStatus@@ABV0@@Z 00439730 f i LIBCMTD:undname.obj
 0001:00038760       ??H@YA?AVDName@@PBDABV0@@Z 00439760 f i LIBCMTD:undname.obj
 0001:00038790       ??0DName@@QAE@XZ           00439790 f i LIBCMTD:undname.obj
 0001:00038850       ??0DName@@QAE@D@Z          00439850 f   LIBCMTD:undname.obj
 0001:00038930       ??0DName@@QAE@ABV0@@Z      00439930 f i LIBCMTD:undname.obj
 0001:00038960       ??0DName@@QAE@PAV0@@Z      00439960 f   LIBCMTD:undname.obj
 0001:00038a90       ??0DName@@QAE@PBD@Z        00439a90 f   LIBCMTD:undname.obj
 0001:00038b80       ??0DName@@QAE@AAPBDD@Z     00439b80 f   LIBCMTD:undname.obj
 0001:00038e40       ?doNoIdentCharCheck@UnDecorator@@SAHXZ 00439e40 f i LIBCMTD:undname.obj
 0001:00038e60       ??0DName@@QAE@_K@Z         00439e60 f   LIBCMTD:undname.obj
 0001:00038fa0       ??0DName@@QAE@_J@Z         00439fa0 f   LIBCMTD:undname.obj
 0001:00039120       ??0DName@@QAE@W4DNameStatus@@@Z 0043a120 f   LIBCMTD:undname.obj
 0001:00039240       ?isValid@DName@@QBEHXZ     0043a240 f i LIBCMTD:undname.obj
 0001:00039270       ?isEmpty@DName@@QBEHXZ     0043a270 f i LIBCMTD:undname.obj
 0001:00039290       ?status@DName@@QBE?AW4DNameStatus@@XZ 0043a290 f i LIBCMTD:undname.obj
 0001:000392b0       ?setPtrRef@DName@@QAEAAV1@XZ 0043a2b0 f i LIBCMTD:undname.obj
 0001:000392e0       ?isPtrRef@DName@@QBEHXZ    0043a2e0 f i LIBCMTD:undname.obj
 0001:00039300       ?isUDC@DName@@QBEHXZ       0043a300 f i LIBCMTD:undname.obj
 0001:00039340       ?setIsUDC@DName@@QAEXXZ    0043a340 f i LIBCMTD:undname.obj
 0001:00039370       ?isUDTThunk@DName@@QBEHXZ  0043a370 f i LIBCMTD:undname.obj
 0001:000393b0       ?setIsArray@DName@@QAEXXZ  0043a3b0 f i LIBCMTD:undname.obj
 0001:000393d0       ?isArray@DName@@QBEHXZ     0043a3d0 f i LIBCMTD:undname.obj
 0001:000393f0       ?isNoTE@DName@@QBEHXZ      0043a3f0 f i LIBCMTD:undname.obj
 0001:00039410       ?setIsNoTE@DName@@QAEXXZ   0043a410 f i LIBCMTD:undname.obj
 0001:00039430       ?isPinPtr@DName@@QBEHXZ    0043a430 f i LIBCMTD:undname.obj
 0001:00039450       ?setIsPinPtr@DName@@QAEXXZ 0043a450 f i LIBCMTD:undname.obj
 0001:00039470       ?isComArray@DName@@QBEHXZ  0043a470 f i LIBCMTD:undname.obj
 0001:00039490       ?setIsComArray@DName@@QAEXXZ 0043a490 f i LIBCMTD:undname.obj
 0001:000394b0       ?isVCallThunk@DName@@QBEHXZ 0043a4b0 f i LIBCMTD:undname.obj
 0001:000394d0       ?setIsVCallThunk@DName@@QAEXXZ 0043a4d0 f i LIBCMTD:undname.obj
 0001:000394f0       ?length@DName@@QBEHXZ      0043a4f0 f i LIBCMTD:undname.obj
 0001:00039520       ?getLastChar@DName@@QBEDXZ 0043a520 f i LIBCMTD:undname.obj
 0001:00039550       ?getString@DName@@QBEPADPADH@Z 0043a550 f i LIBCMTD:undname.obj
 0001:000395e0       ?getString@DName@@QBEPADPAD0@Z 0043a5e0 f i LIBCMTD:undname.obj
 0001:00039620       ??HDName@@QBE?AV0@D@Z      0043a620 f   LIBCMTD:undname.obj
 0001:00039660       ??HDName@@QBE?AV0@PBD@Z    0043a660 f   LIBCMTD:undname.obj
 0001:000396a0       ??HDName@@QBE?AV0@ABV0@@Z  0043a6a0 f   LIBCMTD:undname.obj
 0001:000396e0       ??HDName@@QBE?AV0@PAV0@@Z  0043a6e0 f   LIBCMTD:undname.obj
 0001:00039720       ??HDName@@QBE?AV0@W4DNameStatus@@@Z 0043a720 f   LIBCMTD:undname.obj
 0001:00039760       ?append@DName@@AAEXPAVDNameNode@@@Z 0043a760 f   LIBCMTD:undname.obj
 0001:000397f0       ??YDName@@QAEAAV0@D@Z      0043a7f0 f   LIBCMTD:undname.obj
 0001:00039880       ??YDName@@QAEAAV0@PBD@Z    0043a880 f   LIBCMTD:undname.obj
 0001:00039920       ??YDName@@QAEAAV0@ABV0@@Z  0043a920 f   LIBCMTD:undname.obj
 0001:00039990       ??YDName@@QAEAAV0@PAV0@@Z  0043a990 f   LIBCMTD:undname.obj
 0001:00039a50       ??YDName@@QAEAAV0@W4DNameStatus@@@Z 0043aa50 f   LIBCMTD:undname.obj
 0001:00039ac0       ??_5DName@@QAEAAV0@ABV0@@Z 0043aac0 f   LIBCMTD:undname.obj
 0001:00039b20       ??4DName@@QAEAAV0@D@Z      0043ab20 f i LIBCMTD:undname.obj
 0001:00039c00       ??4DName@@QAEAAV0@PBD@Z    0043ac00 f   LIBCMTD:undname.obj
 0001:00039ce0       ??4DName@@QAEAAV0@ABV0@@Z  0043ace0 f   LIBCMTD:undname.obj
 0001:00039d10       ??4DName@@QAEAAV0@PAV0@@Z  0043ad10 f   LIBCMTD:undname.obj
 0001:00039e50       ??4DName@@QAEAAV0@W4DNameStatus@@@Z 0043ae50 f   LIBCMTD:undname.obj
 0001:00039f50       ?doPchar@DName@@AAEXPBDH@Z 0043af50 f   LIBCMTD:undname.obj
 0001:0003a090       ?isFull@Replicator@@QBEHXZ 0043b090 f i LIBCMTD:undname.obj
 0001:0003a0b0       ??0Replicator@@QAE@XZ      0043b0b0 f i LIBCMTD:undname.obj
 0001:0003a0d0       ??YReplicator@@QAEAAV0@ABVDName@@@Z 0043b0d0 f   LIBCMTD:undname.obj
 0001:0003a160       ??AReplicator@@QBE?AVDName@@H@Z 0043b160 f   LIBCMTD:undname.obj
 0001:0003a1d0       ??0DNameNode@@IAE@XZ       0043b1d0 f   LIBCMTD:undname.obj
 0001:0003a1f0       ??0charNode@@QAE@D@Z       0043b1f0 f   LIBCMTD:undname.obj
 0001:0003a220       ?length@charNode@@UBEHXZ   0043b220 f i LIBCMTD:undname.obj
 0001:0003a240       ?getLastChar@charNode@@UBEDXZ 0043b240 f i LIBCMTD:undname.obj
 0001:0003a260       ?getString@charNode@@UBEPADPAD0@Z 0043b260 f i LIBCMTD:undname.obj
 0001:0003a290       ??0pcharNode@@QAE@PBDH@Z   0043b290 f   LIBCMTD:undname.obj
 0001:0003a320       ?length@pcharNode@@UBEHXZ  0043b320 f i LIBCMTD:undname.obj
 0001:0003a340       ?getLastChar@pcharNode@@UBEDXZ 0043b340 f i LIBCMTD:undname.obj
 0001:0003a380       ?getString@pcharNode@@UBEPADPAD0@Z 0043b380 f i LIBCMTD:undname.obj
 0001:0003a3b0       ?getStringHelper@@YAPADPAD00H@Z 0043b3b0 f i LIBCMTD:undname.obj
 0001:0003a3f0       ??0pDNameNode@@QAE@PAVDName@@@Z 0043b3f0 f   LIBCMTD:undname.obj
 0001:0003a450       ?length@pDNameNode@@UBEHXZ 0043b450 f i LIBCMTD:undname.obj
 0001:0003a490       ?getLastChar@pDNameNode@@UBEDXZ 0043b490 f i LIBCMTD:undname.obj
 0001:0003a4c0       ?getString@pDNameNode@@UBEPADPAD0@Z 0043b4c0 f i LIBCMTD:undname.obj
 0001:0003a500       ??0DNameStatusNode@@AAE@W4DNameStatus@@@Z 0043b500 f   LIBCMTD:undname.obj
 0001:0003a550       ?length@DNameStatusNode@@UBEHXZ 0043b550 f i LIBCMTD:undname.obj
 0001:0003a570       ?getLastChar@DNameStatusNode@@UBEDXZ 0043b570 f i LIBCMTD:undname.obj
 0001:0003a590       ?getString@DNameStatusNode@@UBEPADPAD0@Z 0043b590 f i LIBCMTD:undname.obj
 0001:0003a5d0       ?make@DNameStatusNode@@SAPAV1@W4DNameStatus@@@Z 0043b5d0 f i LIBCMTD:undname.obj
 0001:0003a680       ??0pairNode@@QAE@PAVDNameNode@@0@Z 0043b680 f   LIBCMTD:undname.obj
 0001:0003a6c0       ?length@pairNode@@UBEHXZ   0043b6c0 f i LIBCMTD:undname.obj
 0001:0003a710       ?getLastChar@pairNode@@UBEDXZ 0043b710 f i LIBCMTD:undname.obj
 0001:0003a760       ?getString@pairNode@@UBEPADPAD0@Z 0043b760 f i LIBCMTD:undname.obj
 0001:0003a8a0       __local_unwind4            0043b8a0 f   LIBCMTD:exsup4.obj
 0001:0003a976       __seh_longjmp_unwind4@4    0043b976 f   LIBCMTD:exsup4.obj
 0001:0003a992       @_EH4_CallFilterFunc@8     0043b992 f   LIBCMTD:exsup4.obj
 0001:0003a9a9       @_EH4_TransferToHandler@8  0043b9a9 f   LIBCMTD:exsup4.obj
 0001:0003a9c2       @_EH4_GlobalUnwind2@8      0043b9c2 f   LIBCMTD:exsup4.obj
 0001:0003a9db       @_EH4_LocalUnwind@16       0043b9db f   LIBCMTD:exsup4.obj
 0001:0003aa00       __set_error_mode           0043ba00 f   LIBCMTD:errmode.obj
 0001:0003aac0       ___set_app_type            0043bac0 f   LIBCMTD:errmode.obj
 0001:0003aad0       _wcscat_s                  0043bad0 f   LIBCMTD:wcscat_s.obj
 0001:0003aec0       _wcsncpy_s                 0043bec0 f   LIBCMTD:wcsncpy_s.obj
 0001:0003b2d0       ___crtGetLocaleInfoA       0043c2d0 f   LIBCMTD:a_loc.obj
 0001:0003b430       __lseeki64                 0043c430 f   LIBCMTD:lseeki64.obj
 0001:0003b680       __lseeki64_nolock          0043c680 f   LIBCMTD:lseeki64.obj
 0001:0003b770       __write                    0043c770 f   LIBCMTD:write.obj
 0001:0003b9a0       __write_nolock             0043c9a0 f   LIBCMTD:write.obj
 0001:0003c4e0       __getbuf                   0043d4e0 f   LIBCMTD:_getbuf.obj
 0001:0003c5b0       __isatty                   0043d5b0 f   LIBCMTD:isatty.obj
 0001:0003c670       ___iob_func                0043d670 f   LIBCMTD:_file.obj
 0001:0003c680       ___initstdio               0043d680 f   LIBCMTD:_file.obj
 0001:0003c7d0       ___endstdio                0043d7d0 f   LIBCMTD:_file.obj
 0001:0003c800       __lock_file                0043d800 f   LIBCMTD:_file.obj
 0001:0003c860       __lock_file2               0043d860 f   LIBCMTD:_file.obj
 0001:0003c8a0       __unlock_file              0043d8a0 f   LIBCMTD:_file.obj
 0001:0003c900       __unlock_file2             0043d900 f   LIBCMTD:_file.obj
 0001:0003c940       __fileno                   0043d940 f   LIBCMTD:fileno.obj
 0001:0003c9c0       _printf                    0043d9c0 f   LIBCMTD:printf.obj
 0001:0003cb00       __printf_l                 0043db00 f   LIBCMTD:printf.obj
 0001:0003cb30       __printf_s_l               0043db30 f   LIBCMTD:printf.obj
 0001:0003cb60       _printf_s                  0043db60 f   LIBCMTD:printf.obj
 0001:0003cb90       __printf_p_l               0043db90 f   LIBCMTD:printf.obj
 0001:0003cbc0       __printf_p                 0043dbc0 f   LIBCMTD:printf.obj
 0001:0003cbf0       __set_printf_count_output  0043dbf0 f   LIBCMTD:printf.obj
 0001:0003cc40       __get_printf_count_output  0043dc40 f   LIBCMTD:printf.obj
 0001:0003cc60       __isleadbyte_l             0043dc60 f i LIBCMTD:_wctype.obj
 0001:0003ccb0       _isleadbyte                0043dcb0 f i LIBCMTD:_wctype.obj
 0001:0003ccd0       __iswalpha_l               0043dcd0 f i LIBCMTD:_wctype.obj
 0001:0003ccf0       _iswalpha                  0043dcf0 f i LIBCMTD:_wctype.obj
 0001:0003cd10       __iswupper_l               0043dd10 f i LIBCMTD:_wctype.obj
 0001:0003cd30       _iswupper                  0043dd30 f i LIBCMTD:_wctype.obj
 0001:0003cd50       __iswlower_l               0043dd50 f i LIBCMTD:_wctype.obj
 0001:0003cd70       _iswlower                  0043dd70 f i LIBCMTD:_wctype.obj
 0001:0003cd90       __iswdigit_l               0043dd90 f i LIBCMTD:_wctype.obj
 0001:0003cdb0       _iswdigit                  0043ddb0 f i LIBCMTD:_wctype.obj
 0001:0003cdd0       __iswxdigit_l              0043ddd0 f i LIBCMTD:_wctype.obj
 0001:0003cdf0       _iswxdigit                 0043ddf0 f i LIBCMTD:_wctype.obj
 0001:0003ce10       __iswspace_l               0043de10 f i LIBCMTD:_wctype.obj
 0001:0003ce30       _iswspace                  0043de30 f i LIBCMTD:_wctype.obj
 0001:0003ce50       __iswpunct_l               0043de50 f i LIBCMTD:_wctype.obj
 0001:0003ce70       _iswpunct                  0043de70 f i LIBCMTD:_wctype.obj
 0001:0003ce90       __iswalnum_l               0043de90 f i LIBCMTD:_wctype.obj
 0001:0003ceb0       _iswalnum                  0043deb0 f i LIBCMTD:_wctype.obj
 0001:0003ced0       __iswprint_l               0043ded0 f i LIBCMTD:_wctype.obj
 0001:0003cef0       _iswprint                  0043def0 f i LIBCMTD:_wctype.obj
 0001:0003cf10       __iswgraph_l               0043df10 f i LIBCMTD:_wctype.obj
 0001:0003cf30       _iswgraph                  0043df30 f i LIBCMTD:_wctype.obj
 0001:0003cf50       __iswcntrl_l               0043df50 f i LIBCMTD:_wctype.obj
 0001:0003cf70       _iswcntrl                  0043df70 f i LIBCMTD:_wctype.obj
 0001:0003cf90       _iswascii                  0043df90 f i LIBCMTD:_wctype.obj
 0001:0003cfb0       __iswcsym_l                0043dfb0 f i LIBCMTD:_wctype.obj
 0001:0003cff0       ___iswcsym                 0043dff0 f i LIBCMTD:_wctype.obj
 0001:0003d030       __iswcsymf_l               0043e030 f i LIBCMTD:_wctype.obj
 0001:0003d070       ___iswcsymf                0043e070 f i LIBCMTD:_wctype.obj
 0001:0003d0b0       __mbtowc_l                 0043e0b0 f   LIBCMTD:mbtowc.obj
 0001:0003d2d0       _mbtowc                    0043e2d0 f   LIBCMTD:mbtowc.obj
 0001:0003d2f0       _fputwc                    0043e2f0 f   LIBCMTD:fputwc.obj
 0001:0003d3f0       __fputwc_nolock            0043e3f0 f   LIBCMTD:fputwc.obj
 0001:0003d6e0       _putwc                     0043e6e0 f   LIBCMTD:fputwc.obj
 0001:0003d700       __validate_param_reuseW    0043e700 f   LIBCMTD:woutputp.obj
 0001:0003d980       __woutput_p_l              0043e980 f   LIBCMTD:woutputp.obj
 0001:00041110       __woutput_s_l              00442110 f   LIBCMTD:woutputs.obj
 0001:00042460       __ValidateImageBase        00443460 f   LIBCMTD:pesect.obj
 0001:000424c0       __FindPESection            004434c0 f   LIBCMTD:pesect.obj
 0001:00042540       __IsNonwritableInCurrentImage 00443540 f   LIBCMTD:pesect.obj
 0001:00042660       __global_unwind2           00443660 f   LIBCMTD:exsup.obj
 0001:000426c5       __local_unwind2            004436c5 f   LIBCMTD:exsup.obj
 0001:00042749       __abnormal_termination     00443749 f   LIBCMTD:exsup.obj
 0001:0004276c       __NLG_Notify1              0044376c f   LIBCMTD:exsup.obj
 0001:00042775       __NLG_Notify               00443775 f   LIBCMTD:exsup.obj
 0001:0004278c       __NLG_Dispatch             0044378c     LIBCMTD:exsup.obj
 0001:0004278c       __NLG_Dispatch2            0044378c     LIBCMTD:exsup.obj
 0001:00042794       __NLG_Call                 00443794 f   LIBCMTD:exsup.obj
 0001:00042796       __NLG_Return2              00443796     LIBCMTD:exsup.obj
 0001:000427a0       __mbstowcs_l_helper        004437a0 f   LIBCMTD:mbstowcs.obj
 0001:00042af0       __mbstowcs_l               00443af0 f   LIBCMTD:mbstowcs.obj
 0001:00042b10       _mbstowcs                  00443b10 f   LIBCMTD:mbstowcs.obj
 0001:00042b60       __mbstowcs_s_l             00443b60 f   LIBCMTD:mbstowcs.obj
 0001:00042ee0       _mbstowcs_s                00443ee0 f   LIBCMTD:mbstowcs.obj
 0001:00042f10       __wcstombs_l_helper        00443f10 f   LIBCMTD:wcstombs.obj
 0001:00043450       __wcstombs_l               00444450 f   LIBCMTD:wcstombs.obj
 0001:00043470       _wcstombs                  00444470 f   LIBCMTD:wcstombs.obj
 0001:00043490       __wcstombs_s_l             00444490 f   LIBCMTD:wcstombs.obj
 0001:000437c0       _wcstombs_s                004447c0 f   LIBCMTD:wcstombs.obj
 0001:000437f0       __itow_s                   004447f0 f   LIBCMTD:xtows.obj
 0001:00043bd0       __ltow_s                   00444bd0 f   LIBCMTD:xtows.obj
 0001:00043c10       __ultow_s                  00444c10 f   LIBCMTD:xtows.obj
 0001:00043c30       __i64tow_s                 00444c30 f   LIBCMTD:xtows.obj
 0001:00044050       __ui64tow_s                00445050 f   LIBCMTD:xtows.obj
 0001:00044070       __initp_misc_rand_s        00445070 f   LIBCMTD:rand_s.obj
 0001:00044080       _rand_s                    00445080 f   LIBCMTD:rand_s.obj
 0001:000442a0       ___crtMessageBoxA          004452a0 f   LIBCMTD:crtmbox.obj
 0001:000444c0       __wctomb_s_l               004454c0 f   LIBCMTD:wctomb.obj
 0001:000447c0       _wctomb_s                  004457c0 f   LIBCMTD:wctomb.obj
 0001:000447f0       __wctomb_l                 004457f0 f   LIBCMTD:wctomb.obj
 0001:00044870       _wctomb                    00445870 f   LIBCMTD:wctomb.obj
 0001:000448c0       __validate_param_reuseA    004458c0 f   LIBCMTD:outputp.obj
 0001:00044b30       __output_p_l               00445b30 f   LIBCMTD:outputp.obj
 0001:00048740       _get_crtdouble_arg         00449740 f i LIBCMTD:outputp.obj
 0001:00048760       __output_s_l               00449760 f   LIBCMTD:outputs.obj
 0001:00049d30       __controlfp_s              0044ad30 f   LIBCMTD:_contrlfp_.obj
 0001:00049e10       __tolower                  0044ae10 f   LIBCMTD:tolower.obj
 0001:00049e20       __tolower_l                0044ae20 f   LIBCMTD:tolower.obj
 0001:0004a000       _tolower                   0044b000 f   LIBCMTD:tolower.obj
 0001:0004a050       __atodbl_l                 0044b050 f   LIBCMTD:atodbl.obj
 0001:0004a160       __atodbl                   0044b160 f   LIBCMTD:atodbl.obj
 0001:0004a180       __atoldbl_l                0044b180 f   LIBCMTD:atodbl.obj
 0001:0004a290       __atoldbl                  0044b290 f   LIBCMTD:atodbl.obj
 0001:0004a2b0       __atoflt_l                 0044b2b0 f   LIBCMTD:atodbl.obj
 0001:0004a3c0       __atoflt                   0044b3c0 f   LIBCMTD:atodbl.obj
 0001:0004a3e0       __fptostr                  0044b3e0 f   LIBCMTD:_fptostr.obj
 0001:0004a690       __fltout2                  0044b690 f   LIBCMTD:_cfout_.obj
 0001:0004a740       ___dtold                   0044b740 f   LIBCMTD:_cfout_.obj
 0001:0004a8a0       __set_output_format        0044b8a0 f   LIBCMTD:outputformat.obj
 0001:0004a920       __get_output_format        0044b920 f   LIBCMTD:outputformat.obj
 0001:0004a930       __allrem                   0044b930 f   LIBCMTD:llrem.obj
 0001:0004a9f0       __alldiv                   0044b9f0 f   LIBCMTD:lldiv.obj
 0001:0004aaa0       __allshl                   0044baa0 f   LIBCMTD:llshl.obj
 0001:0004aac0       __aullshr                  0044bac0 f   LIBCMTD:ullshr.obj
 0001:0004aae0       _strrchr                   0044bae0 f   LIBCMTD:strrchr.obj
 0001:0004ab10       __fptrap                   0044bb10 f   LIBCMTD:crt0fp.obj
 0001:0004ab30       __ismbbkalnum_l            0044bb30 f   LIBCMTD:ismbbyte.obj
 0001:0004ab50       __ismbbkalnum              0044bb50 f   LIBCMTD:ismbbyte.obj
 0001:0004ab70       __ismbbkprint_l            0044bb70 f   LIBCMTD:ismbbyte.obj
 0001:0004ab90       __ismbbkprint              0044bb90 f   LIBCMTD:ismbbyte.obj
 0001:0004abb0       __ismbbkpunct_l            0044bbb0 f   LIBCMTD:ismbbyte.obj
 0001:0004abd0       __ismbbkpunct              0044bbd0 f   LIBCMTD:ismbbyte.obj
 0001:0004abf0       __ismbbalnum_l             0044bbf0 f   LIBCMTD:ismbbyte.obj
 0001:0004ac10       __ismbbalnum               0044bc10 f   LIBCMTD:ismbbyte.obj
 0001:0004ac30       __ismbbalpha_l             0044bc30 f   LIBCMTD:ismbbyte.obj
 0001:0004ac50       __ismbbalpha               0044bc50 f   LIBCMTD:ismbbyte.obj
 0001:0004ac70       __ismbbgraph_l             0044bc70 f   LIBCMTD:ismbbyte.obj
 0001:0004ac90       __ismbbgraph               0044bc90 f   LIBCMTD:ismbbyte.obj
 0001:0004acb0       __ismbbprint_l             0044bcb0 f   LIBCMTD:ismbbyte.obj
 0001:0004acd0       __ismbbprint               0044bcd0 f   LIBCMTD:ismbbyte.obj
 0001:0004acf0       __ismbbpunct_l             0044bcf0 f   LIBCMTD:ismbbyte.obj
 0001:0004ad10       __ismbbpunct               0044bd10 f   LIBCMTD:ismbbyte.obj
 0001:0004ad30       __ismbblead_l              0044bd30 f   LIBCMTD:ismbbyte.obj
 0001:0004ad50       __ismbblead                0044bd50 f   LIBCMTD:ismbbyte.obj
 0001:0004ad70       __ismbbtrail_l             0044bd70 f   LIBCMTD:ismbbyte.obj
 0001:0004ad90       __ismbbtrail               0044bd90 f   LIBCMTD:ismbbyte.obj
 0001:0004adb0       __ismbbkana_l              0044bdb0 f   LIBCMTD:ismbbyte.obj
 0001:0004ae20       __ismbbkana                0044be20 f   LIBCMTD:ismbbyte.obj
 0001:0004af10       __stricmp_l                0044bf10 f   LIBCMTD:stricmp.obj
 0001:0004b0c0       ___ascii_stricmp           0044c0c0 f   LIBCMTD:stricmp.obj
 0001:0004b140       __stricmp                  0044c140 f   LIBCMTD:stricmp.obj
 0001:0004b250       __strnicmp_l               0044c250 f   LIBCMTD:strnicmp.obj
 0001:0004b490       __strnicmp                 0044c490 f   LIBCMTD:strnicmp.obj
 0001:0004b620       _atol                      0044c620 f   LIBCMTD:atox.obj
 0001:0004b640       __atol_l                   0044c640 f   LIBCMTD:atox.obj
 0001:0004b660       _atoi                      0044c660 f   LIBCMTD:atox.obj
 0001:0004b680       __atoi_l                   0044c680 f   LIBCMTD:atox.obj
 0001:0004b6a0       __atoi64                   0044c6a0 f   LIBCMTD:atox.obj
 0001:0004b6c0       __atoi64_l                 0044c6c0 f   LIBCMTD:atox.obj
 0001:0004b6e0       __wmakepath_s              0044c6e0 f   LIBCMTD:wmakepath_s.obj
 0001:0004ba90       __wsplitpath_s             0044ca90 f   LIBCMTD:wsplitpath_s.obj
 0001:0004c0c0       __alloc_osfhnd             0044d0c0 f   LIBCMTD:osfinfo.obj
 0001:0004c370       __set_osfhnd               0044d370 f   LIBCMTD:osfinfo.obj
 0001:0004c440       __free_osfhnd              0044d440 f   LIBCMTD:osfinfo.obj
 0001:0004c530       __get_osfhandle            0044d530 f   LIBCMTD:osfinfo.obj
 0001:0004c6a0       __open_osfhandle           0044d6a0 f   LIBCMTD:osfinfo.obj
 0001:0004c8d0       ___lock_fhandle            0044d8d0 f   LIBCMTD:osfinfo.obj
 0001:0004c9d0       __unlock_fhandle           0044d9d0 f   LIBCMTD:osfinfo.obj
 0001:0004ca00       __putwch                   0044da00 f   LIBCMTD:putwch.obj
 0001:0004ca90       __putwch_nolock            0044da90 f   LIBCMTD:putwch.obj
 0001:0004cae0       __fcloseall                0044dae0 f   LIBCMTD:closeall.obj
 0001:0004cc10       _fflush                    0044dc10 f   LIBCMTD:fflush.obj
 0001:0004ccb0       __fflush_nolock            0044dcb0 f   LIBCMTD:fflush.obj
 0001:0004cd10       __flush                    0044dd10 f   LIBCMTD:fflush.obj
 0001:0004cdd0       __flushall                 0044ddd0 f   LIBCMTD:fflush.obj
 0001:0004cfa0       __stbuf                    0044dfa0 f   LIBCMTD:_sftbuf.obj
 0001:0004d100       __ftbuf                    0044e100 f   LIBCMTD:_sftbuf.obj
 0001:0004d190       _vprintf_helper            0044e190 f   LIBCMTD:vprintf.obj
 0001:0004d2b0       __vprintf_l                0044e2b0 f   LIBCMTD:vprintf.obj
 0001:0004d2d0       __vprintf_s_l              0044e2d0 f   LIBCMTD:vprintf.obj
 0001:0004d2f0       __vprintf_p_l              0044e2f0 f   LIBCMTD:vprintf.obj
 0001:0004d310       _vprintf                   0044e310 f   LIBCMTD:vprintf.obj
 0001:0004d330       _vprintf_s                 0044e330 f   LIBCMTD:vprintf.obj
 0001:0004d350       __vprintf_p                0044e350 f   LIBCMTD:vprintf.obj
 0001:0004d370       __iswctype_l               0044e370 f   LIBCMTD:iswctype.obj
 0001:0004d390       _iswctype                  0044e390 f   LIBCMTD:iswctype.obj
 0001:0004d3f0       _is_wctype                 0044e3f0 f   LIBCMTD:iswctype.obj
 0001:0004d410       __flswbuf                  0044e410 f   LIBCMTD:_flswbuf.obj
 0001:0004d6f0       _wcstol                    0044e6f0 f   LIBCMTD:wcstol.obj
 0001:0004dac0       __wcstol_l                 0044eac0 f   LIBCMTD:wcstol.obj
 0001:0004dae0       _wcstoul                   0044eae0 f   LIBCMTD:wcstol.obj
 0001:0004db00       __wcstoul_l                0044eb00 f   LIBCMTD:wcstol.obj
 0001:0004db20       _strtol                    0044eb20 f   LIBCMTD:strtol.obj
 0001:0004e050       __strtol_l                 0044f050 f   LIBCMTD:strtol.obj
 0001:0004e080       _strtoul                   0044f080 f   LIBCMTD:strtol.obj
 0001:0004e0d0       __strtoul_l                0044f0d0 f   LIBCMTD:strtol.obj
 0001:0004e100       __statusfp2                0044f100 f   LIBCMTD:_ieee87_.obj
 0001:0004e140       __statusfp                 0044f140 f   LIBCMTD:_ieee87_.obj
 0001:0004e190       __clearfp                  0044f190 f   LIBCMTD:_ieee87_.obj
 0001:0004e1e0       ___control87_2             0044f1e0 f   LIBCMTD:_ieee87_.obj
 0001:0004e290       __controlfp                0044f290 f   LIBCMTD:_ieee87_.obj
 0001:0004e2b0       __control87                0044f2b0 f i LIBCMTD:_ieee87_.obj
 0001:0004e360       __set_controlfp            0044f360 f   LIBCMTD:_ieee87_.obj
 0001:0004e3f0       __fpreset                  0044f3f0 f   LIBCMTD:_ieee87_.obj
 0001:0004ebb0       __ld12tod                  0044fbb0 f   LIBCMTD:_intrncvt_.obj
 0001:0004ebd0       __ld12cvt                  0044fbd0 f i LIBCMTD:_intrncvt_.obj
 0001:0004ee30       __RoundMan                 0044fe30 f i LIBCMTD:_intrncvt_.obj
 0001:0004ef10       __ZeroTail                 0044ff10 f i LIBCMTD:_intrncvt_.obj
 0001:0004efa0       __IncMan                   0044ffa0 f i LIBCMTD:_intrncvt_.obj
 0001:0004f050       ___addl                    00450050 f i LIBCMTD:_intrncvt_.obj
 0001:0004f090       __CopyMan                  00450090 f i LIBCMTD:_intrncvt_.obj
 0001:0004f0e0       __FillZeroMan              004500e0 f i LIBCMTD:_intrncvt_.obj
 0001:0004f120       __IsZeroMan                00450120 f i LIBCMTD:_intrncvt_.obj
 0001:0004f160       __ShrMan                   00450160 f i LIBCMTD:_intrncvt_.obj
 0001:0004f250       __ld12tof                  00450250 f   LIBCMTD:_intrncvt_.obj
 0001:0004f270       __ld12told                 00450270 f   LIBCMTD:_intrncvt_.obj
 0001:0004f340       ___strgtold12_l            00450340 f   LIBCMTD:_strgtold_.obj
 0001:0004fdf0       ___multtenpow12            00450df0 f i LIBCMTD:_strgtold_.obj
 0001:0004fed0       ___ld12mul                 00450ed0 f i LIBCMTD:_strgtold_.obj
 0001:000502d0       ___shl_12                  004512d0 f i LIBCMTD:_strgtold_.obj
 0001:00050340       ___shr_12                  00451340 f i LIBCMTD:_strgtold_.obj
 0001:000503b0       ___STRINGTOLD_L            004513b0 f   LIBCMTD:_strgtold_.obj
 0001:00050420       _$I10_OUTPUT               00451420 f   LIBCMTD:_x10fout_.obj
 0001:000509d0       ___add_12                  004519d0 f i LIBCMTD:_x10fout_.obj
 0001:00050a80       ___ascii_strnicmp          00451a80 f   LIBCMTD:_strnicm.obj
 0001:00050af0       __strtoi64                 00451af0 f   LIBCMTD:strtoq.obj
 0001:00051060       __strtoi64_l               00452060 f   LIBCMTD:strtoq.obj
 0001:00051090       __strtoui64                00452090 f   LIBCMTD:strtoq.obj
 0001:000510e0       __strtoui64_l              004520e0 f   LIBCMTD:strtoq.obj
 0001:00051110       ___initconout              00452110 f   LIBCMTD:initcon.obj
 0001:00051140       ___termconout              00452140 f   LIBCMTD:initcon.obj
 0001:00051170       _fclose                    00452170 f   LIBCMTD:fclose.obj
 0001:00051280       __fclose_nolock            00452280 f   LIBCMTD:fclose.obj
 0001:00051380       __commit                   00452380 f   LIBCMTD:commit.obj
 0001:000515a0       __wchartodigit             004525a0 f   LIBCMTD:wchtodig.obj
 0001:000518d0       __statfp                   004528d0 f   LIBCMTD:_fpctrl_.obj
 0001:000518f0       __clrfp                    004528f0 f   LIBCMTD:_fpctrl_.obj
 0001:00051910       __ctrlfp                   00452910 f   LIBCMTD:_fpctrl_.obj
 0001:00051940       __set_statfp               00452940 f   LIBCMTD:_fpctrl_.obj
 0001:000519b0       ___get_fpsr_sse2           004529b0 f   LIBCMTD:_fpctrl_.obj
 0001:000519e0       ___set_fpsr_sse2           004529e0 f   LIBCMTD:_fpctrl_.obj
 0001:00051ac0       ___fclrf_sse2              00452ac0 f   LIBCMTD:_fpctrl_.obj
 0001:00051ae0       ___statfp_sse2             00452ae0 f   LIBCMTD:_fpctrl_.obj
 0001:00051b10       ___clrfp_sse2              00452b10 f   LIBCMTD:_fpctrl_.obj
 0001:00051b50       ___ctrlfp_sse2             00452b50 f   LIBCMTD:_fpctrl_.obj
 0001:00051bb0       ___set_statfp_sse2         00452bb0 f   LIBCMTD:_fpctrl_.obj
 0001:00051be0       ___mtold12                 00452be0 f   LIBCMTD:_mantold_.obj
 0001:00051d40       __allmul                   00452d40 f   LIBCMTD:llmul.obj
 0001:00051d80       __close                    00452d80 f   LIBCMTD:close.obj
 0001:00051fa0       __close_nolock             00452fa0 f   LIBCMTD:close.obj
 0001:00052070       __freebuf                  00453070 f   LIBCMTD:_freebuf.obj
 0001:000520f4       _InterlockedIncrement@4    004530f4 f   kernel32:KERNEL32.dll
 0001:000520fa       _InterlockedDecrement@4    004530fa f   kernel32:KERNEL32.dll
 0001:00052100       _WideCharToMultiByte@32    00453100 f   kernel32:KERNEL32.dll
 0001:00052106       _InterlockedExchange@8     00453106 f   kernel32:KERNEL32.dll
 0001:0005210c       _InitializeCriticalSection@4 0045310c f   kernel32:KERNEL32.dll
 0001:00052112       _DeleteCriticalSection@4   00453112 f   kernel32:KERNEL32.dll
 0001:00052118       _EnterCriticalSection@4    00453118 f   kernel32:KERNEL32.dll
 0001:0005211e       _LeaveCriticalSection@4    0045311e f   kernel32:KERNEL32.dll
 0001:00052124       _EncodePointer@4           00453124 f   kernel32:KERNEL32.dll
 0001:0005212a       _DecodePointer@4           0045312a f   kernel32:KERNEL32.dll
 0001:00052130       _InterlockedCompareExchange@12 00453130 f   kernel32:KERNEL32.dll
 0001:00052136       _RtlUnwind@16              00453136 f   kernel32:KERNEL32.dll
 0001:0005213c       _GetModuleFileNameW@12     0045313c f   kernel32:KERNEL32.dll
 0001:00052142       _RaiseException@16         00453142 f   kernel32:KERNEL32.dll
 0001:00052148       _TerminateProcess@8        00453148 f   kernel32:KERNEL32.dll
 0001:0005214e       _GetCurrentProcess@0       0045314e f   kernel32:KERNEL32.dll
 0001:00052154       _UnhandledExceptionFilter@4 00453154 f   kernel32:KERNEL32.dll
 0001:0005215a       _SetUnhandledExceptionFilter@4 0045315a f   kernel32:KERNEL32.dll
 0001:00052160       _IsDebuggerPresent@0       00453160 f   kernel32:KERNEL32.dll
 0001:00052166       _HeapValidate@12           00453166 f   kernel32:KERNEL32.dll
 0001:0005216c       _IsBadReadPtr@8            0045316c f   kernel32:KERNEL32.dll
 0001:00052172       _GetCommandLineA@0         00453172 f   kernel32:KERNEL32.dll
 0001:00052178       _HeapSetInformation@16     00453178 f   kernel32:KERNEL32.dll
 0001:0005217e       _GetStartupInfoW@4         0045317e f   kernel32:KERNEL32.dll
 0001:00052184       _LCMapStringW@24           00453184 f   kernel32:KERNEL32.dll
 0001:0005218a       _GetCPInfo@8               0045318a f   kernel32:KERNEL32.dll
 0001:00052190       _lstrlenA@4                00453190 f   kernel32:KERNEL32.dll
 0001:00052196       _GetProcAddress@8          00453196 f   kernel32:KERNEL32.dll
 0001:0005219c       _LoadLibraryW@4            0045319c f   kernel32:KERNEL32.dll
 0001:000521a2       _WriteFile@20              004531a2 f   kernel32:KERNEL32.dll
 0001:000521a8       _GetStdHandle@4            004531a8 f   kernel32:KERNEL32.dll
 0001:000521ae       _GetLocaleInfoW@16         004531ae f   kernel32:KERNEL32.dll
 0001:000521b4       _GetLastError@0            004531b4 f   kernel32:KERNEL32.dll
 0001:000521ba       _IsProcessorFeaturePresent@4 004531ba f   kernel32:KERNEL32.dll
 0001:000521c0       _InitializeCriticalSectionAndSpinCount@8 004531c0 f   kernel32:KERNEL32.dll
 0001:000521c6       _FatalAppExitA@8           004531c6 f   kernel32:KERNEL32.dll
 0001:000521cc       _TlsAlloc@0                004531cc f   kernel32:KERNEL32.dll
 0001:000521d2       _TlsGetValue@4             004531d2 f   kernel32:KERNEL32.dll
 0001:000521d8       _TlsSetValue@8             004531d8 f   kernel32:KERNEL32.dll
 0001:000521de       _GetCurrentThreadId@0      004531de f   kernel32:KERNEL32.dll
 0001:000521e4       _TlsFree@4                 004531e4 f   kernel32:KERNEL32.dll
 0001:000521ea       _GetModuleHandleW@4        004531ea f   kernel32:KERNEL32.dll
 0001:000521f0       _SetLastError@4            004531f0 f   kernel32:KERNEL32.dll
 0001:000521f6       _GetCurrentThread@0        004531f6 f   kernel32:KERNEL32.dll
 0001:000521fc       _OutputDebugStringA@4      004531fc f   kernel32:KERNEL32.dll
 0001:00052202       _WriteConsoleW@20          00453202 f   kernel32:KERNEL32.dll
 0001:00052208       _GetFileType@4             00453208 f   kernel32:KERNEL32.dll
 0001:0005220e       _OutputDebugStringW@4      0045320e f   kernel32:KERNEL32.dll
 0001:00052214       _ExitProcess@4             00453214 f   kernel32:KERNEL32.dll
 0001:0005221a       _SetConsoleCtrlHandler@8   0045321a f   kernel32:KERNEL32.dll
 0001:00052220       _HeapAlloc@12              00453220 f   kernel32:KERNEL32.dll
 0001:00052226       _GetModuleFileNameA@12     00453226 f   kernel32:KERNEL32.dll
 0001:0005222c       _HeapReAlloc@16            0045322c f   kernel32:KERNEL32.dll
 0001:00052232       _HeapSize@12               00453232 f   kernel32:KERNEL32.dll
 0001:00052238       _HeapQueryInformation@20   00453238 f   kernel32:KERNEL32.dll
 0001:0005223e       _HeapFree@12               0045323e f   kernel32:KERNEL32.dll
 0001:00052244       _HeapCreate@12             00453244 f   kernel32:KERNEL32.dll
 0001:0005224a       _HeapDestroy@4             0045324a f   kernel32:KERNEL32.dll
 0001:00052250       _GetACP@0                  00453250 f   kernel32:KERNEL32.dll
 0001:00052256       _GetOEMCP@0                00453256 f   kernel32:KERNEL32.dll
 0001:0005225c       _IsValidCodePage@4         0045325c f   kernel32:KERNEL32.dll
 0001:00052262       _QueryPerformanceCounter@4 00453262 f   kernel32:KERNEL32.dll
 0001:00052268       _GetTickCount@0            00453268 f   kernel32:KERNEL32.dll
 0001:0005226e       _GetCurrentProcessId@0     0045326e f   kernel32:KERNEL32.dll
 0001:00052274       _GetSystemTimeAsFileTime@4 00453274 f   kernel32:KERNEL32.dll
 0001:0005227a       _FreeEnvironmentStringsW@4 0045327a f   kernel32:KERNEL32.dll
 0001:00052280       _GetEnvironmentStringsW@0  00453280 f   kernel32:KERNEL32.dll
 0001:00052286       _SetHandleCount@4          00453286 f   kernel32:KERNEL32.dll
 0001:0005228c       _GetStringTypeW@16         0045328c f   kernel32:KERNEL32.dll
 0001:00052292       _GetLocaleInfoA@16         00453292 f   kernel32:KERNEL32.dll
 0001:00052298       _IsValidLocale@8           00453298 f   kernel32:KERNEL32.dll
 0001:0005229e       _EnumSystemLocalesA@8      0045329e f   kernel32:KERNEL32.dll
 0001:000522a4       _GetUserDefaultLCID@0      004532a4 f   kernel32:KERNEL32.dll
 0001:000522aa       _GetProcessHeap@0          004532aa f   kernel32:KERNEL32.dll
 0001:000522b0       _VirtualQuery@12           004532b0 f   kernel32:KERNEL32.dll
 0001:000522b6       _FreeLibrary@4             004532b6 f   kernel32:KERNEL32.dll
 0001:000522bc       _SetFilePointer@16         004532bc f   kernel32:KERNEL32.dll
 0001:000522c2       _GetConsoleCP@0            004532c2 f   kernel32:KERNEL32.dll
 0001:000522c8       _GetConsoleMode@8          004532c8 f   kernel32:KERNEL32.dll
 0001:000522ce       _SetStdHandle@8            004532ce f   kernel32:KERNEL32.dll
 0001:000522d4       _CreateFileW@28            004532d4 f   kernel32:KERNEL32.dll
 0001:000522da       _CloseHandle@4             004532da f   kernel32:KERNEL32.dll
 0001:000522e0       _FlushFileBuffers@4        004532e0 f   kernel32:KERNEL32.dll
 0002:00000000       __imp_?GetShortcut@CControlUI@DuiLib@@UBE_WXZ 00455000     DuiLib_ud:DuiLib_ud.dll
 0002:00000004       __imp_??0CDuiString@DuiLib@@QAE@XZ 00455004     DuiLib_ud:DuiLib_ud.dll
 0002:00000008       __imp_??1CListTextElementUI@DuiLib@@UAE@XZ 00455008     DuiLib_ud:DuiLib_ud.dll
 0002:0000000c       __imp_?GetRoundCorner@CPaintManagerUI@DuiLib@@QBE?AUtagSIZE@@XZ 0045500c     DuiLib_ud:DuiLib_ud.dll
 0002:00000010       __imp_?GetSizeBox@CPaintManagerUI@DuiLib@@QAEAAUtagRECT@@XZ 00455010     DuiLib_ud:DuiLib_ud.dll
 0002:00000014       __imp_?GetCaptionRect@CPaintManagerUI@DuiLib@@QAEAAUtagRECT@@XZ 00455014     DuiLib_ud:DuiLib_ud.dll
 0002:00000018       __imp_?FindControl@CPaintManagerUI@DuiLib@@QBEPAVCControlUI@2@UtagPOINT@@@Z 00455018     DuiLib_ud:DuiLib_ud.dll
 0002:0000001c       __imp_?DoPostPaint@CControlUI@DuiLib@@UAEXPAUHDC__@@ABUtagRECT@@@Z 0045501c     DuiLib_ud:DuiLib_ud.dll
 0002:00000020       __imp_?PaintBorder@CControlUI@DuiLib@@UAEXPAUHDC__@@@Z 00455020     DuiLib_ud:DuiLib_ud.dll
 0002:00000024       __imp_?PaintText@CControlUI@DuiLib@@UAEXPAUHDC__@@@Z 00455024     DuiLib_ud:DuiLib_ud.dll
 0002:00000028       __imp_?PaintStatusImage@CControlUI@DuiLib@@UAEXPAUHDC__@@@Z 00455028     DuiLib_ud:DuiLib_ud.dll
 0002:0000002c       __imp_?PaintBkImage@CControlUI@DuiLib@@UAEXPAUHDC__@@@Z 0045502c     DuiLib_ud:DuiLib_ud.dll
 0002:00000030       __imp_?PaintBkColor@CControlUI@DuiLib@@UAEXPAUHDC__@@@Z 00455030     DuiLib_ud:DuiLib_ud.dll
 0002:00000034       __imp_?DoPaint@CListLabelElementUI@DuiLib@@UAEXPAUHDC__@@ABUtagRECT@@@Z 00455034     DuiLib_ud:DuiLib_ud.dll
 0002:00000038       __imp_?EstimateSize@CListTextElementUI@DuiLib@@UAE?AUtagSIZE@@U3@@Z 00455038     DuiLib_ud:DuiLib_ud.dll
 0002:0000003c       __imp_?SetAttribute@CListElementUI@DuiLib@@UAEXPB_W0@Z 0045503c     DuiLib_ud:DuiLib_ud.dll
 0002:00000040       __imp_?DoEvent@CListTextElementUI@DuiLib@@UAEXAAUtagTEventUI@2@@Z 00455040     DuiLib_ud:DuiLib_ud.dll
 0002:00000044       __imp_?Event@CControlUI@DuiLib@@UAEXAAUtagTEventUI@2@@Z 00455044     DuiLib_ud:DuiLib_ud.dll
 0002:00000048       __imp_?DoInit@CControlUI@DuiLib@@UAEXXZ 00455048     DuiLib_ud:DuiLib_ud.dll
 0002:0000004c       __imp_?Init@CControlUI@DuiLib@@UAEXXZ 0045504c     DuiLib_ud:DuiLib_ud.dll
 0002:00000050       __imp_?FindControl@CControlUI@DuiLib@@UAEPAV12@P6GPAV12@PAV12@PAX@Z1I@Z 00455050     DuiLib_ud:DuiLib_ud.dll
 0002:00000054       __imp_?SetFloat@CControlUI@DuiLib@@UAEX_N@Z 00455054     DuiLib_ud:DuiLib_ud.dll
 0002:00000058       __imp_?IsFloat@CControlUI@DuiLib@@UBE_NXZ 00455058     DuiLib_ud:DuiLib_ud.dll
 0002:0000005c       __imp_?SetFocus@CControlUI@DuiLib@@UAEXXZ 0045505c     DuiLib_ud:DuiLib_ud.dll
 0002:00000060       __imp_?IsFocused@CControlUI@DuiLib@@UBE_NXZ 00455060     DuiLib_ud:DuiLib_ud.dll
 0002:00000064       __imp_?SetKeyboardEnabled@CControlUI@DuiLib@@UAEX_N@Z 00455064     DuiLib_ud:DuiLib_ud.dll
 0002:00000068       __imp_?IsKeyboardEnabled@CControlUI@DuiLib@@UBE_NXZ 00455068     DuiLib_ud:DuiLib_ud.dll
 0002:0000006c       __imp_?SetMouseEnabled@CControlUI@DuiLib@@UAEX_N@Z 0045506c     DuiLib_ud:DuiLib_ud.dll
 0002:00000070       __imp_?IsMouseEnabled@CControlUI@DuiLib@@UBE_NXZ 00455070     DuiLib_ud:DuiLib_ud.dll
 0002:00000074       __imp_?SetEnabled@CListElementUI@DuiLib@@UAEX_N@Z 00455074     DuiLib_ud:DuiLib_ud.dll
 0002:00000078       __imp_?IsEnabled@CControlUI@DuiLib@@UBE_NXZ 00455078     DuiLib_ud:DuiLib_ud.dll
 0002:0000007c       __imp_?SetInternVisible@CControlUI@DuiLib@@UAEX_N@Z 0045507c     DuiLib_ud:DuiLib_ud.dll
 0002:00000080       __imp_?SetVisible@CListElementUI@DuiLib@@UAEX_N@Z 00455080     DuiLib_ud:DuiLib_ud.dll
 0002:00000084       __imp_?IsVisible@CControlUI@DuiLib@@UBE_NXZ 00455084     DuiLib_ud:DuiLib_ud.dll
 0002:00000088       __imp_?SetTag@CControlUI@DuiLib@@UAEXI@Z 00455088     DuiLib_ud:DuiLib_ud.dll
 0002:0000008c       __imp_?GetTag@CControlUI@DuiLib@@UBEIXZ 0045508c     DuiLib_ud:DuiLib_ud.dll
 0002:00000090       __imp_?SetUserData@CControlUI@DuiLib@@UAEXPB_W@Z 00455090     DuiLib_ud:DuiLib_ud.dll
 0002:00000094       __imp_?GetUserData@CControlUI@DuiLib@@UAEABVCDuiString@2@XZ 00455094     DuiLib_ud:DuiLib_ud.dll
 0002:00000098       __imp_?SetContextMenuUsed@CControlUI@DuiLib@@UAEX_N@Z 00455098     DuiLib_ud:DuiLib_ud.dll
 0002:0000009c       __imp_?MessageLoop@CPaintManagerUI@DuiLib@@SAXXZ 0045509c     DuiLib_ud:DuiLib_ud.dll
 0002:000000a0       __imp_??BCWindowWnd@DuiLib@@QBEPAUHWND__@@XZ 004550a0     DuiLib_ud:DuiLib_ud.dll
 0002:000000a4       __imp_?CenterWindow@CWindowWnd@DuiLib@@QAEXXZ 004550a4     DuiLib_ud:DuiLib_ud.dll
 0002:000000a8       __imp_?Create@CWindowWnd@DuiLib@@QAEPAUHWND__@@PAU3@PB_WKKHHHHPAUHMENU__@@@Z 004550a8     DuiLib_ud:DuiLib_ud.dll
 0002:000000ac       __imp_?SetResourceZip@CPaintManagerUI@DuiLib@@SAXPB_W_N@Z 004550ac     DuiLib_ud:DuiLib_ud.dll
 0002:000000b0       __imp_??1CDuiString@DuiLib@@QAE@XZ 004550b0     DuiLib_ud:DuiLib_ud.dll
 0002:000000b4       __imp_?SetResourcePath@CPaintManagerUI@DuiLib@@SAXPB_W@Z 004550b4     DuiLib_ud:DuiLib_ud.dll
 0002:000000b8       __imp_??BCDuiString@DuiLib@@QBEPB_WXZ 004550b8     DuiLib_ud:DuiLib_ud.dll
 0002:000000bc       __imp_??HCDuiString@DuiLib@@QBE?AV01@PB_W@Z 004550bc     DuiLib_ud:DuiLib_ud.dll
 0002:000000c0       __imp_?GetInstancePath@CPaintManagerUI@DuiLib@@SA?AVCDuiString@2@XZ 004550c0     DuiLib_ud:DuiLib_ud.dll
 0002:000000c4       __imp_?SetInstance@CPaintManagerUI@DuiLib@@SAXPAUHINSTANCE__@@@Z 004550c4     DuiLib_ud:DuiLib_ud.dll
 0002:000000c8       __imp_??0CPaintManagerUI@DuiLib@@QAE@XZ 004550c8     DuiLib_ud:DuiLib_ud.dll
 0002:000000cc       __imp_??0CWindowWnd@DuiLib@@QAE@XZ 004550cc     DuiLib_ud:DuiLib_ud.dll
 0002:000000d0       __imp_?GetSuperClassName@CWindowWnd@DuiLib@@MBEPB_WXZ 004550d0     DuiLib_ud:DuiLib_ud.dll
 0002:000000d4       __imp_??9CDuiString@DuiLib@@QBE_NPB_W@Z 004550d4     DuiLib_ud:DuiLib_ud.dll
 0002:000000d8       __imp_?GetData@CDuiString@DuiLib@@QBEPB_WXZ 004550d8     DuiLib_ud:DuiLib_ud.dll
 0002:000000dc       __imp_??YCDuiString@DuiLib@@QAEABV01@PB_W@Z 004550dc     DuiLib_ud:DuiLib_ud.dll
 0002:000000e0       __imp_??0CDuiString@DuiLib@@QAE@PB_WH@Z 004550e0     DuiLib_ud:DuiLib_ud.dll
 0002:000000e4       __imp_?SendMessageW@CWindowWnd@DuiLib@@QAEJIIJ@Z 004550e4     DuiLib_ud:DuiLib_ud.dll
 0002:000000e8       __imp_??8CDuiString@DuiLib@@QBE_NPB_W@Z 004550e8     DuiLib_ud:DuiLib_ud.dll
 0002:000000ec       __imp_?GetClassStyle@CWindowWnd@DuiLib@@MBEIXZ 004550ec     DuiLib_ud:DuiLib_ud.dll
 0002:000000f0       __imp_?GetPaintWindow@CPaintManagerUI@DuiLib@@QBEPAUHWND__@@XZ 004550f0     DuiLib_ud:DuiLib_ud.dll
 0002:000000f4       __imp_?SendNotify@CPaintManagerUI@DuiLib@@QAEXPAVCControlUI@2@PB_WIJ_N@Z 004550f4     DuiLib_ud:DuiLib_ud.dll
 0002:000000f8       __imp_?Close@CWindowWnd@DuiLib@@QAEXI@Z 004550f8     DuiLib_ud:DuiLib_ud.dll
 0002:000000fc       __imp_?HandleMessage@CWindowWnd@DuiLib@@MAEJIIJ@Z 004550fc     DuiLib_ud:DuiLib_ud.dll
 0002:00000100       __imp_?DrawImageString@CRenderEngine@DuiLib@@SA_NPAUHDC__@@PAVCPaintManagerUI@2@ABUtagRECT@@2PB_W3@Z 00455100     DuiLib_ud:DuiLib_ud.dll
 0002:00000104       __imp_??1CPaintManagerUI@DuiLib@@QAE@XZ 00455104     DuiLib_ud:DuiLib_ud.dll
 0002:00000108       __imp_?MessageHandler@CPaintManagerUI@DuiLib@@QAE_NIIJAAJ@Z 00455108     DuiLib_ud:DuiLib_ud.dll
 0002:0000010c       __imp_??1CDialogBuilder@DuiLib@@QAE@XZ 0045510c     DuiLib_ud:DuiLib_ud.dll
 0002:00000110       __imp_?FindControl@CPaintManagerUI@DuiLib@@QBEPAVCControlUI@2@PB_W@Z 00455110     DuiLib_ud:DuiLib_ud.dll
 0002:00000114       __imp_?SetRoundCorner@CPaintManagerUI@DuiLib@@QAEXHH@Z 00455114     DuiLib_ud:DuiLib_ud.dll
 0002:00000118       __imp_?AddNotifier@CPaintManagerUI@DuiLib@@QAE_NPAVINotifyUI@2@@Z 00455118     DuiLib_ud:DuiLib_ud.dll
 0002:0000011c       __imp_?AttachDialog@CPaintManagerUI@DuiLib@@QAE_NPAVCControlUI@2@@Z 0045511c     DuiLib_ud:DuiLib_ud.dll
 0002:00000120       __imp_?Create@CDialogBuilder@DuiLib@@QAEPAVCControlUI@2@VSTRINGorID@2@PB_WPAVIDialogBuilderCallback@2@PAVCPaintManagerUI@2@PAV32@@Z 00455120     DuiLib_ud:DuiLib_ud.dll
 0002:00000124       __imp_??0CDialogBuilder@DuiLib@@QAE@XZ 00455124     DuiLib_ud:DuiLib_ud.dll
 0002:00000128       __imp_?Init@CPaintManagerUI@DuiLib@@QAEXPAUHWND__@@@Z 00455128     DuiLib_ud:DuiLib_ud.dll
 0002:0000012c       __imp_??0CDuiRect@DuiLib@@QAE@ABUtagRECT@@@Z 0045512c     DuiLib_ud:DuiLib_ud.dll
 0002:00000130       __imp_?GetHeight@CDuiRect@DuiLib@@QBEHXZ 00455130     DuiLib_ud:DuiLib_ud.dll
 0002:00000134       __imp_?GetWidth@CDuiRect@DuiLib@@QBEHXZ 00455134     DuiLib_ud:DuiLib_ud.dll
 0002:00000138       __imp_??0CDuiRect@DuiLib@@QAE@XZ 00455138     DuiLib_ud:DuiLib_ud.dll
 0002:0000013c       __imp_?GetHWND@CWindowWnd@DuiLib@@QBEPAUHWND__@@XZ 0045513c     DuiLib_ud:DuiLib_ud.dll
 0002:00000140       __imp_?Offset@CDuiRect@DuiLib@@QAEXHH@Z 00455140     DuiLib_ud:DuiLib_ud.dll
 0002:00000144       __imp_??4CDuiString@DuiLib@@QAEABV01@ABV01@@Z 00455144     DuiLib_ud:DuiLib_ud.dll
 0002:00000148       __imp_??0CListTextElementUI@DuiLib@@QAE@XZ 00455148     DuiLib_ud:DuiLib_ud.dll
 0002:0000014c       __imp_??0CDuiString@DuiLib@@QAE@ABV01@@Z 0045514c     DuiLib_ud:DuiLib_ud.dll
 0002:00000150       __imp_?GetName@CControlUI@DuiLib@@UBE?AVCDuiString@2@XZ 00455150     DuiLib_ud:DuiLib_ud.dll
 0002:00000154       __imp_?SetName@CControlUI@DuiLib@@UAEXPB_W@Z 00455154     DuiLib_ud:DuiLib_ud.dll
 0002:00000158       __imp_?GetClass@CListTextElementUI@DuiLib@@UBEPB_WXZ 00455158     DuiLib_ud:DuiLib_ud.dll
 0002:0000015c       __imp_?GetInterface@CListTextElementUI@DuiLib@@UAEPAXPB_W@Z 0045515c     DuiLib_ud:DuiLib_ud.dll
 0002:00000160       __imp_?GetControlFlags@CListTextElementUI@DuiLib@@UBEIXZ 00455160     DuiLib_ud:DuiLib_ud.dll
 0002:00000164       __imp_?Activate@CListElementUI@DuiLib@@UAE_NXZ 00455164     DuiLib_ud:DuiLib_ud.dll
 0002:00000168       __imp_?GetManager@CControlUI@DuiLib@@UBEPAVCPaintManagerUI@2@XZ 00455168     DuiLib_ud:DuiLib_ud.dll
 0002:0000016c       __imp_?SetManager@CControlUI@DuiLib@@UAEXPAVCPaintManagerUI@2@PAV12@_N@Z 0045516c     DuiLib_ud:DuiLib_ud.dll
 0002:00000170       __imp_?GetParent@CControlUI@DuiLib@@UBEPAV12@XZ 00455170     DuiLib_ud:DuiLib_ud.dll
 0002:00000174       __imp_?GetText@CControlUI@DuiLib@@UBE?AVCDuiString@2@XZ 00455174     DuiLib_ud:DuiLib_ud.dll
 0002:00000178       __imp_?SetText@CControlUI@DuiLib@@UAEXPB_W@Z 00455178     DuiLib_ud:DuiLib_ud.dll
 0002:0000017c       __imp_?GetPos@CControlUI@DuiLib@@UBEABUtagRECT@@XZ 0045517c     DuiLib_ud:DuiLib_ud.dll
 0002:00000180       __imp_?SetPos@CControlUI@DuiLib@@UAEXUtagRECT@@@Z 00455180     DuiLib_ud:DuiLib_ud.dll
 0002:00000184       __imp_?GetWidth@CControlUI@DuiLib@@UBEHXZ 00455184     DuiLib_ud:DuiLib_ud.dll
 0002:00000188       __imp_?GetHeight@CControlUI@DuiLib@@UBEHXZ 00455188     DuiLib_ud:DuiLib_ud.dll
 0002:0000018c       __imp_?GetX@CControlUI@DuiLib@@UBEHXZ 0045518c     DuiLib_ud:DuiLib_ud.dll
 0002:00000190       __imp_?GetY@CControlUI@DuiLib@@UBEHXZ 00455190     DuiLib_ud:DuiLib_ud.dll
 0002:00000194       __imp_?GetPadding@CControlUI@DuiLib@@UBE?AUtagRECT@@XZ 00455194     DuiLib_ud:DuiLib_ud.dll
 0002:00000198       __imp_?SetPadding@CControlUI@DuiLib@@UAEXUtagRECT@@@Z 00455198     DuiLib_ud:DuiLib_ud.dll
 0002:0000019c       __imp_?GetFixedXY@CControlUI@DuiLib@@UBE?AUtagSIZE@@XZ 0045519c     DuiLib_ud:DuiLib_ud.dll
 0002:000001a0       __imp_?SetFixedXY@CControlUI@DuiLib@@UAEXUtagSIZE@@@Z 004551a0     DuiLib_ud:DuiLib_ud.dll
 0002:000001a4       __imp_?GetFixedWidth@CControlUI@DuiLib@@UBEHXZ 004551a4     DuiLib_ud:DuiLib_ud.dll
 0002:000001a8       __imp_?SetFixedWidth@CControlUI@DuiLib@@UAEXH@Z 004551a8     DuiLib_ud:DuiLib_ud.dll
 0002:000001ac       __imp_?GetFixedHeight@CControlUI@DuiLib@@UBEHXZ 004551ac     DuiLib_ud:DuiLib_ud.dll
 0002:000001b0       __imp_?SetFixedHeight@CControlUI@DuiLib@@UAEXH@Z 004551b0     DuiLib_ud:DuiLib_ud.dll
 0002:000001b4       __imp_?GetMinWidth@CControlUI@DuiLib@@UBEHXZ 004551b4     DuiLib_ud:DuiLib_ud.dll
 0002:000001b8       __imp_?SetMinWidth@CControlUI@DuiLib@@UAEXH@Z 004551b8     DuiLib_ud:DuiLib_ud.dll
 0002:000001bc       __imp_?GetMaxWidth@CControlUI@DuiLib@@UBEHXZ 004551bc     DuiLib_ud:DuiLib_ud.dll
 0002:000001c0       __imp_?SetMaxWidth@CControlUI@DuiLib@@UAEXH@Z 004551c0     DuiLib_ud:DuiLib_ud.dll
 0002:000001c4       __imp_?GetMinHeight@CControlUI@DuiLib@@UBEHXZ 004551c4     DuiLib_ud:DuiLib_ud.dll
 0002:000001c8       __imp_?SetMinHeight@CControlUI@DuiLib@@UAEXH@Z 004551c8     DuiLib_ud:DuiLib_ud.dll
 0002:000001cc       __imp_?GetMaxHeight@CControlUI@DuiLib@@UBEHXZ 004551cc     DuiLib_ud:DuiLib_ud.dll
 0002:000001d0       __imp_?SetMaxHeight@CControlUI@DuiLib@@UAEXH@Z 004551d0     DuiLib_ud:DuiLib_ud.dll
 0002:000001d4       __imp_?SetRelativePos@CControlUI@DuiLib@@UAEXUtagSIZE@@0@Z 004551d4     DuiLib_ud:DuiLib_ud.dll
 0002:000001d8       __imp_?SetRelativeParentSize@CControlUI@DuiLib@@UAEXUtagSIZE@@@Z 004551d8     DuiLib_ud:DuiLib_ud.dll
 0002:000001dc       __imp_?GetRelativePos@CControlUI@DuiLib@@UBE?AUtagTRelativePosUI@2@XZ 004551dc     DuiLib_ud:DuiLib_ud.dll
 0002:000001e0       __imp_?IsRelativePos@CControlUI@DuiLib@@UBE_NXZ 004551e0     DuiLib_ud:DuiLib_ud.dll
 0002:000001e4       __imp_?GetToolTip@CControlUI@DuiLib@@UBE?AVCDuiString@2@XZ 004551e4     DuiLib_ud:DuiLib_ud.dll
 0002:000001e8       __imp_?SetToolTip@CControlUI@DuiLib@@UAEXPB_W@Z 004551e8     DuiLib_ud:DuiLib_ud.dll
 0002:000001ec       __imp_?SetToolTipWidth@CControlUI@DuiLib@@UAEXH@Z 004551ec     DuiLib_ud:DuiLib_ud.dll
 0002:000001f0       __imp_?GetToolTipWidth@CControlUI@DuiLib@@UAEHXZ 004551f0     DuiLib_ud:DuiLib_ud.dll
 0002:000001f4       __imp_?IsContextMenuUsed@CControlUI@DuiLib@@UBE_NXZ 004551f4     DuiLib_ud:DuiLib_ud.dll
 0002:000001f8       __imp_?SetShortcut@CControlUI@DuiLib@@UAEX_W@Z 004551f8     DuiLib_ud:DuiLib_ud.dll
 0002:000001fc       \177DuiLib_ud_NULL_THUNK_DATA 004551fc     DuiLib_ud:DuiLib_ud.dll
 0002:00000200       __imp__CreateRectRgnIndirect@4 00455200     gdi32:GDI32.dll
 0002:00000204       __imp__CreateRoundRectRgn@24 00455204     gdi32:GDI32.dll
 0002:00000208       __imp__CombineRgn@16       00455208     gdi32:GDI32.dll
 0002:0000020c       __imp__CreateRectRgn@16    0045520c     gdi32:GDI32.dll
 0002:00000210       __imp__CreateDIBSection@24 00455210     gdi32:GDI32.dll
 0002:00000214       __imp__CreateCompatibleDC@4 00455214     gdi32:GDI32.dll
 0002:00000218       __imp__SelectObject@8      00455218     gdi32:GDI32.dll
 0002:0000021c       __imp__DeleteDC@4          0045521c     gdi32:GDI32.dll
 0002:00000220       __imp__DeleteObject@4      00455220     gdi32:GDI32.dll
 0002:00000224       \177GDI32_NULL_THUNK_DATA  00455224     gdi32:GDI32.dll
 0002:00000228       __imp__HeapDestroy@4       00455228     kernel32:KERNEL32.dll
 0002:0000022c       __imp__GetACP@0            0045522c     kernel32:KERNEL32.dll
 0002:00000230       __imp__GetOEMCP@0          00455230     kernel32:KERNEL32.dll
 0002:00000234       __imp__IsValidCodePage@4   00455234     kernel32:KERNEL32.dll
 0002:00000238       __imp__QueryPerformanceCounter@4 00455238     kernel32:KERNEL32.dll
 0002:0000023c       __imp__GetTickCount@0      0045523c     kernel32:KERNEL32.dll
 0002:00000240       __imp__GetCurrentProcessId@0 00455240     kernel32:KERNEL32.dll
 0002:00000244       __imp__GetSystemTimeAsFileTime@4 00455244     kernel32:KERNEL32.dll
 0002:00000248       __imp__FreeEnvironmentStringsW@4 00455248     kernel32:KERNEL32.dll
 0002:0000024c       __imp__GetEnvironmentStringsW@0 0045524c     kernel32:KERNEL32.dll
 0002:00000250       __imp__SetHandleCount@4    00455250     kernel32:KERNEL32.dll
 0002:00000254       __imp__GetStringTypeW@16   00455254     kernel32:KERNEL32.dll
 0002:00000258       __imp__GetLocaleInfoA@16   00455258     kernel32:KERNEL32.dll
 0002:0000025c       __imp__IsValidLocale@8     0045525c     kernel32:KERNEL32.dll
 0002:00000260       __imp__EnumSystemLocalesA@8 00455260     kernel32:KERNEL32.dll
 0002:00000264       __imp__GetUserDefaultLCID@0 00455264     kernel32:KERNEL32.dll
 0002:00000268       __imp__GetProcessHeap@0    00455268     kernel32:KERNEL32.dll
 0002:0000026c       __imp__VirtualQuery@12     0045526c     kernel32:KERNEL32.dll
 0002:00000270       __imp__FreeLibrary@4       00455270     kernel32:KERNEL32.dll
 0002:00000274       __imp__SetFilePointer@16   00455274     kernel32:KERNEL32.dll
 0002:00000278       __imp__GetConsoleCP@0      00455278     kernel32:KERNEL32.dll
 0002:0000027c       __imp__GetConsoleMode@8    0045527c     kernel32:KERNEL32.dll
 0002:00000280       __imp__SetStdHandle@8      00455280     kernel32:KERNEL32.dll
 0002:00000284       __imp__CreateFileW@28      00455284     kernel32:KERNEL32.dll
 0002:00000288       __imp__CloseHandle@4       00455288     kernel32:KERNEL32.dll
 0002:0000028c       __imp__Sleep@4             0045528c     kernel32:KERNEL32.dll
 0002:00000290       __imp__CreateThread@24     00455290     kernel32:KERNEL32.dll
 0002:00000294       __imp__MultiByteToWideChar@24 00455294     kernel32:KERNEL32.dll
 0002:00000298       __imp__InterlockedIncrement@4 00455298     kernel32:KERNEL32.dll
 0002:0000029c       __imp__InterlockedDecrement@4 0045529c     kernel32:KERNEL32.dll
 0002:000002a0       __imp__WideCharToMultiByte@32 004552a0     kernel32:KERNEL32.dll
 0002:000002a4       __imp__InterlockedExchange@8 004552a4     kernel32:KERNEL32.dll
 0002:000002a8       __imp__InitializeCriticalSection@4 004552a8     kernel32:KERNEL32.dll
 0002:000002ac       __imp__DeleteCriticalSection@4 004552ac     kernel32:KERNEL32.dll
 0002:000002b0       __imp__EnterCriticalSection@4 004552b0     kernel32:KERNEL32.dll
 0002:000002b4       __imp__LeaveCriticalSection@4 004552b4     kernel32:KERNEL32.dll
 0002:000002b8       __imp__EncodePointer@4     004552b8     kernel32:KERNEL32.dll
 0002:000002bc       __imp__DecodePointer@4     004552bc     kernel32:KERNEL32.dll
 0002:000002c0       __imp__InterlockedCompareExchange@12 004552c0     kernel32:KERNEL32.dll
 0002:000002c4       __imp__RtlUnwind@16        004552c4     kernel32:KERNEL32.dll
 0002:000002c8       __imp__GetModuleFileNameW@12 004552c8     kernel32:KERNEL32.dll
 0002:000002cc       __imp__RaiseException@16   004552cc     kernel32:KERNEL32.dll
 0002:000002d0       __imp__TerminateProcess@8  004552d0     kernel32:KERNEL32.dll
 0002:000002d4       __imp__GetCurrentProcess@0 004552d4     kernel32:KERNEL32.dll
 0002:000002d8       __imp__UnhandledExceptionFilter@4 004552d8     kernel32:KERNEL32.dll
 0002:000002dc       __imp__SetUnhandledExceptionFilter@4 004552dc     kernel32:KERNEL32.dll
 0002:000002e0       __imp__IsDebuggerPresent@0 004552e0     kernel32:KERNEL32.dll
 0002:000002e4       __imp__HeapValidate@12     004552e4     kernel32:KERNEL32.dll
 0002:000002e8       __imp__IsBadReadPtr@8      004552e8     kernel32:KERNEL32.dll
 0002:000002ec       __imp__GetCommandLineA@0   004552ec     kernel32:KERNEL32.dll
 0002:000002f0       __imp__HeapSetInformation@16 004552f0     kernel32:KERNEL32.dll
 0002:000002f4       __imp__GetStartupInfoW@4   004552f4     kernel32:KERNEL32.dll
 0002:000002f8       __imp__LCMapStringW@24     004552f8     kernel32:KERNEL32.dll
 0002:000002fc       __imp__GetCPInfo@8         004552fc     kernel32:KERNEL32.dll
 0002:00000300       __imp__lstrlenA@4          00455300     kernel32:KERNEL32.dll
 0002:00000304       __imp__GetProcAddress@8    00455304     kernel32:KERNEL32.dll
 0002:00000308       __imp__LoadLibraryW@4      00455308     kernel32:KERNEL32.dll
 0002:0000030c       __imp__WriteFile@20        0045530c     kernel32:KERNEL32.dll
 0002:00000310       __imp__GetStdHandle@4      00455310     kernel32:KERNEL32.dll
 0002:00000314       __imp__GetLocaleInfoW@16   00455314     kernel32:KERNEL32.dll
 0002:00000318       __imp__GetLastError@0      00455318     kernel32:KERNEL32.dll
 0002:0000031c       __imp__IsProcessorFeaturePresent@4 0045531c     kernel32:KERNEL32.dll
 0002:00000320       __imp__InitializeCriticalSectionAndSpinCount@8 00455320     kernel32:KERNEL32.dll
 0002:00000324       __imp__FatalAppExitA@8     00455324     kernel32:KERNEL32.dll
 0002:00000328       __imp__TlsAlloc@0          00455328     kernel32:KERNEL32.dll
 0002:0000032c       __imp__TlsGetValue@4       0045532c     kernel32:KERNEL32.dll
 0002:00000330       __imp__TlsSetValue@8       00455330     kernel32:KERNEL32.dll
 0002:00000334       __imp__GetCurrentThreadId@0 00455334     kernel32:KERNEL32.dll
 0002:00000338       __imp__TlsFree@4           00455338     kernel32:KERNEL32.dll
 0002:0000033c       __imp__GetModuleHandleW@4  0045533c     kernel32:KERNEL32.dll
 0002:00000340       __imp__SetLastError@4      00455340     kernel32:KERNEL32.dll
 0002:00000344       __imp__GetCurrentThread@0  00455344     kernel32:KERNEL32.dll
 0002:00000348       __imp__OutputDebugStringA@4 00455348     kernel32:KERNEL32.dll
 0002:0000034c       __imp__WriteConsoleW@20    0045534c     kernel32:KERNEL32.dll
 0002:00000350       __imp__GetFileType@4       00455350     kernel32:KERNEL32.dll
 0002:00000354       __imp__OutputDebugStringW@4 00455354     kernel32:KERNEL32.dll
 0002:00000358       __imp__ExitProcess@4       00455358     kernel32:KERNEL32.dll
 0002:0000035c       __imp__SetConsoleCtrlHandler@8 0045535c     kernel32:KERNEL32.dll
 0002:00000360       __imp__HeapAlloc@12        00455360     kernel32:KERNEL32.dll
 0002:00000364       __imp__GetModuleFileNameA@12 00455364     kernel32:KERNEL32.dll
 0002:00000368       __imp__HeapReAlloc@16      00455368     kernel32:KERNEL32.dll
 0002:0000036c       __imp__HeapSize@12         0045536c     kernel32:KERNEL32.dll
 0002:00000370       __imp__HeapQueryInformation@20 00455370     kernel32:KERNEL32.dll
 0002:00000374       __imp__HeapFree@12         00455374     kernel32:KERNEL32.dll
 0002:00000378       __imp__HeapCreate@12       00455378     kernel32:KERNEL32.dll
 0002:0000037c       __imp__FlushFileBuffers@4  0045537c     kernel32:KERNEL32.dll
 0002:00000380       \177KERNEL32_NULL_THUNK_DATA 00455380     kernel32:KERNEL32.dll
 0002:00000384       __imp__ScreenToClient@8    00455384     user32:USER32.dll
 0002:00000388       __imp__IsZoomed@4          00455388     user32:USER32.dll
 0002:0000038c       __imp__GetWindowLongW@8    0045538c     user32:USER32.dll
 0002:00000390       __imp__SetWindowLongW@12   00455390     user32:USER32.dll
 0002:00000394       __imp__PostMessageW@16     00455394     user32:USER32.dll
 0002:00000398       __imp__SetWindowRgn@12     00455398     user32:USER32.dll
 0002:0000039c       __imp__SetFocus@4          0045539c     user32:USER32.dll
 0002:000003a0       __imp__MonitorFromWindow@8 004553a0     user32:USER32.dll
 0002:000003a4       __imp__GetMonitorInfoW@8   004553a4     user32:USER32.dll
 0002:000003a8       __imp__SetWindowPos@28     004553a8     user32:USER32.dll
 0002:000003ac       __imp__GetClientRect@8     004553ac     user32:USER32.dll
 0002:000003b0       __imp__GetDC@4             004553b0     user32:USER32.dll
 0002:000003b4       __imp__GetWindowRect@8     004553b4     user32:USER32.dll
 0002:000003b8       __imp__UpdateLayeredWindow@36 004553b8     user32:USER32.dll
 0002:000003bc       __imp__ReleaseDC@8         004553bc     user32:USER32.dll
 0002:000003c0       __imp__SetTimer@16         004553c0     user32:USER32.dll
 0002:000003c4       __imp__KillTimer@8         004553c4     user32:USER32.dll
 0002:000003c8       __imp__IsIconic@4          004553c8     user32:USER32.dll
 0002:000003cc       __imp__GetParent@4         004553cc     user32:USER32.dll
 0002:000003d0       __imp__SendMessageW@16     004553d0     user32:USER32.dll
 0002:000003d4       __imp__PostQuitMessage@4   004553d4     user32:USER32.dll
 0002:000003d8       __imp__MessageBoxW@16      004553d8     user32:USER32.dll
 0002:000003dc       __imp__ClientToScreen@8    004553dc     user32:USER32.dll
 0002:000003e0       __imp__ShowWindow@8        004553e0     user32:USER32.dll
 0002:000003e4       \177USER32_NULL_THUNK_DATA 004553e4     user32:USER32.dll
 0002:000003e8       ___xc_a                    004553e8     LIBCMTD:crt0init.obj
 0002:00000440       ___xc_z                    00455440     LIBCMTD:crt0init.obj
 0002:00000444       ___xi_a                    00455444     LIBCMTD:crt0init.obj
 0002:00000460       ___xi_z                    00455460     LIBCMTD:crt0init.obj
 0002:00000464       ___xp_a                    00455464     LIBCMTD:crt0init.obj
 0002:00000474       ___xp_z                    00455474     LIBCMTD:crt0init.obj
 0002:00000478       ___xt_a                    00455478     LIBCMTD:crt0init.obj
 0002:0000047c       ___xt_z                    0045547c     LIBCMTD:crt0init.obj
 0002:0000049c       ?has_denorm@_Num_base@std@@2W4float_denorm_style@2@B 0045549c     Main.obj
 0002:000004a0       ?has_denorm_loss@_Num_base@std@@2_NB 004554a0     Main.obj
 0002:000004a1       ?has_infinity@_Num_base@std@@2_NB 004554a1     Main.obj
 0002:000004a2       ?has_quiet_NaN@_Num_base@std@@2_NB 004554a2     Main.obj
 0002:000004a3       ?has_signaling_NaN@_Num_base@std@@2_NB 004554a3     Main.obj
 0002:000004a4       ?is_bounded@_Num_base@std@@2_NB 004554a4     Main.obj
 0002:000004a5       ?is_exact@_Num_base@std@@2_NB 004554a5     Main.obj
 0002:000004a6       ?is_iec559@_Num_base@std@@2_NB 004554a6     Main.obj
 0002:000004a7       ?is_integer@_Num_base@std@@2_NB 004554a7     Main.obj
 0002:000004a8       ?is_modulo@_Num_base@std@@2_NB 004554a8     Main.obj
 0002:000004a9       ?is_signed@_Num_base@std@@2_NB 004554a9     Main.obj
 0002:000004aa       ?is_specialized@_Num_base@std@@2_NB 004554aa     Main.obj
 0002:000004ab       ?tinyness_before@_Num_base@std@@2_NB 004554ab     Main.obj
 0002:000004ac       ?traps@_Num_base@std@@2_NB 004554ac     Main.obj
 0002:000004b0       ?round_style@_Num_base@std@@2W4float_round_style@2@B 004554b0     Main.obj
 0002:000004b4       ?digits@_Num_base@std@@2HB 004554b4     Main.obj
 0002:000004b8       ?digits10@_Num_base@std@@2HB 004554b8     Main.obj
 0002:000004bc       ?max_digits10@_Num_base@std@@2HB 004554bc     Main.obj
 0002:000004c0       ?max_exponent@_Num_base@std@@2HB 004554c0     Main.obj
 0002:000004c4       ?max_exponent10@_Num_base@std@@2HB 004554c4     Main.obj
 0002:000004c8       ?min_exponent@_Num_base@std@@2HB 004554c8     Main.obj
 0002:000004cc       ?min_exponent10@_Num_base@std@@2HB 004554cc     Main.obj
 0002:000004d0       ?radix@_Num_base@std@@2HB  004554d0     Main.obj
 0002:000004d4       ?is_bounded@_Num_int_base@std@@2_NB 004554d4     Main.obj
 0002:000004d5       ?is_exact@_Num_int_base@std@@2_NB 004554d5     Main.obj
 0002:000004d6       ?is_integer@_Num_int_base@std@@2_NB 004554d6     Main.obj
 0002:000004d7       ?is_modulo@_Num_int_base@std@@2_NB 004554d7     Main.obj
 0002:000004d8       ?is_specialized@_Num_int_base@std@@2_NB 004554d8     Main.obj
 0002:000004dc       ?radix@_Num_int_base@std@@2HB 004554dc     Main.obj
 0002:000004e0       ?has_denorm@_Num_float_base@std@@2W4float_denorm_style@2@B 004554e0     Main.obj
 0002:000004e4       ?has_denorm_loss@_Num_float_base@std@@2_NB 004554e4     Main.obj
 0002:000004e5       ?has_infinity@_Num_float_base@std@@2_NB 004554e5     Main.obj
 0002:000004e6       ?has_quiet_NaN@_Num_float_base@std@@2_NB 004554e6     Main.obj
 0002:000004e7       ?has_signaling_NaN@_Num_float_base@std@@2_NB 004554e7     Main.obj
 0002:000004e8       ?is_bounded@_Num_float_base@std@@2_NB 004554e8     Main.obj
 0002:000004e9       ?is_exact@_Num_float_base@std@@2_NB 004554e9     Main.obj
 0002:000004ea       ?is_iec559@_Num_float_base@std@@2_NB 004554ea     Main.obj
 0002:000004eb       ?is_integer@_Num_float_base@std@@2_NB 004554eb     Main.obj
 0002:000004ec       ?is_modulo@_Num_float_base@std@@2_NB 004554ec     Main.obj
 0002:000004ed       ?is_signed@_Num_float_base@std@@2_NB 004554ed     Main.obj
 0002:000004ee       ?is_specialized@_Num_float_base@std@@2_NB 004554ee     Main.obj
 0002:000004ef       ?tinyness_before@_Num_float_base@std@@2_NB 004554ef     Main.obj
 0002:000004f0       ?traps@_Num_float_base@std@@2_NB 004554f0     Main.obj
 0002:000004f4       ?round_style@_Num_float_base@std@@2W4float_round_style@2@B 004554f4     Main.obj
 0002:000004f8       ?radix@_Num_float_base@std@@2HB 004554f8     Main.obj
 0002:000004fc       ?is_signed@?$numeric_limits@D@std@@2_NB 004554fc     Main.obj
 0002:00000500       ?digits@?$numeric_limits@D@std@@2HB 00455500     Main.obj
 0002:00000504       ?digits10@?$numeric_limits@D@std@@2HB 00455504     Main.obj
 0002:00000508       ?max_digits10@?$numeric_limits@D@std@@2HB 00455508     Main.obj
 0002:0000050c       ?is_signed@?$numeric_limits@_W@std@@2_NB 0045550c     Main.obj
 0002:00000510       ?digits@?$numeric_limits@_W@std@@2HB 00455510     Main.obj
 0002:00000514       ?digits10@?$numeric_limits@_W@std@@2HB 00455514     Main.obj
 0002:00000518       ?max_digits10@?$numeric_limits@_W@std@@2HB 00455518     Main.obj
 0002:0000051c       ?is_modulo@?$numeric_limits@_N@std@@2_NB 0045551c     Main.obj
 0002:0000051d       ?is_signed@?$numeric_limits@_N@std@@2_NB 0045551d     Main.obj
 0002:00000520       ?digits@?$numeric_limits@_N@std@@2HB 00455520     Main.obj
 0002:00000524       ?digits10@?$numeric_limits@_N@std@@2HB 00455524     Main.obj
 0002:00000528       ?max_digits10@?$numeric_limits@_N@std@@2HB 00455528     Main.obj
 0002:0000052c       ?is_signed@?$numeric_limits@C@std@@2_NB 0045552c     Main.obj
 0002:00000530       ?digits@?$numeric_limits@C@std@@2HB 00455530     Main.obj
 0002:00000534       ?digits10@?$numeric_limits@C@std@@2HB 00455534     Main.obj
 0002:00000538       ?max_digits10@?$numeric_limits@C@std@@2HB 00455538     Main.obj
 0002:0000053c       ?is_signed@?$numeric_limits@E@std@@2_NB 0045553c     Main.obj
 0002:00000540       ?digits@?$numeric_limits@E@std@@2HB 00455540     Main.obj
 0002:00000544       ?digits10@?$numeric_limits@E@std@@2HB 00455544     Main.obj
 0002:00000548       ?max_digits10@?$numeric_limits@E@std@@2HB 00455548     Main.obj
 0002:0000054c       ?is_signed@?$numeric_limits@F@std@@2_NB 0045554c     Main.obj
 0002:00000550       ?digits@?$numeric_limits@F@std@@2HB 00455550     Main.obj
 0002:00000554       ?digits10@?$numeric_limits@F@std@@2HB 00455554     Main.obj
 0002:00000558       ?max_digits10@?$numeric_limits@F@std@@2HB 00455558     Main.obj
 0002:0000055c       ?is_signed@?$numeric_limits@G@std@@2_NB 0045555c     Main.obj
 0002:00000560       ?digits@?$numeric_limits@G@std@@2HB 00455560     Main.obj
 0002:00000564       ?digits10@?$numeric_limits@G@std@@2HB 00455564     Main.obj
 0002:00000568       ?max_digits10@?$numeric_limits@G@std@@2HB 00455568     Main.obj
 0002:0000056c       ?is_signed@?$numeric_limits@H@std@@2_NB 0045556c     Main.obj
 0002:00000570       ?digits@?$numeric_limits@H@std@@2HB 00455570     Main.obj
 0002:00000574       ?digits10@?$numeric_limits@H@std@@2HB 00455574     Main.obj
 0002:00000578       ?max_digits10@?$numeric_limits@H@std@@2HB 00455578     Main.obj
 0002:0000057c       ?is_signed@?$numeric_limits@I@std@@2_NB 0045557c     Main.obj
 0002:00000580       ?digits@?$numeric_limits@I@std@@2HB 00455580     Main.obj
 0002:00000584       ?digits10@?$numeric_limits@I@std@@2HB 00455584     Main.obj
 0002:00000588       ?max_digits10@?$numeric_limits@I@std@@2HB 00455588     Main.obj
 0002:0000058c       ?is_signed@?$numeric_limits@J@std@@2_NB 0045558c     Main.obj
 0002:00000590       ?digits@?$numeric_limits@J@std@@2HB 00455590     Main.obj
 0002:00000594       ?digits10@?$numeric_limits@J@std@@2HB 00455594     Main.obj
 0002:00000598       ?max_digits10@?$numeric_limits@J@std@@2HB 00455598     Main.obj
 0002:0000059c       ?is_signed@?$numeric_limits@K@std@@2_NB 0045559c     Main.obj
 0002:000005a0       ?digits@?$numeric_limits@K@std@@2HB 004555a0     Main.obj
 0002:000005a4       ?digits10@?$numeric_limits@K@std@@2HB 004555a4     Main.obj
 0002:000005a8       ?max_digits10@?$numeric_limits@K@std@@2HB 004555a8     Main.obj
 0002:000005ac       ?is_signed@?$numeric_limits@_J@std@@2_NB 004555ac     Main.obj
 0002:000005b0       ?digits@?$numeric_limits@_J@std@@2HB 004555b0     Main.obj
 0002:000005b4       ?digits10@?$numeric_limits@_J@std@@2HB 004555b4     Main.obj
 0002:000005b8       ?max_digits10@?$numeric_limits@_J@std@@2HB 004555b8     Main.obj
 0002:000005bc       ?is_signed@?$numeric_limits@_K@std@@2_NB 004555bc     Main.obj
 0002:000005c0       ?digits@?$numeric_limits@_K@std@@2HB 004555c0     Main.obj
 0002:000005c4       ?digits10@?$numeric_limits@_K@std@@2HB 004555c4     Main.obj
 0002:000005c8       ?max_digits10@?$numeric_limits@_K@std@@2HB 004555c8     Main.obj
 0002:000005cc       ?digits@?$numeric_limits@M@std@@2HB 004555cc     Main.obj
 0002:000005d0       ?digits10@?$numeric_limits@M@std@@2HB 004555d0     Main.obj
 0002:000005d4       ?max_digits10@?$numeric_limits@M@std@@2HB 004555d4     Main.obj
 0002:000005d8       ?max_exponent@?$numeric_limits@M@std@@2HB 004555d8     Main.obj
 0002:000005dc       ?max_exponent10@?$numeric_limits@M@std@@2HB 004555dc     Main.obj
 0002:000005e0       ?min_exponent@?$numeric_limits@M@std@@2HB 004555e0     Main.obj
 0002:000005e4       ?min_exponent10@?$numeric_limits@M@std@@2HB 004555e4     Main.obj
 0002:000005e8       ?digits@?$numeric_limits@N@std@@2HB 004555e8     Main.obj
 0002:000005ec       ?digits10@?$numeric_limits@N@std@@2HB 004555ec     Main.obj
 0002:000005f0       ?max_digits10@?$numeric_limits@N@std@@2HB 004555f0     Main.obj
 0002:000005f4       ?max_exponent@?$numeric_limits@N@std@@2HB 004555f4     Main.obj
 0002:000005f8       ?max_exponent10@?$numeric_limits@N@std@@2HB 004555f8     Main.obj
 0002:000005fc       ?min_exponent@?$numeric_limits@N@std@@2HB 004555fc     Main.obj
 0002:00000600       ?min_exponent10@?$numeric_limits@N@std@@2HB 00455600     Main.obj
 0002:00000604       ?digits@?$numeric_limits@O@std@@2HB 00455604     Main.obj
 0002:00000608       ?digits10@?$numeric_limits@O@std@@2HB 00455608     Main.obj
 0002:0000060c       ?max_digits10@?$numeric_limits@O@std@@2HB 0045560c     Main.obj
 0002:00000610       ?max_exponent@?$numeric_limits@O@std@@2HB 00455610     Main.obj
 0002:00000614       ?max_exponent10@?$numeric_limits@O@std@@2HB 00455614     Main.obj
 0002:00000618       ?min_exponent@?$numeric_limits@O@std@@2HB 00455618     Main.obj
 0002:0000061c       ?min_exponent10@?$numeric_limits@O@std@@2HB 0045561c     Main.obj
 0002:00000620       ?value@?$integral_constant@_N$0A@@tr1@std@@2_NB 00455620     Main.obj
 0002:00000621       ?value@?$integral_constant@_N$00@tr1@std@@2_NB 00455621     Main.obj
 0002:00000624       ?value@?$integral_constant@I$0A@@tr1@std@@2IB 00455624     Main.obj
 0002:00000628       ?_Rank@?$_Arithmetic_traits@_N@std@@2HB 00455628     Main.obj
 0002:0000062c       ?_Rank@?$_Arithmetic_traits@D@std@@2HB 0045562c     Main.obj
 0002:00000630       ?_Rank@?$_Arithmetic_traits@C@std@@2HB 00455630     Main.obj
 0002:00000634       ?_Rank@?$_Arithmetic_traits@E@std@@2HB 00455634     Main.obj
 0002:00000638       ?_Rank@?$_Arithmetic_traits@F@std@@2HB 00455638     Main.obj
 0002:0000063c       ?_Rank@?$_Arithmetic_traits@G@std@@2HB 0045563c     Main.obj
 0002:00000640       ?_Rank@?$_Arithmetic_traits@H@std@@2HB 00455640     Main.obj
 0002:00000644       ?_Rank@?$_Arithmetic_traits@I@std@@2HB 00455644     Main.obj
 0002:00000648       ?_Rank@?$_Arithmetic_traits@J@std@@2HB 00455648     Main.obj
 0002:0000064c       ?_Rank@?$_Arithmetic_traits@K@std@@2HB 0045564c     Main.obj
 0002:00000650       ?_Rank@?$_Arithmetic_traits@_J@std@@2HB 00455650     Main.obj
 0002:00000654       ?_Rank@?$_Arithmetic_traits@_K@std@@2HB 00455654     Main.obj
 0002:00000658       ?_Rank@?$_Arithmetic_traits@M@std@@2HB 00455658     Main.obj
 0002:0000065c       ?_Rank@?$_Arithmetic_traits@N@std@@2HB 0045565c     Main.obj
 0002:00000660       ?_Rank@?$_Arithmetic_traits@O@std@@2HB 00455660     Main.obj
 0002:00000664       ?collate@?$_Locbase@H@std@@2HB 00455664     Main.obj
 0002:00000668       ?ctype@?$_Locbase@H@std@@2HB 00455668     Main.obj
 0002:0000066c       ?monetary@?$_Locbase@H@std@@2HB 0045566c     Main.obj
 0002:00000670       ?numeric@?$_Locbase@H@std@@2HB 00455670     Main.obj
 0002:00000674       ?time@?$_Locbase@H@std@@2HB 00455674     Main.obj
 0002:00000678       ?messages@?$_Locbase@H@std@@2HB 00455678     Main.obj
 0002:0000067c       ?all@?$_Locbase@H@std@@2HB 0045567c     Main.obj
 0002:00000680       ?none@?$_Locbase@H@std@@2HB 00455680     Main.obj
 0002:00000684       ?table_size@?$ctype@D@std@@2IB 00455684     Main.obj
 0002:00000688       ?skipws@?$_Iosb@H@std@@2W4_Fmtflags@12@B 00455688     Main.obj
 0002:0000068c       ?unitbuf@?$_Iosb@H@std@@2W4_Fmtflags@12@B 0045568c     Main.obj
 0002:00000690       ?uppercase@?$_Iosb@H@std@@2W4_Fmtflags@12@B 00455690     Main.obj
 0002:00000694       ?showbase@?$_Iosb@H@std@@2W4_Fmtflags@12@B 00455694     Main.obj
 0002:00000698       ?showpoint@?$_Iosb@H@std@@2W4_Fmtflags@12@B 00455698     Main.obj
 0002:0000069c       ?showpos@?$_Iosb@H@std@@2W4_Fmtflags@12@B 0045569c     Main.obj
 0002:000006a0       ?left@?$_Iosb@H@std@@2W4_Fmtflags@12@B 004556a0     Main.obj
 0002:000006a4       ?right@?$_Iosb@H@std@@2W4_Fmtflags@12@B 004556a4     Main.obj
 0002:000006a8       ?internal@?$_Iosb@H@std@@2W4_Fmtflags@12@B 004556a8     Main.obj
 0002:000006ac       ?dec@?$_Iosb@H@std@@2W4_Fmtflags@12@B 004556ac     Main.obj
 0002:000006b0       ?oct@?$_Iosb@H@std@@2W4_Fmtflags@12@B 004556b0     Main.obj
 0002:000006b4       ?hex@?$_Iosb@H@std@@2W4_Fmtflags@12@B 004556b4     Main.obj
 0002:000006b8       ?scientific@?$_Iosb@H@std@@2W4_Fmtflags@12@B 004556b8     Main.obj
 0002:000006bc       ?fixed@?$_Iosb@H@std@@2W4_Fmtflags@12@B 004556bc     Main.obj
 0002:000006c0       ?hexfloat@?$_Iosb@H@std@@2W4_Fmtflags@12@B 004556c0     Main.obj
 0002:000006c4       ?boolalpha@?$_Iosb@H@std@@2W4_Fmtflags@12@B 004556c4     Main.obj
 0002:000006c8       ?_Stdio@?$_Iosb@H@std@@2W4_Fmtflags@12@B 004556c8     Main.obj
 0002:000006cc       ?adjustfield@?$_Iosb@H@std@@2W4_Fmtflags@12@B 004556cc     Main.obj
 0002:000006d0       ?basefield@?$_Iosb@H@std@@2W4_Fmtflags@12@B 004556d0     Main.obj
 0002:000006d4       ?floatfield@?$_Iosb@H@std@@2W4_Fmtflags@12@B 004556d4     Main.obj
 0002:000006d8       ?goodbit@?$_Iosb@H@std@@2W4_Iostate@12@B 004556d8     Main.obj
 0002:000006dc       ?eofbit@?$_Iosb@H@std@@2W4_Iostate@12@B 004556dc     Main.obj
 0002:000006e0       ?failbit@?$_Iosb@H@std@@2W4_Iostate@12@B 004556e0     Main.obj
 0002:000006e4       ?badbit@?$_Iosb@H@std@@2W4_Iostate@12@B 004556e4     Main.obj
 0002:000006e8       ?_Hardfail@?$_Iosb@H@std@@2W4_Iostate@12@B 004556e8     Main.obj
 0002:000006ec       ?in@?$_Iosb@H@std@@2W4_Openmode@12@B 004556ec     Main.obj
 0002:000006f0       ?out@?$_Iosb@H@std@@2W4_Openmode@12@B 004556f0     Main.obj
 0002:000006f4       ?ate@?$_Iosb@H@std@@2W4_Openmode@12@B 004556f4     Main.obj
 0002:000006f8       ?app@?$_Iosb@H@std@@2W4_Openmode@12@B 004556f8     Main.obj
 0002:000006fc       ?trunc@?$_Iosb@H@std@@2W4_Openmode@12@B 004556fc     Main.obj
 0002:00000700       ?_Nocreate@?$_Iosb@H@std@@2W4_Openmode@12@B 00455700     Main.obj
 0002:00000704       ?_Noreplace@?$_Iosb@H@std@@2W4_Openmode@12@B 00455704     Main.obj
 0002:00000708       ?binary@?$_Iosb@H@std@@2W4_Openmode@12@B 00455708     Main.obj
 0002:0000070c       ?beg@?$_Iosb@H@std@@2W4_Seekdir@12@B 0045570c     Main.obj
 0002:00000710       ?cur@?$_Iosb@H@std@@2W4_Seekdir@12@B 00455710     Main.obj
 0002:00000714       ?end@?$_Iosb@H@std@@2W4_Seekdir@12@B 00455714     Main.obj
 0002:00000754       ??_7ListMainForm@@6BIListCallbackUI@DuiLib@@@ 00455754     Main.obj
 0002:0000075c       ??_7ListMainForm@@6BINotifyUI@DuiLib@@@ 0045575c     Main.obj
 0002:00000764       ??_7ListMainForm@@6BCWindowWnd@DuiLib@@@ 00455764     Main.obj
 0002:0000077c       ??_7INotifyUI@DuiLib@@6B@  0045577c     Main.obj
 0002:00000780       ??_C@_1BK@HPDHJDB@?$AAS?$AAc?$AAa?$AAn?$AAM?$AAa?$AAi?$AAn?$AAF?$AAo?$AAr?$AAm?$AA?$AA@ 00455780     Main.obj
 0002:0000079c       ??_C@_15KNBIKKIN@?$AA?$CF?$AAd?$AA?$AA@ 0045579c     Main.obj
 0002:000007a4       ??_C@_1BI@MNOADAKM@?$AAm?$AAe?$AAn?$AAu?$AA_?$AAD?$AAe?$AAl?$AAe?$AAt?$AAe?$AA?$AA@ 004557a4     Main.obj
 0002:000007bc       ??_C@_1BG@BHAICPDP@?$AAd?$AAo?$AAm?$AAa?$AAi?$AAn?$AAl?$AAi?$AAs?$AAt?$AA?$AA@ 004557bc     Main.obj
 0002:000007d4       ??_C@_19MOHIIIBC@?$AAm?$AAe?$AAn?$AAu?$AA?$AA@ 004557d4     Main.obj
 0002:000007e0       ??_C@_1BO@NMCLDKM@?$AA?L?$AA?a?$AA?J?$AA?$LO?$AA?$CI?$AAb?$AAy?$AA?5?$AAt?$AAo?$AAj?$AAe?$AAn?$AA?$CJ?$AA?$AA@ 004557e0     Main.obj
 0002:00000800       ??_C@_1BA@LFKDDGFE@?$AAC?$AAl?$AAi?$AAc?$AAk?$AA?3?$AA?5?$AA?$AA@ 00455800     Main.obj
 0002:00000810       ??_C@_1BK@NCDHHILC@?$AAi?$AAt?$AAe?$AAm?$AAa?$AAc?$AAt?$AAi?$AAv?$AAa?$AAt?$AAe?$AA?$AA@ 00455810     Main.obj
 0002:0000082c       ??_C@_1BE@KEJJHJFG@?$AAi?$AAt?$AAe?$AAm?$AAc?$AAl?$AAi?$AAc?$AAk?$AA?$AA@ 0045582c     Main.obj
 0002:00000840       ??_C@_1BC@JAFDLHBK@?$AAs?$AAe?$AAt?$AAf?$AAo?$AAc?$AAu?$AAs?$AA?$AA@ 00455840     Main.obj
 0002:00000854       ??_C@_1M@LNNONFPA@?$AAc?$AAl?$AAi?$AAc?$AAk?$AA?$AA@ 00455854     Main.obj
 0002:00000860       ??_C@_1BG@LEKJCKOE@?$AAw?$AAi?$AAn?$AAd?$AAo?$AAw?$AAi?$AAn?$AAi?$AAt?$AA?$AA@ 00455860     Main.obj
 0002:0000087c       ??_7CMenuWnd@@6BINotifyUI@DuiLib@@@ 0045587c     Main.obj
 0002:00000884       ??_7CMenuWnd@@6BCWindowWnd@DuiLib@@@ 00455884     Main.obj
 0002:00000898       ??_C@_1BA@DEFEOECG@?$AAM?$AAe?$AAn?$AAu?$AAW?$AAn?$AAd?$AA?$AA@ 00455898     Main.obj
 0002:000008a8       ??_C@_1BG@BGGLOGEL@?$AAi?$AAt?$AAe?$AAm?$AAs?$AAe?$AAl?$AAe?$AAc?$AAt?$AA?$AA@ 004558a8     Main.obj
 0002:000008c0       ??_C@_11LOCGONAA@?$AA?$AA@ 004558c0     Main.obj
 0002:000008c8       ??_7CShadowWnd@@6B@        004558c8     Main.obj
 0002:000008dc       ??_C@_1BC@LMPJFBM@?$AAU?$AAI?$AAS?$AAh?$AAa?$AAd?$AAo?$AAw?$AA?$AA@ 004558dc     Main.obj
 0002:000008f0       ??_C@_1EK@CJBLOBHB@?$AAf?$AAi?$AAl?$AAe?$AA?$DN?$AA?8?$AAm?$AAe?$AAn?$AAu?$AA_?$AAb?$AAk?$AA?4?$AAp?$AAn?$AAg?$AA?8?$AA?5?$AAc?$AAo?$AAr?$AAn?$AAe?$AAr?$AA?$DN?$AA?8?$AA4?$AA0?$AA?0?$AA8?$AA?0@ 004558f0     Main.obj
 0002:00000940       ??_C@_1HC@CPFOKFDE@?$AAe?$AA?3?$AA?2?$AAo?$AAp?$AAe?$AAn?$AAs?$AAo?$AAu?$AAr?$AAc?$AAe?$AA?2?$AAo?$AAn?$AAg?$AAi?$AAt?$AAh?$AAu?$AAb?$AA?2?$AAd?$AAu?$AAi?$AAl?$AAi?$AAb?$AA2?$AA0?$AA1@ 00455940     Main.obj
 0002:000009b4       ??_C@_1DO@ODIKFOCA@?$AAp?$AAR?$AAo?$AAo?$AAt?$AA?5?$AA?$CG?$AA?$CG?$AA?5?$AA?$CC?$AAF?$AAa?$AAi?$AAl?$AAe?$AAd?$AA?5?$AAt?$AAo?$AA?5?$AAp?$AAa?$AAr?$AAs?$AAe?$AA?5?$AAX?$AAM?$AAL?$AA?$CC?$AA?$AA@ 004559b4     Main.obj
 0002:000009f4       ??_C@_0BE@NJOIAKFM@Failed?5to?5parse?5XML?$AA@ 004559f4     Main.obj
 0002:00000a08       ??_C@_1BC@NPIIKGKM@?$AAm?$AAe?$AAn?$AAu?$AA?4?$AAx?$AAm?$AAl?$AA?$AA@ 00455a08     Main.obj
 0002:00000a1c       ??_C@_1M@ONBNGBOD@?$AAi?$AAn?$AAp?$AAu?$AAt?$AA?$AA@ 00455a1c     Main.obj
 0002:00000a2c       ??_SCListTextElementUI@DuiLib@@6BCControlUI@1@@ 00455a2c     Main.obj
 0002:00000b60       ??_C@_05JDECCDON@it?8s?5?$AA@ 00455b60     Main.obj
 0002:00000b68       ??_C@_04PNGHFIJN@?4com?$AA@ 00455b68     Main.obj
 0002:00000b70       ??_C@_04NOHONLOB@www?4?$AA@ 00455b70     Main.obj
 0002:00000b78       ??_C@_1BC@MKOOGFDG@?$AAM?$AAa?$AAi?$AAn?$AA?4?$AAc?$AAp?$AAp?$AA?$AA@ 00455b78     Main.obj
 0002:00000b8c       ??_C@_1BC@NAMDPNKE@?$AAs?$AAk?$AAi?$AAn?$AA?4?$AAx?$AAm?$AAl?$AA?$AA@ 00455b8c     Main.obj
 0002:00000ba0       ??_C@_17EDFJEILH@?$AAb?$AAt?$AAn?$AA?$AA@ 00455ba0     Main.obj
 0002:00000ba8       ??_C@_1O@LGDCHDDB@?$AAm?$AAi?$AAn?$AAb?$AAt?$AAn?$AA?$AA@ 00455ba8     Main.obj
 0002:00000bb8       ??_C@_1BG@ECOFGJMN@?$AAr?$AAe?$AAs?$AAt?$AAo?$AAr?$AAe?$AAb?$AAt?$AAn?$AA?$AA@ 00455bb8     Main.obj
 0002:00000bd0       ??_C@_1O@JKIOPEGA@?$AAm?$AAa?$AAx?$AAb?$AAt?$AAn?$AA?$AA@ 00455bd0     Main.obj
 0002:00000be0       ??_C@_1BC@GMBNLEAB@?$AAc?$AAl?$AAo?$AAs?$AAe?$AAb?$AAt?$AAn?$AA?$AA@ 00455be0     Main.obj
 0002:00000bf4       ??_C@_1O@NHMJANFD@?$AAT?$AAe?$AAx?$AAt?$AAU?$AAI?$AA?$AA@ 00455bf4     Main.obj
 0002:00000c04       ??_C@_1BC@BCJKFOOD@?$AAO?$AAp?$AAt?$AAi?$AAo?$AAn?$AAU?$AAI?$AA?$AA@ 00455c04     Main.obj
 0002:00000c18       ??_C@_1BC@JNPKAAM@?$AAB?$AAu?$AAt?$AAt?$AAo?$AAn?$AAU?$AAI?$AA?$AA@ 00455c18     Main.obj
 0002:00000c30       ??_7IListCallbackUI@DuiLib@@6B@ 00455c30     Main.obj
 0002:00000c34       ??_C@_1DC@POOIKBAO@?$AAI?$AAT?$AAE?$AAR?$AAA?$AAT?$AAO?$AAR?$AA?5?$AAL?$AAI?$AAS?$AAT?$AA?5?$AAC?$AAO?$AAR?$AAR?$AAU?$AAP?$AAT?$AAE?$AAD?$AA?$CB?$AA?$AA@ 00455c34     Main.obj
 0002:00000c68       ??_C@_1JA@HPGAGILB@?$AAC?$AA?3?$AA?2?$AAP?$AAr?$AAo?$AAg?$AAr?$AAa?$AAm?$AA?5?$AAF?$AAi?$AAl?$AAe?$AAs?$AA?5?$AA?$CI?$AAx?$AA8?$AA6?$AA?$CJ?$AA?2?$AAM?$AAi?$AAc?$AAr?$AAo?$AAs?$AAo?$AAf?$AAt@ 00455c68     Main.obj
 0002:00000cfc       ??_7?$basic_ios@DU?$char_traits@D@std@@@std@@6B@ 00455cfc     Main.obj
 0002:00000d04       ??_7ios_base@std@@6B@      00455d04     Main.obj
 0002:00000d08       ??_C@_0BF@OOHOMBOF@ios_base?3?3eofbit?5set?$AA@ 00455d08     Main.obj
 0002:00000d20       ??_C@_0BG@FMKFHCIL@ios_base?3?3failbit?5set?$AA@ 00455d20     Main.obj
 0002:00000d38       ??_C@_0BF@PHHKMMFD@ios_base?3?3badbit?5set?$AA@ 00455d38     Main.obj
 0002:00000d54       ??_7runtime_error@std@@6B@ 00455d54     Main.obj
 0002:00000d60       ??_7failure@ios_base@std@@6B@ 00455d60     Main.obj
 0002:00000d6c       ??_7system_error@std@@6B@  00455d6c     Main.obj
 0002:00000d74       ??_C@_1BO@MEPPHOO@?$AA?$CC?$AAo?$AAu?$AAt?$AA?5?$AAo?$AAf?$AA?5?$AAr?$AAa?$AAn?$AAg?$AAe?$AA?$CC?$AA?$AA@ 00455d74     Main.obj
 0002:00000d98       ??_C@_1BME@NCIPHHDN@?$AAs?$AAt?$AAd?$AA?3?$AA?3?$AAv?$AAe?$AAc?$AAt?$AAo?$AAr?$AA?$DM?$AAc?$AAl?$AAa?$AAs?$AAs?$AA?5?$AAs?$AAt?$AAd?$AA?3?$AA?3?$AAb?$AAa?$AAs?$AAi?$AAc?$AA_?$AAs?$AAt?$AAr@ 00455d98     Main.obj
 0002:00000f60       ??_C@_1FG@IBPIFFN@?$AA?$CC?$AAS?$AAt?$AAa?$AAn?$AAd?$AAa?$AAr?$AAd?$AA?5?$AAC?$AA?$CL?$AA?$CL?$AA?5?$AAL?$AAi?$AAb?$AAr?$AAa?$AAr?$AAi?$AAe?$AAs?$AA?5?$AAO?$AAu?$AAt?$AA?5?$AAo?$AAf?$AA?5?$AAR@ 00455f60     Main.obj
 0002:00000fb8       ??_C@_0CE@OFMIGAMM@Standard?5C?$CL?$CL?5Libraries?5Out?5of?5Ra@ 00455fb8     Main.obj
 0002:00000fdc       ??_C@_1DM@LHGCHCBA@?$AAv?$AAe?$AAc?$AAt?$AAo?$AAr?$AA?5?$AAs?$AAu?$AAb?$AAs?$AAc?$AAr?$AAi?$AAp?$AAt?$AA?5?$AAo?$AAu?$AAt?$AA?5?$AAo?$AAf?$AA?5?$AAr?$AAa?$AAn?$AAg?$AAe?$AA?$AA@ 00455fdc     Main.obj
 0002:00001018       ??_C@_1IM@BMIEAPLA@?$AAC?$AA?3?$AA?2?$AAP?$AAr?$AAo?$AAg?$AAr?$AAa?$AAm?$AA?5?$AAF?$AAi?$AAl?$AAe?$AAs?$AA?5?$AA?$CI?$AAx?$AA8?$AA6?$AA?$CJ?$AA?2?$AAM?$AAi?$AAc?$AAr?$AAo?$AAs?$AAo?$AAf?$AAt@ 00456018     Main.obj
 0002:000010a8       ??_C@_1EI@HGIDLLCM@?$AAv?$AAe?$AAc?$AAt?$AAo?$AAr?$AA?5?$AAe?$AAr?$AAa?$AAs?$AAe?$AA?5?$AAi?$AAt?$AAe?$AAr?$AAa?$AAt?$AAo?$AAr?$AA?5?$AAo?$AAu?$AAt?$AAs?$AAi?$AAd?$AAe?$AA?5?$AAr?$AAa@ 004560a8     Main.obj
 0002:000010f4       ??_7?$basic_stringstream@DU?$char_traits@D@std@@V?$allocator@D@2@@std@@6B@ 004560f4     Main.obj
 0002:000010f8       ??_8?$basic_stringstream@DU?$char_traits@D@std@@V?$allocator@D@2@@std@@7B?$basic_ostream@DU?$char_traits@D@std@@@1@@ 004560f8     Main.obj
 0002:00001100       ??_8?$basic_stringstream@DU?$char_traits@D@std@@V?$allocator@D@2@@std@@7B?$basic_istream@DU?$char_traits@D@std@@@1@@ 00456100     Main.obj
 0002:0000110c       ??_7?$basic_iostream@DU?$char_traits@D@std@@@std@@6B@ 0045610c     Main.obj
 0002:00001114       ??_7?$basic_ostream@DU?$char_traits@D@std@@@std@@6B@ 00456114     Main.obj
 0002:0000111c       ??_7?$basic_istream@DU?$char_traits@D@std@@@std@@6B@ 0045611c     Main.obj
 0002:00001124       ??_7?$basic_stringbuf@DU?$char_traits@D@std@@V?$allocator@D@2@@std@@6B@ 00456124     Main.obj
 0002:00001164       ??_7?$basic_streambuf@DU?$char_traits@D@std@@@std@@6B@ 00456164     Main.obj
 0002:000011a0       ??_8?$basic_iostream@DU?$char_traits@D@std@@@std@@7B?$basic_ostream@DU?$char_traits@D@std@@@1@@ 004561a0     Main.obj
 0002:000011a8       ??_8?$basic_iostream@DU?$char_traits@D@std@@@std@@7B?$basic_istream@DU?$char_traits@D@std@@@1@@ 004561a8     Main.obj
 0002:000011b0       ?_Stz@?$fpos@H@std@@0HB    004561b0     Main.obj
 0002:000011b8       ??_C@_1IO@KLJMFODF@?$AAC?$AA?3?$AA?2?$AAP?$AAr?$AAo?$AAg?$AAr?$AAa?$AAm?$AA?5?$AAF?$AAi?$AAl?$AAe?$AAs?$AA?5?$AA?$CI?$AAx?$AA8?$AA6?$AA?$CJ?$AA?2?$AAM?$AAi?$AAc?$AAr?$AAo?$AAs?$AAo?$AAf?$AAt@ 004561b8     Main.obj
 0002:00001248       ??_8?$basic_ostream@DU?$char_traits@D@std@@@std@@7B@ 00456248     Main.obj
 0002:00001250       ??_8?$basic_istream@DU?$char_traits@D@std@@@std@@7B@ 00456250     Main.obj
 0002:00001258       ??_C@_0EJ@BBJHPHNJ@C?3?2Program?5Files?5?$CIx86?$CJ?2Microsoft@ 00456258     Main.obj
 0002:000012a4       ??_C@_0BD@OLBABOEK@vector?$DMT?$DO?5too?5long?$AA@ 004562a4     Main.obj
 0002:000012b8       ??_C@_1CBG@HAGAJGFE@?$AAs?$AAt?$AAd?$AA?3?$AA?3?$AA_?$AAV?$AAe?$AAc?$AAt?$AAo?$AAr?$AA_?$AAc?$AAo?$AAn?$AAs?$AAt?$AA_?$AAi?$AAt?$AAe?$AAr?$AAa?$AAt?$AAo?$AAr?$AA?$DM?$AAc?$AAl?$AAa?$AAs@ 004562b8     Main.obj
 0002:000014d0       ??_C@_1EM@FKAOCOMF@?$AAv?$AAe?$AAc?$AAt?$AAo?$AAr?$AA?5?$AAi?$AAt?$AAe?$AAr?$AAa?$AAt?$AAo?$AAr?$AA?5?$AA?$CL?$AA?5?$AAo?$AAf?$AAf?$AAs?$AAe?$AAt?$AA?5?$AAo?$AAu?$AAt?$AA?5?$AAo?$AAf?$AA?5@ 004564d0     Main.obj
 0002:0000151c       ?npos@?$basic_string@DU?$char_traits@D@std@@V?$allocator@D@2@@std@@2IB 0045651c     Main.obj
 0002:00001520       ??_C@_0BI@CFPLBAOH@invalid?5string?5position?$AA@ 00456520     Main.obj
 0002:00001538       ??_C@_0BA@JFNIOLAK@string?5too?5long?$AA@ 00456538     Main.obj
 0002:00001548       ??_C@_0EI@NOBAPJGH@C?3?2Program?5Files?5?$CIx86?$CJ?2Microsoft@ 00456548     Main.obj
 0002:00001590       ??_C@_1CG@JNLFBNGN@?$AA?$CC?$AAi?$AAn?$AAv?$AAa?$AAl?$AAi?$AAd?$AA?5?$AAa?$AAr?$AAg?$AAu?$AAm?$AAe?$AAn?$AAt?$AA?$CC?$AA?$AA@ 00456590     Main.obj
 0002:000015b8       ??_C@_1CAO@LEMIFKFJ@?$AAs?$AAt?$AAd?$AA?3?$AA?3?$AA_?$AAV?$AAe?$AAc?$AAt?$AAo?$AAr?$AA_?$AAc?$AAo?$AAn?$AAs?$AAt?$AA_?$AAi?$AAt?$AAe?$AAr?$AAa?$AAt?$AAo?$AAr?$AA?$DM?$AAc?$AAl?$AAa?$AAs@ 004565b8     Main.obj
 0002:000017c8       ??_C@_1FO@GJIHNDLM@?$AA?$CC?$AAS?$AAt?$AAa?$AAn?$AAd?$AAa?$AAr?$AAd?$AA?5?$AAC?$AA?$CL?$AA?$CL?$AA?5?$AAL?$AAi?$AAb?$AAr?$AAa?$AAr?$AAi?$AAe?$AAs?$AA?5?$AAI?$AAn?$AAv?$AAa?$AAl?$AAi?$AAd?$AA?5@ 004567c8     Main.obj
 0002:00001828       ??_C@_0CI@FNPHFCCM@Standard?5C?$CL?$CL?5Libraries?5Invalid?5A@ 00456828     Main.obj
 0002:00001850       ??_C@_1DM@HINDPMBP@?$AAv?$AAe?$AAc?$AAt?$AAo?$AAr?$AA?5?$AAi?$AAt?$AAe?$AAr?$AAa?$AAt?$AAo?$AAr?$AAs?$AA?5?$AAi?$AAn?$AAc?$AAo?$AAm?$AAp?$AAa?$AAt?$AAi?$AAb?$AAl?$AAe?$AA?$AA@ 00456850     Main.obj
 0002:0000188c       ??_C@_08EPJLHIJG@bad?5cast?$AA@ 0045688c     Main.obj
 0002:00001898       ??_C@_0EH@KCJCAGHF@C?3?2Program?5Files?5?$CIx86?$CJ?2Microsoft@ 00456898     Main.obj
 0002:000018e0       ??_C@_0BA@ELKIONDK@bad?5locale?5name?$AA@ 004568e0     Main.obj
 0002:000018f4       ??_7?$ctype@D@std@@6B@     004568f4     Main.obj
 0002:0000191c       ??_7ctype_base@std@@6B@    0045691c     Main.obj
 0002:00001924       ??_7facet@locale@std@@6B@  00456924     Main.obj
 0002:00001928       ??_C@_1IO@BKHIAHLO@?$AAC?$AA?3?$AA?2?$AAP?$AAr?$AAo?$AAg?$AAr?$AAa?$AAm?$AA?5?$AAF?$AAi?$AAl?$AAe?$AAs?$AA?5?$AA?$CI?$AAx?$AA8?$AA6?$AA?$CJ?$AA?2?$AAM?$AAi?$AAc?$AAr?$AAo?$AAs?$AAo?$AAf?$AAt@ 00456928     Main.obj
 0002:000019b8       ??_C@_1CK@EOPGIILJ@?$AAi?$AAn?$AAv?$AAa?$AAl?$AAi?$AAd?$AA?5?$AAn?$AAu?$AAl?$AAl?$AA?5?$AAp?$AAo?$AAi?$AAn?$AAt?$AAe?$AAr?$AA?$AA@ 004569b8     Main.obj
 0002:000019e8       ??_7bad_alloc@std@@6B@     004569e8     Main.obj
 0002:000019f0       ??_C@_0EH@CBNPAENE@C?3?2Program?5Files?5?$CIx86?$CJ?2Microsoft@ 004569f0     Main.obj
 0002:00001a3c       ??_7?$num_put@DV?$ostreambuf_iterator@DU?$char_traits@D@std@@@std@@@std@@6B@ 00456a3c     Main.obj
 0002:00001a60       ??_C@_1IO@CCDFGOKO@?$AAC?$AA?3?$AA?2?$AAP?$AAr?$AAo?$AAg?$AAr?$AAa?$AAm?$AA?5?$AAF?$AAi?$AAl?$AAe?$AAs?$AA?5?$AA?$CI?$AAx?$AA8?$AA6?$AA?$CJ?$AA?2?$AAM?$AAi?$AAc?$AAr?$AAo?$AAs?$AAo?$AAf?$AAt@ 00456a60     Main.obj
 0002:00001af0       ??_C@_02EAOCLKAK@ld?$AA@   00456af0     Main.obj
 0002:00001af4       ??_C@_02BDDLJJBK@lu?$AA@   00456af4     Main.obj
 0002:00001af8       ??_C@_02HIKPPMOK@Ld?$AA@   00456af8     Main.obj
 0002:00001afc       ??_C@_02CLHGNPPK@Lu?$AA@   00456afc     Main.obj
 0002:00001b00       __real@38aa95a5b7f87a0f    00456b00     Main.obj
 0002:00001b08       __real@4202a05f20000000    00456b08     Main.obj
 0002:00001b10       __real@4733426172c74d82    00456b10     Main.obj
 0002:00001b18       __real@0000000000000000    00456b18     Main.obj
 0002:00001b20       __real@3fe0000000000000    00456b20     Main.obj
 0002:00001b28       ??_C@_02BBAHNLBA@?$CFp?$AA@ 00456b28     Main.obj
 0002:00001b2c       ??_C@_01KGKMHCOC@e?$AA@    00456b2c     Main.obj
 0002:00001b30       ??_C@_01DDCIFGEA@E?$AA@    00456b30     Main.obj
 0002:00001b34       ??_C@_1DM@GMPLOCPK@?$AAs?$AAt?$AAr?$AAi?$AAn?$AAg?$AA?5?$AAs?$AAu?$AAb?$AAs?$AAc?$AAr?$AAi?$AAp?$AAt?$AA?5?$AAo?$AAu?$AAt?$AA?5?$AAo?$AAf?$AA?5?$AAr?$AAa?$AAn?$AAg?$AAe?$AA?$AA@ 00456b34     Main.obj
 0002:00001b74       ??_7?$numpunct@D@std@@6B@  00456b74     Main.obj
 0002:00001b8c       ??_C@_00CNPNBAHC@?$AA@     00456b8c     Main.obj
 0002:00001b90       ??_C@_05LAPONLG@false?$AA@ 00456b90     Main.obj
 0002:00001b98       ??_C@_04LOAJBDKD@true?$AA@ 00456b98     Main.obj
 0002:00001ba0       ??_C@_1CO@DGLIKNHI@?$AAi?$AAn?$AAv?$AAa?$AAl?$AAi?$AAd?$AA?5?$AAi?$AAt?$AAe?$AAr?$AAa?$AAt?$AAo?$AAr?$AA?5?$AAr?$AAa?$AAn?$AAg?$AAe?$AA?$AA@ 00456ba0     Main.obj
 0002:00001bd0       ??_C@_1IM@GCFPIDLL@?$AAC?$AA?3?$AA?2?$AAP?$AAr?$AAo?$AAg?$AAr?$AAa?$AAm?$AA?5?$AAF?$AAi?$AAl?$AAe?$AAs?$AA?5?$AA?$CI?$AAx?$AA8?$AA6?$AA?$CJ?$AA?2?$AAM?$AAi?$AAc?$AAr?$AAo?$AAs?$AAo?$AAf?$AAt@ 00456bd0     Main.obj
 0002:00001c60       ?_BADOFF@std@@3_JB         00456c60     libcpmtd:ios.obj
 0002:00001c68       ??_C@_07DCLBNMLN@generic?$AA@ 00456c68     libcpmtd:syserror.obj
 0002:00001c74       ??_7_Generic_error_category@std@@6B@ 00456c74     libcpmtd:syserror.obj
 0002:00001c90       ??_7error_category@std@@6B@ 00456c90     libcpmtd:syserror.obj
 0002:00001ca8       ??_C@_1FO@BEGKGBFG@?$AAf?$AA?3?$AA?2?$AAd?$AAd?$AA?2?$AAv?$AAc?$AAt?$AAo?$AAo?$AAl?$AAs?$AA?2?$AAc?$AAr?$AAt?$AA_?$AAb?$AAl?$AAd?$AA?2?$AAs?$AAe?$AAl?$AAf?$AA_?$AAx?$AA8?$AA6?$AA?2?$AAc@ 00456ca8     libcpmtd:syserror.obj
 0002:00001d08       ??_C@_08LLGCOLLL@iostream?$AA@ 00456d08     libcpmtd:syserror.obj
 0002:00001d18       ??_7_Iostream_error_category@std@@6B@ 00456d18     libcpmtd:syserror.obj
 0002:00001d30       ??_C@_0BG@PADBLCHM@iostream?5stream?5error?$AA@ 00456d30     libcpmtd:syserror.obj
 0002:00001d48       ??_C@_06FHFOAHML@system?$AA@ 00456d48     libcpmtd:syserror.obj
 0002:00001d54       ??_7_System_error_category@std@@6B@ 00456d54     libcpmtd:syserror.obj
 0002:00001d6c       ??_C@_0DC@FCEKBFBO@f?3?2dd?2vctools?2crt_bld?2self_x86?2c@ 00456d6c     libcpmtd:xmutex.obj
 0002:00001da4       ??_C@_0P@GHFPNOJB@bad?5allocation?$AA@ 00456da4     libcpmtd:xdebug.obj
 0002:00001db4       ??_C@_0DD@IMKCHGBE@f?3?2dd?2vctools?2crt_bld?2self_x86?2c@ 00456db4     libcpmtd:locale0.obj
 0002:00001de8       ??_C@_01NBENCBCI@?$CK?$AA@ 00456de8     libcpmtd:locale0.obj
 0002:00001df0       ??_7_Locimp@locale@std@@6B@ 00456df0     libcpmtd:locale0.obj
 0002:00001df4       ??_C@_01GFHCPBMG@C?$AA@    00456df4     libcpmtd:locale0.obj
 0002:00001df8       ??_C@_0DA@CHOJEIKD@f?3?2dd?2vctools?2crt_bld?2self_x86?2c@ 00456df8     libcpmtd:locale0.obj
 0002:00001e2c       ??_7invalid_argument@std@@6B@ 00456e2c     libcpmtd:xthrow.obj
 0002:00001e38       ??_7logic_error@std@@6B@   00456e38     libcpmtd:xthrow.obj
 0002:00001e44       ??_7length_error@std@@6B@  00456e44     libcpmtd:xthrow.obj
 0002:00001e50       ??_7out_of_range@std@@6B@  00456e50     libcpmtd:xthrow.obj
 0002:00001e5c       ??_7overflow_error@std@@6B@ 00456e5c     libcpmtd:xthrow.obj
 0002:00001e64       ??_C@_0DC@CFILDBAI@f?3?2dd?2vctools?2crt_bld?2self_x86?2c@ 00456e64     libcpmtd:_tolower.obj
 0002:00001e98       ??_C@_1GC@PMLIMJPH@?$AAf?$AA?3?$AA?2?$AAd?$AAd?$AA?2?$AAv?$AAc?$AAt?$AAo?$AAo?$AAl?$AAs?$AA?2?$AAc?$AAr?$AAt?$AA_?$AAb?$AAl?$AAd?$AA?2?$AAs?$AAe?$AAl?$AAf?$AA_?$AAx?$AA8?$AA6?$AA?2?$AAc@ 00456e98     libcpmtd:xmbtowc.obj
 0002:00001f00       ??_C@_1IO@DMPFDAED@?$AA_?$AA_?$AA_?$AAm?$AAb?$AA_?$AAc?$AAu?$AAr?$AA_?$AAm?$AAa?$AAx?$AA_?$AAl?$AA_?$AAf?$AAu?$AAn?$AAc?$AA?$CI?$AAl?$AAo?$AAc?$AAa?$AAl?$AAe?$AA?$CJ?$AA?5?$AA?$DN?$AA?$DN?$AA?5@ 00456f00     libcpmtd:xmbtowc.obj
 0002:00001f90       ??_C@_0DB@FHJEAKOL@f?3?2dd?2vctools?2crt_bld?2self_x86?2c@ 00456f90     libcpmtd:xmbtowc.obj
 0002:00001fc8       ??_7type_info@@6B@         00456fc8     LIBCMTD:typinfo.obj
 0002:00001fcc       ??_C@_1CC@OLIJCKA@?$AA?$CI?$AAs?$AAt?$AAr?$AAi?$AAn?$AAg?$AA?5?$AA?$CB?$AA?$DN?$AA?5?$AAN?$AAU?$AAL?$AAL?$AA?$CJ?$AA?$AA@ 00456fcc     LIBCMTD:swprintf.obj
 0002:00001ff0       ??_C@_1BE@BMIJMLDD@?$AA_?$AAs?$AAw?$AAp?$AAr?$AAi?$AAn?$AAt?$AAf?$AA?$AA@ 00456ff0     LIBCMTD:swprintf.obj
 0002:00002008       ??_C@_1GE@DKGHLBLP@?$AAf?$AA?3?$AA?2?$AAd?$AAd?$AA?2?$AAv?$AAc?$AAt?$AAo?$AAo?$AAl?$AAs?$AA?2?$AAc?$AAr?$AAt?$AA_?$AAb?$AAl?$AAd?$AA?2?$AAs?$AAe?$AAl?$AAf?$AA_?$AAx?$AA8?$AA6?$AA?2?$AAc@ 00457008     LIBCMTD:swprintf.obj
 0002:0000206c       ??_C@_1CC@MGIEJOME@?$AA?$CI?$AAf?$AAo?$AAr?$AAm?$AAa?$AAt?$AA?5?$AA?$CB?$AA?$DN?$AA?5?$AAN?$AAU?$AAL?$AAL?$AA?$CJ?$AA?$AA@ 0045706c     LIBCMTD:swprintf.obj
 0002:00002090       ??_C@_1GE@BDAODJCD@?$AAf?$AA?3?$AA?2?$AAd?$AAd?$AA?2?$AAv?$AAc?$AAt?$AAo?$AAo?$AAl?$AAs?$AA?2?$AAc?$AAr?$AAt?$AA_?$AAb?$AAl?$AAd?$AA?2?$AAs?$AAe?$AAl?$AAf?$AA_?$AAx?$AA8?$AA6?$AA?2?$AAc@ 00457090     LIBCMTD:dbgdel.obj
 0002:000020f8       ??_C@_1EO@LHDAJOCM@?$AA_?$AAB?$AAL?$AAO?$AAC?$AAK?$AA_?$AAT?$AAY?$AAP?$AAE?$AA_?$AAI?$AAS?$AA_?$AAV?$AAA?$AAL?$AAI?$AAD?$AA?$CI?$AAp?$AAH?$AAe?$AAa?$AAd?$AA?9?$AA?$DO?$AAn?$AAB?$AAl?$AAo@ 004570f8     LIBCMTD:dbgdel.obj
 0002:00002148       ?ProcessDetach@NativeDll@<CrtImplementationDetails>@@0IB 00457148     LIBCMTD:_trnsctrl_.obj
 0002:0000214c       ?ProcessAttach@NativeDll@<CrtImplementationDetails>@@0IB 0045714c     LIBCMTD:_trnsctrl_.obj
 0002:00002150       ?ThreadAttach@NativeDll@<CrtImplementationDetails>@@0IB 00457150     LIBCMTD:_trnsctrl_.obj
 0002:00002154       ?ThreadDetach@NativeDll@<CrtImplementationDetails>@@0IB 00457154     LIBCMTD:_trnsctrl_.obj
 0002:00002158       ?ProcessVerifier@NativeDll@<CrtImplementationDetails>@@0IB 00457158     LIBCMTD:_trnsctrl_.obj
 0002:0000215c       ??_C@_17LGKOMLJ@?$AA?4?$AA?4?$AA?4?$AA?$AA@ 0045715c     LIBCMTD:dbgrptw.obj
 0002:00002164       ??_C@_1CC@CGHMNGDG@?$AAA?$AAs?$AAs?$AAe?$AAr?$AAt?$AAi?$AAo?$AAn?$AA?5?$AAF?$AAa?$AAi?$AAl?$AAe?$AAd?$AA?$AA@ 00457164     LIBCMTD:dbgrptw.obj
 0002:00002188       ??_C@_1M@ILHOPKA@?$AAE?$AAr?$AAr?$AAo?$AAr?$AA?$AA@ 00457188     LIBCMTD:dbgrptw.obj
 0002:00002194       ??_C@_1BA@GLMCNLEM@?$AAW?$AAa?$AAr?$AAn?$AAi?$AAn?$AAg?$AA?$AA@ 00457194     LIBCMTD:dbgrptw.obj
 0002:000021b0       ??_C@_0DA@PCCBBBID@f?3?2dd?2vctools?2crt_bld?2self_x86?2c@ 004571b0     LIBCMTD:dbgrptw.obj
 0002:000021e0       ??_C@_1FI@PHIAFFHM@?$AA?$CI?$AA?$CC?$AAT?$AAh?$AAe?$AA?5?$AAh?$AAo?$AAo?$AAk?$AA?5?$AAf?$AAu?$AAn?$AAc?$AAt?$AAi?$AAo?$AAn?$AA?5?$AAi?$AAs?$AA?5?$AAn?$AAo?$AAt?$AA?5?$AAi?$AAn?$AA?5?$AAt?$AAh@ 004571e0     LIBCMTD:dbgrptw.obj
 0002:00002238       ??_C@_1CG@JBJEFOCM@?$AAp?$AAf?$AAn?$AAN?$AAe?$AAw?$AAH?$AAo?$AAo?$AAk?$AA?5?$AA?$CB?$AA?$DN?$AA?5?$AAN?$AAU?$AAL?$AAL?$AA?$AA@ 00457238     LIBCMTD:dbgrptw.obj
 0002:00002260       ??_C@_1CI@IIHEAKEI@?$AA_?$AAC?$AAr?$AAt?$AAS?$AAe?$AAt?$AAR?$AAe?$AAp?$AAo?$AAr?$AAt?$AAH?$AAo?$AAo?$AAk?$AAW?$AA2?$AA?$AA@ 00457260     LIBCMTD:dbgrptw.obj
 0002:00002288       ??_C@_1GA@IBJGKIFE@?$AAf?$AA?3?$AA?2?$AAd?$AAd?$AA?2?$AAv?$AAc?$AAt?$AAo?$AAo?$AAl?$AAs?$AA?2?$AAc?$AAr?$AAt?$AA_?$AAb?$AAl?$AAd?$AA?2?$AAs?$AAe?$AAl?$AAf?$AA_?$AAx?$AA8?$AA6?$AA?2?$AAc@ 00457288     LIBCMTD:dbgrptw.obj
 0002:000022e8       ??_C@_1HI@OFEHGPPC@?$AAm?$AAo?$AAd?$AAe?$AA?5?$AA?$DN?$AA?$DN?$AA?5?$AA_?$AAC?$AAR?$AAT?$AA_?$AAR?$AAP?$AAT?$AAH?$AAO?$AAO?$AAK?$AA_?$AAI?$AAN?$AAS?$AAT?$AAA?$AAL?$AAL?$AA?5?$AA?$HM?$AA?$HM?$AA?5@ 004572e8     LIBCMTD:dbgrptw.obj
 0002:00002360       ??_C@_1EG@PEOEAKBB@?$AAM?$AAi?$AAc?$AAr?$AAo?$AAs?$AAo?$AAf?$AAt?$AA?5?$AAV?$AAi?$AAs?$AAu?$AAa?$AAl?$AA?5?$AAC?$AA?$CL?$AA?$CL?$AA?5?$AAD?$AAe?$AAb?$AAu?$AAg?$AA?5?$AAL?$AAi?$AAb?$AAr?$AAa@ 00457360     LIBCMTD:dbgrptw.obj
 0002:000023a8       ??_C@_1FG@BBOLDHGF@?$AA_?$AAC?$AAr?$AAt?$AAD?$AAb?$AAg?$AAR?$AAe?$AAp?$AAo?$AAr?$AAt?$AA?3?$AA?5?$AAS?$AAt?$AAr?$AAi?$AAn?$AAg?$AA?5?$AAt?$AAo?$AAo?$AA?5?$AAl?$AAo?$AAn?$AAg?$AA?5?$AAo@ 004573a8     LIBCMTD:dbgrptw.obj
 0002:00002400       ??_C@_1JI@EACPGHID@?$AAw?$AAc?$AAs?$AAc?$AAp?$AAy?$AA_?$AAs?$AA?$CI?$AAs?$AAz?$AAO?$AAu?$AAt?$AAM?$AAe?$AAs?$AAs?$AAa?$AAg?$AAe?$AA?0?$AA?5?$AA4?$AA0?$AA9?$AA6?$AA?0?$AA?5?$AAL?$AA?$CC?$AA_@ 00457400     LIBCMTD:dbgrptw.obj
 0002:00002498       ??_C@_1BI@KALLJECN@?$AA?$CI?$AA?$CK?$AA_?$AAe?$AAr?$AAr?$AAn?$AAo?$AA?$CI?$AA?$CJ?$AA?$CJ?$AA?$AA@ 00457498     LIBCMTD:dbgrptw.obj
 0002:000024b0       ??_C@_1KK@MEFMPOLM@?$AAD?$AAe?$AAb?$AAu?$AAg?$AA?5?$AA?$CF?$AAs?$AA?$CB?$AA?6?$AA?6?$AAP?$AAr?$AAo?$AAg?$AAr?$AAa?$AAm?$AA?3?$AA?5?$AA?$CF?$AAs?$AA?$CF?$AAs?$AA?$CF?$AAs?$AA?$CF?$AAs?$AA?$CF?$AAs?$AA?$CF?$AAs@ 004574b0     LIBCMTD:dbgrptw.obj
 0002:0000255c       ??_C@_1BE@CGCJKGHI@?$AA?6?$AAM?$AAo?$AAd?$AAu?$AAl?$AAe?$AA?3?$AA?5?$AA?$AA@ 0045755c     LIBCMTD:dbgrptw.obj
 0002:00002570       ??_C@_1BA@LNHECFIM@?$AA?6?$AAF?$AAi?$AAl?$AAe?$AA?3?$AA?5?$AA?$AA@ 00457570     LIBCMTD:dbgrptw.obj
 0002:00002580       ??_C@_1BA@GLLGCPCK@?$AA?6?$AAL?$AAi?$AAn?$AAe?$AA?3?$AA?5?$AA?$AA@ 00457580     LIBCMTD:dbgrptw.obj
 0002:00002590       ??_C@_15IABLJNFO@?$AA?6?$AA?6?$AA?$AA@ 00457590     LIBCMTD:dbgrptw.obj
 0002:00002598       ??_C@_1BK@PEDCIPMA@?$AAE?$AAx?$AAp?$AAr?$AAe?$AAs?$AAs?$AAi?$AAo?$AAn?$AA?3?$AA?5?$AA?$AA@ 00457598     LIBCMTD:dbgrptw.obj
 0002:000025b8       ??_C@_1OG@PMPPFHAF@?$AA?6?$AA?6?$AAF?$AAo?$AAr?$AA?5?$AAi?$AAn?$AAf?$AAo?$AAr?$AAm?$AAa?$AAt?$AAi?$AAo?$AAn?$AA?5?$AAo?$AAn?$AA?5?$AAh?$AAo?$AAw?$AA?5?$AAy?$AAo?$AAu?$AAr?$AA?5?$AAp?$AAr@ 004575b8     LIBCMTD:dbgrptw.obj
 0002:000026a0       ??_C@_1NO@LECLLHOL@?$AAm?$AAe?$AAm?$AAc?$AAp?$AAy?$AA_?$AAs?$AA?$CI?$AAs?$AAz?$AAS?$AAh?$AAo?$AAr?$AAt?$AAP?$AAr?$AAo?$AAg?$AAN?$AAa?$AAm?$AAe?$AA?0?$AA?5?$AAs?$AAi?$AAz?$AAe?$AAo?$AAf@ 004576a0     LIBCMTD:dbgrptw.obj
 0002:00002780       ??_C@_1CO@EAEJAADC@?$AA?$DM?$AAp?$AAr?$AAo?$AAg?$AAr?$AAa?$AAm?$AA?5?$AAn?$AAa?$AAm?$AAe?$AA?5?$AAu?$AAn?$AAk?$AAn?$AAo?$AAw?$AAn?$AA?$DO?$AA?$AA@ 00457780     LIBCMTD:dbgrptw.obj
 0002:000027b0       ??_C@_1GI@DEDNNLCI@?$AAw?$AAc?$AAs?$AAc?$AAp?$AAy?$AA_?$AAs?$AA?$CI?$AAs?$AAz?$AAE?$AAx?$AAe?$AAN?$AAa?$AAm?$AAe?$AA?0?$AA?5?$AA2?$AA6?$AA0?$AA?0?$AA?5?$AAL?$AA?$CC?$AA?$DM?$AAp?$AAr?$AAo?$AAg@ 004577b0     LIBCMTD:dbgrptw.obj
 0002:00002818       ??_C@_1CI@PGJIFDEK@?$AA_?$AA_?$AAc?$AAr?$AAt?$AAM?$AAe?$AAs?$AAs?$AAa?$AAg?$AAe?$AAW?$AAi?$AAn?$AAd?$AAo?$AAw?$AAW?$AA?$AA@ 00457818     LIBCMTD:dbgrptw.obj
 0002:00002864       ??_7exception@std@@6B@     00457864     LIBCMTD:stdexcpt.obj
 0002:0000286c       ??_C@_0BC@EOODALEL@Unknown?5exception?$AA@ 0045786c     LIBCMTD:stdexcpt.obj
 0002:00002884       ??_7bad_cast@std@@6B@      00457884     LIBCMTD:stdexcpt.obj
 0002:00002890       ??_7bad_typeid@std@@6B@    00457890     LIBCMTD:stdexcpt.obj
 0002:0000289c       ??_7__non_rtti_object@std@@6B@ 0045789c     LIBCMTD:stdexcpt.obj
 0002:000028a4       ??_C@_06PJIGMIJB@Client?$AA@ 004578a4     LIBCMTD:dbgheap.obj
 0002:000028ac       ??_C@_06KMEJCCGM@Ignore?$AA@ 004578ac     LIBCMTD:dbgheap.obj
 0002:000028b4       ??_C@_03OGPFLFLO@CRT?$AA@  004578b4     LIBCMTD:dbgheap.obj
 0002:000028b8       ??_C@_06EFAGIKOH@Normal?$AA@ 004578b8     LIBCMTD:dbgheap.obj
 0002:000028c0       ??_C@_04HJMOFLDF@Free?$AA@ 004578c0     LIBCMTD:dbgheap.obj
 0002:000028dc       ??_C@_0DC@JEMAGEKG@Error?3?5memory?5allocation?3?5bad?5me@ 004578dc     LIBCMTD:dbgheap.obj
 0002:00002910       ??_C@_0CF@BICKFLAF@Invalid?5allocation?5size?3?5?$CFIu?5byt@ 00457910     LIBCMTD:dbgheap.obj
 0002:00002938       ??_C@_02DKCKIIND@?$CFs?$AA@ 00457938     LIBCMTD:dbgheap.obj
 0002:0000293c       ??_C@_0CB@CCLOLAHO@Client?5hook?5allocation?5failure?4?6@ 0045793c     LIBCMTD:dbgheap.obj
 0002:00002960       ??_C@_0DF@BBEGIFEK@Client?5hook?5allocation?5failure?5a@ 00457960     LIBCMTD:dbgheap.obj
 0002:00002998       ??_C@_1GC@DNJKKEAA@?$AAf?$AA?3?$AA?2?$AAd?$AAd?$AA?2?$AAv?$AAc?$AAt?$AAo?$AAo?$AAl?$AAs?$AA?2?$AAc?$AAr?$AAt?$AA_?$AAb?$AAl?$AAd?$AA?2?$AAs?$AAe?$AAl?$AAf?$AA_?$AAx?$AA8?$AA6?$AA?2?$AAc@ 00457998     LIBCMTD:dbgheap.obj
 0002:000029fc       ??_C@_1CE@LJFEPPMP@?$AA_?$AAC?$AAr?$AAt?$AAC?$AAh?$AAe?$AAc?$AAk?$AAM?$AAe?$AAm?$AAo?$AAr?$AAy?$AA?$CI?$AA?$CJ?$AA?$AA@ 004579fc     LIBCMTD:dbgheap.obj
 0002:00002a20       ??_C@_1DE@KOOKLFBB@?$AA_?$AAp?$AAF?$AAi?$AAr?$AAs?$AAt?$AAB?$AAl?$AAo?$AAc?$AAk?$AA?5?$AA?$DN?$AA?$DN?$AA?5?$AAp?$AAO?$AAl?$AAd?$AAB?$AAl?$AAo?$AAc?$AAk?$AA?$AA@ 00457a20     LIBCMTD:dbgheap.obj
 0002:00002a54       ??_C@_1DC@GEFKNOOL@?$AA_?$AAp?$AAL?$AAa?$AAs?$AAt?$AAB?$AAl?$AAo?$AAc?$AAk?$AA?5?$AA?$DN?$AA?$DN?$AA?5?$AAp?$AAO?$AAl?$AAd?$AAB?$AAl?$AAo?$AAc?$AAk?$AA?$AA@ 00457a54     LIBCMTD:dbgheap.obj
 0002:00002a88       ??_C@_1GE@PCKLOLAO@?$AAf?$AAR?$AAe?$AAa?$AAl?$AAl?$AAo?$AAc?$AA?5?$AA?$HM?$AA?$HM?$AA?5?$AA?$CI?$AA?$CB?$AAf?$AAR?$AAe?$AAa?$AAl?$AAl?$AAo?$AAc?$AA?5?$AA?$CG?$AA?$CG?$AA?5?$AAp?$AAN?$AAe?$AAw?$AAB?$AAl@ 00457a88     LIBCMTD:dbgheap.obj
 0002:00002aec       ??_C@_0DA@HFBKENN@Error?3?5possible?5heap?5corruption?5@ 00457aec     LIBCMTD:dbgheap.obj
 0002:00002b20       ??_C@_1IK@DCPKDGNH@?$AAp?$AAO?$AAl?$AAd?$AAB?$AAl?$AAo?$AAc?$AAk?$AA?9?$AA?$DO?$AAn?$AAL?$AAi?$AAn?$AAe?$AA?5?$AA?$DN?$AA?$DN?$AA?5?$AAI?$AAG?$AAN?$AAO?$AAR?$AAE?$AA_?$AAL?$AAI?$AAN?$AAE?$AA?5@ 00457b20     LIBCMTD:dbgheap.obj
 0002:00002bb0       ??_C@_1EE@GFOPCECE@?$AA_?$AAC?$AAr?$AAt?$AAI?$AAs?$AAV?$AAa?$AAl?$AAi?$AAd?$AAH?$AAe?$AAa?$AAp?$AAP?$AAo?$AAi?$AAn?$AAt?$AAe?$AAr?$AA?$CI?$AAp?$AAU?$AAs?$AAe?$AAr?$AAD?$AAa?$AAt?$AAa@ 00457bb0     LIBCMTD:dbgheap.obj
 0002:00002bf8       ??_C@_0EM@LGFLMAGJ@The?5Block?5at?50x?$CFp?5was?5allocated?5@ 00457bf8     LIBCMTD:dbgheap.obj
 0002:00002c48       ??_C@_0FA@EFEIGJKG@Error?3?5memory?5allocation?3?5bad?5me@ 00457c48     LIBCMTD:dbgheap.obj
 0002:00002c98       ??_C@_0ED@GPCPBAGP@Invalid?5allocation?5size?3?5?$CFIu?5byt@ 00457c98     LIBCMTD:dbgheap.obj
 0002:00002cdc       ??_C@_0CE@DOFMDOL@Client?5hook?5re?9allocation?5failur@ 00457cdc     LIBCMTD:dbgheap.obj
 0002:00002d00       ??_C@_0DI@KKJPDPGM@Client?5hook?5re?9allocation?5failur@ 00457d00     LIBCMTD:dbgheap.obj
 0002:00002d38       ??_C@_1BI@HAPNGHDP@?$AA_?$AAe?$AAx?$AAp?$AAa?$AAn?$AAd?$AA_?$AAd?$AAb?$AAg?$AA?$AA@ 00457d38     LIBCMTD:dbgheap.obj
 0002:00002d50       ??_C@_1CE@CJACEFBA@?$AAp?$AAU?$AAs?$AAe?$AAr?$AAD?$AAa?$AAt?$AAa?$AA?5?$AA?$CB?$AA?$DN?$AA?5?$AAN?$AAU?$AAL?$AAL?$AA?$AA@ 00457d50     LIBCMTD:dbgheap.obj
 0002:00002d74       ??_C@_1CM@MMAADDMD@?$AA_?$AAp?$AAF?$AAi?$AAr?$AAs?$AAt?$AAB?$AAl?$AAo?$AAc?$AAk?$AA?5?$AA?$DN?$AA?$DN?$AA?5?$AAp?$AAH?$AAe?$AAa?$AAd?$AA?$AA@ 00457d74     LIBCMTD:dbgheap.obj
 0002:00002da0       ??_C@_1CK@DMAGEMBG@?$AA_?$AAp?$AAL?$AAa?$AAs?$AAt?$AAB?$AAl?$AAo?$AAc?$AAk?$AA?5?$AA?$DN?$AA?$DN?$AA?5?$AAp?$AAH?$AAe?$AAa?$AAd?$AA?$AA@ 00457da0     LIBCMTD:dbgheap.obj
 0002:00002dcc       ??_C@_1DM@ODCJIDCP@?$AAp?$AAH?$AAe?$AAa?$AAd?$AA?9?$AA?$DO?$AAn?$AAB?$AAl?$AAo?$AAc?$AAk?$AAU?$AAs?$AAe?$AA?5?$AA?$DN?$AA?$DN?$AA?5?$AAn?$AAB?$AAl?$AAo?$AAc?$AAk?$AAU?$AAs?$AAe?$AA?$AA@ 00457dcc     LIBCMTD:dbgheap.obj
 0002:00002e08       ??_C@_1HK@HPCBMDFG@?$AAp?$AAH?$AAe?$AAa?$AAd?$AA?9?$AA?$DO?$AAn?$AAL?$AAi?$AAn?$AAe?$AA?5?$AA?$DN?$AA?$DN?$AA?5?$AAI?$AAG?$AAN?$AAO?$AAR?$AAE?$AA_?$AAL?$AAI?$AAN?$AAE?$AA?5?$AA?$CG?$AA?$CG?$AA?5?$AAp@ 00457e08     LIBCMTD:dbgheap.obj
 0002:00002e88       ??_C@_0IG@LEMBDCJK@HEAP?5CORRUPTION?5DETECTED?3?5after?5@ 00457e88     LIBCMTD:dbgheap.obj
 0002:00002f10       ??_C@_0KE@MBMNHHHN@HEAP?5CORRUPTION?5DETECTED?3?5after?5@ 00457f10     LIBCMTD:dbgheap.obj
 0002:00002fb8       ??_C@_0IK@PJCGLBOB@HEAP?5CORRUPTION?5DETECTED?3?5before@ 00457fb8     LIBCMTD:dbgheap.obj
 0002:00003048       ??_C@_0KI@JGFOHMEB@HEAP?5CORRUPTION?5DETECTED?3?5before@ 00458048     LIBCMTD:dbgheap.obj
 0002:000030f0       ??_C@_0BL@KEIPLFAC@Client?5hook?5free?5failure?4?6?$AA@ 004580f0     LIBCMTD:dbgheap.obj
 0002:00003110       ??_C@_0EJ@HEIBCIMJ@The?5Block?5at?50x?$CFp?5was?5allocated?5@ 00458110     LIBCMTD:dbgheap.obj
 0002:0000315c       ??_C@_1BG@MBKOGDLD@?$AA_?$AAm?$AAs?$AAi?$AAz?$AAe?$AA_?$AAd?$AAb?$AAg?$AA?$AA@ 0045815c     LIBCMTD:dbgheap.obj
 0002:00003174       ??_C@_0CI@JMLBEDHJ@?$CFhs?5located?5at?50x?$CFp?5is?5?$CFIu?5bytes@ 00458174     LIBCMTD:dbgheap.obj
 0002:000031a0       ??_C@_0EG@DGJMPDBH@?$CFhs?5located?5at?50x?$CFp?5is?5?$CFIu?5bytes@ 004581a0     LIBCMTD:dbgheap.obj
 0002:000031e8       ??_C@_0IC@BBJIOOJH@HEAP?5CORRUPTION?5DETECTED?3?5on?5top@ 004581e8     LIBCMTD:dbgheap.obj
 0002:00003270       ??_C@_0KA@IHNJJKPL@HEAP?5CORRUPTION?5DETECTED?3?5on?5top@ 00458270     LIBCMTD:dbgheap.obj
 0002:00003310       ??_C@_07OHKEFPKJ@DAMAGED?$AA@ 00458310     LIBCMTD:dbgheap.obj
 0002:00003318       ??_C@_0CL@HNNNMKMJ@_heapchk?5fails?5with?5unknown?5retu@ 00458318     LIBCMTD:dbgheap.obj
 0002:00003344       ??_C@_0CC@MFFCHFHO@_heapchk?5fails?5with?5_HEAPBADPTR?4@ 00458344     LIBCMTD:dbgheap.obj
 0002:00003368       ??_C@_0CC@MJGLGBDG@_heapchk?5fails?5with?5_HEAPBADEND?4@ 00458368     LIBCMTD:dbgheap.obj
 0002:0000338c       ??_C@_0CD@CPKEAPBD@_heapchk?5fails?5with?5_HEAPBADNODE@ 0045838c     LIBCMTD:dbgheap.obj
 0002:000033b0       ??_C@_0CE@MKKHMBMK@_heapchk?5fails?5with?5_HEAPBADBEGI@ 004583b0     LIBCMTD:dbgheap.obj
 0002:000033d4       ??_C@_1BO@GJFDNMNF@?$AA_?$AAC?$AAr?$AAt?$AAS?$AAe?$AAt?$AAD?$AAb?$AAg?$AAF?$AAl?$AAa?$AAg?$AA?$AA@ 004583d4     LIBCMTD:dbgheap.obj
 0002:000033f8       ??_C@_1BHO@NNANJNF@?$AA?$CI?$AAf?$AAN?$AAe?$AAw?$AAB?$AAi?$AAt?$AAs?$AA?$DN?$AA?$DN?$AA_?$AAC?$AAR?$AAT?$AAD?$AAB?$AAG?$AA_?$AAR?$AAE?$AAP?$AAO?$AAR?$AAT?$AA_?$AAF?$AAL?$AAA?$AAG?$AA?$CJ?$AA?5@ 004583f8     LIBCMTD:dbgheap.obj
 0002:00003578       ??_C@_1DE@GJCKCKEC@?$AA_?$AAC?$AAr?$AAt?$AAD?$AAo?$AAF?$AAo?$AAr?$AAA?$AAl?$AAl?$AAC?$AAl?$AAi?$AAe?$AAn?$AAt?$AAO?$AAb?$AAj?$AAe?$AAc?$AAt?$AAs?$AA?$AA@ 00458578     LIBCMTD:dbgheap.obj
 0002:000035ac       ??_C@_1BI@CJGCEEDL@?$AAp?$AAf?$AAn?$AA?5?$AA?$CB?$AA?$DN?$AA?5?$AAN?$AAU?$AAL?$AAL?$AA?$AA@ 004585ac     LIBCMTD:dbgheap.obj
 0002:000035c4       ??_C@_0CB@EAAIGELO@Bad?5memory?5block?5found?5at?50x?$CFp?4?6@ 004585c4     LIBCMTD:dbgheap.obj
 0002:000035e8       ??_C@_0DP@LEFMFBOD@Bad?5memory?5block?5found?5at?50x?$CFp?4?6@ 004585e8     LIBCMTD:dbgheap.obj
 0002:00003628       ??_C@_1CE@NJJKELF@?$AA_?$AAC?$AAr?$AAt?$AAM?$AAe?$AAm?$AAC?$AAh?$AAe?$AAc?$AAk?$AAp?$AAo?$AAi?$AAn?$AAt?$AA?$AA@ 00458628     LIBCMTD:dbgheap.obj
 0002:0000364c       ??_C@_1BM@MIMANDHC@?$AAs?$AAt?$AAa?$AAt?$AAe?$AA?5?$AA?$CB?$AA?$DN?$AA?5?$AAN?$AAU?$AAL?$AAL?$AA?$AA@ 0045864c     LIBCMTD:dbgheap.obj
 0002:00003668       ??_C@_1CC@DFPEDFBP@?$AAn?$AAe?$AAw?$AAS?$AAt?$AAa?$AAt?$AAe?$AA?5?$AA?$CB?$AA?$DN?$AA?5?$AAN?$AAU?$AAL?$AAL?$AA?$AA@ 00458668     LIBCMTD:dbgheap.obj
 0002:0000368c       ??_C@_1CC@DHPFEMMN@?$AAo?$AAl?$AAd?$AAS?$AAt?$AAa?$AAt?$AAe?$AA?5?$AA?$CB?$AA?$DN?$AA?5?$AAN?$AAU?$AAL?$AAL?$AA?$AA@ 0045868c     LIBCMTD:dbgheap.obj
 0002:000036b0       ??_C@_1CE@PDIENACM@?$AA_?$AAC?$AAr?$AAt?$AAM?$AAe?$AAm?$AAD?$AAi?$AAf?$AAf?$AAe?$AAr?$AAe?$AAn?$AAc?$AAe?$AA?$AA@ 004586b0     LIBCMTD:dbgheap.obj
 0002:000036d4       ??_C@_0BH@GFGKJDCO@Object?5dump?5complete?4?6?$AA@ 004586d4     LIBCMTD:dbgheap.obj
 0002:000036ec       ??_C@_0DA@MDLBNIBM@crt?5block?5at?50x?$CFp?0?5subtype?5?$CFx?0?5?$CF@ 004586ec     LIBCMTD:dbgheap.obj
 0002:0000371c       ??_C@_0CH@FAGDDGPN@normal?5block?5at?50x?$CFp?0?5?$CFIu?5bytes?5@ 0045871c     LIBCMTD:dbgheap.obj
 0002:00003744       ??_C@_0DD@GHNAAKBB@client?5block?5at?50x?$CFp?0?5subtype?5?$CFx@ 00458744     LIBCMTD:dbgheap.obj
 0002:00003778       ??_C@_06PKLGBFGM@?$HL?$CFld?$HN?5?$AA@ 00458778     LIBCMTD:dbgheap.obj
 0002:00003780       ??_C@_0L@JMEFFCCJ@?$CFhs?$CI?$CFd?$CJ?5?3?5?$AA@ 00458780     LIBCMTD:dbgheap.obj
 0002:0000378c       ??_C@_0BE@OIEFNFL@?$CDFile?5Error?$CD?$CI?$CFd?$CJ?5?3?5?$AA@ 0045878c     LIBCMTD:dbgheap.obj
 0002:000037a0       ??_C@_0BE@KCIPKCIA@Dumping?5objects?5?9?$DO?6?$AA@ 004587a0     LIBCMTD:dbgheap.obj
 0002:000037b4       ??_C@_0BA@HJBKCELP@?5Data?3?5?$DM?$CFs?$DO?5?$CFs?6?$AA@ 004587b4     LIBCMTD:dbgheap.obj
 0002:000037c4       ??_C@_1CG@LPFIACGM@?$AA_?$AAp?$AAr?$AAi?$AAn?$AAt?$AAM?$AAe?$AAm?$AAB?$AAl?$AAo?$AAc?$AAk?$AAD?$AAa?$AAt?$AAa?$AA?$AA@ 004587c4     LIBCMTD:dbgheap.obj
 0002:000037ec       ??_C@_05MKKEDADM@?$CF?42X?5?$AA@ 004587ec     LIBCMTD:dbgheap.obj
 0002:000037f4       ??_C@_0BI@JBFPOEJA@Detected?5memory?5leaks?$CB?6?$AA@ 004587f4     LIBCMTD:dbgheap.obj
 0002:0000380c       ??_C@_0BP@DEDHGGGI@Total?5allocations?3?5?$CFId?5bytes?4?6?$AA@ 0045880c     LIBCMTD:dbgheap.obj
 0002:0000382c       ??_C@_0CB@BLHDAFNE@Largest?5number?5used?3?5?$CFId?5bytes?4?6@ 0045882c     LIBCMTD:dbgheap.obj
 0002:00003850       ??_C@_0BO@DACNIABB@?$CFId?5bytes?5in?5?$CFId?5?$CFhs?5Blocks?4?6?$AA@ 00458850     LIBCMTD:dbgheap.obj
 0002:00003870       ??_C@_1CM@MPNIBKGK@?$AA_?$AAC?$AAr?$AAt?$AAM?$AAe?$AAm?$AAD?$AAu?$AAm?$AAp?$AAS?$AAt?$AAa?$AAt?$AAi?$AAs?$AAt?$AAi?$AAc?$AAs?$AA?$AA@ 00458870     LIBCMTD:dbgheap.obj
 0002:0000389c       ??_C@_1DK@LFLKFPDA@?$AAo?$AAf?$AAf?$AAs?$AAe?$AAt?$AA?5?$AA?$DN?$AA?$DN?$AA?5?$AA0?$AA?5?$AA?$HM?$AA?$HM?$AA?5?$AAo?$AAf?$AAf?$AAs?$AAe?$AAt?$AA?5?$AA?$DM?$AA?5?$AAs?$AAi?$AAz?$AAe?$AA?$AA@ 0045889c     LIBCMTD:dbgheap.obj
 0002:000038d8       ??_C@_1DG@DONCJBBJ@?$AA_?$AAa?$AAl?$AAi?$AAg?$AAn?$AAe?$AAd?$AA_?$AAo?$AAf?$AAf?$AAs?$AAe?$AAt?$AA_?$AAm?$AAa?$AAl?$AAl?$AAo?$AAc?$AA_?$AAd?$AAb?$AAg?$AA?$AA@ 004588d8     LIBCMTD:dbgheap.obj
 0002:00003910       ??_C@_1CE@NPMGPNNP@?$AAI?$AAS?$AA_?$AA2?$AA_?$AAP?$AAO?$AAW?$AA_?$AAN?$AA?$CI?$AAa?$AAl?$AAi?$AAg?$AAn?$AA?$CJ?$AA?$AA@ 00458910     LIBCMTD:dbgheap.obj
 0002:00003934       ??_C@_1DI@NINIKFFK@?$AA_?$AAa?$AAl?$AAi?$AAg?$AAn?$AAe?$AAd?$AA_?$AAo?$AAf?$AAf?$AAs?$AAe?$AAt?$AA_?$AAr?$AAe?$AAa?$AAl?$AAl?$AAo?$AAc?$AA_?$AAd?$AAb?$AAg?$AA?$AA@ 00458934     LIBCMTD:dbgheap.obj
 0002:0000396c       ??_C@_0DL@PGHMMKNE@Damage?5before?50x?$CFp?5which?5was?5all@ 0045896c     LIBCMTD:dbgheap.obj
 0002:000039a8       ??_C@_0EI@NDNJMAJK@The?5block?5at?50x?$CFp?5was?5not?5alloca@ 004589a8     LIBCMTD:dbgheap.obj
 0002:000039f0       ??_C@_0EF@PGELACII@The?5block?5at?50x?$CFp?5was?5not?5alloca@ 004589f0     LIBCMTD:dbgheap.obj
 0002:00003a38       ??_C@_1CG@CEGMHIMN@?$AA_?$AAa?$AAl?$AAi?$AAg?$AAn?$AAe?$AAd?$AA_?$AAm?$AAs?$AAi?$AAz?$AAe?$AA_?$AAd?$AAb?$AAg?$AA?$AA@ 00458a38     LIBCMTD:dbgheap.obj
 0002:00003a60       ??_C@_1CC@MOBIKHH@?$AAm?$AAe?$AAm?$AAb?$AAl?$AAo?$AAc?$AAk?$AA?5?$AA?$CB?$AA?$DN?$AA?5?$AAN?$AAU?$AAL?$AAL?$AA?$AA@ 00458a60     LIBCMTD:dbgheap.obj
 0002:00003a84       ??_C@_1BA@KBJJGFFE@?$AAs?$AAp?$AAr?$AAi?$AAn?$AAt?$AAf?$AA?$AA@ 00458a84     LIBCMTD:sprintf.obj
 0002:00003a98       ??_C@_1GC@BMNPEKNN@?$AAf?$AA?3?$AA?2?$AAd?$AAd?$AA?2?$AAv?$AAc?$AAt?$AAo?$AAo?$AAl?$AAs?$AA?2?$AAc?$AAr?$AAt?$AA_?$AAb?$AAl?$AAd?$AA?2?$AAs?$AAe?$AAl?$AAf?$AA_?$AAx?$AA8?$AA6?$AA?2?$AAc@ 00458a98     LIBCMTD:sprintf.obj
 0002:00003afc       __FPinit                   00458afc     LIBCMTD:_fpinit_.obj
 0002:00003b00       ??_C@_1CK@DDKKOLAN@?$AAs?$AAi?$AAz?$AAe?$AAI?$AAn?$AAB?$AAy?$AAt?$AAe?$AAs?$AA?5?$AA?$DO?$AA?$DN?$AA?5?$AAc?$AAo?$AAu?$AAn?$AAt?$AA?$AA@ 00458b00     LIBCMTD:memmove_s.obj
 0002:00003b2c       ??_C@_1BI@DCHLDCPP@?$AAs?$AAr?$AAc?$AA?5?$AA?$CB?$AA?$DN?$AA?5?$AAN?$AAU?$AAL?$AAL?$AA?$AA@ 00458b2c     LIBCMTD:memmove_s.obj
 0002:00003b44       ??_C@_1BE@NMKKBGPA@?$AAm?$AAe?$AAm?$AAm?$AAo?$AAv?$AAe?$AA_?$AAs?$AA?$AA@ 00458b44     LIBCMTD:memmove_s.obj
 0002:00003b58       ??_C@_1GG@JKNLCIHH@?$AAf?$AA?3?$AA?2?$AAd?$AAd?$AA?2?$AAv?$AAc?$AAt?$AAo?$AAo?$AAl?$AAs?$AA?2?$AAc?$AAr?$AAt?$AA_?$AAb?$AAl?$AAd?$AA?2?$AAs?$AAe?$AAl?$AAf?$AA_?$AAx?$AA8?$AA6?$AA?2?$AAc@ 00458b58     LIBCMTD:memmove_s.obj
 0002:00003bc0       ??_C@_1BI@GKKCBDMD@?$AAd?$AAs?$AAt?$AA?5?$AA?$CB?$AA?$DN?$AA?5?$AAN?$AAU?$AAL?$AAL?$AA?$AA@ 00458bc0     LIBCMTD:memmove_s.obj
 0002:00003bd8       ??_C@_0DA@HMCPFNKN@f?3?2dd?2vctools?2crt_bld?2self_x86?2c@ 00458bd8     LIBCMTD:onexit.obj
 0002:00003c08       ??_C@_1GM@HFLCJPGH@?$AAs?$AAt?$AAr?$AAc?$AAp?$AAy?$AA_?$AAs?$AA?$CI?$AAe?$AAr?$AAr?$AAm?$AAs?$AAg?$AA?0?$AA?5?$AA?$CI?$AA9?$AA4?$AA?$CL?$AA3?$AA8?$AA?$CL?$AA2?$AA?$CJ?$AA?0?$AA?5?$AA_?$AAg?$AAe?$AAt@ 00458c08     LIBCMTD:strerror.obj
 0002:00003c74       ??_C@_1BC@CPPAPMCG@?$AAs?$AAt?$AAr?$AAe?$AAr?$AAr?$AAo?$AAr?$AA?$AA@ 00458c74     LIBCMTD:strerror.obj
 0002:00003c88       ??_C@_1GE@IMODLDCP@?$AAf?$AA?3?$AA?2?$AAd?$AAd?$AA?2?$AAv?$AAc?$AAt?$AAo?$AAo?$AAl?$AAs?$AA?2?$AAc?$AAr?$AAt?$AA_?$AAb?$AAl?$AAd?$AA?2?$AAs?$AAe?$AAl?$AAf?$AA_?$AAx?$AA8?$AA6?$AA?2?$AAc@ 00458c88     LIBCMTD:strerror.obj
 0002:00003cec       ??_C@_0DC@PHLJOGAJ@f?3?2dd?2vctools?2crt_bld?2self_x86?2c@ 00458cec     LIBCMTD:strerror.obj
 0002:00003d20       ??_C@_0EA@FCLIIPNN@Visual?5C?$CL?$CL?5CRT?3?5Not?5enough?5memor@ 00458d20     LIBCMTD:strerror.obj
 0002:00003d60       ??_C@_1JI@GAHGOJMC@?$AAs?$AAt?$AAr?$AAn?$AAc?$AAp?$AAy?$AA_?$AAs?$AA?$CI?$AAb?$AAu?$AAf?$AAf?$AAe?$AAr?$AA?0?$AA?5?$AAs?$AAi?$AAz?$AAe?$AAI?$AAn?$AAT?$AAC?$AAh?$AAa?$AAr?$AAs?$AA?0?$AA?5@ 00458d60     LIBCMTD:strerror.obj
 0002:00003df8       ??_C@_1CC@JNJFIMGE@?$AAs?$AAi?$AAz?$AAe?$AAI?$AAn?$AAT?$AAC?$AAh?$AAa?$AAr?$AAs?$AA?5?$AA?$DO?$AA?5?$AA0?$AA?$AA@ 00458df8     LIBCMTD:strerror.obj
 0002:00003e1c       ??_C@_1BG@CLIBDOC@?$AAs?$AAt?$AAr?$AAe?$AAr?$AAr?$AAo?$AAr?$AA_?$AAs?$AA?$AA@ 00458e1c     LIBCMTD:strerror.obj
 0002:00003e34       ??_C@_1BO@PNINNIGK@?$AAb?$AAu?$AAf?$AAf?$AAe?$AAr?$AA?5?$AA?$CB?$AA?$DN?$AA?5?$AAN?$AAU?$AAL?$AAL?$AA?$AA@ 00458e34     LIBCMTD:strerror.obj
 0002:00003e54       __pDestructExceptionObject 00458e54     LIBCMTD:frame.obj
 0002:00003e58       ??_C@_0O@DPKOEFFH@bad?5exception?$AA@ 00458e58     LIBCMTD:frame.obj
 0002:00003e6c       ??_7bad_exception@std@@6B@ 00458e6c     LIBCMTD:frame.obj
 0002:00003e74       ??_C@_07LCBHPJJN@LC_TIME?$AA@ 00458e74     LIBCMTD:setlocal.obj
 0002:00003e7c       ??_C@_0L@DLHIECNL@LC_NUMERIC?$AA@ 00458e7c     LIBCMTD:setlocal.obj
 0002:00003e88       ??_C@_0M@MIENIKLA@LC_MONETARY?$AA@ 00458e88     LIBCMTD:setlocal.obj
 0002:00003e94       ??_C@_08EADHIDAD@LC_CTYPE?$AA@ 00458e94     LIBCMTD:setlocal.obj
 0002:00003ea0       ??_C@_0L@KFJHEKIK@LC_COLLATE?$AA@ 00458ea0     LIBCMTD:setlocal.obj
 0002:00003eac       ??_C@_06NEFDFEKB@LC_ALL?$AA@ 00458eac     LIBCMTD:setlocal.obj
 0002:00003eb8       ___lc_category             00458eb8     LIBCMTD:setlocal.obj
 0002:00003f80       ??_C@_1CI@FGIONOJM@?$AA_?$AAc?$AAo?$AAn?$AAf?$AAi?$AAg?$AAt?$AAh?$AAr?$AAe?$AAa?$AAd?$AAl?$AAo?$AAc?$AAa?$AAl?$AAe?$AA?$AA@ 00458f80     LIBCMTD:setlocal.obj
 0002:00003fa8       ??_C@_1GE@OLEIGPBJ@?$AAf?$AA?3?$AA?2?$AAd?$AAd?$AA?2?$AAv?$AAc?$AAt?$AAo?$AAo?$AAl?$AAs?$AA?2?$AAc?$AAr?$AAt?$AA_?$AAb?$AAl?$AAd?$AA?2?$AAs?$AAe?$AAl?$AAf?$AA_?$AAx?$AA8?$AA6?$AA?2?$AAc@ 00458fa8     LIBCMTD:setlocal.obj
 0002:00004010       ??_C@_1GA@LDEGDKD@?$AA?$CI?$AA?$CC?$AAI?$AAn?$AAv?$AAa?$AAl?$AAi?$AAd?$AA?5?$AAp?$AAa?$AAr?$AAa?$AAm?$AAe?$AAt?$AAe?$AAr?$AA?5?$AAf?$AAo?$AAr?$AA?5?$AA_?$AAc?$AAo?$AAn?$AAf?$AAi?$AAg?$AAt@ 00459010     LIBCMTD:setlocal.obj
 0002:00004070       ??_C@_0DC@JCPFNMID@f?3?2dd?2vctools?2crt_bld?2self_x86?2c@ 00459070     LIBCMTD:setlocal.obj
 0002:000040a4       ??_C@_1BE@DBJGBOJC@?$AAs?$AAe?$AAt?$AAl?$AAo?$AAc?$AAa?$AAl?$AAe?$AA?$AA@ 004590a4     LIBCMTD:setlocal.obj
 0002:000040b8       ??_C@_1FG@OHLFEKMC@?$AAL?$AAC?$AA_?$AAM?$AAI?$AAN?$AA?5?$AA?$DM?$AA?$DN?$AA?5?$AA_?$AAc?$AAa?$AAt?$AAe?$AAg?$AAo?$AAr?$AAy?$AA?5?$AA?$CG?$AA?$CG?$AA?5?$AA_?$AAc?$AAa?$AAt?$AAe?$AAg?$AAo?$AAr?$AAy@ 004590b8     LIBCMTD:setlocal.obj
 0002:00004110       ??_C@_1IA@PFIKKKFB@?$AAs?$AAt?$AAr?$AAn?$AAc?$AAp?$AAy?$AA_?$AAs?$AA?$CI?$AAl?$AAc?$AAt?$AAe?$AAm?$AAp?$AA?0?$AA?5?$AA?$CI?$AAs?$AAi?$AAz?$AAe?$AAo?$AAf?$AA?$CI?$AAl?$AAc?$AAt?$AAe?$AAm?$AAp@ 00459110     LIBCMTD:setlocal.obj
 0002:00004190       ??_C@_1CE@OFNHIOO@?$AA_?$AAs?$AAe?$AAt?$AAl?$AAo?$AAc?$AAa?$AAl?$AAe?$AA_?$AAn?$AAo?$AAl?$AAo?$AAc?$AAk?$AA?$AA@ 00459190     LIBCMTD:setlocal.obj
 0002:000041b4       ??_C@_01ICJEACDI@?$DL?$AA@ 004591b4     LIBCMTD:setlocal.obj
 0002:000041b8       ??_C@_02BALPLPBG@?$DN?$DL?$AA@ 004591b8     LIBCMTD:setlocal.obj
 0002:000041c0       ??_C@_1GO@JALHLJEH@?$AAs?$AAt?$AAr?$AAc?$AAp?$AAy?$AA_?$AAs?$AA?$CI?$AAp?$AAc?$AAh?$AA?5?$AA?$CL?$AA?5?$AAs?$AAi?$AAz?$AAe?$AAo?$AAf?$AA?$CI?$AAi?$AAn?$AAt?$AA?$CJ?$AA?0?$AA?5?$AAc?$AAc?$AAh?$AA?5@ 004591c0     LIBCMTD:setlocal.obj
 0002:00004230       ??_C@_1CG@IEFIICPK@?$AA_?$AAs?$AAe?$AAt?$AAl?$AAo?$AAc?$AAa?$AAl?$AAe?$AA_?$AAs?$AAe?$AAt?$AA_?$AAc?$AAa?$AAt?$AA?$AA@ 00459230     LIBCMTD:setlocal.obj
 0002:00004258       ??_C@_1DA@GDKKLCLM@?$AAs?$AAt?$AAr?$AAc?$AAa?$AAt?$AA_?$AAs?$AA?$CI?$AAp?$AAc?$AAh?$AA?0?$AA?5?$AAc?$AAc?$AAh?$AA?0?$AA?5?$AA?$CC?$AA?$DL?$AA?$CC?$AA?$CJ?$AA?$AA@ 00459258     LIBCMTD:setlocal.obj
 0002:00004288       ??_C@_1CG@NNFIJLDA@?$AA_?$AAs?$AAe?$AAt?$AAl?$AAo?$AAc?$AAa?$AAl?$AAe?$AA_?$AAg?$AAe?$AAt?$AA_?$AAa?$AAl?$AAl?$AA?$AA@ 00459288     LIBCMTD:setlocal.obj
 0002:000042b0       ??_C@_01NEMOKFLO@?$DN?$AA@ 004592b0     LIBCMTD:setlocal.obj
 0002:000042b8       ??_C@_1FA@MHAOOIBO@?$AAs?$AAt?$AAr?$AAc?$AAp?$AAy?$AA_?$AAs?$AA?$CI?$AAo?$AAu?$AAt?$AAp?$AAu?$AAt?$AA?0?$AA?5?$AAs?$AAi?$AAz?$AAe?$AAI?$AAn?$AAC?$AAh?$AAa?$AAr?$AAs?$AA?0?$AA?5?$AAc?$AAa@ 004592b8     LIBCMTD:setlocal.obj
 0002:00004308       ??_C@_1IA@ONNFOEDA@?$AAs?$AAt?$AAr?$AAn?$AAc?$AAp?$AAy?$AA_?$AAs?$AA?$CI?$AAc?$AAa?$AAc?$AAh?$AAe?$AAi?$AAn?$AA?0?$AA?5?$AAc?$AAa?$AAc?$AAh?$AAe?$AAi?$AAn?$AAS?$AAi?$AAz?$AAe?$AA?0?$AA?5@ 00459308     LIBCMTD:setlocal.obj
 0002:00004388       ??_C@_1EG@MOMHKOD@?$AAs?$AAt?$AAr?$AAc?$AAp?$AAy?$AA_?$AAs?$AA?$CI?$AAo?$AAu?$AAt?$AAp?$AAu?$AAt?$AA?0?$AA?5?$AAs?$AAi?$AAz?$AAe?$AAI?$AAn?$AAC?$AAh?$AAa?$AAr?$AAs?$AA?0?$AA?5?$AA?$CC?$AAC@ 00459388     LIBCMTD:setlocal.obj
 0002:000043d0       ??_C@_1BM@OIIBLEFG@?$AA_?$AAe?$AAx?$AAp?$AAa?$AAn?$AAd?$AAl?$AAo?$AAc?$AAa?$AAl?$AAe?$AA?$AA@ 004593d0     LIBCMTD:setlocal.obj
 0002:000043f0       ??_C@_1BGM@IJDLABMC@?$AAs?$AAt?$AAr?$AAc?$AAa?$AAt?$AA_?$AAs?$AA?$CI?$AAo?$AAu?$AAt?$AAs?$AAt?$AAr?$AA?0?$AA?5?$AAs?$AAi?$AAz?$AAe?$AAI?$AAn?$AAB?$AAy?$AAt?$AAe?$AAs?$AA?0?$AA?5?$AA?$CI?$AA?5@ 004593f0     LIBCMTD:setlocal.obj
 0002:0000455c       ??_C@_1BC@PIABMDIP@?$AA_?$AAs?$AAt?$AAr?$AAc?$AAa?$AAt?$AAs?$AA?$AA@ 0045955c     LIBCMTD:setlocal.obj
 0002:00004570       ??_C@_1MM@NOPMGFHF@?$AAs?$AAt?$AAr?$AAn?$AAc?$AAp?$AAy?$AA_?$AAs?$AA?$CI?$AAn?$AAa?$AAm?$AAe?$AAs?$AA?9?$AA?$DO?$AAs?$AAz?$AAC?$AAo?$AAd?$AAe?$AAP?$AAa?$AAg?$AAe?$AA?0?$AA?5?$AA?$CI?$AAs?$AAi@ 00459570     LIBCMTD:setlocal.obj
 0002:00004640       ??_C@_1MG@PHNILIAG@?$AAs?$AAt?$AAr?$AAn?$AAc?$AAp?$AAy?$AA_?$AAs?$AA?$CI?$AAn?$AAa?$AAm?$AAe?$AAs?$AA?9?$AA?$DO?$AAs?$AAz?$AAC?$AAo?$AAu?$AAn?$AAt?$AAr?$AAy?$AA?0?$AA?5?$AA?$CI?$AAs?$AAi?$AAz@ 00459640     LIBCMTD:setlocal.obj
 0002:00004708       ??_C@_1MM@BFEECMAF@?$AAs?$AAt?$AAr?$AAn?$AAc?$AAp?$AAy?$AA_?$AAs?$AA?$CI?$AAn?$AAa?$AAm?$AAe?$AAs?$AA?9?$AA?$DO?$AAs?$AAz?$AAL?$AAa?$AAn?$AAg?$AAu?$AAa?$AAg?$AAe?$AA?0?$AA?5?$AA?$CI?$AAs?$AAi@ 00459708     LIBCMTD:setlocal.obj
 0002:000047d4       ??_C@_03EGDHDPFD@_?4?0?$AA@ 004597d4     LIBCMTD:setlocal.obj
 0002:000047d8       ??_C@_1NG@FMOPGKGG@?$AAs?$AAt?$AAr?$AAn?$AAc?$AAp?$AAy?$AA_?$AAs?$AA?$CI?$AAn?$AAa?$AAm?$AAe?$AAs?$AA?9?$AA?$DO?$AAs?$AAz?$AAC?$AAo?$AAd?$AAe?$AAP?$AAa?$AAg?$AAe?$AA?0?$AA?5?$AA?$CI?$AAs?$AAi@ 004597d8     LIBCMTD:setlocal.obj
 0002:000048b0       ??_C@_1BK@CBMMLAGJ@?$AA_?$AA_?$AAl?$AAc?$AA_?$AAs?$AAt?$AAr?$AAt?$AAo?$AAl?$AAc?$AA?$AA@ 004598b0     LIBCMTD:setlocal.obj
 0002:000048cc       ??_C@_01LFCBOECM@?4?$AA@   004598cc     LIBCMTD:setlocal.obj
 0002:000048d0       ??_C@_01IDAFKMJL@_?$AA@    004598d0     LIBCMTD:setlocal.obj
 0002:000048d8       ??_C@_1HC@IBDBLKCB@?$AAs?$AAt?$AAr?$AAc?$AAp?$AAy?$AA_?$AAs?$AA?$CI?$AAl?$AAo?$AAc?$AAa?$AAl?$AAe?$AA?0?$AA?5?$AAs?$AAi?$AAz?$AAe?$AAI?$AAn?$AAB?$AAy?$AAt?$AAe?$AAs?$AA?0?$AA?5?$AA?$CI?$AAc@ 004598d8     LIBCMTD:setlocal.obj
 0002:0000494c       ??_C@_1BK@FGDJDEPG@?$AA_?$AA_?$AAl?$AAc?$AA_?$AAl?$AAc?$AAt?$AAo?$AAs?$AAt?$AAr?$AA?$AA@ 0045994c     LIBCMTD:setlocal.obj
 0002:00004968       ??_C@_1GA@INJGGEBC@?$AAf?$AA?3?$AA?2?$AAd?$AAd?$AA?2?$AAv?$AAc?$AAt?$AAo?$AAo?$AAl?$AAs?$AA?2?$AAc?$AAr?$AAt?$AA_?$AAb?$AAl?$AAd?$AA?2?$AAs?$AAe?$AAl?$AAf?$AA_?$AAx?$AA8?$AA6?$AA?2?$AAc@ 00459968     LIBCMTD:a_map.obj
 0002:000049c8       ??_C@_1FE@KNPCCODH@?$AA?$CI?$AA?$CC?$AAC?$AAo?$AAr?$AAr?$AAu?$AAp?$AAt?$AAe?$AAd?$AA?5?$AAp?$AAo?$AAi?$AAn?$AAt?$AAe?$AAr?$AA?5?$AAp?$AAa?$AAs?$AAs?$AAe?$AAd?$AA?5?$AAt?$AAo?$AA?5?$AA_?$AAf@ 004599c8     LIBCMTD:a_map.obj
 0002:00004a20       ___newctype                00459a20     LIBCMTD:ctype.obj
 0002:00004d20       __wctype                   00459d20     LIBCMTD:ctype.obj
 0002:00004f28       ___newclmap                00459f28     LIBCMTD:ctype.obj
 0002:000050a8       ___newcumap                0045a0a8     LIBCMTD:ctype.obj
 0002:00005228       ??_C@_1DG@NMBGBDM@?$AAp?$AAl?$AAo?$AAc?$AAi?$AA?9?$AA?$DO?$AAc?$AAt?$AAy?$AAp?$AAe?$AA1?$AA_?$AAr?$AAe?$AAf?$AAc?$AAo?$AAu?$AAn?$AAt?$AA?5?$AA?$DO?$AA?5?$AA0?$AA?$AA@ 0045a228     LIBCMTD:initctyp.obj
 0002:00005260       ??_C@_1GE@OCPKBDKE@?$AAf?$AA?3?$AA?2?$AAd?$AAd?$AA?2?$AAv?$AAc?$AAt?$AAo?$AAo?$AAl?$AAs?$AA?2?$AAc?$AAr?$AAt?$AA_?$AAb?$AAl?$AAd?$AA?2?$AAs?$AAe?$AAl?$AAf?$AA_?$AAx?$AA8?$AA6?$AA?2?$AAc@ 0045a260     LIBCMTD:initctyp.obj
 0002:000052c4       ??_C@_0DC@EHLBFILA@f?3?2dd?2vctools?2crt_bld?2self_x86?2c@ 0045a2c4     LIBCMTD:initctyp.obj
 0002:000052f8       ??_C@_1BG@KCMPBBDK@?$AA_?$AAg?$AAe?$AAt?$AA_?$AAe?$AAr?$AAr?$AAn?$AAo?$AA?$AA@ 0045a2f8     LIBCMTD:dosmap.obj
 0002:00005310       ??_C@_1GA@MFGIMPNL@?$AAf?$AA?3?$AA?2?$AAd?$AAd?$AA?2?$AAv?$AAc?$AAt?$AAo?$AAo?$AAl?$AAs?$AA?2?$AAc?$AAr?$AAt?$AA_?$AAb?$AAl?$AAd?$AA?2?$AAs?$AAe?$AAl?$AAf?$AA_?$AAx?$AA8?$AA6?$AA?2?$AAc@ 0045a310     LIBCMTD:dosmap.obj
 0002:00005370       ??_C@_1BO@LKEBEKJP@?$AAp?$AAV?$AAa?$AAl?$AAu?$AAe?$AA?5?$AA?$CB?$AA?$DN?$AA?5?$AAN?$AAU?$AAL?$AAL?$AA?$AA@ 0045a370     LIBCMTD:dosmap.obj
 0002:00005390       ??_C@_1BM@INIPHHDD@?$AA_?$AAg?$AAe?$AAt?$AA_?$AAd?$AAo?$AAs?$AAe?$AAr?$AAr?$AAn?$AAo?$AA?$AA@ 0045a390     LIBCMTD:dosmap.obj
 0002:000053ac       ??_C@_1CM@HABGDNLJ@?$AAl?$AAe?$AAn?$AAg?$AAt?$AAh?$AA?5?$AA?$DM?$AA?5?$AAs?$AAi?$AAz?$AAe?$AAI?$AAn?$AAT?$AAC?$AAh?$AAa?$AAr?$AAs?$AA?$AA@ 0045a3ac     LIBCMTD:xtoas.obj
 0002:000053d8       ??_C@_1DE@PCJGDBBD@?$AA2?$AA?5?$AA?$DM?$AA?$DN?$AA?5?$AAr?$AAa?$AAd?$AAi?$AAx?$AA?5?$AA?$CG?$AA?$CG?$AA?5?$AAr?$AAa?$AAd?$AAi?$AAx?$AA?5?$AA?$DM?$AA?$DN?$AA?5?$AA3?$AA6?$AA?$AA@ 0045a3d8     LIBCMTD:xtoas.obj
 0002:00005410       ??_C@_1FA@MKGGAGEI@?$AAs?$AAi?$AAz?$AAe?$AAI?$AAn?$AAT?$AAC?$AAh?$AAa?$AAr?$AAs?$AA?5?$AA?$DO?$AA?5?$AA?$CI?$AAs?$AAi?$AAz?$AAe?$AA_?$AAt?$AA?$CJ?$AA?$CI?$AAi?$AAs?$AA_?$AAn?$AAe?$AAg?$AA?5?$AA?$DP@ 0045a410     LIBCMTD:xtoas.obj
 0002:00005460       ??_C@_1O@GIMBNLEI@?$AAx?$AAt?$AAo?$AAa?$AA_?$AAs?$AA?$AA@ 0045a460     LIBCMTD:xtoas.obj
 0002:00005470       ??_C@_1FM@MFCBFCGB@?$AAf?$AA?3?$AA?2?$AAd?$AAd?$AA?2?$AAv?$AAc?$AAt?$AAo?$AAo?$AAl?$AAs?$AA?2?$AAc?$AAr?$AAt?$AA_?$AAb?$AAl?$AAd?$AA?2?$AAs?$AAe?$AAl?$AAf?$AA_?$AAx?$AA8?$AA6?$AA?2?$AAc@ 0045a470     LIBCMTD:xtoas.obj
 0002:000054cc       ??_C@_1BI@ICGGMGLK@?$AAb?$AAu?$AAf?$AA?5?$AA?$CB?$AA?$DN?$AA?5?$AAN?$AAU?$AAL?$AAL?$AA?$AA@ 0045a4cc     LIBCMTD:xtoas.obj
 0002:000054e4       ??_C@_1BC@MJJNBNFN@?$AAx?$AA6?$AA4?$AAt?$AAo?$AAa?$AA_?$AAs?$AA?$AA@ 0045a4e4     LIBCMTD:xtoas.obj
 0002:000054f8       ??_C@_0BO@GNIAFIKK@Unknown?5Runtime?5Check?5Error?6?$AN?$AA@ 0045a4f8     LIBCMTD:_error_.obj
 0002:00005518       ??_C@_0CM@NGINOKPC@Stack?5memory?5around?5_alloca?5was?5@ 0045a518     LIBCMTD:_error_.obj
 0002:00005544       ??_C@_0DG@HKJMLLLP@A?5local?5variable?5was?5used?5before@ 0045a544     LIBCMTD:_error_.obj
 0002:0000557c       ??_C@_0BN@FFOINMNJ@Stack?5memory?5was?5corrupted?6?$AN?$AA@ 0045a57c     LIBCMTD:_error_.obj
 0002:000055a0       ??_C@_0BBN@GPMLNJCF@A?5cast?5to?5a?5smaller?5data?5type?5ha@ 0045a5a0     LIBCMTD:_error_.obj
 0002:000056c0       ??_C@_0NN@NGPKDKPD@The?5value?5of?5ESP?5was?5not?5properl@ 0045a6c0     LIBCMTD:_error_.obj
 0002:0000583c       ??_C@_0CA@IODNCDPG@Run?9Time?5Check?5Failure?5?$CD?$CFd?5?9?5?$CFs?$AA@ 0045a83c     LIBCMTD:_error_.obj
 0002:0000585c       ??_C@_0BE@GNBOBNCK@Unknown?5Module?5Name?$AA@ 0045a85c     LIBCMTD:_error_.obj
 0002:00005870       ??_C@_0BB@PFFGGCJP@Unknown?5Filename?$AA@ 0045a870     LIBCMTD:_error_.obj
 0002:00005888       ??_C@_1EA@NFKNIFJP@?$AAR?$AAu?$AAn?$AA?9?$AAT?$AAi?$AAm?$AAe?$AA?5?$AAC?$AAh?$AAe?$AAc?$AAk?$AA?5?$AAF?$AAa?$AAi?$AAl?$AAu?$AAr?$AAe?$AA?5?$AA?$CD?$AA?$CF?$AAd?$AA?5?$AA?9?$AA?5?$AA?$CF?$AAs?$AA?$AA@ 0045a888     LIBCMTD:_error_.obj
 0002:000058c8       ??_C@_1GM@OLMCBDMB@?$AAR?$AAu?$AAn?$AAt?$AAi?$AAm?$AAe?$AA?5?$AAC?$AAh?$AAe?$AAc?$AAk?$AA?5?$AAE?$AAr?$AAr?$AAo?$AAr?$AA?4?$AA?6?$AA?$AN?$AA?5?$AAU?$AAn?$AAa?$AAb?$AAl?$AAe?$AA?5?$AAt?$AAo@ 0045a8c8     LIBCMTD:_error_.obj
 0002:00005934       ??_C@_0CG@IAFNJNEE@Stack?5corrupted?5near?5unknown?5var@ 0045a934     LIBCMTD:_error_.obj
 0002:00005960       ??_C@_0EJ@LJKNEOLN@Stack?5area?5around?5_alloca?5memory@ 0045a960     LIBCMTD:_error_.obj
 0002:000059ac       ??_C@_08KJEDNCKC@?$CFs?$CFs?$CFs?$CFs?$AA@ 0045a9ac     LIBCMTD:_error_.obj
 0002:000059b8       ??_C@_02LLMPMKNF@?$DO?5?$AA@ 0045a9b8     LIBCMTD:_error_.obj
 0002:000059bc       ??_C@_01EEMJAFIK@?6?$AA@   0045a9bc     LIBCMTD:_error_.obj
 0002:000059c0       ??_C@_0BC@KIBAILCI@?$CFs?$CFs?$CFp?$CFs?$CFld?$CFs?$CFd?$CFs?$AA@ 0045a9c0     LIBCMTD:_error_.obj
 0002:000059d8       ??_C@_0EI@CLEPFNGI@Stack?5area?5around?5_alloca?5memory@ 0045a9d8     LIBCMTD:_error_.obj
 0002:00005a20       ??_C@_0N@MHFFIMFG@?6Address?3?50x?$AA@ 0045aa20     LIBCMTD:_error_.obj
 0002:00005a30       ??_C@_07DFDJCKFN@?6Size?3?5?$AA@ 0045aa30     LIBCMTD:_error_.obj
 0002:00005a38       ??_C@_0CK@DKGBICFE@?6Allocation?5number?5within?5this?5f@ 0045aa38     LIBCMTD:_error_.obj
 0002:00005a64       ??_C@_08OMAHNMHJ@?6Data?3?5?$DM?$AA@ 0045aa64     LIBCMTD:_error_.obj
 0002:00005a70       ??_C@_09FOPFMPEJ@wsprintfA?$AA@ 0045aa70     LIBCMTD:_error_.obj
 0002:00005a7c       ??_C@_1BG@OILDLIOJ@?$AAu?$AAs?$AAe?$AAr?$AA3?$AA2?$AA?4?$AAd?$AAl?$AAl?$AA?$AA@ 0045aa7c     LIBCMTD:_error_.obj
 0002:00005a94       ??_C@_0DE@OHJBPMBP@A?5variable?5is?5being?5used?5without@ 0045aa94     LIBCMTD:_error_.obj
 0002:00005ac8       ??_C@_0BP@OGBCLIBO@Stack?5around?5_alloca?5corrupted?$AA@ 0045aac8     LIBCMTD:_userapi_.obj
 0002:00005ae8       ??_C@_0CK@CNLNOEPB@Local?5variable?5used?5before?5initi@ 0045aae8     LIBCMTD:_userapi_.obj
 0002:00005b14       ??_C@_0BI@CIGMDCBH@Stack?5memory?5corruption?$AA@ 0045ab14     LIBCMTD:_userapi_.obj
 0002:00005b2c       ??_C@_0CK@FEGOIOPB@Cast?5to?5smaller?5type?5causing?5los@ 0045ab2c     LIBCMTD:_userapi_.obj
 0002:00005b58       ??_C@_0BJ@HEGAHDFO@Stack?5pointer?5corruption?$AA@ 0045ab58     LIBCMTD:_userapi_.obj
 0002:00005b88       ??_C@_0DP@CBBAPGOP@f?3?2dd?2vctools?2crt_bld?2self_x86?2c@ 0045ab88     LIBCMTD:chkesp.obj
 0002:00005bc8       ??_C@_0NM@DNEDKLDF@The?5value?5of?5ESP?5was?5not?5properl@ 0045abc8     LIBCMTD:chkesp.obj
 0002:00005ca8       ??_C@_1GG@CDHAPCGF@?$AAf?$AA?3?$AA?2?$AAd?$AAd?$AA?2?$AAv?$AAc?$AAt?$AAo?$AAo?$AAl?$AAs?$AA?2?$AAc?$AAr?$AAt?$AA_?$AAb?$AAl?$AAd?$AA?2?$AAs?$AAe?$AAl?$AAf?$AA_?$AAx?$AA8?$AA6?$AA?2?$AAc@ 0045aca8     LIBCMTD:handler.obj
 0002:00005d10       ??_C@_1BC@JLLICHIC@?$AAp?$AAn?$AAh?$AA?5?$AA?$DN?$AA?$DN?$AA?5?$AA0?$AA?$AA@ 0045ad10     LIBCMTD:handler.obj
 0002:00005d30       ??_C@_1HG@KNCBMCDD@?$AAf?$AA?3?$AA?2?$AAd?$AAd?$AA?2?$AAv?$AAc?$AAt?$AAo?$AAo?$AAl?$AAs?$AA?2?$AAc?$AAr?$AAt?$AA_?$AAb?$AAl?$AAd?$AA?2?$AAs?$AAe?$AAl?$AAf?$AA_?$AAx?$AA8?$AA6?$AA?2?$AAc@ 0045ad30     LIBCMTD:typname.obj
 0002:00005da8       ??_C@_1CK@GELGGBDK@?$AAp?$AAN?$AAo?$AAd?$AAe?$AA?9?$AA?$DO?$AA_?$AAN?$AAe?$AAx?$AAt?$AA?5?$AA?$CB?$AA?$DN?$AA?5?$AAN?$AAU?$AAL?$AAL?$AA?$AA@ 0045ada8     LIBCMTD:typname.obj
 0002:00005dd8       ??_C@_1JK@NAFNEPGC@?$AAs?$AAt?$AAr?$AAc?$AAp?$AAy?$AA_?$AAs?$AA?5?$AA?$CI?$AA?$CI?$AAc?$AAh?$AAa?$AAr?$AA?5?$AA?$CK?$AA?$CJ?$AA?$CI?$AA?$CI?$AAt?$AAy?$AAp?$AAe?$AA_?$AAi?$AAn?$AAf?$AAo?$AA?5?$AA?$CK?$AA?$CJ@ 0045add8     LIBCMTD:typname.obj
 0002:00005e74       ??_C@_1CM@OOICDMK@?$AAt?$AAy?$AAp?$AAe?$AA_?$AAi?$AAn?$AAf?$AAo?$AA?3?$AA?3?$AA_?$AAN?$AAa?$AAm?$AAe?$AA_?$AAb?$AAa?$AAs?$AAe?$AA?$AA@ 0045ae74     LIBCMTD:typname.obj
 0002:00005ea0       ??_C@_1GI@EAJKJPED@?$AAs?$AAt?$AAr?$AAc?$AAp?$AAy?$AA_?$AAs?$AA?5?$AA?$CI?$AAp?$AAT?$AAm?$AAp?$AAT?$AAy?$AAp?$AAe?$AAN?$AAa?$AAm?$AAe?$AA?0?$AA?5?$AAl?$AAe?$AAn?$AA?$CL?$AA2?$AA?0?$AA?5?$AA?$CI@ 0045aea0     LIBCMTD:typname.obj
 0002:00005f08       ??_C@_1DO@OJJLFJPE@?$AAt?$AAy?$AAp?$AAe?$AA_?$AAi?$AAn?$AAf?$AAo?$AA?3?$AA?3?$AA_?$AAN?$AAa?$AAm?$AAe?$AA_?$AAb?$AAa?$AAs?$AAe?$AA_?$AAi?$AAn?$AAt?$AAe?$AAr?$AAn?$AAa?$AAl?$AA?$AA@ 0045af08     LIBCMTD:typname.obj
 0002:00005f48       ??_C@_1BO@BKOMIGKJ@?$AAr?$AAu?$AAn?$AAt?$AAi?$AAm?$AAe?$AA?5?$AAe?$AAr?$AAr?$AAo?$AAr?$AA?5?$AA?$AA@ 0045af48     LIBCMTD:crt0msg.obj
 0002:00005f68       ??_C@_15JNBOKNOG@?$AA?$AN?$AA?6?$AA?$AA@ 0045af68     LIBCMTD:crt0msg.obj
 0002:00005f70       ??_C@_1BM@JBBEPPHI@?$AAT?$AAL?$AAO?$AAS?$AAS?$AA?5?$AAe?$AAr?$AAr?$AAo?$AAr?$AA?$AN?$AA?6?$AA?$AA@ 0045af70     LIBCMTD:crt0msg.obj
 0002:00005f8c       ??_C@_1BK@KMOMNAAI@?$AAS?$AAI?$AAN?$AAG?$AA?5?$AAe?$AAr?$AAr?$AAo?$AAr?$AA?$AN?$AA?6?$AA?$AA@ 0045af8c     LIBCMTD:crt0msg.obj
 0002:00005fa8       ??_C@_1BO@BFCDCGC@?$AAD?$AAO?$AAM?$AAA?$AAI?$AAN?$AA?5?$AAe?$AAr?$AAr?$AAo?$AAr?$AA?$AN?$AA?6?$AA?$AA@ 0045afa8     LIBCMTD:crt0msg.obj
 0002:00005fc8       ??_C@_1BOO@KGEDBGAJ@?$AAR?$AA6?$AA0?$AA3?$AA3?$AA?$AN?$AA?6?$AA?9?$AA?5?$AAA?$AAt?$AAt?$AAe?$AAm?$AAp?$AAt?$AA?5?$AAt?$AAo?$AA?5?$AAu?$AAs?$AAe?$AA?5?$AAM?$AAS?$AAI?$AAL?$AA?5?$AAc?$AAo?$AAd@ 0045afc8     LIBCMTD:crt0msg.obj
 0002:000061b8       ??_C@_1GG@GOPILAJP@?$AAR?$AA6?$AA0?$AA3?$AA2?$AA?$AN?$AA?6?$AA?9?$AA?5?$AAn?$AAo?$AAt?$AA?5?$AAe?$AAn?$AAo?$AAu?$AAg?$AAh?$AA?5?$AAs?$AAp?$AAa?$AAc?$AAe?$AA?5?$AAf?$AAo?$AAr?$AA?5?$AAl?$AAo@ 0045b1b8     LIBCMTD:crt0msg.obj
 0002:00006220       ??_C@_1MG@ENCOOIDF@?$AAR?$AA6?$AA0?$AA3?$AA1?$AA?$AN?$AA?6?$AA?9?$AA?5?$AAA?$AAt?$AAt?$AAe?$AAm?$AAp?$AAt?$AA?5?$AAt?$AAo?$AA?5?$AAi?$AAn?$AAi?$AAt?$AAi?$AAa?$AAl?$AAi?$AAz?$AAe?$AA?5?$AAt@ 0045b220     LIBCMTD:crt0msg.obj
 0002:000062e8       ??_C@_1DO@BMFCDCD@?$AAR?$AA6?$AA0?$AA3?$AA0?$AA?$AN?$AA?6?$AA?9?$AA?5?$AAC?$AAR?$AAT?$AA?5?$AAn?$AAo?$AAt?$AA?5?$AAi?$AAn?$AAi?$AAt?$AAi?$AAa?$AAl?$AAi?$AAz?$AAe?$AAd?$AA?$AN?$AA?6?$AA?$AA@ 0045b2e8     LIBCMTD:crt0msg.obj
 0002:00006328       ??_C@_1EK@HHFLMAOL@?$AAR?$AA6?$AA0?$AA2?$AA8?$AA?$AN?$AA?6?$AA?9?$AA?5?$AAu?$AAn?$AAa?$AAb?$AAl?$AAe?$AA?5?$AAt?$AAo?$AA?5?$AAi?$AAn?$AAi?$AAt?$AAi?$AAa?$AAl?$AAi?$AAz?$AAe?$AA?5?$AAh?$AAe@ 0045b328     LIBCMTD:crt0msg.obj
 0002:00006378       ??_C@_1GK@MFGOKLAG@?$AAR?$AA6?$AA0?$AA2?$AA7?$AA?$AN?$AA?6?$AA?9?$AA?5?$AAn?$AAo?$AAt?$AA?5?$AAe?$AAn?$AAo?$AAu?$AAg?$AAh?$AA?5?$AAs?$AAp?$AAa?$AAc?$AAe?$AA?5?$AAf?$AAo?$AAr?$AA?5?$AAl?$AAo@ 0045b378     LIBCMTD:crt0msg.obj
 0002:000063e8       ??_C@_1GK@MCAAGJMO@?$AAR?$AA6?$AA0?$AA2?$AA6?$AA?$AN?$AA?6?$AA?9?$AA?5?$AAn?$AAo?$AAt?$AA?5?$AAe?$AAn?$AAo?$AAu?$AAg?$AAh?$AA?5?$AAs?$AAp?$AAa?$AAc?$AAe?$AA?5?$AAf?$AAo?$AAr?$AA?5?$AAs?$AAt@ 0045b3e8     LIBCMTD:crt0msg.obj
 0002:00006458       ??_C@_1EM@MAADIHMB@?$AAR?$AA6?$AA0?$AA2?$AA5?$AA?$AN?$AA?6?$AA?9?$AA?5?$AAp?$AAu?$AAr?$AAe?$AA?5?$AAv?$AAi?$AAr?$AAt?$AAu?$AAa?$AAl?$AA?5?$AAf?$AAu?$AAn?$AAc?$AAt?$AAi?$AAo?$AAn?$AA?5?$AAc@ 0045b458     LIBCMTD:crt0msg.obj
 0002:000064a8       ??_C@_1GK@FHCKBEFA@?$AAR?$AA6?$AA0?$AA2?$AA4?$AA?$AN?$AA?6?$AA?9?$AA?5?$AAn?$AAo?$AAt?$AA?5?$AAe?$AAn?$AAo?$AAu?$AAg?$AAh?$AA?5?$AAs?$AAp?$AAa?$AAc?$AAe?$AA?5?$AAf?$AAo?$AAr?$AA?5?$AA_?$AAo@ 0045b4a8     LIBCMTD:crt0msg.obj
 0002:00006518       ??_C@_1FC@ECHBIFBC@?$AAR?$AA6?$AA0?$AA1?$AA9?$AA?$AN?$AA?6?$AA?9?$AA?5?$AAu?$AAn?$AAa?$AAb?$AAl?$AAe?$AA?5?$AAt?$AAo?$AA?5?$AAo?$AAp?$AAe?$AAn?$AA?5?$AAc?$AAo?$AAn?$AAs?$AAo?$AAl?$AAe?$AA?5@ 0045b518     LIBCMTD:crt0msg.obj
 0002:00006570       ??_C@_1EC@JIBHAOPH@?$AAR?$AA6?$AA0?$AA1?$AA8?$AA?$AN?$AA?6?$AA?9?$AA?5?$AAu?$AAn?$AAe?$AAx?$AAp?$AAe?$AAc?$AAt?$AAe?$AAd?$AA?5?$AAh?$AAe?$AAa?$AAp?$AA?5?$AAe?$AAr?$AAr?$AAo?$AAr?$AA?$AN?$AA?6@ 0045b570     LIBCMTD:crt0msg.obj
 0002:000065b8       ??_C@_1FK@BEOGODMC@?$AAR?$AA6?$AA0?$AA1?$AA7?$AA?$AN?$AA?6?$AA?9?$AA?5?$AAu?$AAn?$AAe?$AAx?$AAp?$AAe?$AAc?$AAt?$AAe?$AAd?$AA?5?$AAm?$AAu?$AAl?$AAt?$AAi?$AAt?$AAh?$AAr?$AAe?$AAa?$AAd?$AA?5@ 0045b5b8     LIBCMTD:crt0msg.obj
 0002:00006618       ??_C@_1FI@LOGNIKDM@?$AAR?$AA6?$AA0?$AA1?$AA6?$AA?$AN?$AA?6?$AA?9?$AA?5?$AAn?$AAo?$AAt?$AA?5?$AAe?$AAn?$AAo?$AAu?$AAg?$AAh?$AA?5?$AAs?$AAp?$AAa?$AAc?$AAe?$AA?5?$AAf?$AAo?$AAr?$AA?5?$AAt?$AAh@ 0045b618     LIBCMTD:crt0msg.obj
 0002:00006670       ??_C@_1EG@BEHAGFJD@?$AAR?$AA6?$AA0?$AA1?$AA0?$AA?$AN?$AA?6?$AA?9?$AA?5?$AAa?$AAb?$AAo?$AAr?$AAt?$AA?$CI?$AA?$CJ?$AA?5?$AAh?$AAa?$AAs?$AA?5?$AAb?$AAe?$AAe?$AAn?$AA?5?$AAc?$AAa?$AAl?$AAl?$AAe?$AAd@ 0045b670     LIBCMTD:crt0msg.obj
 0002:000066b8       ??_C@_1FI@HONFMGBI@?$AAR?$AA6?$AA0?$AA0?$AA9?$AA?$AN?$AA?6?$AA?9?$AA?5?$AAn?$AAo?$AAt?$AA?5?$AAe?$AAn?$AAo?$AAu?$AAg?$AAh?$AA?5?$AAs?$AAp?$AAa?$AAc?$AAe?$AA?5?$AAf?$AAo?$AAr?$AA?5?$AAe?$AAn@ 0045b6b8     LIBCMTD:crt0msg.obj
 0002:00006710       ??_C@_1FE@LLNEDJMD@?$AAR?$AA6?$AA0?$AA0?$AA8?$AA?$AN?$AA?6?$AA?9?$AA?5?$AAn?$AAo?$AAt?$AA?5?$AAe?$AAn?$AAo?$AAu?$AAg?$AAh?$AA?5?$AAs?$AAp?$AAa?$AAc?$AAe?$AA?5?$AAf?$AAo?$AAr?$AA?5?$AAa?$AAr@ 0045b710     LIBCMTD:crt0msg.obj
 0002:00006768       ??_C@_1FK@PGACCAFB@?$AAR?$AA6?$AA0?$AA0?$AA2?$AA?$AN?$AA?6?$AA?9?$AA?5?$AAf?$AAl?$AAo?$AAa?$AAt?$AAi?$AAn?$AAg?$AA?5?$AAp?$AAo?$AAi?$AAn?$AAt?$AA?5?$AAs?$AAu?$AAp?$AAp?$AAo?$AAr?$AAt?$AA?5@ 0045b768     LIBCMTD:crt0msg.obj
 0002:00006878       ??_C@_1EK@MBDPDCGA@?$AAM?$AAi?$AAc?$AAr?$AAo?$AAs?$AAo?$AAf?$AAt?$AA?5?$AAV?$AAi?$AAs?$AAu?$AAa?$AAl?$AA?5?$AAC?$AA?$CL?$AA?$CL?$AA?5?$AAR?$AAu?$AAn?$AAt?$AAi?$AAm?$AAe?$AA?5?$AAL?$AAi?$AAb@ 0045b878     LIBCMTD:crt0msg.obj
 0002:000068c8       ??_C@_1IG@NMONDPP@?$AAw?$AAc?$AAs?$AAc?$AAa?$AAt?$AA_?$AAs?$AA?$CI?$AAo?$AAu?$AAt?$AAm?$AAs?$AAg?$AA?0?$AA?5?$AA?$CI?$AAs?$AAi?$AAz?$AAe?$AAo?$AAf?$AA?$CI?$AAo?$AAu?$AAt?$AAm?$AAs?$AAg?$AA?$CJ@ 0045b8c8     LIBCMTD:crt0msg.obj
 0002:00006950       ??_C@_1IA@DCJGKHFO@?$AAw?$AAc?$AAs?$AAc?$AAa?$AAt?$AA_?$AAs?$AA?$CI?$AAo?$AAu?$AAt?$AAm?$AAs?$AAg?$AA?0?$AA?5?$AA?$CI?$AAs?$AAi?$AAz?$AAe?$AAo?$AAf?$AA?$CI?$AAo?$AAu?$AAt?$AAm?$AAs?$AAg?$AA?$CJ@ 0045b950     LIBCMTD:crt0msg.obj
 0002:000069d0       ??_C@_1HI@FLHKGEBE@?$AAw?$AAc?$AAs?$AAn?$AAc?$AAp?$AAy?$AA_?$AAs?$AA?$CI?$AAp?$AAc?$AAh?$AA?0?$AA?5?$AAp?$AAr?$AAo?$AAg?$AAn?$AAa?$AAm?$AAe?$AA_?$AAs?$AAi?$AAz?$AAe?$AA?5?$AA?9?$AA?5?$AA?$CI@ 0045b9d0     LIBCMTD:crt0msg.obj
 0002:00006a48       ??_C@_1HK@FJJNAABO@?$AAw?$AAc?$AAs?$AAc?$AAp?$AAy?$AA_?$AAs?$AA?$CI?$AAp?$AAr?$AAo?$AAg?$AAn?$AAa?$AAm?$AAe?$AA?0?$AA?5?$AAp?$AAr?$AAo?$AAg?$AAn?$AAa?$AAm?$AAe?$AA_?$AAs?$AAi?$AAz?$AAe@ 0045ba48     LIBCMTD:crt0msg.obj
 0002:00006ac4       ??_C@_1DE@JNGNBFGO@?$AAR?$AAu?$AAn?$AAt?$AAi?$AAm?$AAe?$AA?5?$AAE?$AAr?$AAr?$AAo?$AAr?$AA?$CB?$AA?6?$AA?6?$AAP?$AAr?$AAo?$AAg?$AAr?$AAa?$AAm?$AA?3?$AA?5?$AA?$AA@ 0045bac4     LIBCMTD:crt0msg.obj
 0002:00006af8       ??_C@_1KO@BKLCKNFL@?$AAw?$AAc?$AAs?$AAc?$AAp?$AAy?$AA_?$AAs?$AA?$CI?$AAo?$AAu?$AAt?$AAm?$AAs?$AAg?$AA?0?$AA?5?$AA?$CI?$AAs?$AAi?$AAz?$AAe?$AAo?$AAf?$AA?$CI?$AAo?$AAu?$AAt?$AAm?$AAs?$AAg?$AA?$CJ@ 0045baf8     LIBCMTD:crt0msg.obj
 0002:00006ba8       ??_C@_1BI@EAHMBMEC@?$AA_?$AAN?$AAM?$AAS?$AAG?$AA_?$AAW?$AAR?$AAI?$AAT?$AAE?$AA?$AA@ 0045bba8     LIBCMTD:crt0msg.obj
 0002:00006bc0       ??_C@_1GC@HKOJBOFF@?$AAf?$AA?3?$AA?2?$AAd?$AAd?$AA?2?$AAv?$AAc?$AAt?$AAo?$AAo?$AAl?$AAs?$AA?2?$AAc?$AAr?$AAt?$AA_?$AAb?$AAl?$AAd?$AA?2?$AAs?$AAe?$AAl?$AAf?$AA_?$AAx?$AA8?$AA6?$AA?2?$AAc@ 0045bbc0     LIBCMTD:crt0msg.obj
 0002:00006c28       ??_C@_1GO@NGIGJNHH@?$AAs?$AAt?$AAr?$AAn?$AAc?$AAp?$AAy?$AA_?$AAs?$AA?$CI?$AA?$CK?$AAs?$AAt?$AAr?$AAa?$AAd?$AAd?$AAr?$AAe?$AAs?$AAs?$AA?0?$AA?5?$AAo?$AAu?$AAt?$AAs?$AAi?$AAz?$AAe?$AA?0?$AA?5@ 0045bc28     LIBCMTD:inithelp.obj
 0002:00006c98       ??_C@_1CA@KHHCPEI@?$AA_?$AA_?$AAg?$AAe?$AAt?$AAl?$AAo?$AAc?$AAa?$AAl?$AAe?$AAi?$AAn?$AAf?$AAo?$AA?$AA@ 0045bc98     LIBCMTD:inithelp.obj
 0002:00006cb8       ??_C@_1GE@PLPIMDHG@?$AAf?$AA?3?$AA?2?$AAd?$AAd?$AA?2?$AAv?$AAc?$AAt?$AAo?$AAo?$AAl?$AAs?$AA?2?$AAc?$AAr?$AAt?$AA_?$AAb?$AAl?$AAd?$AA?2?$AAs?$AAe?$AAl?$AAf?$AA_?$AAx?$AA8?$AA6?$AA?2?$AAc@ 0045bcb8     LIBCMTD:inithelp.obj
 0002:00006d1c       ??_C@_0DC@CFDMMFIG@f?3?2dd?2vctools?2crt_bld?2self_x86?2c@ 0045bd1c     LIBCMTD:inithelp.obj
 0002:00006d50       ??_C@_1HO@MLMGPAFH@?$AA?$CI?$AA?$CC?$AAi?$AAn?$AAc?$AAo?$AAn?$AAs?$AAi?$AAs?$AAt?$AAe?$AAn?$AAt?$AA?5?$AAI?$AAO?$AAB?$AA?5?$AAf?$AAi?$AAe?$AAl?$AAd?$AAs?$AA?$CC?$AA?0?$AA?5?$AAs?$AAt?$AAr?$AAe@ 0045bd50     LIBCMTD:_flsbuf.obj
 0002:00006dd0       ??_C@_1GC@GNCCMPNN@?$AAf?$AA?3?$AA?2?$AAd?$AAd?$AA?2?$AAv?$AAc?$AAt?$AAo?$AAo?$AAl?$AAs?$AA?2?$AAc?$AAr?$AAt?$AA_?$AAb?$AAl?$AAd?$AA?2?$AAs?$AAe?$AAl?$AAf?$AA_?$AAx?$AA8?$AA6?$AA?2?$AAc@ 0045bdd0     LIBCMTD:_flsbuf.obj
 0002:00006e34       ??_C@_1BI@MFCLPIBM@?$AAs?$AAt?$AAr?$AA?5?$AA?$CB?$AA?$DN?$AA?5?$AAN?$AAU?$AAL?$AAL?$AA?$AA@ 0045be34     LIBCMTD:_flsbuf.obj
 0002:00006e4c       ??_C@_0DA@NFBEBPEE@f?3?2dd?2vctools?2crt_bld?2self_x86?2c@ 0045be4c     LIBCMTD:woutput.obj
 0002:00006e80       ??_C@_1EK@PNGFDECN@?$AA?$CI?$AA?$CC?$AA?8?$AAn?$AA?8?$AA?5?$AAf?$AAo?$AAr?$AAm?$AAa?$AAt?$AA?5?$AAs?$AAp?$AAe?$AAc?$AAi?$AAf?$AAi?$AAe?$AAr?$AA?5?$AAd?$AAi?$AAs?$AAa?$AAb?$AAl?$AAe?$AAd?$AA?$CC@ 0045be80     LIBCMTD:woutput.obj
 0002:00006ecc       ??_C@_1BG@BBCDFOMA@?$AA_?$AAw?$AAo?$AAu?$AAt?$AAp?$AAu?$AAt?$AA_?$AAl?$AA?$AA@ 0045becc     LIBCMTD:woutput.obj
 0002:00006ee8       ??_C@_1GA@HHFOFBLN@?$AAf?$AA?3?$AA?2?$AAd?$AAd?$AA?2?$AAv?$AAc?$AAt?$AAo?$AAo?$AAl?$AAs?$AA?2?$AAc?$AAr?$AAt?$AA_?$AAb?$AAl?$AAd?$AA?2?$AAs?$AAe?$AAl?$AAf?$AA_?$AAx?$AA8?$AA6?$AA?2?$AAc@ 0045bee8     LIBCMTD:woutput.obj
 0002:00006f48       ??_C@_1CC@FADMNIL@?$AA?$CI?$AAs?$AAt?$AAr?$AAe?$AAa?$AAm?$AA?5?$AA?$CB?$AA?$DN?$AA?5?$AAN?$AAU?$AAL?$AAL?$AA?$CJ?$AA?$AA@ 0045bf48     LIBCMTD:woutput.obj
 0002:00006f6c       ??_C@_1BK@EPLNBKAK@?$AA_?$AAv?$AAs?$AAw?$AAp?$AAr?$AAi?$AAn?$AAt?$AAf?$AA_?$AAl?$AA?$AA@ 0045bf6c     LIBCMTD:vswprint.obj
 0002:00006f88       ??_C@_1GE@KINELFI@?$AAf?$AA?3?$AA?2?$AAd?$AAd?$AA?2?$AAv?$AAc?$AAt?$AAo?$AAo?$AAl?$AAs?$AA?2?$AAc?$AAr?$AAt?$AA_?$AAb?$AAl?$AAd?$AA?2?$AAs?$AAe?$AAl?$AAf?$AA_?$AAx?$AA8?$AA6?$AA?2?$AAc@ 0045bf88     LIBCMTD:vswprint.obj
 0002:00006fec       ??_C@_1CG@IMMIEPNA@?$AA_?$AAv?$AAs?$AAc?$AAw?$AAp?$AAr?$AAi?$AAn?$AAt?$AAf?$AA_?$AAh?$AAe?$AAl?$AAp?$AAe?$AAr?$AA?$AA@ 0045bfec     LIBCMTD:vswprint.obj
 0002:00007018       ??_C@_1EC@FABAOFFO@?$AA?$CI?$AAc?$AAo?$AAu?$AAn?$AAt?$AA?5?$AA?$DN?$AA?$DN?$AA?5?$AA0?$AA?$CJ?$AA?5?$AA?$HM?$AA?$HM?$AA?5?$AA?$CI?$AAs?$AAt?$AAr?$AAi?$AAn?$AAg?$AA?5?$AA?$CB?$AA?$DN?$AA?5?$AAN?$AAU?$AAL?$AAL?$AA?$CJ@ 0045c018     LIBCMTD:vswprnc.obj
 0002:0000705c       ??_C@_1CE@IGKFIJFD@?$AA_?$AAv?$AAs?$AAw?$AAp?$AAr?$AAi?$AAn?$AAt?$AAf?$AA_?$AAh?$AAe?$AAl?$AAp?$AAe?$AAr?$AA?$AA@ 0045c05c     LIBCMTD:vswprnc.obj
 0002:00007080       ??_C@_1DA@HPBFKMEB@?$AA?$CI?$AA?$CC?$AAB?$AAu?$AAf?$AAf?$AAe?$AAr?$AA?5?$AAt?$AAo?$AAo?$AA?5?$AAs?$AAm?$AAa?$AAl?$AAl?$AA?$CC?$AA?0?$AA?5?$AA0?$AA?$CJ?$AA?$AA@ 0045c080     LIBCMTD:vswprnc.obj
 0002:000070b0       ??_C@_1EE@MPCHJFGP@?$AAs?$AAt?$AAr?$AAi?$AAn?$AAg?$AA?5?$AA?$CB?$AA?$DN?$AA?5?$AAN?$AAU?$AAL?$AAL?$AA?5?$AA?$CG?$AA?$CG?$AA?5?$AAs?$AAi?$AAz?$AAe?$AAI?$AAn?$AAW?$AAo?$AAr?$AAd?$AAs?$AA?5?$AA?$DO?$AA?5@ 0045c0b0     LIBCMTD:vswprnc.obj
 0002:000070f4       ??_C@_1BO@OALHJLCI@?$AA_?$AAv?$AAs?$AAw?$AAp?$AAr?$AAi?$AAn?$AAt?$AAf?$AA_?$AAs?$AA_?$AAl?$AA?$AA@ 0045c0f4     LIBCMTD:vswprnc.obj
 0002:00007114       ??_C@_1BO@MLMCMBKN@?$AAf?$AAo?$AAr?$AAm?$AAa?$AAt?$AA?5?$AA?$CB?$AA?$DN?$AA?5?$AAN?$AAU?$AAL?$AAL?$AA?$AA@ 0045c114     LIBCMTD:vswprnc.obj
 0002:00007134       ??_C@_1CA@BKFKMJFF@?$AA_?$AAv?$AAs?$AAn?$AAw?$AAp?$AAr?$AAi?$AAn?$AAt?$AAf?$AA_?$AAs?$AA_?$AAl?$AA?$AA@ 0045c134     LIBCMTD:vswprnc.obj
 0002:00007154       ??_C@_0CP@MKONOLCI@f?3?2dd?2vctools?2crt_bld?2self_x86?2c@ 0045c154     LIBCMTD:mlock.obj
 0002:00007184       ??_C@_0DC@LMJHGCKC@f?3?2dd?2vctools?2crt_bld?2self_x86?2c@ 0045c184     LIBCMTD:tidtable.obj
 0002:000071b8       ??_C@_07PEJMOBNF@FlsFree?$AA@ 0045c1b8     LIBCMTD:tidtable.obj
 0002:000071c0       ??_C@_0M@JCPCPOEF@FlsSetValue?$AA@ 0045c1c0     LIBCMTD:tidtable.obj
 0002:000071cc       ??_C@_0M@GDNOONDI@FlsGetValue?$AA@ 0045c1cc     LIBCMTD:tidtable.obj
 0002:000071d8       ??_C@_08KNHFBNJ@FlsAlloc?$AA@ 0045c1d8     LIBCMTD:tidtable.obj
 0002:000071e4       ??_C@_1BK@DBDEIDLH@?$AAK?$AAE?$AAR?$AAN?$AAE?$AAL?$AA3?$AA2?$AA?4?$AAD?$AAL?$AAL?$AA?$AA@ 0045c1e4     LIBCMTD:tidtable.obj
 0002:00007200       ??_C@_1NK@LOFHIHFC@?$AAf?$AAM?$AAo?$AAd?$AAe?$AA?5?$AA?$DN?$AA?$DN?$AA?5?$AA_?$AAC?$AAR?$AAT?$AAD?$AAB?$AAG?$AA_?$AAR?$AAE?$AAP?$AAO?$AAR?$AAT?$AA_?$AAM?$AAO?$AAD?$AAE?$AA?5?$AA?$HM?$AA?$HM?$AA?5@ 0045c200     LIBCMTD:dbgrptt.obj
 0002:000072dc       ??_C@_1CE@FIHIECNJ@?$AA_?$AAC?$AAr?$AAt?$AAS?$AAe?$AAt?$AAR?$AAe?$AAp?$AAo?$AAr?$AAt?$AAM?$AAo?$AAd?$AAe?$AA?$AA@ 0045c2dc     LIBCMTD:dbgrptt.obj
 0002:00007300       ??_C@_1GC@FIGJJMEN@?$AAf?$AA?3?$AA?2?$AAd?$AAd?$AA?2?$AAv?$AAc?$AAt?$AAo?$AAo?$AAl?$AAs?$AA?2?$AAc?$AAr?$AAt?$AA_?$AAb?$AAl?$AAd?$AA?2?$AAs?$AAe?$AAl?$AAf?$AA_?$AAx?$AA8?$AA6?$AA?2?$AAc@ 0045c300     LIBCMTD:dbgrptt.obj
 0002:00007368       ??_C@_1FA@IFFFOLDJ@?$AAn?$AAR?$AAp?$AAt?$AAT?$AAy?$AAp?$AAe?$AA?5?$AA?$DO?$AA?$DN?$AA?5?$AA0?$AA?5?$AA?$CG?$AA?$CG?$AA?5?$AAn?$AAR?$AAp?$AAt?$AAT?$AAy?$AAp?$AAe?$AA?5?$AA?$DM?$AA?5?$AA_?$AAC?$AAR?$AAT@ 0045c368     LIBCMTD:dbgrptt.obj
 0002:000073b8       ??_C@_1CE@IKKEDCME@?$AA_?$AAC?$AAr?$AAt?$AAS?$AAe?$AAt?$AAR?$AAe?$AAp?$AAo?$AAr?$AAt?$AAF?$AAi?$AAl?$AAe?$AA?$AA@ 0045c3b8     LIBCMTD:dbgrptt.obj
 0002:000073e0       ??_C@_1HO@PJOFIKFE@?$AA_?$AAC?$AAr?$AAt?$AAD?$AAb?$AAg?$AAR?$AAe?$AAp?$AAo?$AAr?$AAt?$AA?3?$AA?5?$AAS?$AAt?$AAr?$AAi?$AAn?$AAg?$AA?5?$AAt?$AAo?$AAo?$AA?5?$AAl?$AAo?$AAn?$AAg?$AA?5?$AAo@ 0045c3e0     LIBCMTD:dbgrptt.obj
 0002:00007460       ??_C@_1MC@IGEECMDB@?$AAw?$AAc?$AAs?$AAc?$AAp?$AAy?$AA_?$AAs?$AA?$CI?$AAs?$AAz?$AAO?$AAu?$AAt?$AAM?$AAe?$AAs?$AAs?$AAa?$AAg?$AAe?$AA2?$AA?0?$AA?5?$AA4?$AA0?$AA9?$AA6?$AA?0?$AA?5?$AAL?$AA?$CC@ 0045c460     LIBCMTD:dbgrptt.obj
 0002:00007528       ??_C@_1IM@OOKIFKOH@?$AAe?$AA?5?$AA?$DN?$AA?5?$AAm?$AAb?$AAs?$AAt?$AAo?$AAw?$AAc?$AAs?$AA_?$AAs?$AA?$CI?$AA?$CG?$AAr?$AAe?$AAt?$AA?0?$AA?5?$AAs?$AAz?$AAO?$AAu?$AAt?$AAM?$AAe?$AAs?$AAs?$AAa?$AAg@ 0045c528     LIBCMTD:dbgrptt.obj
 0002:000075b8       ??_C@_1FI@IBIOIHEG@?$AAs?$AAt?$AAr?$AAc?$AAp?$AAy?$AA_?$AAs?$AA?$CI?$AAs?$AAz?$AAO?$AAu?$AAt?$AAM?$AAe?$AAs?$AAs?$AAa?$AAg?$AAe?$AA?0?$AA?5?$AA4?$AA0?$AA9?$AA6?$AA?0?$AA?5?$AAs?$AAz?$AAL@ 0045c5b8     LIBCMTD:dbgrptt.obj
 0002:00007610       ??_C@_1JG@CPKCIOEE@?$AAs?$AAt?$AAr?$AAc?$AAp?$AAy?$AA_?$AAs?$AA?$CI?$AAs?$AAz?$AAO?$AAu?$AAt?$AAM?$AAe?$AAs?$AAs?$AAa?$AAg?$AAe?$AA?0?$AA?5?$AA4?$AA0?$AA9?$AA6?$AA?0?$AA?5?$AA?$CC?$AA_?$AAC@ 0045c610     LIBCMTD:dbgrptt.obj
 0002:000076a8       ??_C@_0M@IPILFDFN@?$CFs?$CI?$CFd?$CJ?5?3?5?$CFs?$AA@ 0045c6a8     LIBCMTD:dbgrptt.obj
 0002:000076b8       ??_C@_1EI@LDHJEDO@?$AAs?$AAt?$AAr?$AAc?$AAa?$AAt?$AA_?$AAs?$AA?$CI?$AAs?$AAz?$AAL?$AAi?$AAn?$AAe?$AAM?$AAe?$AAs?$AAs?$AAa?$AAg?$AAe?$AA?0?$AA?5?$AA4?$AA0?$AA9?$AA6?$AA?0?$AA?5?$AA?$CC?$AA?2@ 0045c6b8     LIBCMTD:dbgrptt.obj
 0002:00007700       ??_C@_01LIIJDEN@?$AN?$AA@  0045c700     LIBCMTD:dbgrptt.obj
 0002:00007708       ??_C@_1EI@CACDLAFK@?$AAs?$AAt?$AAr?$AAc?$AAa?$AAt?$AA_?$AAs?$AA?$CI?$AAs?$AAz?$AAL?$AAi?$AAn?$AAe?$AAM?$AAe?$AAs?$AAs?$AAa?$AAg?$AAe?$AA?0?$AA?5?$AA4?$AA0?$AA9?$AA6?$AA?0?$AA?5?$AA?$CC?$AA?2@ 0045c708     LIBCMTD:dbgrptt.obj
 0002:00007750       ??_C@_1FK@NPGBPOFO@?$AAs?$AAt?$AAr?$AAc?$AAa?$AAt?$AA_?$AAs?$AA?$CI?$AAs?$AAz?$AAL?$AAi?$AAn?$AAe?$AAM?$AAe?$AAs?$AAs?$AAa?$AAg?$AAe?$AA?0?$AA?5?$AA4?$AA0?$AA9?$AA6?$AA?0?$AA?5?$AAs?$AAz@ 0045c750     LIBCMTD:dbgrptt.obj
 0002:000077b0       ??_C@_1KK@GIGAEDMO@?$AAs?$AAt?$AAr?$AAc?$AAp?$AAy?$AA_?$AAs?$AA?$CI?$AAs?$AAz?$AAL?$AAi?$AAn?$AAe?$AAM?$AAe?$AAs?$AAs?$AAa?$AAg?$AAe?$AA?0?$AA?5?$AA4?$AA0?$AA9?$AA6?$AA?0?$AA?5?$AAs?$AAz@ 0045c7b0     LIBCMTD:dbgrptt.obj
 0002:0000785c       ??_C@_0BC@LAIDCHCH@Assertion?5failed?$CB?$AA@ 0045c85c     LIBCMTD:dbgrptt.obj
 0002:00007870       ??_C@_0BD@CAENFOHP@Assertion?5failed?3?5?$AA@ 0045c870     LIBCMTD:dbgrptt.obj
 0002:00007884       ??_C@_0CL@EACFGMNB@_CrtDbgReport?3?5String?5too?5long?5o@ 0045c884     LIBCMTD:dbgrptt.obj
 0002:000078b0       ??_C@_1JI@GAALPGBM@?$AAs?$AAt?$AAr?$AAc?$AAp?$AAy?$AA_?$AAs?$AA?$CI?$AAs?$AAz?$AAU?$AAs?$AAe?$AAr?$AAM?$AAe?$AAs?$AAs?$AAa?$AAg?$AAe?$AA?0?$AA?5?$AA4?$AA0?$AA9?$AA6?$AA?0?$AA?5?$AA?$CC?$AA_@ 0045c8b0     LIBCMTD:dbgrptt.obj
 0002:00007948       ??_C@_07BHGABMGB@?0?5Line?5?$AA@ 0045c948     LIBCMTD:dbgrptt.obj
 0002:00007950       ??_C@_0P@DFJNDPOP@?$DMfile?5unknown?$DO?$AA@ 0045c950     LIBCMTD:dbgrptt.obj
 0002:00007960       ??_C@_0CG@BNGLOCEO@Second?5Chance?5Assertion?5Failed?3?5@ 0045c960     LIBCMTD:dbgrptt.obj
 0002:00007988       ??_C@_1FA@JPHJBHEM@?$AA_?$AAi?$AAt?$AAo?$AAa?$AA_?$AAs?$AA?$CI?$AAn?$AAL?$AAi?$AAn?$AAe?$AA?0?$AA?5?$AAs?$AAz?$AAL?$AAi?$AAn?$AAe?$AAM?$AAe?$AAs?$AAs?$AAa?$AAg?$AAe?$AA?0?$AA?5?$AA4?$AA0@ 0045c988     LIBCMTD:dbgrptt.obj
 0002:000079d8       ??_C@_1CA@KHJHLKA@?$AA_?$AAV?$AAC?$AAr?$AAt?$AAD?$AAb?$AAg?$AAR?$AAe?$AAp?$AAo?$AAr?$AAt?$AAA?$AA?$AA@ 0045c9d8     LIBCMTD:dbgrptt.obj
 0002:000079f8       ??_C@_1IE@CPGKIAGP@?$AAw?$AAc?$AAs?$AAt?$AAo?$AAm?$AAb?$AAs?$AA_?$AAs?$AA?$CI?$AA?$CG?$AAr?$AAe?$AAt?$AA?0?$AA?5?$AAs?$AAz?$AAa?$AAO?$AAu?$AAt?$AAM?$AAe?$AAs?$AAs?$AAa?$AAg?$AAe?$AA?0?$AA?5@ 0045c9f8     LIBCMTD:dbgrptt.obj
 0002:00007a7c       ??_C@_0DP@GNPEPHJD@_CrtDbgReport?3?5String?5too?5long?5o@ 0045ca7c     LIBCMTD:dbgrptt.obj
 0002:00007ac0       ??_C@_1MA@LBAMNNOB@?$AAs?$AAt?$AAr?$AAc?$AAp?$AAy?$AA_?$AAs?$AA?$CI?$AAs?$AAz?$AAO?$AAu?$AAt?$AAM?$AAe?$AAs?$AAs?$AAa?$AAg?$AAe?$AA2?$AA?0?$AA?5?$AA4?$AA0?$AA9?$AA6?$AA?0?$AA?5?$AA?$CC?$AA_@ 0045cac0     LIBCMTD:dbgrptt.obj
 0002:00007b80       ??_C@_1JC@EOAPFDLN@?$AAw?$AAc?$AAs?$AAt?$AAo?$AAm?$AAb?$AAs?$AA_?$AAs?$AA?$CI?$AA?$CI?$AA?$CI?$AAv?$AAo?$AAi?$AAd?$AA?5?$AA?$CK?$AA?$CJ?$AA0?$AA?$CJ?$AA?0?$AA?5?$AAs?$AAz?$AAO?$AAu?$AAt?$AAM?$AAe?$AAs@ 0045cb80     LIBCMTD:dbgrptt.obj
 0002:00007c18       ??_C@_1FI@DBAIJPJE@?$AAw?$AAc?$AAs?$AAc?$AAp?$AAy?$AA_?$AAs?$AA?$CI?$AAs?$AAz?$AAO?$AAu?$AAt?$AAM?$AAe?$AAs?$AAs?$AAa?$AAg?$AAe?$AA?0?$AA?5?$AA4?$AA0?$AA9?$AA6?$AA?0?$AA?5?$AAs?$AAz?$AAL@ 0045cc18     LIBCMTD:dbgrptt.obj
 0002:00007c70       ??_C@_1BI@JIDBEPIG@?$AA?$CF?$AAs?$AA?$CI?$AA?$CF?$AAd?$AA?$CJ?$AA?5?$AA?3?$AA?5?$AA?$CF?$AAs?$AA?$AA@ 0045cc70     LIBCMTD:dbgrptt.obj
 0002:00007c88       ??_C@_1EK@PHCBEDKB@?$AAw?$AAc?$AAs?$AAc?$AAa?$AAt?$AA_?$AAs?$AA?$CI?$AAs?$AAz?$AAL?$AAi?$AAn?$AAe?$AAM?$AAe?$AAs?$AAs?$AAa?$AAg?$AAe?$AA?0?$AA?5?$AA4?$AA0?$AA9?$AA6?$AA?0?$AA?5?$AAL?$AA?$CC@ 0045cc88     LIBCMTD:dbgrptt.obj
 0002:00007cd4       ??_C@_13CMNBPIDO@?$AA?$AN?$AA?$AA@ 0045ccd4     LIBCMTD:dbgrptt.obj
 0002:00007cd8       ??_C@_1EK@NMDFGHMF@?$AAw?$AAc?$AAs?$AAc?$AAa?$AAt?$AA_?$AAs?$AA?$CI?$AAs?$AAz?$AAL?$AAi?$AAn?$AAe?$AAM?$AAe?$AAs?$AAs?$AAa?$AAg?$AAe?$AA?0?$AA?5?$AA4?$AA0?$AA9?$AA6?$AA?0?$AA?5?$AAL?$AA?$CC@ 0045ccd8     LIBCMTD:dbgrptt.obj
 0002:00007d28       ??_C@_1FK@HPADHBBD@?$AAw?$AAc?$AAs?$AAc?$AAa?$AAt?$AA_?$AAs?$AA?$CI?$AAs?$AAz?$AAL?$AAi?$AAn?$AAe?$AAM?$AAe?$AAs?$AAs?$AAa?$AAg?$AAe?$AA?0?$AA?5?$AA4?$AA0?$AA9?$AA6?$AA?0?$AA?5?$AAs?$AAz@ 0045cd28     LIBCMTD:dbgrptt.obj
 0002:00007d88       ??_C@_1KO@DGAHENCH@?$AAw?$AAc?$AAs?$AAc?$AAp?$AAy?$AA_?$AAs?$AA?$CI?$AAs?$AAz?$AAL?$AAi?$AAn?$AAe?$AAM?$AAe?$AAs?$AAs?$AAa?$AAg?$AAe?$AA?0?$AA?5?$AA4?$AA0?$AA9?$AA6?$AA?0?$AA?5?$AAs?$AAz@ 0045cd88     LIBCMTD:dbgrptt.obj
 0002:00007e38       ??_C@_1CE@OJBNHDMO@?$AAA?$AAs?$AAs?$AAe?$AAr?$AAt?$AAi?$AAo?$AAn?$AA?5?$AAf?$AAa?$AAi?$AAl?$AAe?$AAd?$AA?$CB?$AA?$AA@ 0045ce38     LIBCMTD:dbgrptt.obj
 0002:00007e5c       ??_C@_1CG@FFFGGODN@?$AAA?$AAs?$AAs?$AAe?$AAr?$AAt?$AAi?$AAo?$AAn?$AA?5?$AAf?$AAa?$AAi?$AAl?$AAe?$AAd?$AA?3?$AA?5?$AA?$AA@ 0045ce5c     LIBCMTD:dbgrptt.obj
 0002:00007e88       ??_C@_1JK@KHFABAEO@?$AAw?$AAc?$AAs?$AAc?$AAp?$AAy?$AA_?$AAs?$AA?$CI?$AAs?$AAz?$AAU?$AAs?$AAe?$AAr?$AAM?$AAe?$AAs?$AAs?$AAa?$AAg?$AAe?$AA?0?$AA?5?$AA4?$AA0?$AA9?$AA6?$AA?0?$AA?5?$AAL?$AA?$CC@ 0045ce88     LIBCMTD:dbgrptt.obj
 0002:00007f24       ??_C@_13LBAGMAIH@?$AA?6?$AA?$AA@ 0045cf24     LIBCMTD:dbgrptt.obj
 0002:00007f28       ??_C@_1BA@ELMMDCFC@?$AA?0?$AA?5?$AAL?$AAi?$AAn?$AAe?$AA?5?$AA?$AA@ 0045cf28     LIBCMTD:dbgrptt.obj
 0002:00007f38       ??_C@_1BO@OCHMLCAG@?$AA?$DM?$AAf?$AAi?$AAl?$AAe?$AA?5?$AAu?$AAn?$AAk?$AAn?$AAo?$AAw?$AAn?$AA?$DO?$AA?$AA@ 0045cf38     LIBCMTD:dbgrptt.obj
 0002:00007f58       ??_C@_1EM@MJFLEDMB@?$AAS?$AAe?$AAc?$AAo?$AAn?$AAd?$AA?5?$AAC?$AAh?$AAa?$AAn?$AAc?$AAe?$AA?5?$AAA?$AAs?$AAs?$AAe?$AAr?$AAt?$AAi?$AAo?$AAn?$AA?5?$AAF?$AAa?$AAi?$AAl?$AAe?$AAd?$AA?3?$AA?5@ 0045cf58     LIBCMTD:dbgrptt.obj
 0002:00007fa8       ??_C@_1FA@CNLLOMHI@?$AA_?$AAi?$AAt?$AAo?$AAw?$AA_?$AAs?$AA?$CI?$AAn?$AAL?$AAi?$AAn?$AAe?$AA?0?$AA?5?$AAs?$AAz?$AAL?$AAi?$AAn?$AAe?$AAM?$AAe?$AAs?$AAs?$AAa?$AAg?$AAe?$AA?0?$AA?5?$AA4?$AA0@ 0045cfa8     LIBCMTD:dbgrptt.obj
 0002:00007ff8       ??_C@_1CA@HPALHDOD@?$AA_?$AAV?$AAC?$AAr?$AAt?$AAD?$AAb?$AAg?$AAR?$AAe?$AAp?$AAo?$AAr?$AAt?$AAW?$AA?$AA@ 0045cff8     LIBCMTD:dbgrptt.obj
 0002:00008018       ??_C@_0P@MIGLKIOC@CorExitProcess?$AA@ 0045d018     LIBCMTD:crt0dat.obj
 0002:00008028       ??_C@_1BI@BGOHAHKC@?$AAm?$AAs?$AAc?$AAo?$AAr?$AAe?$AAe?$AA?4?$AAd?$AAl?$AAl?$AA?$AA@ 0045d028     LIBCMTD:crt0dat.obj
 0002:00008040       ??_C@_1CC@CDIPMFPD@?$AA_?$AAw?$AAp?$AAg?$AAm?$AAp?$AAt?$AAr?$AA?5?$AA?$CB?$AA?$DN?$AA?5?$AAN?$AAU?$AAL?$AAL?$AA?$AA@ 0045d040     LIBCMTD:crt0dat.obj
 0002:00008064       ??_C@_1BK@PNLDCCDP@?$AA_?$AAg?$AAe?$AAt?$AA_?$AAw?$AAp?$AAg?$AAm?$AAp?$AAt?$AAr?$AA?$AA@ 0045d064     LIBCMTD:crt0dat.obj
 0002:00008080       ??_C@_1GC@DGCPEDNJ@?$AAf?$AA?3?$AA?2?$AAd?$AAd?$AA?2?$AAv?$AAc?$AAt?$AAo?$AAo?$AAl?$AAs?$AA?2?$AAc?$AAr?$AAt?$AA_?$AAb?$AAl?$AAd?$AA?2?$AAs?$AAe?$AAl?$AAf?$AA_?$AAx?$AA8?$AA6?$AA?2?$AAc@ 0045d080     LIBCMTD:crt0dat.obj
 0002:000080e4       ??_C@_1CA@BBNAFCKO@?$AA_?$AAp?$AAg?$AAm?$AAp?$AAt?$AAr?$AA?5?$AA?$CB?$AA?$DN?$AA?5?$AAN?$AAU?$AAL?$AAL?$AA?$AA@ 0045d0e4     LIBCMTD:crt0dat.obj
 0002:00008104       ??_C@_1BI@COAAPHJK@?$AA_?$AAg?$AAe?$AAt?$AA_?$AAp?$AAg?$AAm?$AAp?$AAt?$AAr?$AA?$AA@ 0045d104     LIBCMTD:crt0dat.obj
 0002:0000811c       ??_C@_1O@EJLDHPPL@?$AAs?$AAi?$AAg?$AAn?$AAa?$AAl?$AA?$AA@ 0045d11c     LIBCMTD:winsig.obj
 0002:00008130       ??_C@_1GA@DBECNFG@?$AAf?$AA?3?$AA?2?$AAd?$AAd?$AA?2?$AAv?$AAc?$AAt?$AAo?$AAo?$AAl?$AAs?$AA?2?$AAc?$AAr?$AAt?$AA_?$AAb?$AAl?$AAd?$AA?2?$AAs?$AAe?$AAl?$AAf?$AA_?$AAx?$AA8?$AA6?$AA?2?$AAc@ 0045d130     LIBCMTD:winsig.obj
 0002:00008190       ??_C@_1DO@MLNEDKGB@?$AA?$CI?$AA?$CC?$AAI?$AAn?$AAv?$AAa?$AAl?$AAi?$AAd?$AA?5?$AAs?$AAi?$AAg?$AAn?$AAa?$AAl?$AA?5?$AAo?$AAr?$AA?5?$AAe?$AAr?$AAr?$AAo?$AAr?$AA?$CC?$AA?0?$AA?5?$AA0?$AA?$CJ?$AA?$AA@ 0045d190     LIBCMTD:winsig.obj
 0002:000081d0       ??_C@_0DA@ELJOOIJF@f?3?2dd?2vctools?2crt_bld?2self_x86?2c@ 0045d1d0     LIBCMTD:winsig.obj
 0002:00008200       ??_C@_1M@DMJEIKHL@?$AAr?$AAa?$AAi?$AAs?$AAe?$AA?$AA@ 0045d200     LIBCMTD:winsig.obj
 0002:0000820c       ??_C@_0BI@DFKBFLJE@GetProcessWindowStation?$AA@ 0045d20c     LIBCMTD:crtmboxw.obj
 0002:00008224       ??_C@_0BK@DEKFELLI@GetUserObjectInformationW?$AA@ 0045d224     LIBCMTD:crtmboxw.obj
 0002:00008240       ??_C@_0BD@HHGDFDBJ@GetLastActivePopup?$AA@ 0045d240     LIBCMTD:crtmboxw.obj
 0002:00008254       ??_C@_0BA@HNOPNCHB@GetActiveWindow?$AA@ 0045d254     LIBCMTD:crtmboxw.obj
 0002:00008264       ??_C@_0M@DLDCCGNP@MessageBoxW?$AA@ 0045d264     LIBCMTD:crtmboxw.obj
 0002:00008270       ??_C@_1BG@GOEBHBDC@?$AAU?$AAS?$AAE?$AAR?$AA3?$AA2?$AA?4?$AAD?$AAL?$AAL?$AA?$AA@ 0045d270     LIBCMTD:crtmboxw.obj
 0002:00008288       ??_C@_1BC@GKHDJMGB@?$AAm?$AAe?$AAm?$AAc?$AAp?$AAy?$AA_?$AAs?$AA?$AA@ 0045d288     LIBCMTD:memcpy_s.obj
 0002:000082a0       ??_C@_1GE@NEOPGGBM@?$AAf?$AA?3?$AA?2?$AAd?$AAd?$AA?2?$AAv?$AAc?$AAt?$AAo?$AAo?$AAl?$AAs?$AA?2?$AAc?$AAr?$AAt?$AA_?$AAb?$AAl?$AAd?$AA?2?$AAs?$AAe?$AAl?$AAf?$AA_?$AAx?$AA8?$AA6?$AA?2?$AAc@ 0045d2a0     LIBCMTD:memcpy_s.obj
 0002:00008304       ??_C@_1DM@MADKGDLO@?$AA?$CI?$AAL?$AA?$CC?$AAB?$AAu?$AAf?$AAf?$AAe?$AAr?$AA?5?$AAi?$AAs?$AA?5?$AAt?$AAo?$AAo?$AA?5?$AAs?$AAm?$AAa?$AAl?$AAl?$AA?$CC?$AA?5?$AA?$CG?$AA?$CG?$AA?5?$AA0?$AA?$CJ?$AA?$AA@ 0045d304     LIBCMTD:wcscpy_s.obj
 0002:00008340       ??_C@_1CI@HCPHDDLE@?$AAB?$AAu?$AAf?$AAf?$AAe?$AAr?$AA?5?$AAi?$AAs?$AA?5?$AAt?$AAo?$AAo?$AA?5?$AAs?$AAm?$AAa?$AAl?$AAl?$AA?$AA@ 0045d340     LIBCMTD:wcscpy_s.obj
 0002:00008368       ??_C@_1CG@OFBJMIGJ@?$AA?$CI?$AA?$CI?$AA?$CI?$AA_?$AAS?$AAr?$AAc?$AA?$CJ?$AA?$CJ?$AA?$CJ?$AA?5?$AA?$CB?$AA?$DN?$AA?5?$AAN?$AAU?$AAL?$AAL?$AA?$AA@ 0045d368     LIBCMTD:wcscpy_s.obj
 0002:00008390       ??_C@_1BC@KIONAFPO@?$AAw?$AAc?$AAs?$AAc?$AAp?$AAy?$AA_?$AAs?$AA?$AA@ 0045d390     LIBCMTD:wcscpy_s.obj
 0002:000083a8       ??_C@_1GI@BGBNCIMA@?$AAf?$AA?3?$AA?2?$AAd?$AAd?$AA?2?$AAv?$AAc?$AAt?$AAo?$AAo?$AAl?$AAs?$AA?2?$AAc?$AAr?$AAt?$AA_?$AAb?$AAl?$AAd?$AA?2?$AAs?$AAe?$AAl?$AAf?$AA_?$AAx?$AA8?$AA6?$AA?2?$AAc@ 0045d3a8     LIBCMTD:wcscpy_s.obj
 0002:00008410       ??_C@_1FC@PFMLEHKI@?$AA?$CI?$AA?$CI?$AA_?$AAD?$AAs?$AAt?$AA?$CJ?$AA?$CJ?$AA?5?$AA?$CB?$AA?$DN?$AA?5?$AAN?$AAU?$AAL?$AAL?$AA?5?$AA?$CG?$AA?$CG?$AA?5?$AA?$CI?$AA?$CI?$AA_?$AAS?$AAi?$AAz?$AAe?$AAI?$AAn?$AAW?$AAo?$AAr@ 0045d410     LIBCMTD:wcscpy_s.obj
 0002:00008464       ??_C@_1BC@CFJEPFGF@?$AAs?$AAt?$AAr?$AAc?$AAp?$AAy?$AA_?$AAs?$AA?$AA@ 0045d464     LIBCMTD:strcpy_s.obj
 0002:00008478       ??_C@_1FC@NCPEPIBI@?$AA?$CI?$AA?$CI?$AA_?$AAD?$AAs?$AAt?$AA?$CJ?$AA?$CJ?$AA?5?$AA?$CB?$AA?$DN?$AA?5?$AAN?$AAU?$AAL?$AAL?$AA?5?$AA?$CG?$AA?$CG?$AA?5?$AA?$CI?$AA?$CI?$AA_?$AAS?$AAi?$AAz?$AAe?$AAI?$AAn?$AAB?$AAy?$AAt@ 0045d478     LIBCMTD:strcpy_s.obj
 0002:000084cc       ??_C@_03KHICJKCI@?4?4?4?$AA@ 0045d4cc     LIBCMTD:dbgrpt.obj
 0002:000084d0       ??_C@_0BB@NAGLCMLI@Assertion?5Failed?$AA@ 0045d4d0     LIBCMTD:dbgrpt.obj
 0002:000084e4       ??_C@_05NAOIJFC@Error?$AA@ 0045d4e4     LIBCMTD:dbgrpt.obj
 0002:000084ec       ??_C@_07KGMMFLDN@Warning?$AA@ 0045d4ec     LIBCMTD:dbgrpt.obj
 0002:00008500       ??_C@_1CG@GNMJDMIO@?$AA_?$AAC?$AAr?$AAt?$AAS?$AAe?$AAt?$AAR?$AAe?$AAp?$AAo?$AAr?$AAt?$AAH?$AAo?$AAo?$AAk?$AA2?$AA?$AA@ 0045d500     LIBCMTD:dbgrpt.obj
 0002:00008528       ??_C@_0CD@EBCGLDDL@Microsoft?5Visual?5C?$CL?$CL?5Debug?5Libra@ 0045d528     LIBCMTD:dbgrpt.obj
 0002:00008550       ??_C@_0FF@CCONDJCB@Debug?5?$CFs?$CB?6?6Program?3?5?$CFs?$CFs?$CFs?$CFs?$CFs?$CFs@ 0045d550     LIBCMTD:dbgrpt.obj
 0002:000085a8       ??_C@_09OFBFHMBK@?6Module?3?5?$AA@ 0045d5a8     LIBCMTD:dbgrpt.obj
 0002:000085b4       ??_C@_07OPHPPLBG@?6File?3?5?$AA@ 0045d5b4     LIBCMTD:dbgrpt.obj
 0002:000085bc       ??_C@_07DBMPPHDI@?6Line?3?5?$AA@ 0045d5bc     LIBCMTD:dbgrpt.obj
 0002:000085c4       ??_C@_02PHMGELLB@?6?6?$AA@ 0045d5c4     LIBCMTD:dbgrpt.obj
 0002:000085c8       ??_C@_0N@MEECIJGN@Expression?3?5?$AA@ 0045d5c8     LIBCMTD:dbgrpt.obj
 0002:000085d8       ??_C@_0HD@GNBNFCCL@?6?6For?5information?5on?5how?5your?5pr@ 0045d5d8     LIBCMTD:dbgrpt.obj
 0002:0000864c       ??_C@_0BH@DNAGHKFM@?$DMprogram?5name?5unknown?$DO?$AA@ 0045d64c     LIBCMTD:dbgrpt.obj
 0002:00008668       ??_C@_1GG@DLDHOIGE@?$AAs?$AAt?$AAr?$AAc?$AAp?$AAy?$AA_?$AAs?$AA?$CI?$AAs?$AAz?$AAE?$AAx?$AAe?$AAN?$AAa?$AAm?$AAe?$AA?0?$AA?5?$AA2?$AA6?$AA0?$AA?0?$AA?5?$AA?$CC?$AA?$DM?$AAp?$AAr?$AAo?$AAg?$AAr@ 0045d668     LIBCMTD:dbgrpt.obj
 0002:000086d0       ??_C@_1CI@IDOKFLAJ@?$AA_?$AA_?$AAc?$AAr?$AAt?$AAM?$AAe?$AAs?$AAs?$AAa?$AAg?$AAe?$AAW?$AAi?$AAn?$AAd?$AAo?$AAw?$AAA?$AA?$AA@ 0045d6d0     LIBCMTD:dbgrpt.obj
 0002:000086f8       ??_C@_1BK@JMCGJOCC@?$AA_?$AAe?$AAx?$AAp?$AAa?$AAn?$AAd?$AA_?$AAb?$AAa?$AAs?$AAe?$AA?$AA@ 0045d6f8     LIBCMTD:expand.obj
 0002:00008718       ??_C@_1GA@EBHFLDNH@?$AAf?$AA?3?$AA?2?$AAd?$AAd?$AA?2?$AAv?$AAc?$AAt?$AAo?$AAo?$AAl?$AAs?$AA?2?$AAc?$AAr?$AAt?$AA_?$AAb?$AAl?$AAd?$AA?2?$AAs?$AAe?$AAl?$AAf?$AA_?$AAx?$AA8?$AA6?$AA?2?$AAc@ 0045d718     LIBCMTD:expand.obj
 0002:00008778       ??_C@_1BO@KFIJIAEA@?$AAp?$AAB?$AAl?$AAo?$AAc?$AAk?$AA?5?$AA?$CB?$AA?$DN?$AA?5?$AAN?$AAU?$AAL?$AAL?$AA?$AA@ 0045d778     LIBCMTD:expand.obj
 0002:00008798       ??_C@_1GE@JDDMFOID@?$AAf?$AA?3?$AA?2?$AAd?$AAd?$AA?2?$AAv?$AAc?$AAt?$AAo?$AAo?$AAl?$AAs?$AA?2?$AAc?$AAr?$AAt?$AA_?$AAb?$AAl?$AAd?$AA?2?$AAs?$AAe?$AAl?$AAf?$AA_?$AAx?$AA8?$AA6?$AA?2?$AAc@ 0045d798     LIBCMTD:heapinit.obj
 0002:000087fc       ??_C@_1BC@DENNNKIM@?$AA_?$AAc?$AAr?$AAt?$AAh?$AAe?$AAa?$AAp?$AA?$AA@ 0045d7fc     LIBCMTD:heapinit.obj
 0002:00008810       ??_C@_0DB@MHMEONEC@f?3?2dd?2vctools?2crt_bld?2self_x86?2c@ 0045d810     LIBCMTD:mbctype.obj
 0002:00008848       ??_C@_1GE@HMAALBPJ@?$AAf?$AA?3?$AA?2?$AAd?$AAd?$AA?2?$AAv?$AAc?$AAt?$AAo?$AAo?$AAl?$AAs?$AA?2?$AAc?$AAr?$AAt?$AA_?$AAb?$AAl?$AAd?$AA?2?$AAs?$AAe?$AAl?$AAf?$AA_?$AAx?$AA8?$AA6?$AA?2?$AAc@ 0045d848     LIBCMTD:localref.obj
 0002:000088b0       ??_C@_1BKC@GGIENNAK@?$AA?$CI?$AA?$CI?$AAp?$AAt?$AAl?$AAo?$AAc?$AAi?$AA?9?$AA?$DO?$AAl?$AAc?$AA_?$AAc?$AAa?$AAt?$AAe?$AAg?$AAo?$AAr?$AAy?$AA?$FL?$AAc?$AAa?$AAt?$AAe?$AAg?$AAo?$AAr?$AAy?$AA?$FN?$AA?4@ 0045d8b0     LIBCMTD:localref.obj
 0002:00008a54       ??_C@_1BC@GDGBMEMK@?$AAH?$AAH?$AA?3?$AAm?$AAm?$AA?3?$AAs?$AAs?$AA?$AA@ 0045da54     LIBCMTD:nlsdata2.obj
 0002:00008a68       ??_C@_1CI@KNAKOEBC@?$AAd?$AAd?$AAd?$AAd?$AA?0?$AA?5?$AAM?$AAM?$AAM?$AAM?$AA?5?$AAd?$AAd?$AA?0?$AA?5?$AAy?$AAy?$AAy?$AAy?$AA?$AA@ 0045da68     LIBCMTD:nlsdata2.obj
 0002:00008a90       ??_C@_1BC@IEBCMHCM@?$AAM?$AAM?$AA?1?$AAd?$AAd?$AA?1?$AAy?$AAy?$AA?$AA@ 0045da90     LIBCMTD:nlsdata2.obj
 0002:00008aa4       ??_C@_15CLMNNGEL@?$AAP?$AAM?$AA?$AA@ 0045daa4     LIBCMTD:nlsdata2.obj
 0002:00008aac       ??_C@_15ODEHAHHF@?$AAA?$AAM?$AA?$AA@ 0045daac     LIBCMTD:nlsdata2.obj
 0002:00008ab4       ??_C@_1BC@FEMKIFH@?$AAD?$AAe?$AAc?$AAe?$AAm?$AAb?$AAe?$AAr?$AA?$AA@ 0045dab4     LIBCMTD:nlsdata2.obj
 0002:00008ac8       ??_C@_1BC@BGLIFPF@?$AAN?$AAo?$AAv?$AAe?$AAm?$AAb?$AAe?$AAr?$AA?$AA@ 0045dac8     LIBCMTD:nlsdata2.obj
 0002:00008adc       ??_C@_1BA@EPANDLNG@?$AAO?$AAc?$AAt?$AAo?$AAb?$AAe?$AAr?$AA?$AA@ 0045dadc     LIBCMTD:nlsdata2.obj
 0002:00008aec       ??_C@_1BE@DKAAMBJL@?$AAS?$AAe?$AAp?$AAt?$AAe?$AAm?$AAb?$AAe?$AAr?$AA?$AA@ 0045daec     LIBCMTD:nlsdata2.obj
 0002:00008b00       ??_C@_1O@PAHLKOAC@?$AAA?$AAu?$AAg?$AAu?$AAs?$AAt?$AA?$AA@ 0045db00     LIBCMTD:nlsdata2.obj
 0002:00008b10       ??_C@_19BIFMLPCD@?$AAJ?$AAu?$AAl?$AAy?$AA?$AA@ 0045db10     LIBCMTD:nlsdata2.obj
 0002:00008b1c       ??_C@_19EPFLPGAP@?$AAJ?$AAu?$AAn?$AAe?$AA?$AA@ 0045db1c     LIBCMTD:nlsdata2.obj
 0002:00008b28       ??_C@_1M@GJNLMHFD@?$AAA?$AAp?$AAr?$AAi?$AAl?$AA?$AA@ 0045db28     LIBCMTD:nlsdata2.obj
 0002:00008b34       ??_C@_1M@IKEENEDF@?$AAM?$AAa?$AAr?$AAc?$AAh?$AA?$AA@ 0045db34     LIBCMTD:nlsdata2.obj
 0002:00008b40       ??_C@_1BC@JGDDFFAM@?$AAF?$AAe?$AAb?$AAr?$AAu?$AAa?$AAr?$AAy?$AA?$AA@ 0045db40     LIBCMTD:nlsdata2.obj
 0002:00008b54       ??_C@_1BA@EFMEIEBA@?$AAJ?$AAa?$AAn?$AAu?$AAa?$AAr?$AAy?$AA?$AA@ 0045db54     LIBCMTD:nlsdata2.obj
 0002:00008b64       ??_C@_17EGKACKIF@?$AAD?$AAe?$AAc?$AA?$AA@ 0045db64     LIBCMTD:nlsdata2.obj
 0002:00008b6c       ??_C@_17BBDMLCIG@?$AAN?$AAo?$AAv?$AA?$AA@ 0045db6c     LIBCMTD:nlsdata2.obj
 0002:00008b74       ??_C@_17FNLKOI@?$AAO?$AAc?$AAt?$AA?$AA@ 0045db74     LIBCMTD:nlsdata2.obj
 0002:00008b7c       ??_C@_17HCHCOKMG@?$AAS?$AAe?$AAp?$AA?$AA@ 0045db7c     LIBCMTD:nlsdata2.obj
 0002:00008b84       ??_C@_17ICPELBCN@?$AAA?$AAu?$AAg?$AA?$AA@ 0045db84     LIBCMTD:nlsdata2.obj
 0002:00008b8c       ??_C@_17IJPCKHK@?$AAJ?$AAu?$AAl?$AA?$AA@ 0045db8c     LIBCMTD:nlsdata2.obj
 0002:00008b94       ??_C@_17KCJGOCPB@?$AAJ?$AAu?$AAn?$AA?$AA@ 0045db94     LIBCMTD:nlsdata2.obj
 0002:00008b9c       ??_C@_17PNNKMEED@?$AAM?$AAa?$AAy?$AA?$AA@ 0045db9c     LIBCMTD:nlsdata2.obj
 0002:00008ba4       ??_C@_17LFPOIHDD@?$AAA?$AAp?$AAr?$AA?$AA@ 0045dba4     LIBCMTD:nlsdata2.obj
 0002:00008bac       ??_C@_17CKNLEDEC@?$AAM?$AAa?$AAr?$AA?$AA@ 0045dbac     LIBCMTD:nlsdata2.obj
 0002:00008bb4       ??_C@_17LMDJEKJN@?$AAF?$AAe?$AAb?$AA?$AA@ 0045dbb4     LIBCMTD:nlsdata2.obj
 0002:00008bbc       ??_C@_17DKNBKCHM@?$AAJ?$AAa?$AAn?$AA?$AA@ 0045dbbc     LIBCMTD:nlsdata2.obj
 0002:00008bc4       ??_C@_1BC@ENMNNPAJ@?$AAS?$AAa?$AAt?$AAu?$AAr?$AAd?$AAa?$AAy?$AA?$AA@ 0045dbc4     LIBCMTD:nlsdata2.obj
 0002:00008bd8       ??_C@_1O@PDICJHAG@?$AAF?$AAr?$AAi?$AAd?$AAa?$AAy?$AA?$AA@ 0045dbd8     LIBCMTD:nlsdata2.obj
 0002:00008be8       ??_C@_1BC@HHMNLIHE@?$AAT?$AAh?$AAu?$AAr?$AAs?$AAd?$AAa?$AAy?$AA?$AA@ 0045dbe8     LIBCMTD:nlsdata2.obj
 0002:00008bfc       ??_C@_1BE@EBOGMDOH@?$AAW?$AAe?$AAd?$AAn?$AAe?$AAs?$AAd?$AAa?$AAy?$AA?$AA@ 0045dbfc     LIBCMTD:nlsdata2.obj
 0002:00008c10       ??_C@_1BA@ENFBFFEK@?$AAT?$AAu?$AAe?$AAs?$AAd?$AAa?$AAy?$AA?$AA@ 0045dc10     LIBCMTD:nlsdata2.obj
 0002:00008c20       ??_C@_1O@MMNBFLIA@?$AAM?$AAo?$AAn?$AAd?$AAa?$AAy?$AA?$AA@ 0045dc20     LIBCMTD:nlsdata2.obj
 0002:00008c30       ??_C@_1O@IHNHDHPB@?$AAS?$AAu?$AAn?$AAd?$AAa?$AAy?$AA?$AA@ 0045dc30     LIBCMTD:nlsdata2.obj
 0002:00008c40       ??_C@_17GGIBDPIH@?$AAS?$AAa?$AAt?$AA?$AA@ 0045dc40     LIBCMTD:nlsdata2.obj
 0002:00008c48       ??_C@_17HFOLPPLP@?$AAF?$AAr?$AAi?$AA?$AA@ 0045dc48     LIBCMTD:nlsdata2.obj
 0002:00008c50       ??_C@_17PDPHAADD@?$AAT?$AAh?$AAu?$AA?$AA@ 0045dc50     LIBCMTD:nlsdata2.obj
 0002:00008c58       ??_C@_17CJEDCEPE@?$AAW?$AAe?$AAd?$AA?$AA@ 0045dc58     LIBCMTD:nlsdata2.obj
 0002:00008c60       ??_C@_17BMKGEGOJ@?$AAT?$AAu?$AAe?$AA?$AA@ 0045dc60     LIBCMTD:nlsdata2.obj
 0002:00008c68       ??_C@_17KBOMKBF@?$AAM?$AAo?$AAn?$AA?$AA@ 0045dc68     LIBCMTD:nlsdata2.obj
 0002:00008c70       ??_C@_17MBGCMIPB@?$AAS?$AAu?$AAn?$AA?$AA@ 0045dc70     LIBCMTD:nlsdata2.obj
 0002:00008c78       ??_C@_08JCCMCCIL@HH?3mm?3ss?$AA@ 0045dc78     LIBCMTD:nlsdata2.obj
 0002:00008c84       ??_C@_0BE@CKGJFCPC@dddd?0?5MMMM?5dd?0?5yyyy?$AA@ 0045dc84     LIBCMTD:nlsdata2.obj
 0002:00008c98       ??_C@_08BPBNCDIB@MM?1dd?1yy?$AA@ 0045dc98     LIBCMTD:nlsdata2.obj
 0002:00008ca4       ??_C@_02CJNFDJBF@PM?$AA@   0045dca4     LIBCMTD:nlsdata2.obj
 0002:00008ca8       ??_C@_02DEDBPAFC@AM?$AA@   0045dca8     LIBCMTD:nlsdata2.obj
 0002:00008cac       ??_C@_08EDHMEBNP@December?$AA@ 0045dcac     LIBCMTD:nlsdata2.obj
 0002:00008cb8       ??_C@_08HCHEGEOA@November?$AA@ 0045dcb8     LIBCMTD:nlsdata2.obj
 0002:00008cc4       ??_C@_07JJNFCEND@October?$AA@ 0045dcc4     LIBCMTD:nlsdata2.obj
 0002:00008ccc       ??_C@_09BHHEALKD@September?$AA@ 0045dccc     LIBCMTD:nlsdata2.obj
 0002:00008cd8       ??_C@_06LBBHFDDG@August?$AA@ 0045dcd8     LIBCMTD:nlsdata2.obj
 0002:00008ce0       ??_C@_04MIEPOIFP@July?$AA@ 0045dce0     LIBCMTD:nlsdata2.obj
 0002:00008ce8       ??_C@_04CNLMGBGM@June?$AA@ 0045dce8     LIBCMTD:nlsdata2.obj
 0002:00008cf0       ??_C@_05DMJDNLEJ@April?$AA@ 0045dcf0     LIBCMTD:nlsdata2.obj
 0002:00008cf8       ??_C@_05HPCKOFNC@March?$AA@ 0045dcf8     LIBCMTD:nlsdata2.obj
 0002:00008d00       ??_C@_08GNJGEPFN@February?$AA@ 0045dd00     LIBCMTD:nlsdata2.obj
 0002:00008d0c       ??_C@_07CGJPFGJA@January?$AA@ 0045dd0c     LIBCMTD:nlsdata2.obj
 0002:00008d14       ??_C@_03MKABNOCG@Dec?$AA@  0045dd14     LIBCMTD:nlsdata2.obj
 0002:00008d18       ??_C@_03JPJOFNIA@Nov?$AA@  0045dd18     LIBCMTD:nlsdata2.obj
 0002:00008d1c       ??_C@_03BMAOKBAD@Oct?$AA@  0045dd1c     LIBCMTD:nlsdata2.obj
 0002:00008d20       ??_C@_03GGCAPAJC@Sep?$AA@  0045dd20     LIBCMTD:nlsdata2.obj
 0002:00008d24       ??_C@_03IFJFEIGA@Aug?$AA@  0045dd24     LIBCMTD:nlsdata2.obj
 0002:00008d28       ??_C@_03LBGABGKK@Jul?$AA@  0045dd28     LIBCMTD:nlsdata2.obj
 0002:00008d2c       ??_C@_03IDFGHECI@Jun?$AA@  0045dd2c     LIBCMTD:nlsdata2.obj
 0002:00008d30       ??_C@_03CNMDKL@May?$AA@    0045dd30     LIBCMTD:nlsdata2.obj
 0002:00008d34       ??_C@_03LEOLGMJP@Apr?$AA@  0045dd34     LIBCMTD:nlsdata2.obj
 0002:00008d38       ??_C@_03ODNJBKGA@Mar?$AA@  0045dd38     LIBCMTD:nlsdata2.obj
 0002:00008d3c       ??_C@_03HJBDCHOM@Feb?$AA@  0045dd3c     LIBCMTD:nlsdata2.obj
 0002:00008d40       ??_C@_03JIHJHPIE@Jan?$AA@  0045dd40     LIBCMTD:nlsdata2.obj
 0002:00008d44       ??_C@_08INBOOONO@Saturday?$AA@ 0045dd44     LIBCMTD:nlsdata2.obj
 0002:00008d50       ??_C@_06JECMNKMI@Friday?$AA@ 0045dd50     LIBCMTD:nlsdata2.obj
 0002:00008d58       ??_C@_08HACCIKIA@Thursday?$AA@ 0045dd58     LIBCMTD:nlsdata2.obj
 0002:00008d64       ??_C@_09DLIGFAKA@Wednesday?$AA@ 0045dd64     LIBCMTD:nlsdata2.obj
 0002:00008d70       ??_C@_07BAAGCFCM@Tuesday?$AA@ 0045dd70     LIBCMTD:nlsdata2.obj
 0002:00008d78       ??_C@_06JLEDEDGH@Monday?$AA@ 0045dd78     LIBCMTD:nlsdata2.obj
 0002:00008d80       ??_C@_06OOPIFAJ@Sunday?$AA@ 0045dd80     LIBCMTD:nlsdata2.obj
 0002:00008d88       ??_C@_03FEFJNEK@Sat?$AA@   0045dd88     LIBCMTD:nlsdata2.obj
 0002:00008d8c       ??_C@_03IDIOELNC@Fri?$AA@  0045dd8c     LIBCMTD:nlsdata2.obj
 0002:00008d90       ??_C@_03IOFIKPDN@Thu?$AA@  0045dd90     LIBCMTD:nlsdata2.obj
 0002:00008d94       ??_C@_03MHOMLAJA@Wed?$AA@  0045dd94     LIBCMTD:nlsdata2.obj
 0002:00008d98       ??_C@_03NAGEINEP@Tue?$AA@  0045dd98     LIBCMTD:nlsdata2.obj
 0002:00008d9c       ??_C@_03PDAGKDH@Mon?$AA@   0045dd9c     LIBCMTD:nlsdata2.obj
 0002:00008da0       ??_C@_03KOEHGMDN@Sun?$AA@  0045dda0     LIBCMTD:nlsdata2.obj
 0002:00008da8       ??_C@_1GC@CHGJNMHG@?$AAf?$AA?3?$AA?2?$AAd?$AAd?$AA?2?$AAv?$AAc?$AAt?$AAo?$AAo?$AAl?$AAs?$AA?2?$AAc?$AAr?$AAt?$AA_?$AAb?$AAl?$AAd?$AA?2?$AAs?$AAe?$AAl?$AAf?$AA_?$AAx?$AA8?$AA6?$AA?2?$AAc@ 0045dda8     LIBCMTD:isctype.obj
 0002:00008e0c       ??_C@_1DC@BPLPALML@?$AA?$CI?$AAu?$AAn?$AAs?$AAi?$AAg?$AAn?$AAe?$AAd?$AA?$CJ?$AA?$CI?$AAc?$AA?5?$AA?$CL?$AA?5?$AA1?$AA?$CJ?$AA?5?$AA?$DM?$AA?$DN?$AA?5?$AA2?$AA5?$AA6?$AA?$AA@ 0045de0c     LIBCMTD:isctype.obj
 0002:00008e40       ??_C@_1O@CEDCILHN@?$AA?$CI?$AAn?$AAu?$AAl?$AAl?$AA?$CJ?$AA?$AA@ 0045de40     LIBCMTD:output.obj
 0002:00008e50       ??_C@_06OJHGLDPL@?$CInull?$CJ?$AA@ 0045de50     LIBCMTD:output.obj
 0002:00008e58       ___lookuptable             0045de58     LIBCMTD:output.obj
 0002:00008eb4       ??_C@_1CC@IFFHEMNF@?$AA?$CI?$AAc?$AAh?$AA?5?$AA?$CB?$AA?$DN?$AA?5?$AA_?$AAT?$AA?$CI?$AA?8?$AA?2?$AA0?$AA?8?$AA?$CJ?$AA?$CJ?$AA?$AA@ 0045deb4     LIBCMTD:output.obj
 0002:00008ed8       ??_C@_1BAA@ODEGEDCK@?$AA?$CI?$AA?5?$AA?$CI?$AA_?$AAS?$AAt?$AAr?$AAe?$AAa?$AAm?$AA?9?$AA?$DO?$AA_?$AAf?$AAl?$AAa?$AAg?$AA?5?$AA?$CG?$AA?5?$AA_?$AAI?$AAO?$AAS?$AAT?$AAR?$AAG?$AA?$CJ?$AA?5?$AA?$HM?$AA?$HM?$AA?5@ 0045ded8     LIBCMTD:output.obj
 0002:00008fd8       ??_C@_1BE@IONLIDNC@?$AA_?$AAo?$AAu?$AAt?$AAp?$AAu?$AAt?$AA_?$AAl?$AA?$AA@ 0045dfd8     LIBCMTD:output.obj
 0002:00008fec       ??_C@_1BI@IGILPKD@?$AA_?$AAv?$AAs?$AAp?$AAr?$AAi?$AAn?$AAt?$AAf?$AA_?$AAl?$AA?$AA@ 0045dfec     LIBCMTD:vsprintf.obj
 0002:00009008       ??_C@_1GE@DPADKNCG@?$AAf?$AA?3?$AA?2?$AAd?$AAd?$AA?2?$AAv?$AAc?$AAt?$AAo?$AAo?$AAl?$AAs?$AA?2?$AAc?$AAr?$AAt?$AA_?$AAb?$AAl?$AAd?$AA?2?$AAs?$AAe?$AAl?$AAf?$AA_?$AAx?$AA8?$AA6?$AA?2?$AAc@ 0045e008     LIBCMTD:vsprintf.obj
 0002:0000906c       ??_C@_1CE@HMKDJHB@?$AA_?$AAv?$AAs?$AAc?$AAp?$AAr?$AAi?$AAn?$AAt?$AAf?$AA_?$AAh?$AAe?$AAl?$AAp?$AAe?$AAr?$AA?$AA@ 0045e06c     LIBCMTD:vsprintf.obj
 0002:00009090       ??_C@_1CE@PCFPEIFI@?$AA_?$AAv?$AAs?$AAn?$AAp?$AAr?$AAi?$AAn?$AAt?$AAf?$AA_?$AAh?$AAe?$AAl?$AAp?$AAe?$AAr?$AA?$AA@ 0045e090     LIBCMTD:vsnprnc.obj
 0002:000090b8       ??_C@_1EE@OKCKIGFK@?$AAs?$AAt?$AAr?$AAi?$AAn?$AAg?$AA?5?$AA?$CB?$AA?$DN?$AA?5?$AAN?$AAU?$AAL?$AAL?$AA?5?$AA?$CG?$AA?$CG?$AA?5?$AAs?$AAi?$AAz?$AAe?$AAI?$AAn?$AAB?$AAy?$AAt?$AAe?$AAs?$AA?5?$AA?$DO?$AA?5@ 0045e0b8     LIBCMTD:vsnprnc.obj
 0002:000090fc       ??_C@_1BM@BLJALHEF@?$AA_?$AAv?$AAs?$AAp?$AAr?$AAi?$AAn?$AAt?$AAf?$AA_?$AAs?$AA_?$AAl?$AA?$AA@ 0045e0fc     LIBCMTD:vsnprnc.obj
 0002:00009118       ??_C@_1BO@MMPELNIM@?$AA_?$AAv?$AAs?$AAn?$AAp?$AAr?$AAi?$AAn?$AAt?$AAf?$AA_?$AAs?$AA_?$AAl?$AA?$AA@ 0045e118     LIBCMTD:vsnprnc.obj
 0002:00009138       ??_C@_1GE@KOCFNGPB@?$AA_?$AAc?$AAo?$AAn?$AAt?$AAr?$AAo?$AAl?$AAf?$AAp?$AA_?$AAs?$AA?$CI?$AA?$CI?$AA?$CI?$AAv?$AAo?$AAi?$AAd?$AA?5?$AA?$CK?$AA?$CJ?$AA0?$AA?$CJ?$AA?0?$AA?5?$AA0?$AAx?$AA0?$AA0?$AA0?$AA1@ 0045e138     LIBCMTD:fp8.obj
 0002:0000919c       ??_C@_1CK@JMKHCBEI@?$AA_?$AAs?$AAe?$AAt?$AAd?$AAe?$AAf?$AAa?$AAu?$AAl?$AAt?$AAp?$AAr?$AAe?$AAc?$AAi?$AAs?$AAi?$AAo?$AAn?$AA?$AA@ 0045e19c     LIBCMTD:fp8.obj
 0002:000091c8       ??_C@_1GG@PHGJJHBC@?$AAf?$AA?3?$AA?2?$AAd?$AAd?$AA?2?$AAv?$AAc?$AAt?$AAo?$AAo?$AAl?$AAs?$AA?2?$AAc?$AAr?$AAt?$AA_?$AAb?$AAl?$AAd?$AA?2?$AAs?$AAe?$AAl?$AAf?$AA_?$AAx?$AA8?$AA6?$AA?2?$AAc@ 0045e1c8     LIBCMTD:fp8.obj
 0002:00009230       ??_C@_1CA@CBMNPEO@?$AAs?$AAi?$AAz?$AAe?$AAI?$AAn?$AAB?$AAy?$AAt?$AAe?$AAs?$AA?5?$AA?$DO?$AA?5?$AA0?$AA?$AA@ 0045e230     LIBCMTD:cvt.obj
 0002:00009250       ??_C@_1BC@INKAPMHI@?$AA_?$AAc?$AAf?$AAt?$AAo?$AAe?$AA_?$AAl?$AA?$AA@ 0045e250     LIBCMTD:cvt.obj
 0002:00009268       ??_C@_1GO@NCCGBNKI@?$AAf?$AA?3?$AA?2?$AAd?$AAd?$AA?2?$AAv?$AAc?$AAt?$AAo?$AAo?$AAl?$AAs?$AA?2?$AAc?$AAr?$AAt?$AA_?$AAb?$AAl?$AAd?$AA?2?$AAs?$AAe?$AAl?$AAf?$AA_?$AAx?$AA8?$AA6?$AA?2?$AAc@ 0045e268     LIBCMTD:cvt.obj
 0002:000092d8       ??_C@_05KLBDPFGC@e?$CL000?$AA@ 0045e2d8     LIBCMTD:cvt.obj
 0002:000092e0       ??_C@_1LE@EOIFGNCJ@?$AAs?$AAt?$AAr?$AAc?$AAp?$AAy?$AA_?$AAs?$AA?$CI?$AAp?$AA?0?$AA?5?$AA?$CI?$AAs?$AAi?$AAz?$AAe?$AAI?$AAn?$AAB?$AAy?$AAt?$AAe?$AAs?$AA?5?$AA?$DN?$AA?$DN?$AA?5?$AA?$CI?$AAs?$AAi?$AAz@ 0045e2e0     LIBCMTD:cvt.obj
 0002:00009398       ??_C@_1HE@NACBNDPP@?$AAs?$AAi?$AAz?$AAe?$AAI?$AAn?$AAB?$AAy?$AAt?$AAe?$AAs?$AA?5?$AA?$DO?$AA?5?$AA?$CI?$AAs?$AAi?$AAz?$AAe?$AA_?$AAt?$AA?$CJ?$AA?$CI?$AA3?$AA?5?$AA?$CL?$AA?5?$AA?$CI?$AAn?$AAd?$AAe?$AAc@ 0045e398     LIBCMTD:cvt.obj
 0002:0000940c       ??_C@_1BE@OLBNEILL@?$AA_?$AAc?$AAf?$AAt?$AAo?$AAe?$AA2?$AA_?$AAl?$AA?$AA@ 0045e40c     LIBCMTD:cvt.obj
 0002:00009420       ??_C@_1FC@IKIMAMJB@?$AAs?$AAi?$AAz?$AAe?$AAI?$AAn?$AAB?$AAy?$AAt?$AAe?$AAs?$AA?5?$AA?$DO?$AA?5?$AA?$CI?$AAs?$AAi?$AAz?$AAe?$AA_?$AAt?$AA?$CJ?$AA?$CI?$AA1?$AA?5?$AA?$CL?$AA?5?$AA4?$AA?5?$AA?$CL?$AA?5?$AAn@ 0045e420     LIBCMTD:cvt.obj
 0002:00009474       ??_C@_1BC@JOKPCIC@?$AA_?$AAc?$AAf?$AAt?$AAo?$AAa?$AA_?$AAl?$AA?$AA@ 0045e474     LIBCMTD:cvt.obj
 0002:00009488       ??_C@_1BC@DCPPLJL@?$AA_?$AAc?$AAf?$AAt?$AAo?$AAf?$AA_?$AAl?$AA?$AA@ 0045e488     LIBCMTD:cvt.obj
 0002:0000949c       ??_C@_1BE@CKPDLI@?$AA_?$AAc?$AAf?$AAt?$AAo?$AAf?$AA2?$AA_?$AAl?$AA?$AA@ 0045e49c     LIBCMTD:cvt.obj
 0002:000094b0       ??_C@_1BC@MPIFPLAF@?$AA_?$AAc?$AAf?$AAt?$AAo?$AAg?$AA_?$AAl?$AA?$AA@ 0045e4b0     LIBCMTD:cvt.obj
 0002:000094c8       __XcptActTab               0045e4c8     LIBCMTD:winxfltr.obj
 0002:00009558       __First_FPE_Indx           0045e558     LIBCMTD:winxfltr.obj
 0002:0000955c       __Num_FPE                  0045e55c     LIBCMTD:winxfltr.obj
 0002:00009560       __XcptActTabSize           0045e560     LIBCMTD:winxfltr.obj
 0002:00009564       __XcptActTabCount          0045e564     LIBCMTD:winxfltr.obj
 0002:00009568       ??_C@_1DE@MMOGFGHF@?$AAs?$AAt?$AAr?$AAc?$AAp?$AAy?$AA_?$AAs?$AA?$CI?$AA?$CK?$AAe?$AAn?$AAv?$AA?0?$AA?5?$AAc?$AAc?$AAh?$AAa?$AAr?$AAs?$AA?0?$AA?5?$AAp?$AA?$CJ?$AA?$AA@ 0045e568     LIBCMTD:stdenvp.obj
 0002:0000959c       ??_C@_1BC@GHMCNHHL@?$AA_?$AAs?$AAe?$AAt?$AAe?$AAn?$AAv?$AAp?$AA?$AA@ 0045e59c     LIBCMTD:stdenvp.obj
 0002:000095b0       ??_C@_1GC@DGBFLDBN@?$AAf?$AA?3?$AA?2?$AAd?$AAd?$AA?2?$AAv?$AAc?$AAt?$AAo?$AAo?$AAl?$AAs?$AA?2?$AAc?$AAr?$AAt?$AA_?$AAb?$AAl?$AAd?$AA?2?$AAs?$AAe?$AAl?$AAf?$AA_?$AAx?$AA8?$AA6?$AA?2?$AAc@ 0045e5b0     LIBCMTD:stdenvp.obj
 0002:00009614       ??_C@_0DB@BMEBJJKP@f?3?2dd?2vctools?2crt_bld?2self_x86?2c@ 0045e614     LIBCMTD:stdenvp.obj
 0002:00009648       ??_C@_0DB@OEPBJOLC@f?3?2dd?2vctools?2crt_bld?2self_x86?2c@ 0045e648     LIBCMTD:stdargv.obj
 0002:0000967c       ??_C@_0CP@PPLBCJDN@f?3?2dd?2vctools?2crt_bld?2self_x86?2c@ 0045e67c     LIBCMTD:a_env.obj
 0002:000096ac       ??_C@_0DA@NBLAKPEL@f?3?2dd?2vctools?2crt_bld?2self_x86?2c@ 0045e6ac     LIBCMTD:ioinit.obj
 0002:000096dc       ??_C@_0BG@KLEAJEFJ@Illegal?5byte?5sequence?$AA@ 0045e6dc     LIBCMTD:syserr.obj
 0002:000096f4       ??_C@_0BE@ICMCHPHH@Directory?5not?5empty?$AA@ 0045e6f4     LIBCMTD:syserr.obj
 0002:00009708       ??_C@_0BJ@IHEHINLI@Function?5not?5implemented?$AA@ 0045e708     LIBCMTD:syserr.obj
 0002:00009724       ??_C@_0BD@CLHBCGPB@No?5locks?5available?$AA@ 0045e724     LIBCMTD:syserr.obj
 0002:00009738       ??_C@_0BC@BEDIHIDK@Filename?5too?5long?$AA@ 0045e738     LIBCMTD:syserr.obj
 0002:0000974c       ??_C@_0BK@JAEBMJJM@Resource?5deadlock?5avoided?$AA@ 0045e74c     LIBCMTD:syserr.obj
 0002:00009768       ??_C@_0BB@FCBJFCAJ@Result?5too?5large?$AA@ 0045e768     LIBCMTD:syserr.obj
 0002:0000977c       ??_C@_0N@MMJPGLJK@Domain?5error?$AA@ 0045e77c     LIBCMTD:syserr.obj
 0002:0000978c       ??_C@_0M@LHEPIIOM@Broken?5pipe?$AA@ 0045e78c     LIBCMTD:syserr.obj
 0002:00009798       ??_C@_0P@PKCJJLLM@Too?5many?5links?$AA@ 0045e798     LIBCMTD:syserr.obj
 0002:000097a8       ??_C@_0BG@DDBFNKBH@Read?9only?5file?5system?$AA@ 0045e7a8     LIBCMTD:syserr.obj
 0002:000097c0       ??_C@_0N@FEHLOILP@Invalid?5seek?$AA@ 0045e7c0     LIBCMTD:syserr.obj
 0002:000097d0       ??_C@_0BI@FEALHKLD@No?5space?5left?5on?5device?$AA@ 0045e7d0     LIBCMTD:syserr.obj
 0002:000097e8       ??_C@_0P@LFMMIPAE@File?5too?5large?$AA@ 0045e7e8     LIBCMTD:syserr.obj
 0002:000097f8       ??_C@_0CE@ONOKNLPF@Inappropriate?5I?1O?5control?5operat@ 0045e7f8     LIBCMTD:syserr.obj
 0002:0000981c       ??_C@_0BE@INBJMKGG@Too?5many?5open?5files?$AA@ 0045e81c     LIBCMTD:syserr.obj
 0002:00009830       ??_C@_0BO@IIFBODJE@Too?5many?5open?5files?5in?5system?$AA@ 0045e830     LIBCMTD:syserr.obj
 0002:00009850       ??_C@_0BB@HMGGCEBG@Invalid?5argument?$AA@ 0045e850     LIBCMTD:syserr.obj
 0002:00009864       ??_C@_0P@NDHGCGKE@Is?5a?5directory?$AA@ 0045e864     LIBCMTD:syserr.obj
 0002:00009874       ??_C@_0BA@CJBACOOL@Not?5a?5directory?$AA@ 0045e874     LIBCMTD:syserr.obj
 0002:00009884       ??_C@_0P@NLEIANHE@No?5such?5device?$AA@ 0045e884     LIBCMTD:syserr.obj
 0002:00009894       ??_C@_0O@OAMDNOCP@Improper?5link?$AA@ 0045e894     LIBCMTD:syserr.obj
 0002:000098a4       ??_C@_0M@NAAJNNGH@File?5exists?$AA@ 0045e8a4     LIBCMTD:syserr.obj
 0002:000098b0       ??_C@_0BA@BIBLIOEK@Resource?5device?$AA@ 0045e8b0     LIBCMTD:syserr.obj
 0002:000098c0       ??_C@_0O@NIPGCINC@Unknown?5error?$AA@ 0045e8c0     LIBCMTD:syserr.obj
 0002:000098d0       ??_C@_0M@LOEHLCJD@Bad?5address?$AA@ 0045e8d0     LIBCMTD:syserr.obj
 0002:000098dc       ??_C@_0BC@HFNFNKAI@Permission?5denied?$AA@ 0045e8dc     LIBCMTD:syserr.obj
 0002:000098f0       ??_C@_0BB@IMDKMPFB@Not?5enough?5space?$AA@ 0045e8f0     LIBCMTD:syserr.obj
 0002:00009904       ??_C@_0CB@EPFKGNAK@Resource?5temporarily?5unavailable@ 0045e904     LIBCMTD:syserr.obj
 0002:00009928       ??_C@_0BD@LOHELEP@No?5child?5processes?$AA@ 0045e928     LIBCMTD:syserr.obj
 0002:0000993c       ??_C@_0BE@NFGDDCEF@Bad?5file?5descriptor?$AA@ 0045e93c     LIBCMTD:syserr.obj
 0002:00009950       ??_C@_0BC@HKPNECK@Exec?5format?5error?$AA@ 0045e950     LIBCMTD:syserr.obj
 0002:00009964       ??_C@_0BC@MFFGCDFL@Arg?5list?5too?5long?$AA@ 0045e964     LIBCMTD:syserr.obj
 0002:00009978       ??_C@_0BK@DPKMCKJ@No?5such?5device?5or?5address?$AA@ 0045e978     LIBCMTD:syserr.obj
 0002:00009994       ??_C@_0BD@KKNFOBBD@Input?1output?5error?$AA@ 0045e994     LIBCMTD:syserr.obj
 0002:000099a8       ??_C@_0BK@FJBOAFDK@Interrupted?5function?5call?$AA@ 0045e9a8     LIBCMTD:syserr.obj
 0002:000099c4       ??_C@_0BA@FKIAIBGA@No?5such?5process?$AA@ 0045e9c4     LIBCMTD:syserr.obj
 0002:000099d4       ??_C@_0BK@FMDHKPNF@No?5such?5file?5or?5directory?$AA@ 0045e9d4     LIBCMTD:syserr.obj
 0002:000099f0       ??_C@_0BI@BJFCGOHL@Operation?5not?5permitted?$AA@ 0045e9f0     LIBCMTD:syserr.obj
 0002:00009a08       ??_C@_08INEPGKHH@No?5error?$AA@ 0045ea08     LIBCMTD:syserr.obj
 0002:00009a14       ??_C@_1BE@NDMJHJJG@?$AAs?$AAt?$AAr?$AAn?$AAc?$AAp?$AAy?$AA_?$AAs?$AA?$AA@ 0045ea14     LIBCMTD:strncpy_s.obj
 0002:00009a28       ??_C@_1GK@PAJJBKJF@?$AAf?$AA?3?$AA?2?$AAd?$AAd?$AA?2?$AAv?$AAc?$AAt?$AAo?$AAo?$AAl?$AAs?$AA?2?$AAc?$AAr?$AAt?$AA_?$AAb?$AAl?$AAd?$AA?2?$AAs?$AAe?$AAl?$AAf?$AA_?$AAx?$AA8?$AA6?$AA?2?$AAc@ 0045ea28     LIBCMTD:strncpy_s.obj
 0002:00009a98       ??_C@_1GE@GJCMHHMH@?$AAf?$AA?3?$AA?2?$AAd?$AAd?$AA?2?$AAv?$AAc?$AAt?$AAo?$AAo?$AAl?$AAs?$AA?2?$AAc?$AAr?$AAt?$AA_?$AAb?$AAl?$AAd?$AA?2?$AAs?$AAe?$AAl?$AAf?$AA_?$AAx?$AA8?$AA6?$AA?2?$AAc@ 0045ea98     LIBCMTD:inittime.obj
 0002:00009b00       ??_C@_1EE@FDHCFDHN@?$AAp?$AAl?$AAo?$AAc?$AAi?$AA?9?$AA?$DO?$AAl?$AAc?$AA_?$AAt?$AAi?$AAm?$AAe?$AA_?$AAc?$AAu?$AAr?$AAr?$AA?9?$AA?$DO?$AAr?$AAe?$AAf?$AAc?$AAo?$AAu?$AAn?$AAt?$AA?5?$AA?$DO?$AA?5@ 0045eb00     LIBCMTD:inittime.obj
 0002:00009b44       ??_C@_0DC@KICHHNFK@f?3?2dd?2vctools?2crt_bld?2self_x86?2c@ 0045eb44     LIBCMTD:inittime.obj
 0002:00009b78       ??_C@_1GC@EDJOCBCL@?$AAf?$AA?3?$AA?2?$AAd?$AAd?$AA?2?$AAv?$AAc?$AAt?$AAo?$AAo?$AAl?$AAs?$AA?2?$AAc?$AAr?$AAt?$AA_?$AAb?$AAl?$AAd?$AA?2?$AAs?$AAe?$AAl?$AAf?$AA_?$AAx?$AA8?$AA6?$AA?2?$AAc@ 0045eb78     LIBCMTD:initnum.obj
 0002:00009bdc       ??_C@_1DM@IFKAINNE@?$AAp?$AAl?$AAo?$AAc?$AAi?$AA?9?$AA?$DO?$AAl?$AAc?$AAo?$AAn?$AAv?$AA_?$AAn?$AAu?$AAm?$AA_?$AAr?$AAe?$AAf?$AAc?$AAo?$AAu?$AAn?$AAt?$AA?5?$AA?$DO?$AA?5?$AA0?$AA?$AA@ 0045ebdc     LIBCMTD:initnum.obj
 0002:00009c18       ??_C@_0DB@KKFMDHFI@f?3?2dd?2vctools?2crt_bld?2self_x86?2c@ 0045ec18     LIBCMTD:initnum.obj
 0002:00009c50       ??_C@_1GC@IKADOFBJ@?$AAf?$AA?3?$AA?2?$AAd?$AAd?$AA?2?$AAv?$AAc?$AAt?$AAo?$AAo?$AAl?$AAs?$AA?2?$AAc?$AAr?$AAt?$AA_?$AAb?$AAl?$AAd?$AA?2?$AAs?$AAe?$AAl?$AAf?$AA_?$AAx?$AA8?$AA6?$AA?2?$AAc@ 0045ec50     LIBCMTD:initmon.obj
 0002:00009cb4       ??_C@_1DM@GKAPAMDO@?$AAp?$AAl?$AAo?$AAc?$AAi?$AA?9?$AA?$DO?$AAl?$AAc?$AAo?$AAn?$AAv?$AA_?$AAm?$AAo?$AAn?$AA_?$AAr?$AAe?$AAf?$AAc?$AAo?$AAu?$AAn?$AAt?$AA?5?$AA?$DO?$AA?5?$AA0?$AA?$AA@ 0045ecb4     LIBCMTD:initmon.obj
 0002:00009cf0       ??_C@_0DB@BECNGFDL@f?3?2dd?2vctools?2crt_bld?2self_x86?2c@ 0045ecf0     LIBCMTD:initmon.obj
 0002:00009d28       ??_C@_1FA@MJKDNFFB@?$AA?$CI?$AAL?$AA?$CC?$AAS?$AAt?$AAr?$AAi?$AAn?$AAg?$AA?5?$AAi?$AAs?$AA?5?$AAn?$AAo?$AAt?$AA?5?$AAn?$AAu?$AAl?$AAl?$AA?5?$AAt?$AAe?$AAr?$AAm?$AAi?$AAn?$AAa?$AAt?$AAe?$AAd@ 0045ed28     LIBCMTD:strcat_s.obj
 0002:00009d78       ??_C@_1DM@FHLMIEG@?$AAS?$AAt?$AAr?$AAi?$AAn?$AAg?$AA?5?$AAi?$AAs?$AA?5?$AAn?$AAo?$AAt?$AA?5?$AAn?$AAu?$AAl?$AAl?$AA?5?$AAt?$AAe?$AAr?$AAm?$AAi?$AAn?$AAa?$AAt?$AAe?$AAd?$AA?$AA@ 0045ed78     LIBCMTD:strcat_s.obj
 0002:00009db4       ??_C@_1BC@HGPNAKGC@?$AAs?$AAt?$AAr?$AAc?$AAa?$AAt?$AA_?$AAs?$AA?$AA@ 0045edb4     LIBCMTD:strcat_s.obj
 0002:00009dc8       ??_C@_1GI@NOKGIAGA@?$AAf?$AA?3?$AA?2?$AAd?$AAd?$AA?2?$AAv?$AAc?$AAt?$AAo?$AAo?$AAl?$AAs?$AA?2?$AAc?$AAr?$AAt?$AA_?$AAb?$AAl?$AAd?$AA?2?$AAs?$AAe?$AAl?$AAf?$AA_?$AAx?$AA8?$AA6?$AA?2?$AAc@ 0045edc8     LIBCMTD:strcat_s.obj
 0002:00009e30       ??_C@_0O@FMJNFNKE@united?9states?$AA@ 0045ee30     LIBCMTD:getqloc.obj
 0002:00009e40       ??_C@_0P@NDHFFKCA@united?9kingdom?$AA@ 0045ee40     LIBCMTD:getqloc.obj
 0002:00009e50       ??_C@_0BC@HHDADLGF@trinidad?5?$CG?5tobago?$AA@ 0045ee50     LIBCMTD:getqloc.obj
 0002:00009e64       ??_C@_0M@IOAEBDAC@south?9korea?$AA@ 0045ee64     LIBCMTD:getqloc.obj
 0002:00009e70       ??_C@_0N@FIELFKIJ@south?9africa?$AA@ 0045ee70     LIBCMTD:getqloc.obj
 0002:00009e80       ??_C@_0M@OPNDHCMC@south?5korea?$AA@ 0045ee80     LIBCMTD:getqloc.obj
 0002:00009e8c       ??_C@_0N@MDEOEPFI@south?5africa?$AA@ 0045ee8c     LIBCMTD:getqloc.obj
 0002:00009e9c       ??_C@_06FKAPCJLB@slovak?$AA@ 0045ee9c     LIBCMTD:getqloc.obj
 0002:00009ea4       ??_C@_0M@EFJANOAL@puerto?9rico?$AA@ 0045eea4     LIBCMTD:getqloc.obj
 0002:00009eb0       ??_C@_08PGOJKDAI@pr?9china?$AA@ 0045eeb0     LIBCMTD:getqloc.obj
 0002:00009ebc       ??_C@_08JHDOMCMI@pr?5china?$AA@ 0045eebc     LIBCMTD:getqloc.obj
 0002:00009ec8       ??_C@_02JHCHFBLL@nz?$AA@   0045eec8     LIBCMTD:getqloc.obj
 0002:00009ecc       ??_C@_0M@LINHDHKP@new?9zealand?$AA@ 0045eecc     LIBCMTD:getqloc.obj
 0002:00009ed8       ??_C@_09IIIPPBDB@hong?9kong?$AA@ 0045eed8     LIBCMTD:getqloc.obj
 0002:00009ee4       ??_C@_07HJLCKBG@holland?$AA@ 0045eee4     LIBCMTD:getqloc.obj
 0002:00009eec       ??_C@_0O@LEHGMHAG@great?5britain?$AA@ 0045eeec     LIBCMTD:getqloc.obj
 0002:00009efc       ??_C@_07FACOMELA@england?$AA@ 0045eefc     LIBCMTD:getqloc.obj
 0002:00009f04       ??_C@_05JIHCEICB@czech?$AA@ 0045ef04     LIBCMTD:getqloc.obj
 0002:00009f0c       ??_C@_05BBJOBLGB@china?$AA@ 0045ef0c     LIBCMTD:getqloc.obj
 0002:00009f14       ??_C@_07GPKPHICP@britain?$AA@ 0045ef14     LIBCMTD:getqloc.obj
 0002:00009f1c       ??_C@_07MHIPBHMG@america?$AA@ 0045ef1c     LIBCMTD:getqloc.obj
 0002:00009f24       ??_C@_03KIALPMKC@usa?$AA@  0045ef24     LIBCMTD:getqloc.obj
 0002:00009f28       ??_C@_02FGJGKGGD@us?$AA@   0045ef28     LIBCMTD:getqloc.obj
 0002:00009f2c       ??_C@_02NEINDODK@uk?$AA@   0045ef2c     LIBCMTD:getqloc.obj
 0002:00009f30       ??_C@_05JMPCFJFJ@swiss?$AA@ 0045ef30     LIBCMTD:getqloc.obj
 0002:00009f38       ??_C@_0BA@HLOCPIOD@swedish?9finland?$AA@ 0045ef38     LIBCMTD:getqloc.obj
 0002:00009f48       ??_C@_0BC@PKCNIABK@spanish?9venezuela?$AA@ 0045ef48     LIBCMTD:getqloc.obj
 0002:00009f5c       ??_C@_0BA@GBHHMIJI@spanish?9uruguay?$AA@ 0045ef5c     LIBCMTD:getqloc.obj
 0002:00009f6c       ??_C@_0BE@BHDOHPMC@spanish?9puerto?5rico?$AA@ 0045ef6c     LIBCMTD:getqloc.obj
 0002:00009f80       ??_C@_0N@KMOIDGGN@spanish?9peru?$AA@ 0045ef80     LIBCMTD:getqloc.obj
 0002:00009f90       ??_C@_0BB@HMHLPGPH@spanish?9paraguay?$AA@ 0045ef90     LIBCMTD:getqloc.obj
 0002:00009fa4       ??_C@_0P@MCPKNGFD@spanish?9panama?$AA@ 0045efa4     LIBCMTD:getqloc.obj
 0002:00009fb4       ??_C@_0BC@IHOHGAIL@spanish?9nicaragua?$AA@ 0045efb4     LIBCMTD:getqloc.obj
 0002:00009fc8       ??_C@_0P@KLMJDNFJ@spanish?9modern?$AA@ 0045efc8     LIBCMTD:getqloc.obj
 0002:00009fd8       ??_C@_0BA@BPAPGBCM@spanish?9mexican?$AA@ 0045efd8     LIBCMTD:getqloc.obj
 0002:00009fe8       ??_C@_0BB@PDECHHHE@spanish?9honduras?$AA@ 0045efe8     LIBCMTD:getqloc.obj
 0002:00009ffc       ??_C@_0BC@KLHKFGDB@spanish?9guatemala?$AA@ 0045effc     LIBCMTD:getqloc.obj
 0002:0000a010       ??_C@_0BE@MFOOKJAI@spanish?9el?5salvador?$AA@ 0045f010     LIBCMTD:getqloc.obj
 0002:0000a024       ??_C@_0BA@FCOKFPFC@spanish?9ecuador?$AA@ 0045f024     LIBCMTD:getqloc.obj
 0002:0000a034       ??_C@_0BL@PLMGIMOO@spanish?9dominican?5republic?$AA@ 0045f034     LIBCMTD:getqloc.obj
 0002:0000a050       ??_C@_0BD@HLGDNMHB@spanish?9costa?5rica?$AA@ 0045f050     LIBCMTD:getqloc.obj
 0002:0000a064       ??_C@_0BB@PKCBKCPE@spanish?9colombia?$AA@ 0045f064     LIBCMTD:getqloc.obj
 0002:0000a078       ??_C@_0O@MCBIJGNE@spanish?9chile?$AA@ 0045f078     LIBCMTD:getqloc.obj
 0002:0000a088       ??_C@_0BA@BEFEIGJJ@spanish?9bolivia?$AA@ 0045f088     LIBCMTD:getqloc.obj
 0002:0000a098       ??_C@_0BC@EMECMPD@spanish?9argentina?$AA@ 0045f098     LIBCMTD:getqloc.obj
 0002:0000a0ac       ??_C@_0BF@EALFLENP@portuguese?9brazilian?$AA@ 0045f0ac     LIBCMTD:getqloc.obj
 0002:0000a0c4       ??_C@_0BC@HBLEBLNN@norwegian?9nynorsk?$AA@ 0045f0c4     LIBCMTD:getqloc.obj
 0002:0000a0d8       ??_C@_0BB@HMACDDCK@norwegian?9bokmal?$AA@ 0045f0d8     LIBCMTD:getqloc.obj
 0002:0000a0ec       ??_C@_09BAFFPPHE@norwegian?$AA@ 0045f0ec     LIBCMTD:getqloc.obj
 0002:0000a0f8       ??_C@_0O@EAJFJDFG@italian?9swiss?$AA@ 0045f0f8     LIBCMTD:getqloc.obj
 0002:0000a108       ??_C@_0O@CNOMPGD@irish?9english?$AA@ 0045f108     LIBCMTD:getqloc.obj
 0002:0000a118       ??_C@_0N@EDHBGCKG@german?9swiss?$AA@ 0045f118     LIBCMTD:getqloc.obj
 0002:0000a128       ??_C@_0BC@JACMHNBP@german?9luxembourg?$AA@ 0045f128     LIBCMTD:getqloc.obj
 0002:0000a13c       ??_C@_0BE@HBGMGFEG@german?9lichtenstein?$AA@ 0045f13c     LIBCMTD:getqloc.obj
 0002:0000a150       ??_C@_0BA@HKKBIBKL@german?9austrian?$AA@ 0045f150     LIBCMTD:getqloc.obj
 0002:0000a160       ??_C@_0N@GCAEPEBK@french?9swiss?$AA@ 0045f160     LIBCMTD:getqloc.obj
 0002:0000a170       ??_C@_0BC@DJFJJCK@french?9luxembourg?$AA@ 0045f170     LIBCMTD:getqloc.obj
 0002:0000a184       ??_C@_0BA@NNCEDFIC@french?9canadian?$AA@ 0045f184     LIBCMTD:getqloc.obj
 0002:0000a194       ??_C@_0P@CMPOCLM@french?9belgian?$AA@ 0045f194     LIBCMTD:getqloc.obj
 0002:0000a1a4       ??_C@_0M@GHHDJOK@english?9usa?$AA@ 0045f1a4     LIBCMTD:getqloc.obj
 0002:0000a1b0       ??_C@_0L@PLDJKEIL@english?9us?$AA@ 0045f1b0     LIBCMTD:getqloc.obj
 0002:0000a1bc       ??_C@_0L@HJCCDMNC@english?9uk?$AA@ 0045f1bc     LIBCMTD:getqloc.obj
 0002:0000a1c8       ??_C@_0BK@CKLIAGJB@english?9trinidad?5y?5tobago?$AA@ 0045f1c8     LIBCMTD:getqloc.obj
 0002:0000a1e4       ??_C@_0BF@JMJMGNNF@english?9south?5africa?$AA@ 0045f1e4     LIBCMTD:getqloc.obj
 0002:0000a1fc       ??_C@_0L@DKIIFDFD@english?9nz?$AA@ 0045f1fc     LIBCMTD:getqloc.obj
 0002:0000a208       ??_C@_0BA@ONHGJCLH@english?9jamaica?$AA@ 0045f208     LIBCMTD:getqloc.obj
 0002:0000a218       ??_C@_0M@HJBGHOPO@english?9ire?$AA@ 0045f218     LIBCMTD:getqloc.obj
 0002:0000a224       ??_C@_0BC@LFEKMIFB@english?9caribbean?$AA@ 0045f224     LIBCMTD:getqloc.obj
 0002:0000a238       ??_C@_0M@OLDPFKHI@english?9can?$AA@ 0045f238     LIBCMTD:getqloc.obj
 0002:0000a244       ??_C@_0P@OMDEHBMP@english?9belize?$AA@ 0045f244     LIBCMTD:getqloc.obj
 0002:0000a254       ??_C@_0M@KFHFPFED@english?9aus?$AA@ 0045f254     LIBCMTD:getqloc.obj
 0002:0000a260       ??_C@_0BB@MNMBKDFE@english?9american?$AA@ 0045f260     LIBCMTD:getqloc.obj
 0002:0000a274       ??_C@_0O@KIDLNNBA@dutch?9belgian?$AA@ 0045f274     LIBCMTD:getqloc.obj
 0002:0000a284       ??_C@_0BE@JBKABBMH@chinese?9traditional?$AA@ 0045f284     LIBCMTD:getqloc.obj
 0002:0000a298       ??_C@_0BC@MJJMPKCG@chinese?9singapore?$AA@ 0045f298     LIBCMTD:getqloc.obj
 0002:0000a2ac       ??_C@_0BD@FDKADDCP@chinese?9simplified?$AA@ 0045f2ac     LIBCMTD:getqloc.obj
 0002:0000a2c0       ??_C@_0BB@DBEFDDME@chinese?9hongkong?$AA@ 0045f2c0     LIBCMTD:getqloc.obj
 0002:0000a2d4       ??_C@_07DHNMFMCI@chinese?$AA@ 0045f2d4     LIBCMTD:getqloc.obj
 0002:0000a2dc       ??_C@_03FNDDCHI@chi?$AA@   0045f2dc     LIBCMTD:getqloc.obj
 0002:0000a2e0       ??_C@_03BMMIADDJ@chh?$AA@  0045f2e0     LIBCMTD:getqloc.obj
 0002:0000a2e4       ??_C@_08OAIPJDGI@canadian?$AA@ 0045f2e4     LIBCMTD:getqloc.obj
 0002:0000a2f0       ??_C@_07HBPMNPNJ@belgian?$AA@ 0045f2f0     LIBCMTD:getqloc.obj
 0002:0000a2f8       ??_C@_0L@OEKOPBEL@australian?$AA@ 0045f2f8     LIBCMTD:getqloc.obj
 0002:0000a304       ??_C@_0BB@MEIMBEDG@american?9english?$AA@ 0045f304     LIBCMTD:getqloc.obj
 0002:0000a318       ??_C@_0BB@DFMDPDGB@american?5english?$AA@ 0045f318     LIBCMTD:getqloc.obj
 0002:0000a32c       ??_C@_08IJLOKOLL@american?$AA@ 0045f32c     LIBCMTD:getqloc.obj
 0002:0000a338       ___rg_language             0045f338     LIBCMTD:getqloc.obj
 0002:0000a540       ___rg_country              0045f540     LIBCMTD:getqloc.obj
 0002:0000a5f8       ___rglangidNotDefault      0045f5f8     LIBCMTD:getqloc.obj
 0002:0000a60c       ??_C@_0BC@NFIEMBLL@Norwegian?9Nynorsk?$AA@ 0045f60c     LIBCMTD:getqloc.obj
 0002:0000a620       ??_C@_1OM@OECHDGCF@?$AAs?$AAt?$AAr?$AAc?$AAp?$AAy?$AA_?$AAs?$AA?$CI?$AAl?$AAp?$AAO?$AAu?$AAt?$AAS?$AAt?$AAr?$AA?9?$AA?$DO?$AAs?$AAz?$AAL?$AAa?$AAn?$AAg?$AAu?$AAa?$AAg?$AAe?$AA?0?$AA?5?$AA?$CI@ 0045f620     LIBCMTD:getqloc.obj
 0002:0000a70c       ??_C@_1CO@NJACLALJ@?$AA_?$AA_?$AAg?$AAe?$AAt?$AA_?$AAq?$AAu?$AAa?$AAl?$AAi?$AAf?$AAi?$AAe?$AAd?$AA_?$AAl?$AAo?$AAc?$AAa?$AAl?$AAe?$AA?$AA@ 0045f70c     LIBCMTD:getqloc.obj
 0002:0000a740       ??_C@_1GC@FECJGAE@?$AAf?$AA?3?$AA?2?$AAd?$AAd?$AA?2?$AAv?$AAc?$AAt?$AAo?$AAo?$AAl?$AAs?$AA?2?$AAc?$AAr?$AAt?$AA_?$AAb?$AAl?$AAd?$AA?2?$AAs?$AAe?$AAl?$AAf?$AA_?$AAx?$AA8?$AA6?$AA?2?$AAc@ 0045f740     LIBCMTD:getqloc.obj
 0002:0000a7a4       ??_C@_03NFKLAGEF@OCP?$AA@  0045f7a4     LIBCMTD:getqloc.obj
 0002:0000a7a8       ??_C@_03DFHEHBHG@ACP?$AA@  0045f7a8     LIBCMTD:getqloc.obj
 0002:0000a7e4       ??_C@_01KDCPPGHE@r?$AA@    0045f7e4     LIBCMTD:_pdblkup_.obj
 0002:0000a7e8       ??_C@_0BB@KCIACLNC@PDBOpenValidate5?$AA@ 0045f7e8     LIBCMTD:_pdblkup_.obj
 0002:0000a7fc       ??_C@_1CK@HHHCOJPD@?$AAE?$AAn?$AAv?$AAi?$AAr?$AAo?$AAn?$AAm?$AAe?$AAn?$AAt?$AAD?$AAi?$AAr?$AAe?$AAc?$AAt?$AAo?$AAr?$AAy?$AA?$AA@ 0045f7fc     LIBCMTD:_pdblkup_.obj
 0002:0000a828       ??_C@_1FM@DNCABAP@?$AAS?$AAO?$AAF?$AAT?$AAW?$AAA?$AAR?$AAE?$AA?2?$AAM?$AAi?$AAc?$AAr?$AAo?$AAs?$AAo?$AAf?$AAt?$AA?2?$AAV?$AAi?$AAs?$AAu?$AAa?$AAl?$AAS?$AAt?$AAu?$AAd?$AAi?$AAo?$AA?2@ 0045f828     LIBCMTD:_pdblkup_.obj
 0002:0000a884       ??_C@_0M@HLOHPNFA@RegCloseKey?$AA@ 0045f884     LIBCMTD:_pdblkup_.obj
 0002:0000a890       ??_C@_0BB@GLNAEDBD@RegQueryValueExW?$AA@ 0045f890     LIBCMTD:_pdblkup_.obj
 0002:0000a8a4       ??_C@_0O@COHOBMLB@RegOpenKeyExW?$AA@ 0045f8a4     LIBCMTD:_pdblkup_.obj
 0002:0000a8b4       ??_C@_1BK@GAEMIDIL@?$AAA?$AAD?$AAV?$AAA?$AAP?$AAI?$AA3?$AA2?$AA?4?$AAD?$AAL?$AAL?$AA?$AA@ 0045f8b4     LIBCMTD:_pdblkup_.obj
 0002:0000a8ec       ??_C@_0BK@CFCOFLF@?5Complete?5Object?5Locator?8?$AA@ 0045f8ec     LIBCMTD:undname.obj
 0002:0000a908       ??_C@_0BN@MECKDCOJ@?5Class?5Hierarchy?5Descriptor?8?$AA@ 0045f908     LIBCMTD:undname.obj
 0002:0000a928       ??_C@_0BD@LGICGFMM@?5Base?5Class?5Array?8?$AA@ 0045f928     LIBCMTD:undname.obj
 0002:0000a93c       ??_C@_0BM@LDKODKLH@?5Base?5Class?5Descriptor?5at?5?$CI?$AA@ 0045f93c     LIBCMTD:undname.obj
 0002:0000a958       ??_C@_0BC@DAFEJGAK@?5Type?5Descriptor?8?$AA@ 0045f958     LIBCMTD:undname.obj
 0002:0000a96c       ??_C@_0BM@PMGGMLDN@?$GAlocal?5static?5thread?5guard?8?$AA@ 0045f96c     LIBCMTD:undname.obj
 0002:0000a988       ??_C@_0CL@FGIJHLCE@?$GAmanaged?5vector?5copy?5constructor@ 0045f988     LIBCMTD:undname.obj
 0002:0000a9b4       ??_C@_0CJ@GJELGAMM@?$GAvector?5vbase?5copy?5constructor?5i@ 0045f9b4     LIBCMTD:undname.obj
 0002:0000a9e0       ??_C@_0CD@CGAJBKEJ@?$GAvector?5copy?5constructor?5iterato@ 0045f9e0     LIBCMTD:undname.obj
 0002:0000aa04       ??_C@_0CB@PDBIFEP@?$GAdynamic?5atexit?5destructor?5for?5?8@ 0045fa04     LIBCMTD:undname.obj
 0002:0000aa28       ??_C@_0BL@CLIPGLGB@?$GAdynamic?5initializer?5for?5?8?$AA@ 0045fa28     LIBCMTD:undname.obj
 0002:0000aa44       ??_C@_0CM@FCBBDIGB@?$GAeh?5vector?5vbase?5copy?5constructo@ 0045fa44     LIBCMTD:undname.obj
 0002:0000aa70       ??_C@_0CG@HLDDJMAG@?$GAeh?5vector?5copy?5constructor?5iter@ 0045fa70     LIBCMTD:undname.obj
 0002:0000aa98       ??_C@_0CF@IMGKMJNO@?$GAmanaged?5vector?5destructor?5itera@ 0045fa98     LIBCMTD:undname.obj
 0002:0000aac0       ??_C@_0CG@CFDHKGGD@?$GAmanaged?5vector?5constructor?5iter@ 0045fac0     LIBCMTD:undname.obj
 0002:0000aae8       ??_C@_0BN@CKNJLHMB@?$GAplacement?5delete?$FL?$FN?5closure?8?$AA@ 0045fae8     LIBCMTD:undname.obj
 0002:0000ab08       ??_C@_0BL@CNOONJFP@?$GAplacement?5delete?5closure?8?$AA@ 0045fb08     LIBCMTD:undname.obj
 0002:0000ab24       ??_C@_0P@HJKNJFNN@?$GAomni?5callsig?8?$AA@ 0045fb24     LIBCMTD:undname.obj
 0002:0000ab34       ??_C@_09LBNFPBCA@?5delete?$FL?$FN?$AA@ 0045fb34     LIBCMTD:undname.obj
 0002:0000ab40       ??_C@_06FHBGPFGH@?5new?$FL?$FN?$AA@ 0045fb40     LIBCMTD:undname.obj
 0002:0000ab48       ??_C@_0CE@IIHCMGGL@?$GAlocal?5vftable?5constructor?5closu@ 0045fb48     LIBCMTD:undname.obj
 0002:0000ab6c       ??_C@_0BA@KKLDJDLB@?$GAlocal?5vftable?8?$AA@ 0045fb6c     LIBCMTD:undname.obj
 0002:0000ab7c       ??_C@_05KHLCHHI@?$GARTTI?$AA@ 0045fb7c     LIBCMTD:undname.obj
 0002:0000ab84       ??_C@_03KLGMFNMG@?$GAEH?$AA@ 0045fb84     LIBCMTD:undname.obj
 0002:0000ab88       ??_C@_0BA@KBCDOMBN@?$GAudt?5returning?8?$AA@ 0045fb88     LIBCMTD:undname.obj
 0002:0000ab98       ??_C@_0BL@LLKPOHJI@?$GAcopy?5constructor?5closure?8?$AA@ 0045fb98     LIBCMTD:undname.obj
 0002:0000abb4       ??_C@_0CH@OOJPLCPH@?$GAeh?5vector?5vbase?5constructor?5ite@ 0045fbb4     LIBCMTD:undname.obj
 0002:0000abdc       ??_C@_0CA@GCEOPDGL@?$GAeh?5vector?5destructor?5iterator?8?$AA@ 0045fbdc     LIBCMTD:undname.obj
 0002:0000abfc       ??_C@_0CB@JONCMFFK@?$GAeh?5vector?5constructor?5iterator?8@ 0045fbfc     LIBCMTD:undname.obj
 0002:0000ac20       ??_C@_0BL@NILFHHPC@?$GAvirtual?5displacement?5map?8?$AA@ 0045fc20     LIBCMTD:undname.obj
 0002:0000ac3c       ??_C@_0CE@IKBNEHA@?$GAvector?5vbase?5constructor?5iterat@ 0045fc3c     LIBCMTD:undname.obj
 0002:0000ac60       ??_C@_0BN@LFPFMEDL@?$GAvector?5destructor?5iterator?8?$AA@ 0045fc60     LIBCMTD:undname.obj
 0002:0000ac80       ??_C@_0BO@PFGOCPJJ@?$GAvector?5constructor?5iterator?8?$AA@ 0045fc80     LIBCMTD:undname.obj
 0002:0000aca0       ??_C@_0BN@IMDCHIKM@?$GAscalar?5deleting?5destructor?8?$AA@ 0045fca0     LIBCMTD:undname.obj
 0002:0000acc0       ??_C@_0BO@OBMKPJIG@?$GAdefault?5constructor?5closure?8?$AA@ 0045fcc0     LIBCMTD:undname.obj
 0002:0000ace0       ??_C@_0BN@DEGPLNFK@?$GAvector?5deleting?5destructor?8?$AA@ 0045fce0     LIBCMTD:undname.obj
 0002:0000ad00       ??_C@_0BD@JDLKDPAB@?$GAvbase?5destructor?8?$AA@ 0045fd00     LIBCMTD:undname.obj
 0002:0000ad14       ??_C@_08OBABFOLI@?$GAstring?8?$AA@ 0045fd14     LIBCMTD:undname.obj
 0002:0000ad20       ??_C@_0BF@KDPPACIK@?$GAlocal?5static?5guard?8?$AA@ 0045fd20     LIBCMTD:undname.obj
 0002:0000ad38       ??_C@_08LLFFHHDJ@?$GAtypeof?8?$AA@ 0045fd38     LIBCMTD:undname.obj
 0002:0000ad44       ??_C@_07FEEIOKP@?$GAvcall?8?$AA@ 0045fd44     LIBCMTD:undname.obj
 0002:0000ad4c       ??_C@_09BLBHBJP@?$GAvbtable?8?$AA@ 0045fd4c     LIBCMTD:undname.obj
 0002:0000ad58       ??_C@_09IFPLHPGF@?$GAvftable?8?$AA@ 0045fd58     LIBCMTD:undname.obj
 0002:0000ad64       ??_C@_02MHEGNOJ@?$FO?$DN?$AA@ 0045fd64     LIBCMTD:undname.obj
 0002:0000ad68       ??_C@_02DHLNPPGH@?$HM?$DN?$AA@ 0045fd68     LIBCMTD:undname.obj
 0002:0000ad6c       ??_C@_02FGJGFEAB@?$CG?$DN?$AA@ 0045fd6c     LIBCMTD:undname.obj
 0002:0000ad70       ??_C@_03CDNPDDLA@?$DM?$DM?$DN?$AA@ 0045fd70     LIBCMTD:undname.obj
 0002:0000ad74       ??_C@_03IKFCCPFF@?$DO?$DO?$DN?$AA@ 0045fd74     LIBCMTD:undname.obj
 0002:0000ad78       ??_C@_02FENAOKFI@?$CF?$DN?$AA@ 0045fd78     LIBCMTD:undname.obj
 0002:0000ad7c       ??_C@_02FJEHGPIO@?1?$DN?$AA@ 0045fd7c     LIBCMTD:undname.obj
 0002:0000ad80       ??_C@_02FKMDLLOA@?9?$DN?$AA@ 0045fd80     LIBCMTD:undname.obj
 0002:0000ad84       ??_C@_02FOEOMHFC@?$CL?$DN?$AA@ 0045fd84     LIBCMTD:undname.obj
 0002:0000ad88       ??_C@_02FPIMKNGF@?$CK?$DN?$AA@ 0045fd88     LIBCMTD:undname.obj
 0002:0000ad8c       ??_C@_02NONPIBCD@?$HM?$HM?$AA@ 0045fd8c     LIBCMTD:undname.obj
 0002:0000ad90       ??_C@_02PPKAJPJL@?$CG?$CG?$AA@ 0045fd90     LIBCMTD:undname.obj
 0002:0000ad94       ??_C@_01DNKMNLPK@?$HM?$AA@ 0045fd94     LIBCMTD:undname.obj
 0002:0000ad98       ??_C@_01JKBOJNNK@?$FO?$AA@ 0045fd98     LIBCMTD:undname.obj
 0002:0000ad9c       ??_C@_01PJKLJHI@?$HO?$AA@  0045fd9c     LIBCMTD:undname.obj
 0002:0000ada0       ??_C@_02HCKGKOFO@?$CI?$CJ?$AA@ 0045fda0     LIBCMTD:undname.obj
 0002:0000ada4       ??_C@_01IHBHIGKO@?0?$AA@   0045fda4     LIBCMTD:undname.obj
 0002:0000ada8       ??_C@_02EEKDKGMJ@?$DO?$DN?$AA@ 0045fda8     LIBCMTD:undname.obj
 0002:0000adac       ??_C@_01PPODPGHN@?$DO?$AA@ 0045fdac     LIBCMTD:undname.obj
 0002:0000adb0       ??_C@_02EHCHHCKH@?$DM?$DN?$AA@ 0045fdb0     LIBCMTD:undname.obj
 0002:0000adb4       ??_C@_01MNNFJEPP@?$DM?$AA@ 0045fdb4     LIBCMTD:undname.obj
 0002:0000adb8       ??_C@_01FGNFDNOH@?$CF?$AA@ 0045fdb8     LIBCMTD:undname.obj
 0002:0000adbc       ??_C@_01KMDKNFGN@?1?$AA@   0045fdbc     LIBCMTD:undname.obj
 0002:0000adc0       ??_C@_03MNHNFDLC@?9?$DO?$CK?$AA@ 0045fdc0     LIBCMTD:undname.obj
 0002:0000adc4       ??_C@_01HNPIGOCE@?$CG?$AA@ 0045fdc4     LIBCMTD:undname.obj
 0002:0000adc8       ??_C@_01MIFGBAGJ@?$CL?$AA@ 0045fdc8     LIBCMTD:undname.obj
 0002:0000adcc       ??_C@_01JOAMLHOP@?9?$AA@   0045fdcc     LIBCMTD:undname.obj
 0002:0000add0       ??_C@_02BAABKJLB@?9?9?$AA@ 0045fdd0     LIBCMTD:undname.obj
 0002:0000add4       ??_C@_02ECNGHCIF@?$CL?$CL?$AA@ 0045fdd4     LIBCMTD:undname.obj
 0002:0000add8       ??_C@_02HBOOOICD@?9?$DO?$AA@ 0045fdd8     LIBCMTD:undname.obj
 0002:0000addc       ??_C@_08LHJFAFGD@operator?$AA@ 0045fddc     LIBCMTD:undname.obj
 0002:0000ade8       ??_C@_02GPECMEKF@?$FL?$FN?$AA@ 0045fde8     LIBCMTD:undname.obj
 0002:0000adec       ??_C@_02FDNJECIE@?$CB?$DN?$AA@ 0045fdec     LIBCMTD:undname.obj
 0002:0000adf0       ??_C@_02EGOFBIJA@?$DN?$DN?$AA@ 0045fdf0     LIBCMTD:undname.obj
 0002:0000adf4       ??_C@_01DCLJPIOD@?$CB?$AA@ 0045fdf4     LIBCMTD:undname.obj
 0002:0000adf8       ??_C@_02FODMEDOG@?$DM?$DM?$AA@ 0045fdf8     LIBCMTD:undname.obj
 0002:0000adfc       ??_C@_02GPIOPFAK@?$DO?$DO?$AA@ 0045fdfc     LIBCMTD:undname.obj
 0002:0000ae00       ??_C@_07FPCDHGMM@?5delete?$AA@ 0045fe00     LIBCMTD:undname.obj
 0002:0000ae08       ??_C@_04NIHEBCM@?5new?$AA@ 0045fe08     LIBCMTD:undname.obj
 0002:0000ae10       ??_C@_0M@GFIIJFMG@__unaligned?$AA@ 0045fe10     LIBCMTD:undname.obj
 0002:0000ae1c       ??_C@_0L@PILCLIHE@__restrict?$AA@ 0045fe1c     LIBCMTD:undname.obj
 0002:0000ae28       ??_C@_07JOMMBBKO@__ptr64?$AA@ 0045fe28     LIBCMTD:undname.obj
 0002:0000ae30       ??_C@_06GHPCKEAG@__eabi?$AA@ 0045fe30     LIBCMTD:undname.obj
 0002:0000ae38       ??_C@_09HIJEGCPM@__clrcall?$AA@ 0045fe38     LIBCMTD:undname.obj
 0002:0000ae44       ??_C@_0L@JMKHOMEK@__fastcall?$AA@ 0045fe44     LIBCMTD:undname.obj
 0002:0000ae50       ??_C@_0L@NPHFGOKO@__thiscall?$AA@ 0045fe50     LIBCMTD:undname.obj
 0002:0000ae5c       ??_C@_09IFJBGAPI@__stdcall?$AA@ 0045fe5c     LIBCMTD:undname.obj
 0002:0000ae68       ??_C@_08GHMPAG@__pascal?$AA@ 0045fe68     LIBCMTD:undname.obj
 0002:0000ae74       ??_C@_07KOLFKCDI@__cdecl?$AA@ 0045fe74     LIBCMTD:undname.obj
 0002:0000ae7c       ??_C@_08EHJDFFNH@__based?$CI?$AA@ 0045fe7c     LIBCMTD:undname.obj
 0002:0000b00c       ??_C@_04HEJADOOB@CV?3?5?$AA@ 0046000c     LIBCMTD:undname.obj
 0002:0000b014       ??_C@_02MOLJINC@?3?3?$AA@  00460014     LIBCMTD:undname.obj
 0002:0000b018       ??_C@_01GEODFPGF@?8?$AA@   00460018     LIBCMTD:undname.obj
 0002:0000b01c       ??_C@_01NLNLIGKH@?$GA?$AA@ 0046001c     LIBCMTD:undname.obj
 0002:0000b020       ??_C@_0O@KHGCOMHP@generic?9type?9?$AA@ 00460020     LIBCMTD:undname.obj
 0002:0000b030       ??_C@_0BE@JAEOCHPE@template?9parameter?9?$AA@ 00460030     LIBCMTD:undname.obj
 0002:0000b044       ??_C@_02OHHJMEON@?8?8?$AA@ 00460044     LIBCMTD:undname.obj
 0002:0000b048       ??_C@_0BG@JNJLAMPM@?$GAanonymous?5namespace?8?$AA@ 00460048     LIBCMTD:undname.obj
 0002:0000b060       ??_C@_0BN@IBLMMFAP@?$GAnon?9type?9template?9parameter?$AA@ 00460060     LIBCMTD:undname.obj
 0002:0000b080       ??_C@_0BE@EODMJLIF@?$GAtemplate?9parameter?$AA@ 00460080     LIBCMTD:undname.obj
 0002:0000b094       ??_C@_04GKJNKENE@void?$AA@ 00460094     LIBCMTD:undname.obj
 0002:0000b09c       ??_C@_04HIBGFPH@NULL?$AA@  0046009c     LIBCMTD:undname.obj
 0002:0000b0a4       ??_C@_0M@DHNBOJMP@extern?5?$CCC?$CC?5?$AA@ 004600a4     LIBCMTD:undname.obj
 0002:0000b0b0       ??_C@_08KJLFOPNE@?$FLthunk?$FN?3?$AA@ 004600b0     LIBCMTD:undname.obj
 0002:0000b0bc       ??_C@_08GPDDCMKI@public?3?5?$AA@ 004600bc     LIBCMTD:undname.obj
 0002:0000b0c8       ??_C@_0M@GAIFPFIP@protected?3?5?$AA@ 004600c8     LIBCMTD:undname.obj
 0002:0000b0d4       ??_C@_09LAPHOOG@private?3?5?$AA@ 004600d4     LIBCMTD:undname.obj
 0002:0000b0e0       ??_C@_08NIEOINHE@virtual?5?$AA@ 004600e0     LIBCMTD:undname.obj
 0002:0000b0ec       ??_C@_07PGOEDBHP@static?5?$AA@ 004600ec     LIBCMTD:undname.obj
 0002:0000b0f4       ??_C@_0DA@HGFJFBBE@?$GAtemplate?5static?5data?5member?5des@ 004600f4     LIBCMTD:undname.obj
 0002:0000b124       ??_C@_0DB@ILEFOCIJ@?$GAtemplate?5static?5data?5member?5con@ 00460124     LIBCMTD:undname.obj
 0002:0000b158       ??_C@_0CB@KJDOOODE@?$GAlocal?5static?5destructor?5helper?8@ 00460158     LIBCMTD:undname.obj
 0002:0000b17c       ??_C@_0L@HNGCOGAE@?$GAadjustor?$HL?$AA@ 0046017c     LIBCMTD:undname.obj
 0002:0000b188       ??_C@_0L@GHPFDFH@?$GAvtordisp?$HL?$AA@ 00460188     LIBCMTD:undname.obj
 0002:0000b194       ??_C@_0N@CBHHHENL@?$GAvtordispex?$HL?$AA@ 00460194     LIBCMTD:undname.obj
 0002:0000b1a4       ??_C@_01CLKCMJKC@?5?$AA@   004601a4     LIBCMTD:undname.obj
 0002:0000b1a8       ??_C@_02IGFCGPIL@?$HN?8?$AA@ 004601a8     LIBCMTD:undname.obj
 0002:0000b1ac       ??_C@_03OPGICMGF@?$HN?8?5?$AA@ 004601ac     LIBCMTD:undname.obj
 0002:0000b1b0       ??_C@_02KCKGHPCA@?$CJ?5?$AA@ 004601b0     LIBCMTD:undname.obj
 0002:0000b1b4       ??_C@_05BEFAKPML@void?5?$AA@ 004601b4     LIBCMTD:undname.obj
 0002:0000b1bc       ??_C@_0P@GCOCNKDM@std?3?3nullptr_t?$AA@ 004601bc     LIBCMTD:undname.obj
 0002:0000b1cc       ??_C@_08PABEKFH@volatile?$AA@ 004601cc     LIBCMTD:undname.obj
 0002:0000b1d8       ??_C@_0M@ELJOJFFH@?0?$DMellipsis?$DO?$AA@ 004601d8     LIBCMTD:undname.obj
 0002:0000b1e4       ??_C@_04EENFHACM@?0?4?4?4?$AA@ 004601e4     LIBCMTD:undname.obj
 0002:0000b1ec       ??_C@_0L@EGPHHEKN@?$DMellipsis?$DO?$AA@ 004601ec     LIBCMTD:undname.obj
 0002:0000b1f8       ??_C@_07HDJPLPEK@?5throw?$CI?$AA@ 004601f8     LIBCMTD:undname.obj
 0002:0000b200       ??_C@_09EFNPDFFP@?5volatile?$AA@ 00460200     LIBCMTD:undname.obj
 0002:0000b20c       ??_C@_05BNCCCJPP@const?$AA@ 0046020c     LIBCMTD:undname.obj
 0002:0000b214       ??_C@_07EDHNAJHC@signed?5?$AA@ 00460214     LIBCMTD:undname.obj
 0002:0000b21c       ??_C@_09EBBEKKIH@unsigned?5?$AA@ 0046021c     LIBCMTD:undname.obj
 0002:0000b228       ??_C@_07NFANNNEC@UNKNOWN?$AA@ 00460228     LIBCMTD:undname.obj
 0002:0000b230       ??_C@_06GCICPBLB@__w64?5?$AA@ 00460230     LIBCMTD:undname.obj
 0002:0000b238       ??_C@_07CLGGIAMF@wchar_t?$AA@ 00460238     LIBCMTD:undname.obj
 0002:0000b240       ??_C@_09EEKGDCPH@?$DMunknown?$DO?$AA@ 00460240     LIBCMTD:undname.obj
 0002:0000b24c       ??_C@_08GAHOLHEO@__int128?$AA@ 0046024c     LIBCMTD:undname.obj
 0002:0000b258       ??_C@_07LFCOJCAC@__int64?$AA@ 00460258     LIBCMTD:undname.obj
 0002:0000b260       ??_C@_07OFLPPHGP@__int32?$AA@ 00460260     LIBCMTD:undname.obj
 0002:0000b268       ??_C@_07ICFHOGAF@__int16?$AA@ 00460268     LIBCMTD:undname.obj
 0002:0000b270       ??_C@_06EBGKOKIG@__int8?$AA@ 00460270     LIBCMTD:undname.obj
 0002:0000b278       ??_C@_04DDKJGDCM@bool?$AA@ 00460278     LIBCMTD:undname.obj
 0002:0000b280       ??_C@_06BNJCAIGJ@double?$AA@ 00460280     LIBCMTD:undname.obj
 0002:0000b288       ??_C@_05CJIMAING@long?5?$AA@ 00460288     LIBCMTD:undname.obj
 0002:0000b290       ??_C@_05KNFBNCOH@float?$AA@ 00460290     LIBCMTD:undname.obj
 0002:0000b298       ??_C@_04GOKPGOLB@long?$AA@ 00460298     LIBCMTD:undname.obj
 0002:0000b2a0       ??_C@_03JBIPMCLC@int?$AA@  004602a0     LIBCMTD:undname.obj
 0002:0000b2a4       ??_C@_05BFKKPKCG@short?$AA@ 004602a4     LIBCMTD:undname.obj
 0002:0000b2ac       ??_C@_04ENMBGAPA@char?$AA@ 004602ac     LIBCMTD:undname.obj
 0002:0000b2b4       ??_C@_05LJGMCFOG@enum?5?$AA@ 004602b4     LIBCMTD:undname.obj
 0002:0000b2bc       ??_C@_0N@DLIEFKNA@cointerface?5?$AA@ 004602bc     LIBCMTD:undname.obj
 0002:0000b2cc       ??_C@_08KOFANOFK@coclass?5?$AA@ 004602cc     LIBCMTD:undname.obj
 0002:0000b2d8       ??_C@_06LJBABKPM@class?5?$AA@ 004602d8     LIBCMTD:undname.obj
 0002:0000b2e0       ??_C@_07DIBCDNGL@struct?5?$AA@ 004602e0     LIBCMTD:undname.obj
 0002:0000b2e8       ??_C@_06MOJHIBMG@union?5?$AA@ 004602e8     LIBCMTD:undname.obj
 0002:0000b2f0       ??_C@_0P@GCIFDJCJ@?$GAunknown?5ecsu?8?$AA@ 004602f0     LIBCMTD:undname.obj
 0002:0000b300       ??_C@_04LAHKHJMA@int?5?$AA@ 00460300     LIBCMTD:undname.obj
 0002:0000b308       ??_C@_06EHJMALKF@short?5?$AA@ 00460308     LIBCMTD:undname.obj
 0002:0000b310       ??_C@_05CIHEBHNO@char?5?$AA@ 00460310     LIBCMTD:undname.obj
 0002:0000b318       ??_C@_06LIJLOJAG@const?5?$AA@ 00460318     LIBCMTD:undname.obj
 0002:0000b320       ??_C@_09GAIEOBLP@volatile?5?$AA@ 00460320     LIBCMTD:undname.obj
 0002:0000b32c       ??_C@_0O@GKABPPIF@cli?3?3pin_ptr?$DM?$AA@ 0046032c     LIBCMTD:undname.obj
 0002:0000b33c       ??_C@_0M@EALIELKG@cli?3?3array?$DM?$AA@ 0046033c     LIBCMTD:undname.obj
 0002:0000b348       ??_C@_02GOGNNPBN@?$CJ?$FL?$AA@ 00460348     LIBCMTD:undname.obj
 0002:0000b34c       ??_C@_06EEGAIFAK@?$HLflat?$HN?$AA@ 0046034c     LIBCMTD:undname.obj
 0002:0000b354       ??_C@_02MDINNEEG@s?5?$AA@  00460354     LIBCMTD:undname.obj
 0002:0000b358       ??_C@_05JIBOFOHK@?$HLfor?5?$AA@ 00460358     LIBCMTD:undname.obj
 0002:0000b360       ??_7DNameNode@@6B@         00460360     LIBCMTD:undname.obj
 0002:0000b36c       ??_7charNode@@6B@          0046036c     LIBCMTD:undname.obj
 0002:0000b378       ??_7pcharNode@@6B@         00460378     LIBCMTD:undname.obj
 0002:0000b384       ??_7pDNameNode@@6B@        00460384     LIBCMTD:undname.obj
 0002:0000b390       ??_7DNameStatusNode@@6B@   00460390     LIBCMTD:undname.obj
 0002:0000b39c       ??_C@_04OKOHEJBO@?5?$DP?$DP?5?$AA@ 0046039c     LIBCMTD:undname.obj
 0002:0000b3a4       ??_7pairNode@@6B@          004603a4     LIBCMTD:undname.obj
 0002:0000b3b0       ??_C@_1CA@LFDHAMEM@?$AA_?$AAs?$AAe?$AAt?$AA_?$AAe?$AAr?$AAr?$AAo?$AAr?$AA_?$AAm?$AAo?$AAd?$AAe?$AA?$AA@ 004603b0     LIBCMTD:errmode.obj
 0002:0000b3d0       ??_C@_1GC@FGMGFCNB@?$AAf?$AA?3?$AA?2?$AAd?$AAd?$AA?2?$AAv?$AAc?$AAt?$AAo?$AAo?$AAl?$AAs?$AA?2?$AAc?$AAr?$AAt?$AA_?$AAb?$AAl?$AAd?$AA?2?$AAs?$AAe?$AAl?$AAf?$AA_?$AAx?$AA8?$AA6?$AA?2?$AAc@ 004603d0     LIBCMTD:errmode.obj
 0002:0000b434       ??_C@_1DE@BCNCAIK@?$AA?$CI?$AA?$CC?$AAI?$AAn?$AAv?$AAa?$AAl?$AAi?$AAd?$AA?5?$AAe?$AAr?$AAr?$AAo?$AAr?$AA_?$AAm?$AAo?$AAd?$AAe?$AA?$CC?$AA?0?$AA?5?$AA0?$AA?$CJ?$AA?$AA@ 00460434     LIBCMTD:errmode.obj
 0002:0000b468       ??_C@_1BC@PLIEPKPJ@?$AAw?$AAc?$AAs?$AAc?$AAa?$AAt?$AA_?$AAs?$AA?$AA@ 00460468     LIBCMTD:wcscat_s.obj
 0002:0000b47c       ??_C@_1BE@PMMBFFCC@?$AAw?$AAc?$AAs?$AAn?$AAc?$AAp?$AAy?$AA_?$AAs?$AA?$AA@ 0046047c     LIBCMTD:wcsncpy_s.obj
 0002:0000b490       ??_C@_1JE@ECKHFIFP@?$AA?$CI?$AA?$CC?$AAI?$AAn?$AAv?$AAa?$AAl?$AAi?$AAd?$AA?5?$AAf?$AAi?$AAl?$AAe?$AA?5?$AAd?$AAe?$AAs?$AAc?$AAr?$AAi?$AAp?$AAt?$AAo?$AAr?$AA?4?$AA?5?$AAF?$AAi?$AAl?$AAe?$AA?5@ 00460490     LIBCMTD:lseeki64.obj
 0002:0000b524       ??_C@_1CM@OKGMMMDH@?$AA?$CI?$AA_?$AAo?$AAs?$AAf?$AAi?$AAl?$AAe?$AA?$CI?$AAf?$AAh?$AA?$CJ?$AA?5?$AA?$CG?$AA?5?$AAF?$AAO?$AAP?$AAE?$AAN?$AA?$CJ?$AA?$AA@ 00460524     LIBCMTD:lseeki64.obj
 0002:0000b550       ??_C@_1BE@KHFBJMNM@?$AA_?$AAl?$AAs?$AAe?$AAe?$AAk?$AAi?$AA6?$AA4?$AA?$AA@ 00460550     LIBCMTD:lseeki64.obj
 0002:0000b568       ??_C@_1GE@MINKPNPH@?$AAf?$AA?3?$AA?2?$AAd?$AAd?$AA?2?$AAv?$AAc?$AAt?$AAo?$AAo?$AAl?$AAs?$AA?2?$AAc?$AAr?$AAt?$AA_?$AAb?$AAl?$AAd?$AA?2?$AAs?$AAe?$AAl?$AAf?$AA_?$AAx?$AA8?$AA6?$AA?2?$AAc@ 00460568     LIBCMTD:lseeki64.obj
 0002:0000b5d0       ??_C@_1FO@LPCLHKGE@?$AA?$CI?$AAf?$AAh?$AA?5?$AA?$DO?$AA?$DN?$AA?5?$AA0?$AA?5?$AA?$CG?$AA?$CG?$AA?5?$AA?$CI?$AAu?$AAn?$AAs?$AAi?$AAg?$AAn?$AAe?$AAd?$AA?$CJ?$AAf?$AAh?$AA?5?$AA?$DM?$AA?5?$AA?$CI?$AAu?$AAn?$AAs?$AAi@ 004605d0     LIBCMTD:lseeki64.obj
 0002:0000b630       ??_C@_1O@KOFKDHPL@?$AA_?$AAw?$AAr?$AAi?$AAt?$AAe?$AA?$AA@ 00460630     LIBCMTD:write.obj
 0002:0000b640       ??_C@_1FO@EPLDPDDL@?$AAf?$AA?3?$AA?2?$AAd?$AAd?$AA?2?$AAv?$AAc?$AAt?$AAo?$AAo?$AAl?$AAs?$AA?2?$AAc?$AAr?$AAt?$AA_?$AAb?$AAl?$AAd?$AA?2?$AAs?$AAe?$AAl?$AAf?$AA_?$AAx?$AA8?$AA6?$AA?2?$AAc@ 00460640     LIBCMTD:write.obj
 0002:0000b6a0       ??_C@_1DI@CNMHHHLG@?$AAi?$AAs?$AAl?$AAe?$AAa?$AAd?$AAb?$AAy?$AAt?$AAe?$AA?$CI?$AA_?$AAd?$AAb?$AAc?$AAs?$AAB?$AAu?$AAf?$AAf?$AAe?$AAr?$AA?$CI?$AAf?$AAh?$AA?$CJ?$AA?$CJ?$AA?$AA@ 004606a0     LIBCMTD:write.obj
 0002:0000b6d8       ??_C@_1CC@EEOLPHGO@?$AA?$CI?$AA?$CI?$AAc?$AAn?$AAt?$AA?5?$AA?$CG?$AA?5?$AA1?$AA?$CJ?$AA?5?$AA?$DN?$AA?$DN?$AA?5?$AA0?$AA?$CJ?$AA?$AA@ 004606d8     LIBCMTD:write.obj
 0002:0000b6fc       ??_C@_1BM@NCANHCIP@?$AA_?$AAw?$AAr?$AAi?$AAt?$AAe?$AA_?$AAn?$AAo?$AAl?$AAo?$AAc?$AAk?$AA?$AA@ 004606fc     LIBCMTD:write.obj
 0002:0000b718       ??_C@_1BM@KFJLMBPG@?$AA?$CI?$AAb?$AAu?$AAf?$AA?5?$AA?$CB?$AA?$DN?$AA?5?$AAN?$AAU?$AAL?$AAL?$AA?$CJ?$AA?$AA@ 00460718     LIBCMTD:write.obj
 0002:0000b734       ??_C@_0DB@JEHOCBEJ@f?3?2dd?2vctools?2crt_bld?2self_x86?2c@ 00460734     LIBCMTD:_getbuf.obj
 0002:0000b768       ??_C@_1GC@DKMGNNCC@?$AAf?$AA?3?$AA?2?$AAd?$AAd?$AA?2?$AAv?$AAc?$AAt?$AAo?$AAo?$AAl?$AAs?$AA?2?$AAc?$AAr?$AAt?$AA_?$AAb?$AAl?$AAd?$AA?2?$AAs?$AAe?$AAl?$AAf?$AA_?$AAx?$AA8?$AA6?$AA?2?$AAc@ 00460768     LIBCMTD:_getbuf.obj
 0002:0000b7cc       ??_C@_1BA@LEBDGIHM@?$AA_?$AAi?$AAs?$AAa?$AAt?$AAt?$AAy?$AA?$AA@ 004607cc     LIBCMTD:isatty.obj
 0002:0000b7e0       ??_C@_1GA@LPGDJDEN@?$AAf?$AA?3?$AA?2?$AAd?$AAd?$AA?2?$AAv?$AAc?$AAt?$AAo?$AAo?$AAl?$AAs?$AA?2?$AAc?$AAr?$AAt?$AA_?$AAb?$AAl?$AAd?$AA?2?$AAs?$AAe?$AAl?$AAf?$AA_?$AAx?$AA8?$AA6?$AA?2?$AAc@ 004607e0     LIBCMTD:isatty.obj
 0002:0000b840       ??_C@_0CP@BNKDODJJ@f?3?2dd?2vctools?2crt_bld?2self_x86?2c@ 00460840     LIBCMTD:_file.obj
 0002:0000b870       ??_C@_1BA@JGHIEKKM@?$AA_?$AAf?$AAi?$AAl?$AAe?$AAn?$AAo?$AA?$AA@ 00460870     LIBCMTD:fileno.obj
 0002:0000b880       ??_C@_1GA@PBJHELNC@?$AAf?$AA?3?$AA?2?$AAd?$AAd?$AA?2?$AAv?$AAc?$AAt?$AAo?$AAo?$AAl?$AAs?$AA?2?$AAc?$AAr?$AAt?$AA_?$AAb?$AAl?$AAd?$AA?2?$AAs?$AAe?$AAl?$AAf?$AA_?$AAx?$AA8?$AA6?$AA?2?$AAc@ 00460880     LIBCMTD:fileno.obj
 0002:0000b8e0       ??_C@_1O@GKDHFACN@?$AAp?$AAr?$AAi?$AAn?$AAt?$AAf?$AA?$AA@ 004608e0     LIBCMTD:printf.obj
 0002:0000b8f0       ??_C@_1GA@LHEGHOAF@?$AAf?$AA?3?$AA?2?$AAd?$AAd?$AA?2?$AAv?$AAc?$AAt?$AAo?$AAo?$AAl?$AAs?$AA?2?$AAc?$AAr?$AAt?$AA_?$AAb?$AAl?$AAd?$AA?2?$AAs?$AAe?$AAl?$AAf?$AA_?$AAx?$AA8?$AA6?$AA?2?$AAc@ 004608f0     LIBCMTD:printf.obj
 0002:0000b950       ??_C@_1GA@GFFDGGFH@?$AAf?$AA?3?$AA?2?$AAd?$AAd?$AA?2?$AAv?$AAc?$AAt?$AAo?$AAo?$AAl?$AAs?$AA?2?$AAc?$AAr?$AAt?$AA_?$AAb?$AAl?$AAd?$AA?2?$AAs?$AAe?$AAl?$AAf?$AA_?$AAx?$AA8?$AA6?$AA?2?$AAc@ 00460950     LIBCMTD:mbtowc.obj
 0002:0000b9b0       ??_C@_1NC@EINCOKCO@?$AA_?$AAl?$AAo?$AAc?$AA_?$AAu?$AAp?$AAd?$AAa?$AAt?$AAe?$AA?4?$AAG?$AAe?$AAt?$AAL?$AAo?$AAc?$AAa?$AAl?$AAe?$AAT?$AA?$CI?$AA?$CJ?$AA?9?$AA?$DO?$AAl?$AAo?$AAc?$AAi?$AAn?$AAf@ 004609b0     LIBCMTD:mbtowc.obj
 0002:0000ba84       ??_C@_1O@HJNPHHHB@?$AAf?$AAp?$AAu?$AAt?$AAw?$AAc?$AA?$AA@ 00460a84     LIBCMTD:fputwc.obj
 0002:0000ba98       ??_C@_1GA@BJIGKGEA@?$AAf?$AA?3?$AA?2?$AAd?$AAd?$AA?2?$AAv?$AAc?$AAt?$AAo?$AAo?$AAl?$AAs?$AA?2?$AAc?$AAr?$AAt?$AA_?$AAb?$AAl?$AAd?$AA?2?$AAs?$AAe?$AAl?$AAf?$AA_?$AAx?$AA8?$AA6?$AA?2?$AAc@ 00460a98     LIBCMTD:fputwc.obj
 0002:0000baf8       ??_C@_1BM@JMKHIAHP@?$AA?$CI?$AAs?$AAt?$AAr?$AA?5?$AA?$CB?$AA?$DN?$AA?5?$AAN?$AAU?$AAL?$AAL?$AA?$CJ?$AA?$AA@ 00460af8     LIBCMTD:fputwc.obj
 0002:0000bb18       ??_C@_1FK@BCPANIEK@?$AA?$CI?$AA?$CC?$AAM?$AAi?$AAs?$AAs?$AAi?$AAn?$AAg?$AA?5?$AAp?$AAo?$AAs?$AAi?$AAt?$AAi?$AAo?$AAn?$AA?5?$AAi?$AAn?$AA?5?$AAt?$AAh?$AAe?$AA?5?$AAf?$AAo?$AAr?$AAm?$AAa?$AAt@ 00460b18     LIBCMTD:woutputp.obj
 0002:0000bb78       ??_C@_1FK@LNCFKALM@?$AA?$CI?$AA?$CI?$AAs?$AAt?$AAa?$AAt?$AAe?$AA?5?$AA?$DN?$AA?$DN?$AA?5?$AAS?$AAT?$AA_?$AAN?$AAO?$AAR?$AAM?$AAA?$AAL?$AA?$CJ?$AA?5?$AA?$HM?$AA?$HM?$AA?5?$AA?$CI?$AAs?$AAt?$AAa?$AAt?$AAe?$AA?5@ 00460b78     LIBCMTD:woutputp.obj
 0002:0000bbd8       ??_C@_1JC@OACKELNN@?$AA_?$AAt?$AAv?$AAa?$AAl?$AAi?$AAd?$AAa?$AAt?$AAe?$AA_?$AAp?$AAa?$AAr?$AAa?$AAm?$AA_?$AAr?$AAe?$AAu?$AAs?$AAe?$AA?$CI?$AA?$CG?$AAp?$AAo?$AAs?$AA_?$AAv?$AAa?$AAl?$AAu@ 00460bd8     LIBCMTD:woutputp.obj
 0002:0000bc70       ??_C@_1IK@NBGDDCBN@?$AA_?$AAt?$AAv?$AAa?$AAl?$AAi?$AAd?$AAa?$AAt?$AAe?$AA_?$AAp?$AAa?$AAr?$AAa?$AAm?$AA_?$AAr?$AAe?$AAu?$AAs?$AAe?$AA?$CI?$AA?$CG?$AAp?$AAo?$AAs?$AA_?$AAv?$AAa?$AAl?$AAu@ 00460c70     LIBCMTD:woutputp.obj
 0002:0000bcfc       ??_C@_1DG@GOHGNKHE@?$AAp?$AAa?$AAs?$AAs?$AA?5?$AA?$DN?$AA?$DN?$AA?5?$AAF?$AAO?$AAR?$AAM?$AAA?$AAT?$AA_?$AAO?$AAU?$AAT?$AAP?$AAU?$AAT?$AA_?$AAP?$AAA?$AAS?$AAS?$AA?$AA@ 00460cfc     LIBCMTD:woutputp.obj
 0002:0000bd38       ??_C@_1IM@DNGHAPLB@?$AA_?$AAt?$AAv?$AAa?$AAl?$AAi?$AAd?$AAa?$AAt?$AAe?$AA_?$AAp?$AAa?$AAr?$AAa?$AAm?$AA_?$AAr?$AAe?$AAu?$AAs?$AAe?$AA?$CI?$AA?$CG?$AAp?$AAo?$AAs?$AA_?$AAv?$AAa?$AAl?$AAu@ 00460d38     LIBCMTD:woutputp.obj
 0002:0000bdc8       ??_C@_1IG@HJIMKDHC@?$AA_?$AAt?$AAv?$AAa?$AAl?$AAi?$AAd?$AAa?$AAt?$AAe?$AA_?$AAp?$AAa?$AAr?$AAa?$AAm?$AA_?$AAr?$AAe?$AAu?$AAs?$AAe?$AA?$CI?$AA?$CG?$AAp?$AAo?$AAs?$AA_?$AAv?$AAa?$AAl?$AAu@ 00460dc8     LIBCMTD:woutputp.obj
 0002:0000be50       ??_C@_1IG@FDCPLALG@?$AA_?$AAt?$AAv?$AAa?$AAl?$AAi?$AAd?$AAa?$AAt?$AAe?$AA_?$AAp?$AAa?$AAr?$AAa?$AAm?$AA_?$AAr?$AAe?$AAu?$AAs?$AAe?$AA?$CI?$AA?$CG?$AAp?$AAo?$AAs?$AA_?$AAv?$AAa?$AAl?$AAu@ 00460e50     LIBCMTD:woutputp.obj
 0002:0000bed8       ??_C@_1EM@BNPHBBIA@?$AA?$CI?$AA?$CI?$AAt?$AAy?$AAp?$AAe?$AA_?$AAp?$AAo?$AAs?$AA?$DO?$AA?$DN?$AA0?$AA?$CJ?$AA?5?$AA?$CG?$AA?$CG?$AA?5?$AA?$CI?$AAt?$AAy?$AAp?$AAe?$AA_?$AAp?$AAo?$AAs?$AA?$DM?$AA_?$AAA?$AAR?$AAG@ 00460ed8     LIBCMTD:woutputp.obj
 0002:0000bf28       ??_C@_1IK@EIEPDKHJ@?$AA_?$AAt?$AAv?$AAa?$AAl?$AAi?$AAd?$AAa?$AAt?$AAe?$AA_?$AAp?$AAa?$AAr?$AAa?$AAm?$AA_?$AAr?$AAe?$AAu?$AAs?$AAe?$AA?$CI?$AA?$CG?$AAp?$AAo?$AAs?$AA_?$AAv?$AAa?$AAl?$AAu@ 00460f28     LIBCMTD:woutputp.obj
 0002:0000bfb8       ??_C@_1JG@JBJBOCFB@?$AA?$CI?$AA?$CI?$AAp?$AAr?$AAe?$AAc?$AAi?$AAs?$AA_?$AAp?$AAo?$AAs?$AA?5?$AA?$DO?$AA?$DN?$AA?5?$AA0?$AA?$CJ?$AA?5?$AA?$CG?$AA?$CG?$AA?5?$AA?$CI?$AA?$CK?$AAe?$AAn?$AAd?$AA_?$AAp?$AAo?$AAs?$AA?5@ 00460fb8     LIBCMTD:woutputp.obj
 0002:0000c050       ??_C@_1II@PIPIMLPF@?$AA_?$AAt?$AAv?$AAa?$AAl?$AAi?$AAd?$AAa?$AAt?$AAe?$AA_?$AAp?$AAa?$AAr?$AAa?$AAm?$AA_?$AAr?$AAe?$AAu?$AAs?$AAe?$AA?$CI?$AA?$CG?$AAp?$AAo?$AAs?$AA_?$AAv?$AAa?$AAl?$AAu@ 00461050     LIBCMTD:woutputp.obj
 0002:0000c0d8       ??_C@_1JE@NMBHOLFI@?$AA?$CI?$AA?$CI?$AAw?$AAi?$AAd?$AAt?$AAh?$AA_?$AAp?$AAo?$AAs?$AA?5?$AA?$DO?$AA?$DN?$AA?5?$AA0?$AA?$CJ?$AA?5?$AA?$CG?$AA?$CG?$AA?5?$AA?$CI?$AA?$CK?$AAe?$AAn?$AAd?$AA_?$AAp?$AAo?$AAs?$AA?5?$AA?$DN@ 004610d8     LIBCMTD:woutputp.obj
 0002:0000c170       ??_C@_1EE@DMAIGNBG@?$AA?$CI?$AA?$CC?$AAI?$AAn?$AAc?$AAo?$AAr?$AAr?$AAe?$AAc?$AAt?$AA?5?$AAf?$AAo?$AAr?$AAm?$AAa?$AAt?$AA?5?$AAs?$AAp?$AAe?$AAc?$AAi?$AAf?$AAi?$AAe?$AAr?$AA?$CC?$AA?0?$AA?5?$AA0@ 00461170     LIBCMTD:woutputp.obj
 0002:0000c1b8       ??_C@_1JC@PFJNKEIO@?$AA?$CI?$AA?$CI?$AAt?$AAy?$AAp?$AAe?$AA_?$AAp?$AAo?$AAs?$AA?5?$AA?$DO?$AA?$DN?$AA?5?$AA0?$AA?$CJ?$AA?5?$AA?$CG?$AA?$CG?$AA?5?$AA?$CI?$AA?$CK?$AAe?$AAn?$AAd?$AA_?$AAp?$AAo?$AAs?$AA?5?$AA?$DN?$AA?$DN@ 004611b8     LIBCMTD:woutputp.obj
 0002:0000c24c       ??_C@_1BK@GDEKGMNC@?$AA_?$AAw?$AAo?$AAu?$AAt?$AAp?$AAu?$AAt?$AA_?$AAp?$AA_?$AAl?$AA?$AA@ 0046124c     LIBCMTD:woutputp.obj
 0002:0000c268       ??_C@_1BK@ONMFGLDB@?$AA_?$AAw?$AAo?$AAu?$AAt?$AAp?$AAu?$AAt?$AA_?$AAs?$AA_?$AAl?$AA?$AA@ 00461268     LIBCMTD:woutputs.obj
 0002:0000c284       ??_C@_1CG@JEHFHLNG@?$AA_?$AAm?$AAb?$AAs?$AAt?$AAo?$AAw?$AAc?$AAs?$AA_?$AAl?$AA_?$AAh?$AAe?$AAl?$AAp?$AAe?$AAr?$AA?$AA@ 00461284     LIBCMTD:mbstowcs.obj
 0002:0000c2b0       ??_C@_1GE@LCCDHBMH@?$AAf?$AA?3?$AA?2?$AAd?$AAd?$AA?2?$AAv?$AAc?$AAt?$AAo?$AAo?$AAl?$AAs?$AA?2?$AAc?$AAr?$AAt?$AA_?$AAb?$AAl?$AAd?$AA?2?$AAs?$AAe?$AAl?$AAf?$AA_?$AAx?$AA8?$AA6?$AA?2?$AAc@ 004612b0     LIBCMTD:mbstowcs.obj
 0002:0000c314       ??_C@_1BE@EEKACIGI@?$AAs?$AA?5?$AA?$CB?$AA?$DN?$AA?5?$AAN?$AAU?$AAL?$AAL?$AA?$AA@ 00461314     LIBCMTD:mbstowcs.obj
 0002:0000c328       ??_C@_1CO@JNPEPJAL@?$AAr?$AAe?$AAt?$AAs?$AAi?$AAz?$AAe?$AA?5?$AA?$DM?$AA?$DN?$AA?5?$AAs?$AAi?$AAz?$AAe?$AAI?$AAn?$AAW?$AAo?$AAr?$AAd?$AAs?$AA?$AA@ 00461328     LIBCMTD:mbstowcs.obj
 0002:0000c358       ??_C@_1CM@LLECFMFH@?$AAb?$AAu?$AAf?$AAf?$AAe?$AAr?$AAS?$AAi?$AAz?$AAe?$AA?5?$AA?$DM?$AA?$DN?$AA?5?$AAI?$AAN?$AAT?$AA_?$AAM?$AAA?$AAX?$AA?$AA@ 00461358     LIBCMTD:mbstowcs.obj
 0002:0000c384       ??_C@_1BM@PHENIGHD@?$AA_?$AAm?$AAb?$AAs?$AAt?$AAo?$AAw?$AAc?$AAs?$AA_?$AAs?$AA_?$AAl?$AA?$AA@ 00461384     LIBCMTD:mbstowcs.obj
 0002:0000c3a0       ??_C@_1JA@JKDFMOPO@?$AA?$CI?$AAp?$AAw?$AAc?$AAs?$AA?5?$AA?$DN?$AA?$DN?$AA?5?$AAN?$AAU?$AAL?$AAL?$AA?5?$AA?$CG?$AA?$CG?$AA?5?$AAs?$AAi?$AAz?$AAe?$AAI?$AAn?$AAW?$AAo?$AAr?$AAd?$AAs?$AA?5?$AA?$DN?$AA?$DN?$AA?5@ 004613a0     LIBCMTD:mbstowcs.obj
 0002:0000c430       ??_C@_1CG@LLJCAOHF@?$AA_?$AAw?$AAc?$AAs?$AAt?$AAo?$AAm?$AAb?$AAs?$AA_?$AAl?$AA_?$AAh?$AAe?$AAl?$AAp?$AAe?$AAr?$AA?$AA@ 00461430     LIBCMTD:wcstombs.obj
 0002:0000c458       ??_C@_1GE@OAENIBOD@?$AAf?$AA?3?$AA?2?$AAd?$AAd?$AA?2?$AAv?$AAc?$AAt?$AAo?$AAo?$AAl?$AAs?$AA?2?$AAc?$AAr?$AAt?$AA_?$AAb?$AAl?$AAd?$AA?2?$AAs?$AAe?$AAl?$AAf?$AA_?$AAx?$AA8?$AA6?$AA?2?$AAc@ 00461458     LIBCMTD:wcstombs.obj
 0002:0000c4bc       ??_C@_1BK@OIBENBPM@?$AAp?$AAw?$AAc?$AAs?$AA?5?$AA?$CB?$AA?$DN?$AA?5?$AAN?$AAU?$AAL?$AAL?$AA?$AA@ 004614bc     LIBCMTD:wcstombs.obj
 0002:0000c4d8       ??_C@_1CM@KEOGBFLI@?$AAs?$AAi?$AAz?$AAe?$AAI?$AAn?$AAB?$AAy?$AAt?$AAe?$AAs?$AA?5?$AA?$DO?$AA?5?$AAr?$AAe?$AAt?$AAs?$AAi?$AAz?$AAe?$AA?$AA@ 004614d8     LIBCMTD:wcstombs.obj
 0002:0000c504       ??_C@_1BM@BDMCLLDL@?$AA_?$AAw?$AAc?$AAs?$AAt?$AAo?$AAm?$AAb?$AAs?$AA_?$AAs?$AA_?$AAl?$AA?$AA@ 00461504     LIBCMTD:wcstombs.obj
 0002:0000c520       ??_C@_1IM@MFGKHGBP@?$AA?$CI?$AAd?$AAs?$AAt?$AA?5?$AA?$CB?$AA?$DN?$AA?5?$AAN?$AAU?$AAL?$AAL?$AA?5?$AA?$CG?$AA?$CG?$AA?5?$AAs?$AAi?$AAz?$AAe?$AAI?$AAn?$AAB?$AAy?$AAt?$AAe?$AAs?$AA?5?$AA?$DO?$AA?5?$AA0?$AA?$CJ@ 00461520     LIBCMTD:wcstombs.obj
 0002:0000c5ac       ??_C@_1O@NCBFODOE@?$AAx?$AAt?$AAo?$AAw?$AA_?$AAs?$AA?$AA@ 004615ac     LIBCMTD:xtows.obj
 0002:0000c5bc       ??_C@_1BC@HDEJCFPB@?$AAx?$AA6?$AA4?$AAt?$AAo?$AAw?$AA_?$AAs?$AA?$AA@ 004615bc     LIBCMTD:xtows.obj
 0002:0000c5d0       ??_C@_0BC@JEAENNKH@SystemFunction036?$AA@ 004615d0     LIBCMTD:rand_s.obj
 0002:0000c5e8       ??_C@_1GA@EBEDGGGB@?$AA?$CI?$AA?$CC?$AAr?$AAa?$AAn?$AAd?$AA_?$AAs?$AA?5?$AAi?$AAs?$AA?5?$AAn?$AAo?$AAt?$AA?5?$AAa?$AAv?$AAa?$AAi?$AAl?$AAa?$AAb?$AAl?$AAe?$AA?5?$AAo?$AAn?$AA?5?$AAt?$AAh?$AAi@ 004615e8     LIBCMTD:rand_s.obj
 0002:0000c648       ??_C@_1O@IJGPPOGF@?$AAr?$AAa?$AAn?$AAd?$AA_?$AAs?$AA?$AA@ 00461648     LIBCMTD:rand_s.obj
 0002:0000c658       ??_C@_1GA@HBGBBKCD@?$AAf?$AA?3?$AA?2?$AAd?$AAd?$AA?2?$AAv?$AAc?$AAt?$AAo?$AAo?$AAl?$AAs?$AA?2?$AAc?$AAr?$AAt?$AA_?$AAb?$AAl?$AAd?$AA?2?$AAs?$AAe?$AAl?$AAf?$AA_?$AAx?$AA8?$AA6?$AA?2?$AAc@ 00461658     LIBCMTD:rand_s.obj
 0002:0000c6b8       ??_C@_1CK@GFDNDKK@?$AA_?$AAR?$AAa?$AAn?$AAd?$AAo?$AAm?$AAV?$AAa?$AAl?$AAu?$AAe?$AA?5?$AA?$CB?$AA?$DN?$AA?5?$AAN?$AAU?$AAL?$AAL?$AA?$AA@ 004616b8     LIBCMTD:rand_s.obj
 0002:0000c6e4       ??_C@_0BK@CIDNPOGP@GetUserObjectInformationA?$AA@ 004616e4     LIBCMTD:crtmbox.obj
 0002:0000c700       ??_C@_0M@CHKKJDAI@MessageBoxA?$AA@ 00461700     LIBCMTD:crtmbox.obj
 0002:0000c70c       ??_C@_1BI@IEADNOHF@?$AA_?$AAw?$AAc?$AAt?$AAo?$AAm?$AAb?$AA_?$AAs?$AA_?$AAl?$AA?$AA@ 0046170c     LIBCMTD:wctomb.obj
 0002:0000c728       ??_C@_1GA@LDLHPOO@?$AAf?$AA?3?$AA?2?$AAd?$AAd?$AA?2?$AAv?$AAc?$AAt?$AAo?$AAo?$AAl?$AAs?$AA?2?$AAc?$AAr?$AAt?$AA_?$AAb?$AAl?$AAd?$AA?2?$AAs?$AAe?$AAl?$AAf?$AA_?$AAx?$AA8?$AA6?$AA?2?$AAc@ 00461728     LIBCMTD:wctomb.obj
 0002:0000c788       ??_C@_1CO@HFMIILNF@?$AAs?$AAi?$AAz?$AAe?$AAI?$AAn?$AAB?$AAy?$AAt?$AAe?$AAs?$AA?5?$AA?$DM?$AA?$DN?$AA?5?$AAI?$AAN?$AAT?$AA_?$AAM?$AAA?$AAX?$AA?$AA@ 00461788     LIBCMTD:wctomb.obj
 0002:0000c7b8       ??_C@_1IK@MHEDJAMK@?$AA_?$AAt?$AAv?$AAa?$AAl?$AAi?$AAd?$AAa?$AAt?$AAe?$AA_?$AAp?$AAa?$AAr?$AAa?$AAm?$AA_?$AAr?$AAe?$AAu?$AAs?$AAe?$AA?$CI?$AA?$CG?$AAp?$AAo?$AAs?$AA_?$AAv?$AAa?$AAl?$AAu@ 004617b8     LIBCMTD:outputp.obj
 0002:0000c844       ??_C@_1BI@KANOLAMF@?$AA_?$AAo?$AAu?$AAt?$AAp?$AAu?$AAt?$AA_?$AAp?$AA_?$AAl?$AA?$AA@ 00461844     LIBCMTD:outputp.obj
 0002:0000c860       ___lookuptable_s           00461860     LIBCMTD:outputs.obj
 0002:0000c8bc       ??_C@_1BI@COFBLHCG@?$AA_?$AAo?$AAu?$AAt?$AAp?$AAu?$AAt?$AA_?$AAs?$AA_?$AAl?$AA?$AA@ 004618bc     LIBCMTD:outputs.obj
 0002:0000c8d4       ??_C@_1BK@CDOALEA@?$AA_?$AAc?$AAo?$AAn?$AAt?$AAr?$AAo?$AAl?$AAf?$AAp?$AA_?$AAs?$AA?$AA@ 004618d4     LIBCMTD:_contrlfp_.obj
 0002:0000c8f0       ??_C@_1HI@JIOCECAH@?$AAf?$AA?3?$AA?2?$AAd?$AAd?$AA?2?$AAv?$AAc?$AAt?$AAo?$AAo?$AAl?$AAs?$AA?2?$AAc?$AAr?$AAt?$AA_?$AAb?$AAl?$AAd?$AA?2?$AAs?$AAe?$AAl?$AAf?$AA_?$AAx?$AA8?$AA6?$AA?2?$AAc@ 004618f0     LIBCMTD:_contrlfp_.obj
 0002:0000c968       ??_C@_1DG@JNDMIEJL@?$AA?$CI?$AA?$CC?$AAI?$AAn?$AAv?$AAa?$AAl?$AAi?$AAd?$AA?5?$AAi?$AAn?$AAp?$AAu?$AAt?$AA?5?$AAv?$AAa?$AAl?$AAu?$AAe?$AA?$CC?$AA?0?$AA?5?$AA0?$AA?$CJ?$AA?$AA@ 00461968     LIBCMTD:_contrlfp_.obj
 0002:0000c9a0       ??_C@_1BK@CLIEHFDF@?$AAp?$AAf?$AAl?$AAt?$AA?5?$AA?$CB?$AA?$DN?$AA?5?$AAN?$AAU?$AAL?$AAL?$AA?$AA@ 004619a0     LIBCMTD:_fptostr.obj
 0002:0000c9c0       ??_C@_1GM@CEDLGDDI@?$AAs?$AAi?$AAz?$AAe?$AAI?$AAn?$AAB?$AAy?$AAt?$AAe?$AAs?$AA?5?$AA?$DO?$AA?5?$AA?$CI?$AAs?$AAi?$AAz?$AAe?$AA_?$AAt?$AA?$CJ?$AA?$CI?$AA?$CI?$AAd?$AAi?$AAg?$AAi?$AAt?$AAs?$AA?5?$AA?$DO@ 004619c0     LIBCMTD:_fptostr.obj
 0002:0000ca2c       ??_C@_1BC@OPALLEB@?$AA_?$AAf?$AAp?$AAt?$AAo?$AAs?$AAt?$AAr?$AA?$AA@ 00461a2c     LIBCMTD:_fptostr.obj
 0002:0000ca40       ??_C@_1GE@BDKOPHIO@?$AAf?$AA?3?$AA?2?$AAd?$AAd?$AA?2?$AAv?$AAc?$AAt?$AAo?$AAo?$AAl?$AAs?$AA?2?$AAc?$AAr?$AAt?$AA_?$AAb?$AAl?$AAd?$AA?2?$AAs?$AAe?$AAl?$AAf?$AA_?$AAx?$AA8?$AA6?$AA?2?$AAc@ 00461a40     LIBCMTD:_fptostr.obj
 0002:0000caa8       ??_C@_1FK@KODCOBKF@?$AAs?$AAt?$AAr?$AAc?$AAp?$AAy?$AA_?$AAs?$AA?$CI?$AAr?$AAe?$AAs?$AAu?$AAl?$AAt?$AAs?$AAt?$AAr?$AA?0?$AA?5?$AAr?$AAe?$AAs?$AAu?$AAl?$AAt?$AAs?$AAi?$AAz?$AAe?$AA?0?$AA?5@ 00461aa8     LIBCMTD:_cfout_.obj
 0002:0000cb04       ??_C@_1BC@BPMMEHLK@?$AA_?$AAf?$AAl?$AAt?$AAo?$AAu?$AAt?$AA2?$AA?$AA@ 00461b04     LIBCMTD:_cfout_.obj
 0002:0000cb18       ??_C@_1HC@PKFDNKN@?$AAf?$AA?3?$AA?2?$AAd?$AAd?$AA?2?$AAv?$AAc?$AAt?$AAo?$AAo?$AAl?$AAs?$AA?2?$AAc?$AAr?$AAt?$AA_?$AAb?$AAl?$AAd?$AA?2?$AAs?$AAe?$AAl?$AAf?$AA_?$AAx?$AA8?$AA6?$AA?2?$AAc@ 00461b18     LIBCMTD:_cfout_.obj
 0002:0000cb8c       ??_C@_1CG@EBJECAJM@?$AA_?$AAs?$AAe?$AAt?$AA_?$AAo?$AAu?$AAt?$AAp?$AAu?$AAt?$AA_?$AAf?$AAo?$AAr?$AAm?$AAa?$AAt?$AA?$AA@ 00461b8c     LIBCMTD:outputformat.obj
 0002:0000cbb8       ??_C@_1GM@NFGGJJCM@?$AAf?$AA?3?$AA?2?$AAd?$AAd?$AA?2?$AAv?$AAc?$AAt?$AAo?$AAo?$AAl?$AAs?$AA?2?$AAc?$AAr?$AAt?$AA_?$AAb?$AAl?$AAd?$AA?2?$AAs?$AAe?$AAl?$AAf?$AA_?$AAx?$AA8?$AA6?$AA?2?$AAc@ 00461bb8     LIBCMTD:outputformat.obj
 0002:0000cc28       ??_C@_1EM@EGEEBJLG@?$AA?$CI?$AAo?$AAp?$AAt?$AAi?$AAo?$AAn?$AAs?$AA?5?$AA?$CG?$AA?5?$AA?$HO?$AA_?$AAT?$AAW?$AAO?$AA_?$AAD?$AAI?$AAG?$AAI?$AAT?$AA_?$AAE?$AAX?$AAP?$AAO?$AAN?$AAE?$AAN?$AAT?$AA?$CJ@ 00461c28     LIBCMTD:outputformat.obj
 0002:0000cc74       ??_C@_1BG@GLLONOEH@?$AA_?$AAs?$AAt?$AAr?$AAi?$AAc?$AAm?$AAp?$AA_?$AAl?$AA?$AA@ 00461c74     LIBCMTD:stricmp.obj
 0002:0000cc90       ??_C@_1GC@OILHAOLL@?$AAf?$AA?3?$AA?2?$AAd?$AAd?$AA?2?$AAv?$AAc?$AAt?$AAo?$AAo?$AAl?$AAs?$AA?2?$AAc?$AAr?$AAt?$AA_?$AAb?$AAl?$AAd?$AA?2?$AAs?$AAe?$AAl?$AAf?$AA_?$AAx?$AA8?$AA6?$AA?2?$AAc@ 00461c90     LIBCMTD:stricmp.obj
 0002:0000ccf4       ??_C@_1BC@JLGKKIIG@?$AA_?$AAs?$AAt?$AAr?$AAi?$AAc?$AAm?$AAp?$AA?$AA@ 00461cf4     LIBCMTD:stricmp.obj
 0002:0000cd08       ??_C@_1CC@JLPHKJPH@?$AAc?$AAo?$AAu?$AAn?$AAt?$AA?5?$AA?$DM?$AA?$DN?$AA?5?$AAI?$AAN?$AAT?$AA_?$AAM?$AAA?$AAX?$AA?$AA@ 00461d08     LIBCMTD:strnicmp.obj
 0002:0000cd2c       ??_C@_1BI@BJLEPLEF@?$AA_?$AAs?$AAt?$AAr?$AAn?$AAi?$AAc?$AAm?$AAp?$AA_?$AAl?$AA?$AA@ 00461d2c     LIBCMTD:strnicmp.obj
 0002:0000cd48       ??_C@_1GE@CONPOJMA@?$AAf?$AA?3?$AA?2?$AAd?$AAd?$AA?2?$AAv?$AAc?$AAt?$AAo?$AAo?$AAl?$AAs?$AA?2?$AAc?$AAr?$AAt?$AA_?$AAb?$AAl?$AAd?$AA?2?$AAs?$AAe?$AAl?$AAf?$AA_?$AAx?$AA8?$AA6?$AA?2?$AAc@ 00461d48     LIBCMTD:strnicmp.obj
 0002:0000cdac       ??_C@_1BE@BHJDFFNA@?$AA_?$AAs?$AAt?$AAr?$AAn?$AAi?$AAc?$AAm?$AAp?$AA?$AA@ 00461dac     LIBCMTD:strnicmp.obj
 0002:0000cdc0       ??_C@_1BK@KHBCJPCH@?$AA_?$AAw?$AAm?$AAa?$AAk?$AAe?$AAp?$AAa?$AAt?$AAh?$AA_?$AAs?$AA?$AA@ 00461dc0     LIBCMTD:wmakepath_s.obj
 0002:0000cde0       ??_C@_1GO@DHMODCKM@?$AAf?$AA?3?$AA?2?$AAd?$AAd?$AA?2?$AAv?$AAc?$AAt?$AAo?$AAo?$AAl?$AAs?$AA?2?$AAc?$AAr?$AAt?$AA_?$AAb?$AAl?$AAd?$AA?2?$AAs?$AAe?$AAl?$AAf?$AA_?$AAx?$AA8?$AA6?$AA?2?$AAc@ 00461de0     LIBCMTD:wmakepath_s.obj
 0002:0000ce50       ??_C@_1DE@MLEJGPLF@?$AA?$CI?$AAL?$AA?$CC?$AAI?$AAn?$AAv?$AAa?$AAl?$AAi?$AAd?$AA?5?$AAp?$AAa?$AAr?$AAa?$AAm?$AAe?$AAt?$AAe?$AAr?$AA?$CC?$AA?0?$AA?5?$AA0?$AA?$CJ?$AA?$AA@ 00461e50     LIBCMTD:wsplitpath_s.obj
 0002:0000ce84       ??_C@_1BM@OEAFIBCF@?$AA_?$AAw?$AAs?$AAp?$AAl?$AAi?$AAt?$AAp?$AAa?$AAt?$AAh?$AA_?$AAs?$AA?$AA@ 00461e84     LIBCMTD:wsplitpath_s.obj
 0002:0000cea0       ??_C@_1HA@GHKPFCBF@?$AAf?$AA?3?$AA?2?$AAd?$AAd?$AA?2?$AAv?$AAc?$AAt?$AAo?$AAo?$AAl?$AAs?$AA?2?$AAc?$AAr?$AAt?$AA_?$AAb?$AAl?$AAd?$AA?2?$AAs?$AAe?$AAl?$AAf?$AA_?$AAx?$AA8?$AA6?$AA?2?$AAc@ 00461ea0     LIBCMTD:wsplitpath_s.obj
 0002:0000cf10       ??_C@_1CI@MLPLHPBP@?$AA?$CI?$AA?$CI?$AA?$CI?$AA_?$AAP?$AAa?$AAt?$AAh?$AA?$CJ?$AA?$CJ?$AA?$CJ?$AA?5?$AA?$CB?$AA?$DN?$AA?5?$AAN?$AAU?$AAL?$AAL?$AA?$AA@ 00461f10     LIBCMTD:wsplitpath_s.obj
 0002:0000cf38       ??_C@_0DB@KIKNCIEC@f?3?2dd?2vctools?2crt_bld?2self_x86?2c@ 00461f38     LIBCMTD:osfinfo.obj
 0002:0000cf6c       ??_C@_1BO@EMBOBGKE@?$AA_?$AAg?$AAe?$AAt?$AA_?$AAo?$AAs?$AAf?$AAh?$AAa?$AAn?$AAd?$AAl?$AAe?$AA?$AA@ 00461f6c     LIBCMTD:osfinfo.obj
 0002:0000cf90       ??_C@_1GC@MLKLDJJG@?$AAf?$AA?3?$AA?2?$AAd?$AAd?$AA?2?$AAv?$AAc?$AAt?$AAo?$AAo?$AAl?$AAs?$AA?2?$AAc?$AAr?$AAt?$AA_?$AAb?$AAl?$AAd?$AA?2?$AAs?$AAe?$AAl?$AAf?$AA_?$AAx?$AA8?$AA6?$AA?2?$AAc@ 00461f90     LIBCMTD:osfinfo.obj
 0002:0000cff4       ??_C@_0DB@OLNNDFNH@f?3?2dd?2vctools?2crt_bld?2self_x86?2c@ 00461ff4     LIBCMTD:_sftbuf.obj
 0002:0000d028       ??_C@_1GC@DGAFOCMO@?$AAf?$AA?3?$AA?2?$AAd?$AAd?$AA?2?$AAv?$AAc?$AAt?$AAo?$AAo?$AAl?$AAs?$AA?2?$AAc?$AAr?$AAt?$AA_?$AAb?$AAl?$AAd?$AA?2?$AAs?$AAe?$AAl?$AAf?$AA_?$AAx?$AA8?$AA6?$AA?2?$AAc@ 00462028     LIBCMTD:_sftbuf.obj
 0002:0000d08c       ??_C@_1CO@KCKAACMI@?$AAf?$AAl?$AAa?$AAg?$AA?5?$AA?$DN?$AA?$DN?$AA?5?$AA0?$AA?5?$AA?$HM?$AA?$HM?$AA?5?$AAf?$AAl?$AAa?$AAg?$AA?5?$AA?$DN?$AA?$DN?$AA?5?$AA1?$AA?$AA@ 0046208c     LIBCMTD:_sftbuf.obj
 0002:0000d0bc       ??_C@_1BO@JGFPDJCP@?$AAv?$AAp?$AAr?$AAi?$AAn?$AAt?$AAf?$AA_?$AAh?$AAe?$AAl?$AAp?$AAe?$AAr?$AA?$AA@ 004620bc     LIBCMTD:vprintf.obj
 0002:0000d0e0       ??_C@_1GC@DHFFJKMC@?$AAf?$AA?3?$AA?2?$AAd?$AAd?$AA?2?$AAv?$AAc?$AAt?$AAo?$AAo?$AAl?$AAs?$AA?2?$AAc?$AAr?$AAt?$AA_?$AAb?$AAl?$AAd?$AA?2?$AAs?$AAe?$AAl?$AAf?$AA_?$AAx?$AA8?$AA6?$AA?2?$AAc@ 004620e0     LIBCMTD:vprintf.obj
 0002:0000d148       ??_C@_1FE@CEHLKAHD@?$AAi?$AAb?$AAa?$AAs?$AAe?$AA?5?$AA?$DN?$AA?$DN?$AA?5?$AA0?$AA?5?$AA?$HM?$AA?$HM?$AA?5?$AA?$CI?$AA2?$AA?5?$AA?$DM?$AA?$DN?$AA?5?$AAi?$AAb?$AAa?$AAs?$AAe?$AA?5?$AA?$CG?$AA?$CG?$AA?5?$AAi?$AAb?$AAa@ 00462148     LIBCMTD:wcstol.obj
 0002:0000d19c       ??_C@_1BA@PCFLFGNC@?$AAw?$AAc?$AAs?$AAt?$AAo?$AAx?$AAl?$AA?$AA@ 0046219c     LIBCMTD:wcstol.obj
 0002:0000d1b0       ??_C@_1GA@CADFOND@?$AAf?$AA?3?$AA?2?$AAd?$AAd?$AA?2?$AAv?$AAc?$AAt?$AAo?$AAo?$AAl?$AAs?$AA?2?$AAc?$AAr?$AAt?$AA_?$AAb?$AAl?$AAd?$AA?2?$AAs?$AAe?$AAl?$AAf?$AA_?$AAx?$AA8?$AA6?$AA?2?$AAc@ 004621b0     LIBCMTD:wcstol.obj
 0002:0000d210       ??_C@_1BK@LAOAACLJ@?$AAn?$AAp?$AAt?$AAr?$AA?5?$AA?$CB?$AA?$DN?$AA?5?$AAN?$AAU?$AAL?$AAL?$AA?$AA@ 00462210     LIBCMTD:wcstol.obj
 0002:0000d22c       ??_C@_1BA@LOLAMAJG@?$AAs?$AAt?$AAr?$AAt?$AAo?$AAx?$AAl?$AA?$AA@ 0046222c     LIBCMTD:strtol.obj
 0002:0000d240       ??_C@_1GA@IPHKKOEI@?$AAf?$AA?3?$AA?2?$AAd?$AAd?$AA?2?$AAv?$AAc?$AAt?$AAo?$AAo?$AAl?$AAs?$AA?2?$AAc?$AAr?$AAt?$AA_?$AAb?$AAl?$AAd?$AA?2?$AAs?$AAe?$AAl?$AAf?$AA_?$AAx?$AA8?$AA6?$AA?2?$AAc@ 00462240     LIBCMTD:strtol.obj
 0002:0000d2a0       ?commonFlags@?1??_control87@@9@9 004622a0     LIBCMTD:_ieee87_.obj
 0002:0000d2a8       ??_C@_1GO@OKJGOMCB@?$AA_?$AAc?$AAo?$AAn?$AAt?$AAr?$AAo?$AAl?$AAf?$AAp?$AA_?$AAs?$AA?$CI?$AA?$CI?$AA?$CI?$AAv?$AAo?$AAi?$AAd?$AA?5?$AA?$CK?$AA?$CJ?$AA0?$AA?$CJ?$AA?0?$AA?5?$AAn?$AAe?$AAw?$AAc?$AAt?$AAr@ 004622a8     LIBCMTD:_ieee87_.obj
 0002:0000d318       ??_C@_1BO@OFDNCLL@?$AA_?$AAs?$AAe?$AAt?$AA_?$AAc?$AAo?$AAn?$AAt?$AAr?$AAo?$AAl?$AAf?$AAp?$AA?$AA@ 00462318     LIBCMTD:_ieee87_.obj
 0002:0000d338       ??_C@_1HO@BFDKGHOI@?$AAf?$AA?3?$AA?2?$AAd?$AAd?$AA?2?$AAv?$AAc?$AAt?$AAo?$AAo?$AAl?$AAs?$AA?2?$AAc?$AAr?$AAt?$AA_?$AAb?$AAl?$AAd?$AA?2?$AAs?$AAe?$AAl?$AAf?$AA_?$AAx?$AA8?$AA6?$AA?2?$AAc@ 00462338     LIBCMTD:_ieee87_.obj
 0002:0000d3b8       ??_C@_1BO@IHLJHOPI@?$AA_?$AA_?$AAs?$AAt?$AAr?$AAg?$AAt?$AAo?$AAl?$AAd?$AA1?$AA2?$AA_?$AAl?$AA?$AA@ 004623b8     LIBCMTD:_strgtold_.obj
 0002:0000d3d8       ??_C@_1IG@IGKPPFIM@?$AAf?$AA?3?$AA?2?$AAd?$AAd?$AA?2?$AAv?$AAc?$AAt?$AAo?$AAo?$AAl?$AAs?$AA?2?$AAc?$AAr?$AAt?$AA_?$AAb?$AAl?$AAd?$AA?2?$AAs?$AAe?$AAl?$AAf?$AA_?$AAx?$AA8?$AA6?$AA?2?$AAc@ 004623d8     LIBCMTD:_strgtold_.obj
 0002:0000d460       ??_C@_1CA@MBDBOHIB@?$AA_?$AAL?$AAo?$AAc?$AAa?$AAl?$AAe?$AA?5?$AA?$CB?$AA?$DN?$AA?5?$AAN?$AAU?$AAL?$AAL?$AA?$AA@ 00462460     LIBCMTD:_strgtold_.obj
 0002:0000d480       ??_C@_06IMKFLFPG@1?$CDQNAN?$AA@ 00462480     LIBCMTD:_x10fout_.obj
 0002:0000d488       ??_C@_1EG@MCFPJJEM@?$AAs?$AAt?$AAr?$AAc?$AAp?$AAy?$AA_?$AAs?$AA?$CI?$AAf?$AAo?$AAs?$AA?9?$AA?$DO?$AAm?$AAa?$AAn?$AA?0?$AA?5?$AA2?$AA1?$AA?$CL?$AA1?$AA?0?$AA?5?$AA?$CC?$AA1?$AA?$CD?$AAQ?$AAN?$AAA?$AAN@ 00462488     LIBCMTD:_x10fout_.obj
 0002:0000d4d0       ??_C@_05DNEBIAHO@1?$CDINF?$AA@ 004624d0     LIBCMTD:_x10fout_.obj
 0002:0000d4d8       ??_C@_1EE@ICBBBPAI@?$AAs?$AAt?$AAr?$AAc?$AAp?$AAy?$AA_?$AAs?$AA?$CI?$AAf?$AAo?$AAs?$AA?9?$AA?$DO?$AAm?$AAa?$AAn?$AA?0?$AA?5?$AA2?$AA1?$AA?$CL?$AA1?$AA?0?$AA?5?$AA?$CC?$AA1?$AA?$CD?$AAI?$AAN?$AAF?$AA?$CC@ 004624d8     LIBCMTD:_x10fout_.obj
 0002:0000d51c       ??_C@_05PHHOCPM@1?$CDIND?$AA@ 0046251c     LIBCMTD:_x10fout_.obj
 0002:0000d528       ??_C@_1EE@MADEBIHF@?$AAs?$AAt?$AAr?$AAc?$AAp?$AAy?$AA_?$AAs?$AA?$CI?$AAf?$AAo?$AAs?$AA?9?$AA?$DO?$AAm?$AAa?$AAn?$AA?0?$AA?5?$AA2?$AA1?$AA?$CL?$AA1?$AA?0?$AA?5?$AA?$CC?$AA1?$AA?$CD?$AAI?$AAN?$AAD?$AA?$CC@ 00462528     LIBCMTD:_x10fout_.obj
 0002:0000d56c       ??_C@_06PGGFOGJG@1?$CDSNAN?$AA@ 0046256c     LIBCMTD:_x10fout_.obj
 0002:0000d578       ??_C@_1EG@CDDBFNOB@?$AAs?$AAt?$AAr?$AAc?$AAp?$AAy?$AA_?$AAs?$AA?$CI?$AAf?$AAo?$AAs?$AA?9?$AA?$DO?$AAm?$AAa?$AAn?$AA?0?$AA?5?$AA2?$AA1?$AA?$CL?$AA1?$AA?0?$AA?5?$AA?$CC?$AA1?$AA?$CD?$AAS?$AAN?$AAA?$AAN@ 00462578     LIBCMTD:_x10fout_.obj
 0002:0000d5c0       ??_C@_1BI@ELMAAFLN@?$AA$?$AAI?$AA1?$AA0?$AA_?$AAO?$AAU?$AAT?$AAP?$AAU?$AAT?$AA?$AA@ 004625c0     LIBCMTD:_x10fout_.obj
 0002:0000d5d8       ??_C@_1HG@HFJMHCFK@?$AAf?$AA?3?$AA?2?$AAd?$AAd?$AA?2?$AAv?$AAc?$AAt?$AAo?$AAo?$AAl?$AAs?$AA?2?$AAc?$AAr?$AAt?$AA_?$AAb?$AAl?$AAd?$AA?2?$AAs?$AAe?$AAl?$AAf?$AA_?$AAx?$AA8?$AA6?$AA?2?$AAc@ 004625d8     LIBCMTD:_x10fout_.obj
 0002:0000d650       ??_C@_1BA@BMMDEPNE@?$AAs?$AAt?$AAr?$AAt?$AAo?$AAx?$AAq?$AA?$AA@ 00462650     LIBCMTD:strtoq.obj
 0002:0000d660       ??_C@_1GA@GIMEIKLC@?$AAf?$AA?3?$AA?2?$AAd?$AAd?$AA?2?$AAv?$AAc?$AAt?$AAo?$AAo?$AAl?$AAs?$AA?2?$AAc?$AAr?$AAt?$AA_?$AAb?$AAl?$AAd?$AA?2?$AAs?$AAe?$AAl?$AAf?$AA_?$AAx?$AA8?$AA6?$AA?2?$AAc@ 00462660     LIBCMTD:strtoq.obj
 0002:0000d6c0       ??_C@_1BA@BALFACEM@?$AAC?$AAO?$AAN?$AAO?$AAU?$AAT?$AA$?$AA?$AA@ 004626c0     LIBCMTD:initcon.obj
 0002:0000d6d0       ??_C@_1O@EGMJNCOI@?$AAf?$AAc?$AAl?$AAo?$AAs?$AAe?$AA?$AA@ 004626d0     LIBCMTD:fclose.obj
 0002:0000d6e0       ??_C@_1GA@KMIDAPAP@?$AAf?$AA?3?$AA?2?$AAd?$AAd?$AA?2?$AAv?$AAc?$AAt?$AAo?$AAo?$AAl?$AAs?$AA?2?$AAc?$AAr?$AAt?$AA_?$AAb?$AAl?$AAd?$AA?2?$AAs?$AAe?$AAl?$AAf?$AA_?$AAx?$AA8?$AA6?$AA?2?$AAc@ 004626e0     LIBCMTD:fclose.obj
 0002:0000d740       ??_C@_1BO@JINCABEC@?$AA_?$AAf?$AAc?$AAl?$AAo?$AAs?$AAe?$AA_?$AAn?$AAo?$AAl?$AAo?$AAc?$AAk?$AA?$AA@ 00462740     LIBCMTD:fclose.obj
 0002:0000d760       ??_C@_1DG@LNNHNFHJ@?$AA?$CI?$AA_?$AAo?$AAs?$AAf?$AAi?$AAl?$AAe?$AA?$CI?$AAf?$AAi?$AAl?$AAe?$AAd?$AAe?$AAs?$AA?$CJ?$AA?5?$AA?$CG?$AA?5?$AAF?$AAO?$AAP?$AAE?$AAN?$AA?$CJ?$AA?$AA@ 00462760     LIBCMTD:commit.obj
 0002:0000d798       ??_C@_1BA@FLNMBBIM@?$AA_?$AAc?$AAo?$AAm?$AAm?$AAi?$AAt?$AA?$AA@ 00462798     LIBCMTD:commit.obj
 0002:0000d7a8       ??_C@_1GA@BOPCOCFN@?$AAf?$AA?3?$AA?2?$AAd?$AAd?$AA?2?$AAv?$AAc?$AAt?$AAo?$AAo?$AAl?$AAs?$AA?2?$AAc?$AAr?$AAt?$AA_?$AAb?$AAl?$AAd?$AA?2?$AAs?$AAe?$AAl?$AAf?$AA_?$AAx?$AA8?$AA6?$AA?2?$AAc@ 004627a8     LIBCMTD:commit.obj
 0002:0000d808       ??_C@_1HC@KFLBHHBC@?$AA?$CI?$AAf?$AAi?$AAl?$AAe?$AAd?$AAe?$AAs?$AA?5?$AA?$DO?$AA?$DN?$AA?5?$AA0?$AA?5?$AA?$CG?$AA?$CG?$AA?5?$AA?$CI?$AAu?$AAn?$AAs?$AAi?$AAg?$AAn?$AAe?$AAd?$AA?$CJ?$AAf?$AAi?$AAl?$AAe?$AAd@ 00462808     LIBCMTD:commit.obj
 0002:0000d87c       ??_C@_1O@EDEJGJBM@?$AA_?$AAc?$AAl?$AAo?$AAs?$AAe?$AA?$AA@ 0046287c     LIBCMTD:close.obj
 0002:0000d890       ??_C@_1FO@NNGNFGFH@?$AAf?$AA?3?$AA?2?$AAd?$AAd?$AA?2?$AAv?$AAc?$AAt?$AAo?$AAo?$AAl?$AAs?$AA?2?$AAc?$AAr?$AAt?$AA_?$AAb?$AAl?$AAd?$AA?2?$AAs?$AAe?$AAl?$AAf?$AA_?$AAx?$AA8?$AA6?$AA?2?$AAc@ 00462890     LIBCMTD:close.obj
 0002:0000d8f0       ??_C@_1GE@MIMBMOF@?$AAf?$AA?3?$AA?2?$AAd?$AAd?$AA?2?$AAv?$AAc?$AAt?$AAo?$AAo?$AAl?$AAs?$AA?2?$AAc?$AAr?$AAt?$AA_?$AAb?$AAl?$AAd?$AA?2?$AAs?$AAe?$AAl?$AAf?$AA_?$AAx?$AA8?$AA6?$AA?2?$AAc@ 004628f0     LIBCMTD:_freebuf.obj
 0002:0000d954       ??_C@_1BO@KIJENGPH@?$AAs?$AAt?$AAr?$AAe?$AAa?$AAm?$AA?5?$AA?$CB?$AA?$DN?$AA?5?$AAN?$AAU?$AAL?$AAL?$AA?$AA@ 00462954     LIBCMTD:_freebuf.obj
 0002:0000d978       __load_config_used         00462978     LIBCMTD:loadcfg.obj
 0002:0000da1c       ??_R4ListMainForm@@6BCWindowWnd@DuiLib@@@ 00462a1c     Main.obj
 0002:0000da30       ??_R3ListMainForm@@8       00462a30     Main.obj
 0002:0000da40       ??_R2ListMainForm@@8       00462a40     Main.obj
 0002:0000da54       ??_R1A@?0A@EA@ListMainForm@@8 00462a54     Main.obj
 0002:0000da70       ??_R1A@?0A@EA@CWindowWnd@DuiLib@@8 00462a70     Main.obj
 0002:0000da8c       ??_R3CWindowWnd@DuiLib@@8  00462a8c     Main.obj
 0002:0000da9c       ??_R2CWindowWnd@DuiLib@@8  00462a9c     Main.obj
 0002:0000daa4       ??_R1BA@?0A@EA@INotifyUI@DuiLib@@8 00462aa4     Main.obj
 0002:0000dac0       ??_R3INotifyUI@DuiLib@@8   00462ac0     Main.obj
 0002:0000dad0       ??_R2INotifyUI@DuiLib@@8   00462ad0     Main.obj
 0002:0000dad8       ??_R1A@?0A@EA@INotifyUI@DuiLib@@8 00462ad8     Main.obj
 0002:0000daf4       ??_R1BE@?0A@EA@IListCallbackUI@DuiLib@@8 00462af4     Main.obj
 0002:0000db10       ??_R3IListCallbackUI@DuiLib@@8 00462b10     Main.obj
 0002:0000db20       ??_R2IListCallbackUI@DuiLib@@8 00462b20     Main.obj
 0002:0000db28       ??_R1A@?0A@EA@IListCallbackUI@DuiLib@@8 00462b28     Main.obj
 0002:0000db44       ??_R4ListMainForm@@6BINotifyUI@DuiLib@@@ 00462b44     Main.obj
 0002:0000db58       ??_R4ListMainForm@@6BIListCallbackUI@DuiLib@@@ 00462b58     Main.obj
 0002:0000db6c       ??_R4INotifyUI@DuiLib@@6B@ 00462b6c     Main.obj
 0002:0000db80       ??_R4CMenuWnd@@6BCWindowWnd@DuiLib@@@ 00462b80     Main.obj
 0002:0000db94       ??_R3CMenuWnd@@8           00462b94     Main.obj
 0002:0000dba4       ??_R2CMenuWnd@@8           00462ba4     Main.obj
 0002:0000dbb4       ??_R1A@?0A@EA@CMenuWnd@@8  00462bb4     Main.obj
 0002:0000dbd0       ??_R4CMenuWnd@@6BINotifyUI@DuiLib@@@ 00462bd0     Main.obj
 0002:0000dbe4       ??_R4CShadowWnd@@6B@       00462be4     Main.obj
 0002:0000dbf8       ??_R3CShadowWnd@@8         00462bf8     Main.obj
 0002:0000dc08       ??_R2CShadowWnd@@8         00462c08     Main.obj
 0002:0000dc14       ??_R1A@?0A@EA@CShadowWnd@@8 00462c14     Main.obj
 0002:0000dc30       ??_R4CListTextElementUI@DuiLib@@6BCControlUI@1@@ 00462c30     Main.obj
 0002:0000dc44       ??_R3CListTextElementUI@DuiLib@@8 00462c44     Main.obj
 0002:0000dc54       ??_R2CListTextElementUI@DuiLib@@8 00462c54     Main.obj
 0002:0000dc6c       ??_R1A@?0A@EA@CListTextElementUI@DuiLib@@8 00462c6c     Main.obj
 0002:0000dc88       ??_R1A@?0A@EA@CListLabelElementUI@DuiLib@@8 00462c88     Main.obj
 0002:0000dca4       ??_R3CListLabelElementUI@DuiLib@@8 00462ca4     Main.obj
 0002:0000dcb4       ??_R2CListLabelElementUI@DuiLib@@8 00462cb4     Main.obj
 0002:0000dcc8       ??_R1A@?0A@EA@CListElementUI@DuiLib@@8 00462cc8     Main.obj
 0002:0000dce4       ??_R3CListElementUI@DuiLib@@8 00462ce4     Main.obj
 0002:0000dcf4       ??_R2CListElementUI@DuiLib@@8 00462cf4     Main.obj
 0002:0000dd04       ??_R1A@?0A@EA@CControlUI@DuiLib@@8 00462d04     Main.obj
 0002:0000dd20       ??_R3CControlUI@DuiLib@@8  00462d20     Main.obj
 0002:0000dd30       ??_R2CControlUI@DuiLib@@8  00462d30     Main.obj
 0002:0000dd38       ??_R1EKA@?0A@EA@IListItemUI@DuiLib@@8 00462d38     Main.obj
 0002:0000dd54       ??_R3IListItemUI@DuiLib@@8 00462d54     Main.obj
 0002:0000dd64       ??_R2IListItemUI@DuiLib@@8 00462d64     Main.obj
 0002:0000dd6c       ??_R1A@?0A@EA@IListItemUI@DuiLib@@8 00462d6c     Main.obj
 0002:0000dd88       ??_R4IListCallbackUI@DuiLib@@6B@ 00462d88     Main.obj
 0002:0000dd9c       ??_R4?$basic_ios@DU?$char_traits@D@std@@@std@@6B@ 00462d9c     Main.obj
 0002:0000ddb0       ??_R3?$basic_ios@DU?$char_traits@D@std@@@std@@8 00462db0     Main.obj
 0002:0000ddc0       ??_R2?$basic_ios@DU?$char_traits@D@std@@@std@@8 00462dc0     Main.obj
 0002:0000ddd0       ??_R1A@?0A@EA@?$basic_ios@DU?$char_traits@D@std@@@std@@8 00462dd0     Main.obj
 0002:0000ddec       ??_R1A@?0A@EA@ios_base@std@@8 00462dec     Main.obj
 0002:0000de08       ??_R3ios_base@std@@8       00462e08     Main.obj
 0002:0000de18       ??_R2ios_base@std@@8       00462e18     Main.obj
 0002:0000de24       ??_R17?0A@EA@?$_Iosb@H@std@@8 00462e24     Main.obj
 0002:0000de40       ??_R3?$_Iosb@H@std@@8      00462e40     Main.obj
 0002:0000de50       ??_R2?$_Iosb@H@std@@8      00462e50     Main.obj
 0002:0000de58       ??_R1A@?0A@EA@?$_Iosb@H@std@@8 00462e58     Main.obj
 0002:0000de74       ??_R4ios_base@std@@6B@     00462e74     Main.obj
 0002:0000de88       ??_R4runtime_error@std@@6B@ 00462e88     Main.obj
 0002:0000de9c       ??_R3runtime_error@std@@8  00462e9c     Main.obj
 0002:0000deac       ??_R2runtime_error@std@@8  00462eac     Main.obj
 0002:0000deb8       ??_R1A@?0A@EA@runtime_error@std@@8 00462eb8     Main.obj
 0002:0000ded4       ??_R1A@?0A@EA@exception@std@@8 00462ed4     Main.obj
 0002:0000def0       ??_R3exception@std@@8      00462ef0     Main.obj
 0002:0000df00       ??_R2exception@std@@8      00462f00     Main.obj
 0002:0000df08       ??_R4failure@ios_base@std@@6B@ 00462f08     Main.obj
 0002:0000df1c       ??_R3failure@ios_base@std@@8 00462f1c     Main.obj
 0002:0000df2c       ??_R2failure@ios_base@std@@8 00462f2c     Main.obj
 0002:0000df40       ??_R1A@?0A@EA@failure@ios_base@std@@8 00462f40     Main.obj
 0002:0000df5c       ??_R1A@?0A@EA@system_error@std@@8 00462f5c     Main.obj
 0002:0000df78       ??_R3system_error@std@@8   00462f78     Main.obj
 0002:0000df88       ??_R2system_error@std@@8   00462f88     Main.obj
 0002:0000df98       ??_R4system_error@std@@6B@ 00462f98     Main.obj
 0002:0000dfac       ??_R4?$basic_stringstream@DU?$char_traits@D@std@@V?$allocator@D@2@@std@@6B@ 00462fac     Main.obj
 0002:0000dfc0       ??_R3?$basic_stringstream@DU?$char_traits@D@std@@V?$allocator@D@2@@std@@8 00462fc0     Main.obj
 0002:0000dfd0       ??_R2?$basic_stringstream@DU?$char_traits@D@std@@V?$allocator@D@2@@std@@8 00462fd0     Main.obj
 0002:0000dffc       ??_R1A@?0A@EA@?$basic_stringstream@DU?$char_traits@D@std@@V?$allocator@D@2@@std@@8 00462ffc     Main.obj
 0002:0000e018       ??_R1A@?0A@EA@?$basic_iostream@DU?$char_traits@D@std@@@std@@8 00463018     Main.obj
 0002:0000e034       ??_R3?$basic_iostream@DU?$char_traits@D@std@@@std@@8 00463034     Main.obj
 0002:0000e044       ??_R2?$basic_iostream@DU?$char_traits@D@std@@@std@@8 00463044     Main.obj
 0002:0000e06c       ??_R1A@?0A@EA@?$basic_istream@DU?$char_traits@D@std@@@std@@8 0046306c     Main.obj
 0002:0000e088       ??_R3?$basic_istream@DU?$char_traits@D@std@@@std@@8 00463088     Main.obj
 0002:0000e098       ??_R2?$basic_istream@DU?$char_traits@D@std@@@std@@8 00463098     Main.obj
 0002:0000e0ac       ??_R1A@A@3FA@?$basic_ios@DU?$char_traits@D@std@@@std@@8 004630ac     Main.obj
 0002:0000e0c8       ??_R1A@A@3EA@ios_base@std@@8 004630c8     Main.obj
 0002:0000e0e4       ??_R17A@3EA@?$_Iosb@H@std@@8 004630e4     Main.obj
 0002:0000e100       ??_R1BA@?0A@EA@?$basic_ostream@DU?$char_traits@D@std@@@std@@8 00463100     Main.obj
 0002:0000e11c       ??_R3?$basic_ostream@DU?$char_traits@D@std@@@std@@8 0046311c     Main.obj
 0002:0000e12c       ??_R2?$basic_ostream@DU?$char_traits@D@std@@@std@@8 0046312c     Main.obj
 0002:0000e140       ??_R1A@?0A@EA@?$basic_ostream@DU?$char_traits@D@std@@@std@@8 00463140     Main.obj
 0002:0000e15c       ??_R4?$basic_iostream@DU?$char_traits@D@std@@@std@@6B@ 0046315c     Main.obj
 0002:0000e170       ??_R4?$basic_ostream@DU?$char_traits@D@std@@@std@@6B@ 00463170     Main.obj
 0002:0000e184       ??_R4?$basic_istream@DU?$char_traits@D@std@@@std@@6B@ 00463184     Main.obj
 0002:0000e198       ??_R4?$basic_stringbuf@DU?$char_traits@D@std@@V?$allocator@D@2@@std@@6B@ 00463198     Main.obj
 0002:0000e1ac       ??_R3?$basic_stringbuf@DU?$char_traits@D@std@@V?$allocator@D@2@@std@@8 004631ac     Main.obj
 0002:0000e1bc       ??_R2?$basic_stringbuf@DU?$char_traits@D@std@@V?$allocator@D@2@@std@@8 004631bc     Main.obj
 0002:0000e1c8       ??_R1A@?0A@EA@?$basic_stringbuf@DU?$char_traits@D@std@@V?$allocator@D@2@@std@@8 004631c8     Main.obj
 0002:0000e1e4       ??_R1A@?0A@EA@?$basic_streambuf@DU?$char_traits@D@std@@@std@@8 004631e4     Main.obj
 0002:0000e200       ??_R3?$basic_streambuf@DU?$char_traits@D@std@@@std@@8 00463200     Main.obj
 0002:0000e210       ??_R2?$basic_streambuf@DU?$char_traits@D@std@@@std@@8 00463210     Main.obj
 0002:0000e218       ??_R4?$basic_streambuf@DU?$char_traits@D@std@@@std@@6B@ 00463218     Main.obj
 0002:0000e22c       ??_R4?$ctype@D@std@@6B@    0046322c     Main.obj
 0002:0000e240       ??_R3?$ctype@D@std@@8      00463240     Main.obj
 0002:0000e250       ??_R2?$ctype@D@std@@8      00463250     Main.obj
 0002:0000e260       ??_R1A@?0A@EA@?$ctype@D@std@@8 00463260     Main.obj
 0002:0000e27c       ??_R1A@?0A@EA@ctype_base@std@@8 0046327c     Main.obj
 0002:0000e298       ??_R3ctype_base@std@@8     00463298     Main.obj
 0002:0000e2a8       ??_R2ctype_base@std@@8     004632a8     Main.obj
 0002:0000e2b4       ??_R1A@?0A@EA@facet@locale@std@@8 004632b4     Main.obj
 0002:0000e2d0       ??_R3facet@locale@std@@8   004632d0     Main.obj
 0002:0000e2e0       ??_R2facet@locale@std@@8   004632e0     Main.obj
 0002:0000e2e8       ??_R4ctype_base@std@@6B@   004632e8     Main.obj
 0002:0000e2fc       ??_R4facet@locale@std@@6B@ 004632fc     Main.obj
 0002:0000e310       ??_R4bad_alloc@std@@6B@    00463310     Main.obj
 0002:0000e324       ??_R3bad_alloc@std@@8      00463324     Main.obj
 0002:0000e334       ??_R2bad_alloc@std@@8      00463334     Main.obj
 0002:0000e340       ??_R1A@?0A@EA@bad_alloc@std@@8 00463340     Main.obj
 0002:0000e35c       ??_R4?$num_put@DV?$ostreambuf_iterator@DU?$char_traits@D@std@@@std@@@std@@6B@ 0046335c     Main.obj
 0002:0000e370       ??_R3?$num_put@DV?$ostreambuf_iterator@DU?$char_traits@D@std@@@std@@@std@@8 00463370     Main.obj
 0002:0000e380       ??_R2?$num_put@DV?$ostreambuf_iterator@DU?$char_traits@D@std@@@std@@@std@@8 00463380     Main.obj
 0002:0000e38c       ??_R1A@?0A@EA@?$num_put@DV?$ostreambuf_iterator@DU?$char_traits@D@std@@@std@@@std@@8 0046338c     Main.obj
 0002:0000e3a8       ??_R4?$numpunct@D@std@@6B@ 004633a8     Main.obj
 0002:0000e3bc       ??_R3?$numpunct@D@std@@8   004633bc     Main.obj
 0002:0000e3cc       ??_R2?$numpunct@D@std@@8   004633cc     Main.obj
 0002:0000e3d8       ??_R1A@?0A@EA@?$numpunct@D@std@@8 004633d8     Main.obj
 0002:0000e3f4       ??_R4_Generic_error_category@std@@6B@ 004633f4     libcpmtd:syserror.obj
 0002:0000e408       ??_R3_Generic_error_category@std@@8 00463408     libcpmtd:syserror.obj
 0002:0000e418       ??_R2_Generic_error_category@std@@8 00463418     libcpmtd:syserror.obj
 0002:0000e424       ??_R1A@?0A@EA@_Generic_error_category@std@@8 00463424     libcpmtd:syserror.obj
 0002:0000e440       ??_R1A@?0A@EA@error_category@std@@8 00463440     libcpmtd:syserror.obj
 0002:0000e45c       ??_R3error_category@std@@8 0046345c     libcpmtd:syserror.obj
 0002:0000e46c       ??_R2error_category@std@@8 0046346c     libcpmtd:syserror.obj
 0002:0000e474       ??_R4error_category@std@@6B@ 00463474     libcpmtd:syserror.obj
 0002:0000e488       ??_R4_Iostream_error_category@std@@6B@ 00463488     libcpmtd:syserror.obj
 0002:0000e49c       ??_R3_Iostream_error_category@std@@8 0046349c     libcpmtd:syserror.obj
 0002:0000e4ac       ??_R2_Iostream_error_category@std@@8 004634ac     libcpmtd:syserror.obj
 0002:0000e4b8       ??_R1A@?0A@EA@_Iostream_error_category@std@@8 004634b8     libcpmtd:syserror.obj
 0002:0000e4d4       ??_R4_System_error_category@std@@6B@ 004634d4     libcpmtd:syserror.obj
 0002:0000e4e8       ??_R3_System_error_category@std@@8 004634e8     libcpmtd:syserror.obj
 0002:0000e4f8       ??_R2_System_error_category@std@@8 004634f8     libcpmtd:syserror.obj
 0002:0000e508       ??_R1A@?0A@EA@_System_error_category@std@@8 00463508     libcpmtd:syserror.obj
 0002:0000e524       ??_R4_Locimp@locale@std@@6B@ 00463524     libcpmtd:locale0.obj
 0002:0000e538       ??_R3_Locimp@locale@std@@8 00463538     libcpmtd:locale0.obj
 0002:0000e548       ??_R2_Locimp@locale@std@@8 00463548     libcpmtd:locale0.obj
 0002:0000e554       ??_R1A@?0A@EA@_Locimp@locale@std@@8 00463554     libcpmtd:locale0.obj
 0002:0000e570       ??_R4invalid_argument@std@@6B@ 00463570     libcpmtd:xthrow.obj
 0002:0000e584       ??_R3invalid_argument@std@@8 00463584     libcpmtd:xthrow.obj
 0002:0000e594       ??_R2invalid_argument@std@@8 00463594     libcpmtd:xthrow.obj
 0002:0000e5a4       ??_R1A@?0A@EA@invalid_argument@std@@8 004635a4     libcpmtd:xthrow.obj
 0002:0000e5c0       ??_R1A@?0A@EA@logic_error@std@@8 004635c0     libcpmtd:xthrow.obj
 0002:0000e5dc       ??_R3logic_error@std@@8    004635dc     libcpmtd:xthrow.obj
 0002:0000e5ec       ??_R2logic_error@std@@8    004635ec     libcpmtd:xthrow.obj
 0002:0000e5f8       ??_R4logic_error@std@@6B@  004635f8     libcpmtd:xthrow.obj
 0002:0000e60c       ??_R4length_error@std@@6B@ 0046360c     libcpmtd:xthrow.obj
 0002:0000e620       ??_R3length_error@std@@8   00463620     libcpmtd:xthrow.obj
 0002:0000e630       ??_R2length_error@std@@8   00463630     libcpmtd:xthrow.obj
 0002:0000e640       ??_R1A@?0A@EA@length_error@std@@8 00463640     libcpmtd:xthrow.obj
 0002:0000e65c       ??_R4out_of_range@std@@6B@ 0046365c     libcpmtd:xthrow.obj
 0002:0000e670       ??_R3out_of_range@std@@8   00463670     libcpmtd:xthrow.obj
 0002:0000e680       ??_R2out_of_range@std@@8   00463680     libcpmtd:xthrow.obj
 0002:0000e690       ??_R1A@?0A@EA@out_of_range@std@@8 00463690     libcpmtd:xthrow.obj
 0002:0000e6ac       ??_R4overflow_error@std@@6B@ 004636ac     libcpmtd:xthrow.obj
 0002:0000e6c0       ??_R3overflow_error@std@@8 004636c0     libcpmtd:xthrow.obj
 0002:0000e6d0       ??_R2overflow_error@std@@8 004636d0     libcpmtd:xthrow.obj
 0002:0000e6e0       ??_R1A@?0A@EA@overflow_error@std@@8 004636e0     libcpmtd:xthrow.obj
 0002:0000e6fc       ??_R4type_info@@6B@        004636fc     LIBCMTD:typinfo.obj
 0002:0000e710       ??_R3type_info@@8          00463710     LIBCMTD:typinfo.obj
 0002:0000e720       ??_R2type_info@@8          00463720     LIBCMTD:typinfo.obj
 0002:0000e728       ??_R1A@?0A@EA@type_info@@8 00463728     LIBCMTD:typinfo.obj
 0002:0000e744       ??_R4exception@std@@6B@    00463744     LIBCMTD:stdexcpt.obj
 0002:0000e758       ??_R4bad_cast@std@@6B@     00463758     LIBCMTD:stdexcpt.obj
 0002:0000e76c       ??_R3bad_cast@std@@8       0046376c     LIBCMTD:stdexcpt.obj
 0002:0000e77c       ??_R2bad_cast@std@@8       0046377c     LIBCMTD:stdexcpt.obj
 0002:0000e788       ??_R1A@?0A@EA@bad_cast@std@@8 00463788     LIBCMTD:stdexcpt.obj
 0002:0000e7a4       ??_R4bad_typeid@std@@6B@   004637a4     LIBCMTD:stdexcpt.obj
 0002:0000e7b8       ??_R3bad_typeid@std@@8     004637b8     LIBCMTD:stdexcpt.obj
 0002:0000e7c8       ??_R2bad_typeid@std@@8     004637c8     LIBCMTD:stdexcpt.obj
 0002:0000e7d4       ??_R1A@?0A@EA@bad_typeid@std@@8 004637d4     LIBCMTD:stdexcpt.obj
 0002:0000e7f0       ??_R4__non_rtti_object@std@@6B@ 004637f0     LIBCMTD:stdexcpt.obj
 0002:0000e804       ??_R3__non_rtti_object@std@@8 00463804     LIBCMTD:stdexcpt.obj
 0002:0000e814       ??_R2__non_rtti_object@std@@8 00463814     LIBCMTD:stdexcpt.obj
 0002:0000e824       ??_R1A@?0A@EA@__non_rtti_object@std@@8 00463824     LIBCMTD:stdexcpt.obj
 0002:0000e840       ??_R4bad_exception@std@@6B@ 00463840     LIBCMTD:frame.obj
 0002:0000e854       ??_R3bad_exception@std@@8  00463854     LIBCMTD:frame.obj
 0002:0000e864       ??_R2bad_exception@std@@8  00463864     LIBCMTD:frame.obj
 0002:0000e870       ??_R1A@?0A@EA@bad_exception@std@@8 00463870     LIBCMTD:frame.obj
 0002:0000e890       ___safe_se_handler_table   00463890     <linker-defined>
 0002:0000e9e4       ___rtc_iaa                 004639e4     LIBCMTD:_initsect_.obj
 0002:0000e9ec       ___rtc_izz                 004639ec     LIBCMTD:_initsect_.obj
 0002:0000e9f0       ___rtc_taa                 004639f0     LIBCMTD:_initsect_.obj
 0002:0000e9f8       ___rtc_tzz                 004639f8     LIBCMTD:_initsect_.obj
 0002:0000ecac       __TI4?AVfailure@ios_base@std@@ 00463cac     Main.obj
 0002:0000ecbc       __CTA4?AVfailure@ios_base@std@@ 00463cbc     Main.obj
 0002:0000ecd0       __CT??_R0?AVfailure@ios_base@std@@@8??0failure@ios_base@std@@QAE@ABV012@@Z20 00463cd0     Main.obj
 0002:0000ecec       __CT??_R0?AVsystem_error@std@@@8??0system_error@std@@QAE@ABV01@@Z20 00463cec     Main.obj
 0002:0000ed08       __CT??_R0?AVruntime_error@std@@@8??0runtime_error@std@@QAE@ABV01@@Z12 00463d08     Main.obj
 0002:0000ed24       __CT??_R0?AVexception@std@@@8??0exception@std@@QAE@ABV01@@Z12 00463d24     Main.obj
 0002:0000f3a8       __TI2?AVbad_cast@std@@     004643a8     Main.obj
 0002:0000f3e4       __CTA2?AVbad_cast@std@@    004643e4     Main.obj
 0002:0000f3f0       __CT??_R0?AVbad_cast@std@@@8??0bad_cast@std@@QAE@ABV01@@Z12 004643f0     Main.obj
 0002:0000f448       __TI2?AVruntime_error@std@@ 00464448     Main.obj
 0002:0000f4a4       __CTA2?AVruntime_error@std@@ 004644a4     Main.obj
 0002:0000f5e0       __TI2?AVbad_alloc@std@@    004645e0     Main.obj
 0002:0000f5f0       __CTA2?AVbad_alloc@std@@   004645f0     Main.obj
 0002:0000f5fc       __CT??_R0?AVbad_alloc@std@@@8??0bad_alloc@std@@QAE@ABV01@@Z12 004645fc     Main.obj
 0002:0000fb58       __TI3?AVinvalid_argument@std@@ 00464b58     libcpmtd:xthrow.obj
 0002:0000fb68       __CTA3?AVinvalid_argument@std@@ 00464b68     libcpmtd:xthrow.obj
 0002:0000fb78       __CT??_R0?AVinvalid_argument@std@@@8??0invalid_argument@std@@QAE@ABV01@@Z12 00464b78     libcpmtd:xthrow.obj
 0002:0000fb94       __CT??_R0?AVlogic_error@std@@@8??0logic_error@std@@QAE@ABV01@@Z12 00464b94     libcpmtd:xthrow.obj
 0002:0000fbb0       __TI3?AVlength_error@std@@ 00464bb0     libcpmtd:xthrow.obj
 0002:0000fbc0       __CTA3?AVlength_error@std@@ 00464bc0     libcpmtd:xthrow.obj
 0002:0000fbd0       __CT??_R0?AVlength_error@std@@@8??0length_error@std@@QAE@ABV01@@Z12 00464bd0     libcpmtd:xthrow.obj
 0002:0000fbec       __TI3?AVout_of_range@std@@ 00464bec     libcpmtd:xthrow.obj
 0002:0000fbfc       __CTA3?AVout_of_range@std@@ 00464bfc     libcpmtd:xthrow.obj
 0002:0000fc0c       __CT??_R0?AVout_of_range@std@@@8??0out_of_range@std@@QAE@ABV01@@Z12 00464c0c     libcpmtd:xthrow.obj
 0002:0000fc28       __TI3?AVoverflow_error@std@@ 00464c28     libcpmtd:xthrow.obj
 0002:0000fc38       __CTA3?AVoverflow_error@std@@ 00464c38     libcpmtd:xthrow.obj
 0002:0000fc48       __CT??_R0?AVoverflow_error@std@@@8??0overflow_error@std@@QAE@ABV01@@Z12 00464c48     libcpmtd:xthrow.obj
 0002:0000fe64       __TI2?AVbad_exception@std@@ 00464e64     LIBCMTD:frame.obj
 0002:0000fe74       __CTA2?AVbad_exception@std@@ 00464e74     LIBCMTD:frame.obj
 0002:0000fe80       __CT??_R0?AVbad_exception@std@@@8??0bad_exception@std@@QAE@ABV01@@Z12 00464e80     LIBCMTD:frame.obj
 0002:000106ec       __IMPORT_DESCRIPTOR_KERNEL32 004656ec     kernel32:KERNEL32.dll
 0002:00010700       __IMPORT_DESCRIPTOR_USER32 00465700     user32:USER32.dll
 0002:00010714       __IMPORT_DESCRIPTOR_GDI32  00465714     gdi32:GDI32.dll
 0002:00010728       __IMPORT_DESCRIPTOR_DuiLib_ud 00465728     DuiLib_ud:DuiLib_ud.dll
 0002:0001073c       __NULL_IMPORT_DESCRIPTOR   0046573c     kernel32:KERNEL32.dll
 0003:00000000       ??_R0?AVListMainForm@@@8   00468000     Main.obj
 0003:0000001c       ??_R0?AVCWindowWnd@DuiLib@@@8 0046801c     Main.obj
 0003:0000003c       ??_R0?AVINotifyUI@DuiLib@@@8 0046803c     Main.obj
 0003:0000005c       ??_R0?AVIListCallbackUI@DuiLib@@@8 0046805c     Main.obj
 0003:00000084       ??_R0?AVCMenuWnd@@@8       00468084     Main.obj
 0003:0000009c       ??_R0?AVCShadowWnd@@@8     0046809c     Main.obj
 0003:000000b8       ??_R0?AVCListTextElementUI@DuiLib@@@8 004680b8     Main.obj
 0003:000000e0       ??_R0?AVCListLabelElementUI@DuiLib@@@8 004680e0     Main.obj
 0003:0000010c       ??_R0?AVCListElementUI@DuiLib@@@8 0046810c     Main.obj
 0003:00000130       ??_R0?AVCControlUI@DuiLib@@@8 00468130     Main.obj
 0003:00000150       ??_R0?AVIListItemUI@DuiLib@@@8 00468150     Main.obj
 0003:00000174       ??_R0?AV?$basic_ios@DU?$char_traits@D@std@@@std@@@8 00468174     Main.obj
 0003:000001ac       ??_R0?AVios_base@std@@@8   004681ac     Main.obj
 0003:000001c8       ??_R0?AV?$_Iosb@H@std@@@8  004681c8     Main.obj
 0003:000001e4       ??_R0?AVfailure@ios_base@std@@@8 004681e4     Main.obj
 0003:00000208       ??_R0?AVsystem_error@std@@@8 00468208     Main.obj
 0003:00000228       ??_R0?AVruntime_error@std@@@8 00468228     Main.obj
 0003:00000248       ??_R0?AVexception@std@@@8  00468248     Main.obj
 0003:00000268       ??_R0?AV?$basic_stringstream@DU?$char_traits@D@std@@V?$allocator@D@2@@std@@@8 00468268     Main.obj
 0003:000002b8       ??_R0?AV?$basic_iostream@DU?$char_traits@D@std@@@std@@@8 004682b8     Main.obj
 0003:000002f4       ??_R0?AV?$basic_istream@DU?$char_traits@D@std@@@std@@@8 004682f4     Main.obj
 0003:00000330       ??_R0?AV?$basic_ostream@DU?$char_traits@D@std@@@std@@@8 00468330     Main.obj
 0003:00000370       ??_R0?AV?$basic_stringbuf@DU?$char_traits@D@std@@V?$allocator@D@2@@std@@@8 00468370     Main.obj
 0003:000003c0       ??_R0?AV?$basic_streambuf@DU?$char_traits@D@std@@@std@@@8 004683c0     Main.obj
 0003:000003fc       ??_R0?AVbad_cast@std@@@8   004683fc     Main.obj
 0003:00000418       ??_R0?AV?$ctype@D@std@@@8  00468418     Main.obj
 0003:00000434       ??_R0?AUctype_base@std@@@8 00468434     Main.obj
 0003:00000454       ??_R0?AVfacet@locale@std@@@8 00468454     Main.obj
 0003:00000474       ??_R0?AVbad_alloc@std@@@8  00468474     Main.obj
 0003:00000490       ??_R0?AV?$num_put@DV?$ostreambuf_iterator@DU?$char_traits@D@std@@@std@@@std@@@8 00468490     Main.obj
 0003:000004e4       ??_R0?AV?$numpunct@D@std@@@8 004684e4     Main.obj
 0003:00000508       ?_Sync@ios_base@std@@0_NA  00468508     libcpmtd:ios.obj
 0003:0000050c       ??_R0?AV_Generic_error_category@std@@@8 0046850c     libcpmtd:syserror.obj
 0003:00000538       ??_R0?AVerror_category@std@@@8 00468538     libcpmtd:syserror.obj
 0003:0000055c       ??_R0?AV_Iostream_error_category@std@@@8 0046855c     libcpmtd:syserror.obj
 0003:00000588       ??_R0?AV_System_error_category@std@@@8 00468588     libcpmtd:syserror.obj
 0003:000005b4       ??_R0?AV_Locimp@locale@std@@@8 004685b4     libcpmtd:locale0.obj
 0003:000005d8       ??_R0?AVinvalid_argument@std@@@8 004685d8     libcpmtd:xthrow.obj
 0003:000005fc       ??_R0?AVlogic_error@std@@@8 004685fc     libcpmtd:xthrow.obj
 0003:0000061c       ??_R0?AVlength_error@std@@@8 0046861c     libcpmtd:xthrow.obj
 0003:0000063c       ??_R0?AVout_of_range@std@@@8 0046863c     libcpmtd:xthrow.obj
 0003:0000065c       ??_R0?AVoverflow_error@std@@@8 0046865c     libcpmtd:xthrow.obj
 0003:00000688       ?_PJP_CPP_Copyright@@3PADA 00468688     libcpmtd:iosptrs.obj
 0003:000006e4       ___security_cookie         004686e4     LIBCMTD:gs_cookie.obj
 0003:000006e8       ___security_cookie_complement 004686e8     LIBCMTD:gs_cookie.obj
 0003:000006ec       ??_R0?AVtype_info@@@8      004686ec     LIBCMTD:typinfo.obj
 0003:00000714       ??_R0?AVbad_typeid@std@@@8 00468714     LIBCMTD:stdexcpt.obj
 0003:00000734       ??_R0?AV__non_rtti_object@std@@@8 00468734     LIBCMTD:stdexcpt.obj
 0003:00000760       __crtDbgFlag               00468760     LIBCMTD:dbgheap.obj
 0003:00000764       ___crtDebugFillThreshold   00468764     LIBCMTD:dbgheap.obj
 0003:0000076c       __crtBreakAlloc            0046876c     LIBCMTD:dbgheap.obj
 0003:00000780       __fltused                  00468780     LIBCMTD:_fpinit_.obj
 0003:00000784       __ldused                   00468784     LIBCMTD:_fpinit_.obj
 0003:00000790       ___lconv_static_decimal    00468790     LIBCMTD:lconv.obj
 0003:00000794       ___lconv_static_W_decimal  00468794     LIBCMTD:lconv.obj
 0003:00000798       ___lconv_c                 00468798     LIBCMTD:lconv.obj
 0003:000007e8       ___lconv                   004687e8     LIBCMTD:lconv.obj
 0003:000007ec       ___app_type                004687ec     LIBCMTD:wincrt0.obj
 0003:000007f0       ??_R0?AVbad_exception@std@@@8 004687f0     LIBCMTD:frame.obj
 0003:00000814       __pctype                   00468814     LIBCMTD:ctype.obj
 0003:00000818       __pwctype                  00468818     LIBCMTD:ctype.obj
 0003:00000990       ___abort_behavior          00468990     LIBCMTD:abort.obj
 0003:00000994       ?_RTC_ErrorLevels@@3PAHA   00468994     LIBCMTD:_error_.obj
 0003:00000ad0       ___flsindex                00468ad0     LIBCMTD:tidtable.obj
 0003:00000ad4       ___getvalueindex           00468ad4     LIBCMTD:tidtable.obj
 0003:00000ad8       __crtAssertBusy            00468ad8     LIBCMTD:dbgrptt.obj
 0003:00000adc       __CrtDbgMode               00468adc     LIBCMTD:dbgrptt.obj
 0003:00000ae8       __CrtDbgFile               00468ae8     LIBCMTD:dbgrptt.obj
 0003:00000b00       __pfnAllocHook             00468b00     LIBCMTD:dbghook.obj
 0003:00000b08       ___initialmbcinfo          00468b08     LIBCMTD:mbctype.obj
 0003:00000d28       __mbctype                  00468d28     LIBCMTD:mbctype.obj
 0003:00000e30       __mbcasemap                00468e30     LIBCMTD:mbctype.obj
 0003:00000f30       ___ptmbcinfo               00468f30     LIBCMTD:mbctype.obj
 0003:00001028       ___globallocalestatus      00469028     LIBCMTD:glstatus.obj
 0003:0000102c       ___clocalestr              0046902c     LIBCMTD:nlsdata2.obj
 0003:00001030       ___lc_time_c               00469030     LIBCMTD:nlsdata2.obj
 0003:00001198       ___initiallocinfo          00469198     LIBCMTD:nlsdata2.obj
 0003:00001270       ___ptlocinfo               00469270     LIBCMTD:nlsdata2.obj
 0003:00001274       ___initiallocalestructinfo 00469274     LIBCMTD:nlsdata2.obj
 0003:0000127c       ___nullstring              0046927c     LIBCMTD:output.obj
 0003:00001280       ___wnullstring             00469280     LIBCMTD:output.obj
 0003:00001284       __cfltcvt_tab              00469284     LIBCMTD:cmiscdat.obj
 0003:000012b0       ___badioinfo               004692b0     LIBCMTD:ioinit.obj
 0003:000012f0       __sys_errlist              004692f0     LIBCMTD:syserr.obj
 0003:000013a0       __sys_nerr                 004693a0     LIBCMTD:syserr.obj
 0003:000013a4       ___mb_cur_max              004693a4     LIBCMTD:nlsdata1.obj
 0003:000013a8       ___decimal_point           004693a8     LIBCMTD:nlsdata1.obj
 0003:000013ac       ___decimal_point_length    004693ac     LIBCMTD:nlsdata1.obj
 0003:000013b0       __iob                      004693b0     LIBCMTD:_file.obj
 0003:00001630       __NLG_Destination          00469630     LIBCMTD:exsup.obj
 0003:00001670       __confh                    00469670     LIBCMTD:initcon.obj
 0003:00001690       __pow10pos                 00469690     LIBCMTD:_constpow_.obj
 0003:000017f0       __pow10neg                 004697f0     LIBCMTD:_constpow_.obj
 0003:00001994       ?domain@@3V?$vector@V?$basic_string@DU?$char_traits@D@std@@V?$allocator@D@2@@std@@V?$allocator@V?$basic_string@DU?$char_traits@D@std@@V?$allocator@D@2@@std@@@2@@std@@A 00469994     Main.obj
 0003:000019a8       ?desc@@3V?$vector@V?$basic_string@DU?$char_traits@D@std@@V?$allocator@D@2@@std@@V?$allocator@V?$basic_string@DU?$char_traits@D@std@@V?$allocator@D@2@@std@@@2@@std@@A 004699a8     Main.obj
 0003:000019bc       ?_Psave@?$_Facetptr@V?$ctype@D@std@@@std@@2PBVfacet@locale@2@B 004699bc     Main.obj
 0003:000019c0       ?_Psave@?$_Facetptr@V?$num_put@DV?$ostreambuf_iterator@DU?$char_traits@D@std@@@std@@@std@@@std@@2PBVfacet@locale@2@B 004699c0     Main.obj
 0003:000019c4       ?_Psave@?$_Facetptr@V?$numpunct@D@std@@@std@@2PBVfacet@locale@2@B 004699c4     Main.obj
 0003:000019c8       ?id@?$num_put@DV?$ostreambuf_iterator@DU?$char_traits@D@std@@@std@@@std@@2V0locale@2@A 004699c8     Main.obj
 0003:000019cc       ?id@?$numpunct@D@std@@2V0locale@2@A 004699cc     Main.obj
 0003:00001a34       ?_Index@ios_base@std@@0HA  00469a34     libcpmtd:ios.obj
 0003:00001aa0       ?_Clocptr@_Locimp@locale@std@@0PAV123@A 00469aa0     libcpmtd:locale0.obj
 0003:00001aa4       ?_Id_cnt@id@locale@std@@0HA 00469aa4     libcpmtd:locale0.obj
 0003:00001aa8       ?id@?$ctype@D@std@@2V0locale@2@A 00469aa8     libcpmtd:locale0.obj
 0003:00001aac       ?id@?$codecvt@GDH@std@@2V0locale@2@A 00469aac     libcpmtd:locale0.obj
 0003:00001ab0       ?id@?$ctype@_W@std@@2V0locale@2@A 00469ab0     libcpmtd:locale0.obj
 0003:00001ab4       ?id@?$codecvt@_WDH@std@@2V0locale@2@A 00469ab4     libcpmtd:locale0.obj
 0003:00001abc       ?id@?$ctype@G@std@@2V0locale@2@A 00469abc     libcpmtd:locale0.obj
 0003:00001ac4       ?_Ptr_cin@std@@3PAV?$basic_istream@DU?$char_traits@D@std@@@1@A 00469ac4     libcpmtd:iosptrs.obj
 0003:00001ac8       ?_Ptr_cout@std@@3PAV?$basic_ostream@DU?$char_traits@D@std@@@1@A 00469ac8     libcpmtd:iosptrs.obj
 0003:00001acc       ?_Ptr_cerr@std@@3PAV?$basic_ostream@DU?$char_traits@D@std@@@1@A 00469acc     libcpmtd:iosptrs.obj
 0003:00001ad0       ?_Ptr_clog@std@@3PAV?$basic_ostream@DU?$char_traits@D@std@@@1@A 00469ad0     libcpmtd:iosptrs.obj
 0003:00001ad4       ?_Ptr_wcin@std@@3PAV?$basic_istream@_WU?$char_traits@_W@std@@@1@A 00469ad4     libcpmtd:iosptrs.obj
 0003:00001ad8       ?_Ptr_wcout@std@@3PAV?$basic_ostream@_WU?$char_traits@_W@std@@@1@A 00469ad8     libcpmtd:iosptrs.obj
 0003:00001adc       ?_Ptr_wcerr@std@@3PAV?$basic_ostream@_WU?$char_traits@_W@std@@@1@A 00469adc     libcpmtd:iosptrs.obj
 0003:00001ae0       ?_Ptr_wclog@std@@3PAV?$basic_ostream@_WU?$char_traits@_W@std@@@1@A 00469ae0     libcpmtd:iosptrs.obj
 0003:00001c1c       ___pInvalidArgHandler      00469c1c     LIBCMTD:invarg.obj
 0003:00001c34       ?_pfnDumpClient@@3P6AXPAXI@ZA 00469c34     LIBCMTD:dbgheap.obj
 0003:00001c3c       ___crtDebugCheckCount      00469c3c     LIBCMTD:dbgheap.obj
 0003:00001c44       ___fastflag                00469c44     LIBCMTD:_fpinit_.obj
 0003:00001c48       ___lconv_static_null       00469c48     LIBCMTD:lconv.obj
 0003:00001c4c       ___lconv_static_W_null     00469c4c     LIBCMTD:lconv.obj
 0003:00001c50       __aenvptr                  00469c50     LIBCMTD:wincrt0.obj
 0003:00001c54       __wenvptr                  00469c54     LIBCMTD:wincrt0.obj
 0003:00001c58       ___error_mode              00469c58     LIBCMTD:wincrt0.obj
 0003:00001c5c       ___locale_changed          00469c5c     LIBCMTD:setlocal.obj
 0003:00001c60       ?wsprintffp@@3P6AHPADPBDZZA 00469c60     LIBCMTD:_error_.obj
 0003:00001c6c       ?_pnhHeap@@3P6AHI@ZA       00469c6c     LIBCMTD:handler.obj
 0003:000025c8       ___pPurecall               0046a5c8     LIBCMTD:inithelp.obj
 0003:00002738       _gpFlsAlloc                0046a738     LIBCMTD:tidtable.obj
 0003:0000273c       _gpFlsGetValue             0046a73c     LIBCMTD:tidtable.obj
 0003:00002740       _gpFlsSetValue             0046a740     LIBCMTD:tidtable.obj
 0003:00002744       _gpFlsFree                 0046a744     LIBCMTD:tidtable.obj
 0003:00002748       ?__pInconsistency@@3P6AXXZA 0046a748     LIBCMTD:hooks.obj
 0003:0000274c       __umaskval                 0046a74c     LIBCMTD:crt0dat.obj
 0003:00002750       ___argc                    0046a750     LIBCMTD:crt0dat.obj
 0003:00002754       ___argv                    0046a754     LIBCMTD:crt0dat.obj
 0003:00002758       ___wargv                   0046a758     LIBCMTD:crt0dat.obj
 0003:0000275c       __environ                  0046a75c     LIBCMTD:crt0dat.obj
 0003:00002760       ___initenv                 0046a760     LIBCMTD:crt0dat.obj
 0003:00002764       __wenviron                 0046a764     LIBCMTD:crt0dat.obj
 0003:00002768       ___winitenv                0046a768     LIBCMTD:crt0dat.obj
 0003:0000276c       __pgmptr                   0046a76c     LIBCMTD:crt0dat.obj
 0003:00002770       __wpgmptr                  0046a770     LIBCMTD:crt0dat.obj
 0003:00002774       __exitflag                 0046a774     LIBCMTD:crt0dat.obj
 0003:00002778       __C_Termination_Done       0046a778     LIBCMTD:crt0dat.obj
 0003:0000277c       __C_Exit_Done              0046a77c     LIBCMTD:crt0dat.obj
 0003:000027ac       __newmode                  0046a7ac     LIBCMTD:_newmode.obj
 0003:000027b0       __crtheap                  0046a7b0     LIBCMTD:heapinit.obj
 0003:000027b8       ___mbulinfo                0046a7b8     LIBCMTD:mbctype.obj
 0003:000027c4       ___mbcodepage              0046a7c4     LIBCMTD:mbctype.obj
 0003:000027c8       ___ismbcodepage            0046a7c8     LIBCMTD:mbctype.obj
 0003:000027cc       ___mblcid                  0046a7cc     LIBCMTD:mbctype.obj
 0003:000028f4       ?pArgList@UnDecorator@@0PAVReplicator@@A 0046a8f4     LIBCMTD:undname.obj
 0003:000028f8       ?pZNameList@UnDecorator@@0PAVReplicator@@A 0046a8f8     LIBCMTD:undname.obj
 0003:000028fc       ?pTemplateArgList@UnDecorator@@0PAVReplicator@@A 0046a8fc     LIBCMTD:undname.obj
 0003:00002900       ?gName@UnDecorator@@0PBDB  0046a900     LIBCMTD:undname.obj
 0003:00002904       ?name@UnDecorator@@0PBDB   0046a904     LIBCMTD:undname.obj
 0003:00002908       ?outputString@UnDecorator@@0PADA 0046a908     LIBCMTD:undname.obj
 0003:0000290c       ?maxStringLength@UnDecorator@@0HA 0046a90c     LIBCMTD:undname.obj
 0003:00002910       ?disableFlags@UnDecorator@@0KA 0046a910     LIBCMTD:undname.obj
 0003:00002914       ?m_pGetParameter@UnDecorator@@0P6APADJ@ZA 0046a914     LIBCMTD:undname.obj
 0003:00002918       ?fExplicitTemplateParams@UnDecorator@@0_NA 0046a918     LIBCMTD:undname.obj
 0003:00002919       ?fGetTemplateArgumentList@UnDecorator@@0_NA 0046a919     LIBCMTD:undname.obj
 0003:00002970       ?nodes@?1??make@DNameStatusNode@@SAPAV2@W4DNameStatus@@@Z@4PAV2@A 0046a970     LIBCMTD:undname.obj
 0003:000029a0       ??_B?1??make@DNameStatusNode@@SAPAV1@W4DNameStatus@@@Z@51 0046a9a0     LIBCMTD:undname.obj
 0003:000029a4       __cflush                   0046a9a4     LIBCMTD:_file.obj
 0003:000029c4       __outputformat             0046a9c4     LIBCMTD:outputformat.obj
 0003:000029c8       __stdbuf                   0046a9c8     LIBCMTD:_sftbuf.obj
 0003:000029d0       ___piob                    0046a9d0     <common>
 0003:000029e0       __bufin                    0046a9e0     <common>
 0003:000039e0       __nstream                  0046b9e0     <common>
 0003:000039e4       __nhandle                  0046b9e4     <common>
 0003:00003a00       ___pioinfo                 0046ba00     <common>
 0003:00003b00       __debugger_hook_dummy      0046bb00     <common>
 0003:00003b04       ___env_initialized         0046bb04     <common>
 0003:00003b08       ___onexitend               0046bb08     <common>
 0003:00003b0c       ___onexitbegin             0046bb0c     <common>
 0003:00003b10       ___mbctype_initialized     0046bb10     <common>
 0003:00003b14       ___dyn_tls_init_callback   0046bb14     <common>
 0003:00003b18       __pfnReportHook            0046bb18     <common>
 0003:00003b1c       __pReportHookListW         0046bb1c     <common>
 0003:00003b20       __pReportHookList          0046bb20     <common>
 0003:00003b24       ___sse2_available          0046bb24     <common>
 0003:00003b28       ___setlc_active            0046bb28     <common>
 0003:00003b2c       ___unguarded_readlc_active 0046bb2c     <common>
 0003:00003b30       __acmdln                   0046bb30     <common>
 0003:00003b34       __NoHeapEnableTerminationOnCorruption 0046bb34     <common>

 entry point at        0001:00018030

 Static symbols

 0001:fffff000       __unwindfunclet$??0?$_String_val@DV?$allocator@D@std@@@std@@QAE@V?$allocator@D@1@@Z$0 00400000 f   libcpmtd:syserror.obj
 0001:fffff000       __unwindfunclet$??1?$_String_val@DV?$allocator@D@std@@@std@@QAE@XZ$0 00400000 f   libcpmtd:syserror.obj
 0001:fffff000       __unwindfunclet$?construct@?$allocator@U_Container_proxy@std@@@std@@QAEXPAU_Container_proxy@2@$$QAU32@@Z$0 00400000 f   libcpmtd:syserror.obj
 0001:fffff000       __ehhandler$?_Copy@?$basic_string@DU?$char_traits@D@std@@V?$allocator@D@2@@std@@QAEXII@Z 00400000 f   libcpmtd:syserror.obj
 0001:fffff000       __unwindfunclet$??0?$basic_string@DU?$char_traits@D@std@@V?$allocator@D@2@@std@@QAE@PBD@Z$0 00400000 f   libcpmtd:syserror.obj
 0001:fffff008       __ehhandler$??0?$_String_val@DV?$allocator@D@std@@@std@@QAE@V?$allocator@D@1@@Z 00400008 f   libcpmtd:syserror.obj
 0001:fffff008       __ehhandler$??1?$_String_val@DV?$allocator@D@std@@@std@@QAE@XZ 00400008 f   libcpmtd:syserror.obj
 0001:fffff008       __ehhandler$??0?$basic_string@DU?$char_traits@D@std@@V?$allocator@D@2@@std@@QAE@PBD@Z 00400008 f   libcpmtd:syserror.obj
 0001:fffff011       __ehhandler$?construct@?$allocator@U_Container_proxy@std@@@std@@QAEXPAU_Container_proxy@2@$$QAU32@@Z 00400011 f   libcpmtd:syserror.obj
 0001:fffff0c5       __catch$?_Copy@?$basic_string@DU?$char_traits@D@std@@V?$allocator@D@2@@std@@QAEXII@Z$0 004000c5 f   libcpmtd:syserror.obj
 0001:fffff0ef       __catch$?_Copy@?$basic_string@DU?$char_traits@D@std@@V?$allocator@D@2@@std@@QAEXII@Z$1 004000ef f   libcpmtd:syserror.obj
 0001:00002bc6       __catch$?Search@ListMainForm@@SGKPAX@Z$0 00403bc6 f i Main.obj
 0001:0000444b       __catch$??6?$basic_ostream@DU?$char_traits@D@std@@@std@@QAEAAV01@H@Z$0 0040544b f i Main.obj
 0001:0000869b       __catch$?_Osfx@?$basic_ostream@DU?$char_traits@D@std@@@std@@QAEXXZ$0 0040969b f i Main.obj
 0001:00008964       __catch$?reserve@?$vector@V?$basic_string@DU?$char_traits@D@std@@V?$allocator@D@2@@std@@V?$allocator@V?$basic_string@DU?$char_traits@D@std@@V?$allocator@D@2@@std@@@2@@std@@QAEXI@Z$0 00409964 f i Main.obj
 0001:00009887       __catch$?_Copy@?$basic_string@DU?$char_traits@D@std@@V?$allocator@D@2@@std@@QAEXII@Z$0 0040a887 f i Main.obj
 0001:000098b1       __catch$?_Copy@?$basic_string@DU?$char_traits@D@std@@V?$allocator@D@2@@std@@QAEXII@Z$1 0040a8b1 f i Main.obj
 0001:0000ab7f       __catch$??$?6U?$char_traits@D@std@@@std@@YAAAV?$basic_ostream@DU?$char_traits@D@std@@@0@AAV10@PBD@Z$0 0040bb7f f i Main.obj
 0001:0000e3e9       __catch$?_Init@?$numpunct@D@std@@IAEXABV_Locinfo@2@_N@Z$0 0040f3e9 f i Main.obj
 0001:0000e6ee       __catch$??$_Uninit_def_fill_n@PAV?$basic_string@DU?$char_traits@D@std@@V?$allocator@D@2@@std@@IV12@V?$allocator@V?$basic_string@DU?$char_traits@D@std@@V?$allocator@D@2@@std@@@2@V12@@std@@YAXPAV?$basic_string@DU?$char_traits@D@std@@V?$allocator@D@2@@0@IPBV10@AAV?$allocator@V?$basic_string@DU?$char_traits@D@std@@V?$allocator@D@2@@std@@@0@0U_Nonscalar_ptr_iterator_tag@0@@Z$0 0040f6ee f i Main.obj
 0001:0000ea32       __catch$??$_Uninit_move@PAV?$basic_string@DU?$char_traits@D@std@@V?$allocator@D@2@@std@@PAV12@V?$allocator@V?$basic_string@DU?$char_traits@D@std@@V?$allocator@D@2@@std@@@2@V12@@std@@YAPAV?$basic_string@DU?$char_traits@D@std@@V?$allocator@D@2@@0@PAV10@00AAV?$allocator@V?$basic_string@DU?$char_traits@D@std@@V?$allocator@D@2@@std@@@0@0U_Nonscalar_ptr_iterator_tag@0@@Z$0 0040fa32 f i Main.obj
 0001:00010260       _tidy_global               00411260 f   libcpmtd:locale0.obj
 0001:000108f0       ?_Fac_tidy@@YAXXZ          004118f0 f   libcpmtd:locale0.obj
 0001:00011810       __CreateLocForCP           00412810 f   libcpmtd:xmbtowc.obj
 0001:00011860       __InitCPLocHash            00412860 f   libcpmtd:xmbtowc.obj
 0001:00011890       __ReleaseCPLocHash         00412890 f   libcpmtd:xmbtowc.obj
 0001:000125a0       ?CatchGuardHandler@@YA?AW4_EXCEPTION_DISPOSITION@@PAUEHExceptionRecord@@PAUCatchGuardRN@@PAX2@Z 004135a0 f   LIBCMTD:_trnsctrl_.obj
 0001:000126e0       ?TranslatorGuardHandler@@YA?AW4_EXCEPTION_DISPOSITION@@PAUEHExceptionRecord@@PAUTranslatorGuardRN@@PAX2@Z 004136e0 f   LIBCMTD:_trnsctrl_.obj
 0001:000140c0       __nh_malloc_dbg_impl       004150c0 f   LIBCMTD:dbgheap.obj
 0001:00014160       __heap_alloc_dbg_impl      00415160 f   LIBCMTD:dbgheap.obj
 0001:00014730       _realloc_help              00415730 f   LIBCMTD:dbgheap.obj
 0001:000157f0       _CheckBytes                004167f0 f   LIBCMTD:dbgheap.obj
 0001:000166d0       ?_CrtMemDumpAllObjectsSince_stat@@YAXPBU_CrtMemState@@PAUlocaleinfo_struct@@@Z 004176d0 f   LIBCMTD:dbgheap.obj
 0001:000169e0       __printMemBlockData        004179e0 f   LIBCMTD:dbgheap.obj
 0001:00017e60       __onexit_nolock            00418e60 f   LIBCMTD:onexit.obj
 0001:00018050       ___tmainCRTStartup         00419050 f   LIBCMTD:wincrt0.obj
 0001:00018210       _fast_error_exit           00419210 f   LIBCMTD:wincrt0.obj
 0001:00018240       _check_managed_app         00419240 f   LIBCMTD:wincrt0.obj
 0001:00018620       ?FindHandler@@YAXPAUEHExceptionRecord@@PAUEHRegistrationNode@@PAU_CONTEXT@@PAXPBU_s_FuncInfo@@EH1@Z 00419620 f   LIBCMTD:frame.obj
 0001:00018b70       ?FindHandlerForForeignException@@YAXPAUEHExceptionRecord@@PAUEHRegistrationNode@@PAU_CONTEXT@@PAXPBU_s_FuncInfo@@HH1@Z 00419b70 f   LIBCMTD:frame.obj
 0001:00018fb0       ?CatchIt@@YAXPAUEHExceptionRecord@@PAUEHRegistrationNode@@PAU_CONTEXT@@PAXPBU_s_FuncInfo@@PBU_s_HandlerType@@PBU_s_CatchableType@@PBU_s_TryBlockMapEntry@@H1E@Z 00419fb0 f   LIBCMTD:frame.obj
 0001:00019070       ?CallCatchBlock@@YAPAXPAUEHExceptionRecord@@PAUEHRegistrationNode@@PAU_CONTEXT@@PBU_s_FuncInfo@@PAXHK@Z 0041a070 f   LIBCMTD:frame.obj
 0001:00019300       ?ExFilterRethrow@@YAHPAU_EXCEPTION_POINTERS@@@Z 0041a300 f   LIBCMTD:frame.obj
 0001:00019f70       ?IsInExceptionSpec@@YAEPAUEHExceptionRecord@@PBU_s_ESTypeList@@@Z 0041af70 f   LIBCMTD:frame.obj
 0001:0001a030       ?CallUnexpected@@YAXPBU_s_ESTypeList@@@Z 0041b030 f   LIBCMTD:frame.obj
 0001:0001a07e       __catch$?CallUnexpected@@YAXPBU_s_ESTypeList@@@Z$0 0041b07e f   LIBCMTD:frame.obj
 0001:0001a0c0       ?Is_bad_exception_allowed@@YAEPBU_s_ESTypeList@@@Z 0041b0c0 f   LIBCMTD:frame.obj
 0001:0001a700       __copytlocinfo_nolock      0041b700 f   LIBCMTD:setlocal.obj
 0001:0001ab00       _sync_legacy_variables_lk  0041bb00 f   LIBCMTD:setlocal.obj
 0001:0001ab40       __setlocale_nolock         0041bb40 f   LIBCMTD:setlocal.obj
 0001:0001af30       __setlocale_set_cat        0041bf30 f   LIBCMTD:setlocal.obj
 0001:0001b460       __setlocale_get_all        0041c460 f   LIBCMTD:setlocal.obj
 0001:0001bd90       ?__crtLCMapStringA_stat@@YAHPAUlocaleinfo_struct@@KKPBDHPADHHH@Z 0041cd90 f   LIBCMTD:a_map.obj
 0001:0001c0c0       ?strncnt@@YAHPBDH@Z        0041d0c0 f   LIBCMTD:a_map.obj
 0001:0001d550       _xtoa_s@20                 0041e550 f   LIBCMTD:xtoas.obj
 0001:0001d970       @x64toa_s@24               0041e970 f   LIBCMTD:xtoas.obj
 0001:0001dda0       ?failwithmessage@@YAXPAXHHPBD@Z 0041eda0 f   LIBCMTD:_error_.obj
 0001:0001dfc0       ?DebuggerProbe@@YAHK@Z     0041efc0 f   LIBCMTD:_error_.obj
 0001:0001e050       ?DebuggerRuntime@@YAHKHPAXPB_W@Z 0041f050 f   LIBCMTD:_error_.obj
 0001:0001e330       ?_getMemBlockDataString@@YAXPAD00I@Z 0041f330 f   LIBCMTD:_error_.obj
 0001:00020a20       _write_char                00421a20 f   LIBCMTD:woutput.obj
 0001:00020a80       _write_multi_char          00421a80 f   LIBCMTD:woutput.obj
 0001:00020ac0       _write_string              00421ac0 f   LIBCMTD:woutput.obj
 0001:00021e50       _ValidateLocalCookies      00422e50 f   LIBCMTD:chandler4.obj
 0001:00023ee0       _doexit                    00424ee0 f   LIBCMTD:crt0dat.obj
 0001:000241d0       __initterm                 004251d0 f   LIBCMTD:crt0dat.obj
 0001:00024800       _ctrlevent_capture@4       00425800 f   LIBCMTD:winsig.obj
 0001:00024c00       _siglookup                 00425c00 f   LIBCMTD:winsig.obj
 0001:00026150       __is_LFH_enabled           00427150 f   LIBCMTD:expand.obj
 0001:00026780       ?getSystemCP@@YAHH@Z       00427780 f   LIBCMTD:mbctype.obj
 0001:00026be0       ?CPtoLCID@@YAHH@Z          00427be0 f   LIBCMTD:mbctype.obj
 0001:00026c60       ?setSBCS@@YAXPAUthreadmbcinfostruct@@@Z 00427c60 f   LIBCMTD:mbctype.obj
 0001:00026d40       ?setSBUpLow@@YAXPAUthreadmbcinfostruct@@@Z 00427d40 f   LIBCMTD:mbctype.obj
 0001:00028cd0       _write_char                00429cd0 f   LIBCMTD:output.obj
 0001:00028d80       _write_multi_char          00429d80 f   LIBCMTD:output.obj
 0001:00028dc0       _write_string              00429dc0 f   LIBCMTD:output.obj
 0001:0002a010       __cftoe2_l                 0042b010 f   LIBCMTD:cvt.obj
 0001:0002adb0       __cftof2_l                 0042bdb0 f   LIBCMTD:cvt.obj
 0001:0002b390       __shift                    0042c390 f   LIBCMTD:cvt.obj
 0001:0002b7a0       _xcptlookup                0042c7a0 f   LIBCMTD:winxfltr.obj
 0001:0002bba0       _parse_cmdline             0042cba0 f   LIBCMTD:stdargv.obj
 0001:0002caa0       __get_lc_time              0042daa0 f   LIBCMTD:inittime.obj
 0001:0002e080       _fix_grouping              0042f080 f   LIBCMTD:initnum.obj
 0001:0002e720       _fix_grouping              0042f720 f   LIBCMTD:initmon.obj
 0001:0002ece0       _cmpBYTE                   0042fce0 f   LIBCMTD:memcmp.obj
 0001:0002ed10       _cmpResult                 0042fd10 f   LIBCMTD:memcmp.obj
 0001:0002ed30       _unaligned_memcmp          0042fd30 f   LIBCMTD:memcmp.obj
 0001:0002f440       _cmpWORD                   00430440 f   LIBCMTD:memcmp.obj
 0001:0002f4c0       _cmpDWORD                  004304c0 f   LIBCMTD:memcmp.obj
 0001:0002f5f0       ?__crtGetStringTypeA_stat@@YAHPAUlocaleinfo_struct@@KPBDHPAGHHH@Z 004305f0 f   LIBCMTD:a_str.obj
 0001:0002fd90       _TranslateName             00430d90 f   LIBCMTD:getqloc.obj
 0001:0002fe20       _GetLcidFromLangCountry    00430e20 f   LIBCMTD:getqloc.obj
 0001:0002fee0       _LangCountryEnumProc@4     00430ee0 f   LIBCMTD:getqloc.obj
 0001:00030320       _GetLcidFromLanguage       00431320 f   LIBCMTD:getqloc.obj
 0001:000303a0       _LanguageEnumProc@4        004313a0 f   LIBCMTD:getqloc.obj
 0001:00030540       _GetLcidFromCountry        00431540 f   LIBCMTD:getqloc.obj
 0001:00030590       _CountryEnumProc@4         00431590 f   LIBCMTD:getqloc.obj
 0001:00030690       _GetLcidFromDefault        00431690 f   LIBCMTD:getqloc.obj
 0001:000306d0       _ProcessCodePage           004316d0 f   LIBCMTD:getqloc.obj
 0001:00030780       _TestDefaultCountry        00431780 f   LIBCMTD:getqloc.obj
 0001:000307d0       _TestDefaultLanguage       004317d0 f   LIBCMTD:getqloc.obj
 0001:00030850       _LcidFromHexString         00431850 f   LIBCMTD:getqloc.obj
 0001:000308d0       _GetPrimaryLen             004318d0 f   LIBCMTD:getqloc.obj
 0001:00030cf0       ?GetPdbDll@@YAPAUHINSTANCE__@@XZ 00431cf0 f   LIBCMTD:_pdblkup_.obj
 0001:00030de0       ?GetPdbDllFromInstallPath@@YAPAUHINSTANCE__@@XZ 00431de0 f   LIBCMTD:_pdblkup_.obj
 0001:00030fa0       ?GetPdbDllPathFromFilePath@@YAHPB_WPA_WI@Z 00431fa0 f   LIBCMTD:_pdblkup_.obj
 0001:0003a7c0       ?und_strlen@@YAIPBD@Z      0043b7c0 f   LIBCMTD:undname.obj
 0001:0003a800       ?und_memcpy@@YAXPADPBDI@Z  0043b800 f   LIBCMTD:undname.obj
 0001:0003a840       ?und_strncmp@@YAIPBD0I@Z   0043b840 f   LIBCMTD:undname.obj
 0001:0003a930       __unwind_handler4          0043b930 f   LIBCMTD:exsup4.obj
 0001:0003b320       ?__crtGetLocaleInfoA_stat@@YAHPAUlocaleinfo_struct@@KKPADH@Z 0043c320 f   LIBCMTD:a_loc.obj
 0001:00040fc0       _write_char                00441fc0 f   LIBCMTD:woutputp.obj
 0001:00041020       _write_multi_char          00442020 f   LIBCMTD:woutputp.obj
 0001:00041060       _write_string              00442060 f   LIBCMTD:woutputp.obj
 0001:00042310       _write_char                00443310 f   LIBCMTD:woutputs.obj
 0001:00042370       _write_multi_char          00443370 f   LIBCMTD:woutputs.obj
 0001:000423b0       _write_string              004433b0 f   LIBCMTD:woutputs.obj
 0001:00042680       __unwind_handler           00443680 f   LIBCMTD:exsup.obj
 0001:000433f0       ?wcsncnt@@YAIPB_WI@Z       004443f0 f   LIBCMTD:wcstombs.obj
 0001:00043850       _xtow_s@20                 00444850 f   LIBCMTD:xtows.obj
 0001:00043c80       @x64tow_s@24               00444c80 f   LIBCMTD:xtows.obj
 0001:000485a0       _write_char                004495a0 f   LIBCMTD:outputp.obj
 0001:00048650       _write_multi_char          00449650 f   LIBCMTD:outputp.obj
 0001:00048690       _write_string              00449690 f   LIBCMTD:outputp.obj
 0001:00049b90       _write_char                0044ab90 f   LIBCMTD:outputs.obj
 0001:00049c40       _write_multi_char          0044ac40 f   LIBCMTD:outputs.obj
 0001:00049c80       _write_string              0044ac80 f   LIBCMTD:outputs.obj
 0001:0004ae40       ?x_ismbbtype_l@@YAHPAUlocaleinfo_struct@@IHH@Z 0044be40 f   LIBCMTD:ismbbyte.obj
 0001:0004cdf0       _flsall                    0044ddf0 f   LIBCMTD:fflush.obj
 0001:0004d710       ?wcstoxl@@YAKPB_WPAPB_WHH@Z 0044e710 f   LIBCMTD:wcstol.obj
 0001:0004db70       ?strtoxl@@YAKPAUlocaleinfo_struct@@PBDPAPBDHH@Z 0044eb70 f   LIBCMTD:strtol.obj
 0001:0004e450       __abstract_cw              0044f450 f   LIBCMTD:_ieee87_.obj
 0001:0004e5a0       __hw_cw                    0044f5a0 f   LIBCMTD:_ieee87_.obj
 0001:0004e700       __abstract_sw              0044f700 f   LIBCMTD:_ieee87_.obj
 0001:0004e790       ___statusfp_sse2           0044f790 f   LIBCMTD:_ieee87_.obj
 0001:0004e7b0       ___clearfp_sse2            0044f7b0 f   LIBCMTD:_ieee87_.obj
 0001:0004e7e0       ___control87_sse2          0044f7e0 f   LIBCMTD:_ieee87_.obj
 0001:0004e860       ___abstract_cw_sse2        0044f860 f   LIBCMTD:_ieee87_.obj
 0001:0004e9b0       ___hw_cw_sse2              0044f9b0 f   LIBCMTD:_ieee87_.obj
 0001:0004eb00       ___abstract_sw_sse2        0044fb00 f   LIBCMTD:_ieee87_.obj
 0001:0004eb90       ___fpreset_sse2            0044fb90 f   LIBCMTD:_ieee87_.obj
 0001:00050b40       ?strtoxq@@YA_KPAUlocaleinfo_struct@@PBDPAPBDHH@Z 00451b40 f   LIBCMTD:strtoq.obj
 0001:000522f0       __unwindfunclet$?Notify@ListMainForm@@UAEXAAUtagTNotifyUI@DuiLib@@@Z$0 004532f0 f   Main.obj
 0001:00052305       __unwindfunclet$?Notify@ListMainForm@@UAEXAAUtagTNotifyUI@DuiLib@@@Z$1 00453305 f   Main.obj
 0001:0005231a       __unwindfunclet$?Notify@ListMainForm@@UAEXAAUtagTNotifyUI@DuiLib@@@Z$2 0045331a f   Main.obj
 0001:00052328       __unwindfunclet$?Notify@ListMainForm@@UAEXAAUtagTNotifyUI@DuiLib@@@Z$3 00453328 f   Main.obj
 0001:00052333       __unwindfunclet$?Notify@ListMainForm@@UAEXAAUtagTNotifyUI@DuiLib@@@Z$4 00453333 f   Main.obj
 0001:0005233e       __unwindfunclet$?Notify@ListMainForm@@UAEXAAUtagTNotifyUI@DuiLib@@@Z$7 0045333e f   Main.obj
 0001:00052349       __unwindfunclet$?Notify@ListMainForm@@UAEXAAUtagTNotifyUI@DuiLib@@@Z$8 00453349 f   Main.obj
 0001:00052354       __ehhandler$?Notify@ListMainForm@@UAEXAAUtagTNotifyUI@DuiLib@@@Z 00453354 f   Main.obj
 0001:00052380       __unwindfunclet$?Notify@CMenuWnd@@UAEXAAUtagTNotifyUI@DuiLib@@@Z$0 00453380 f   Main.obj
 0001:00052395       __ehhandler$?Notify@CMenuWnd@@UAEXAAUtagTNotifyUI@DuiLib@@@Z 00453395 f   Main.obj
 0001:000523c0       __unwindfunclet$?Create@CMenuWnd@@QAEPAUHWND__@@PAU2@PB_WKKHHHHPAUHMENU__@@@Z$0 004533c0 f   Main.obj
 0001:000523cb       __ehhandler$?Create@CMenuWnd@@QAEPAUHWND__@@PAU2@PB_WKKHHHHPAUHMENU__@@@Z 004533cb f   Main.obj
 0001:000523f0       __unwindfunclet$?OnCreate@CMenuWnd@@QAEJIIJAAH@Z$0 004533f0 f   Main.obj
 0001:00052405       __ehhandler$?OnCreate@CMenuWnd@@QAEJIIJAAH@Z 00453405 f   Main.obj
 0001:00052430       __unwindfunclet$?OnSearch@ListMainForm@@QAEXXZ$0 00453430 f   Main.obj
 0001:0005243e       __unwindfunclet$?OnSearch@ListMainForm@@QAEXXZ$1 0045343e f   Main.obj
 0001:00052453       __ehhandler$?OnSearch@ListMainForm@@QAEXXZ 00453453 f   Main.obj
 0001:00052480       __unwindfunclet$?Search@ListMainForm@@SGKPAX@Z$2 00453480 f   Main.obj
 0001:00052495       __unwindfunclet$?Search@ListMainForm@@SGKPAX@Z$3 00453495 f   Main.obj
 0001:000524a0       __unwindfunclet$?Search@ListMainForm@@SGKPAX@Z$4 004534a0 f   Main.obj
 0001:000524ab       __unwindfunclet$?Search@ListMainForm@@SGKPAX@Z$5 004534ab f   Main.obj
 0001:000524b6       __unwindfunclet$?Search@ListMainForm@@SGKPAX@Z$6 004534b6 f   Main.obj
 0001:000524c4       __ehhandler$?Search@ListMainForm@@SGKPAX@Z 004534c4 f   Main.obj
 0001:000524f0       __unwindfunclet$?OnCreate@ListMainForm@@QAEJIIJAAH@Z$0 004534f0 f   Main.obj
 0001:00052505       __ehhandler$?OnCreate@ListMainForm@@QAEJIIJAAH@Z 00453505 f   Main.obj
 0001:00052530       __unwindfunclet$?_Adopt@_Iterator_base12@std@@QAEXPBU_Container_base12@2@@Z$0 00453530 f   Main.obj
 0001:00052538       __ehhandler$?_Adopt@_Iterator_base12@std@@QAEXPBU_Container_base12@2@@Z 00453538 f   Main.obj
 0001:00052560       __unwindfunclet$??1_Iterator_base12@std@@QAE@XZ$0 00453560 f   Main.obj
 0001:00052568       __ehhandler$??1_Iterator_base12@std@@QAE@XZ 00453568 f   Main.obj
 0001:00052590       __unwindfunclet$??1?$basic_string@DU?$char_traits@D@std@@V?$allocator@D@2@@std@@QAE@XZ$0 00453590 f   Main.obj
 0001:00052598       __ehhandler$??1?$basic_string@DU?$char_traits@D@std@@V?$allocator@D@2@@std@@QAE@XZ 00453598 f   Main.obj
 0001:000525c0       __unwindfunclet$??6?$basic_ostream@DU?$char_traits@D@std@@@std@@QAEAAV01@H@Z$2 004535c0 f   Main.obj
 0001:000525c8       __unwindfunclet$??6?$basic_ostream@DU?$char_traits@D@std@@@std@@QAEAAV01@H@Z$3 004535c8 f   Main.obj
 0001:000525d0       __ehhandler$??6?$basic_ostream@DU?$char_traits@D@std@@@std@@QAEAAV01@H@Z 004535d0 f   Main.obj
 0001:000525f0       __unwindfunclet$??0system_error@std@@QAE@Verror_code@1@PBD@Z$0 004535f0 f   Main.obj
 0001:000525f8       __ehhandler$??0system_error@std@@QAE@Verror_code@1@PBD@Z 004535f8 f   Main.obj
 0001:00052620       __unwindfunclet$?resize@?$vector@V?$basic_string@DU?$char_traits@D@std@@V?$allocator@D@2@@std@@V?$allocator@V?$basic_string@DU?$char_traits@D@std@@V?$allocator@D@2@@std@@@2@@std@@QAEXI@Z$0 00453620 f   Main.obj
 0001:00052628       __unwindfunclet$?resize@?$vector@V?$basic_string@DU?$char_traits@D@std@@V?$allocator@D@2@@std@@V?$allocator@V?$basic_string@DU?$char_traits@D@std@@V?$allocator@D@2@@std@@@2@@std@@QAEXI@Z$1 00453628 f   Main.obj
 0001:00052630       __unwindfunclet$?resize@?$vector@V?$basic_string@DU?$char_traits@D@std@@V?$allocator@D@2@@std@@V?$allocator@V?$basic_string@DU?$char_traits@D@std@@V?$allocator@D@2@@std@@@2@@std@@QAEXI@Z$2 00453630 f   Main.obj
 0001:00052638       __unwindfunclet$?resize@?$vector@V?$basic_string@DU?$char_traits@D@std@@V?$allocator@D@2@@std@@V?$allocator@V?$basic_string@DU?$char_traits@D@std@@V?$allocator@D@2@@std@@@2@@std@@QAEXI@Z$3 00453638 f   Main.obj
 0001:00052640       __ehhandler$?resize@?$vector@V?$basic_string@DU?$char_traits@D@std@@V?$allocator@D@2@@std@@V?$allocator@V?$basic_string@DU?$char_traits@D@std@@V?$allocator@D@2@@std@@@2@@std@@QAEXI@Z 00453640 f   Main.obj
 0001:00052660       __unwindfunclet$?erase@?$vector@V?$basic_string@DU?$char_traits@D@std@@V?$allocator@D@2@@std@@V?$allocator@V?$basic_string@DU?$char_traits@D@std@@V?$allocator@D@2@@std@@@2@@std@@QAE?AV?$_Vector_iterator@V?$_Vector_val@V?$basic_string@DU?$char_traits@D@std@@V?$allocator@D@2@@std@@V?$allocator@V?$basic_string@DU?$char_traits@D@std@@V?$allocator@D@2@@std@@@2@@std@@@2@V?$_Vector_const_iterator@V?$_Vector_val@V?$basic_string@DU?$char_traits@D@std@@V?$allocator@D@2@@std@@V?$allocator@V?$basic_string@DU?$char_traits@D@std@@V?$allocator@D@2@@std@@@2@@std@@@2@@Z$0 00453660 f   Main.obj
 0001:00052668       __unwindfunclet$?erase@?$vector@V?$basic_string@DU?$char_traits@D@std@@V?$allocator@D@2@@std@@V?$allocator@V?$basic_string@DU?$char_traits@D@std@@V?$allocator@D@2@@std@@@2@@std@@QAE?AV?$_Vector_iterator@V?$_Vector_val@V?$basic_string@DU?$char_traits@D@std@@V?$allocator@D@2@@std@@V?$allocator@V?$basic_string@DU?$char_traits@D@std@@V?$allocator@D@2@@std@@@2@@std@@@2@V?$_Vector_const_iterator@V?$_Vector_val@V?$basic_string@DU?$char_traits@D@std@@V?$allocator@D@2@@std@@V?$allocator@V?$basic_string@DU?$char_traits@D@std@@V?$allocator@D@2@@std@@@2@@std@@@2@@Z$2 00453668 f   Main.obj
 0001:00052681       __ehhandler$?erase@?$vector@V?$basic_string@DU?$char_traits@D@std@@V?$allocator@D@2@@std@@V?$allocator@V?$basic_string@DU?$char_traits@D@std@@V?$allocator@D@2@@std@@@2@@std@@QAE?AV?$_Vector_iterator@V?$_Vector_val@V?$basic_string@DU?$char_traits@D@std@@V?$allocator@D@2@@std@@V?$allocator@V?$basic_string@DU?$char_traits@D@std@@V?$allocator@D@2@@std@@@2@@std@@@2@V?$_Vector_const_iterator@V?$_Vector_val@V?$basic_string@DU?$char_traits@D@std@@V?$allocator@D@2@@std@@V?$allocator@V?$basic_string@DU?$char_traits@D@std@@V?$allocator@D@2@@std@@@2@@std@@@2@@Z 00453681 f   Main.obj
 0001:000526a0       __unwindfunclet$??0?$basic_stringstream@DU?$char_traits@D@std@@V?$allocator@D@2@@std@@QAE@H@Z$0 004536a0 f   Main.obj
 0001:000526bc       __unwindfunclet$??0?$basic_stringstream@DU?$char_traits@D@std@@V?$allocator@D@2@@std@@QAE@H@Z$1 004536bc f   Main.obj
 0001:000526c7       __ehhandler$??0?$basic_stringstream@DU?$char_traits@D@std@@V?$allocator@D@2@@std@@QAE@H@Z 004536c7 f   Main.obj
 0001:000526f0       __unwindfunclet$??1?$basic_stringstream@DU?$char_traits@D@std@@V?$allocator@D@2@@std@@UAE@XZ$0 004536f0 f   Main.obj
 0001:000526fb       __ehhandler$??1?$basic_stringstream@DU?$char_traits@D@std@@V?$allocator@D@2@@std@@UAE@XZ 004536fb f   Main.obj
 0001:00052720       __unwindfunclet$??1?$basic_iostream@DU?$char_traits@D@std@@@std@@UAE@XZ$0 00453720 f   Main.obj
 0001:0005272b       __ehhandler$??1?$basic_iostream@DU?$char_traits@D@std@@@std@@UAE@XZ 0045372b f   Main.obj
 0001:00052750       __unwindfunclet$??1?$basic_stringbuf@DU?$char_traits@D@std@@V?$allocator@D@2@@std@@UAE@XZ$0 00453750 f   Main.obj
 0001:00052758       __ehhandler$??1?$basic_stringbuf@DU?$char_traits@D@std@@V?$allocator@D@2@@std@@UAE@XZ 00453758 f   Main.obj
 0001:00052780       __unwindfunclet$??1?$basic_streambuf@DU?$char_traits@D@std@@@std@@UAE@XZ$0 00453780 f   Main.obj
 0001:0005278b       __ehhandler$??1?$basic_streambuf@DU?$char_traits@D@std@@@std@@UAE@XZ 0045378b f   Main.obj
 0001:000527b0       __unwindfunclet$??H?$_Vector_iterator@V?$_Vector_val@V?$basic_string@DU?$char_traits@D@std@@V?$allocator@D@2@@std@@V?$allocator@V?$basic_string@DU?$char_traits@D@std@@V?$allocator@D@2@@std@@@2@@std@@@std@@QBE?AV01@H@Z$0 004537b0 f   Main.obj
 0001:000527b8       __unwindfunclet$??H?$_Vector_iterator@V?$_Vector_val@V?$basic_string@DU?$char_traits@D@std@@V?$allocator@D@2@@std@@V?$allocator@V?$basic_string@DU?$char_traits@D@std@@V?$allocator@D@2@@std@@@2@@std@@@std@@QBE?AV01@H@Z$1 004537b8 f   Main.obj
 0001:000527d1       __ehhandler$??H?$_Vector_iterator@V?$_Vector_val@V?$basic_string@DU?$char_traits@D@std@@V?$allocator@D@2@@std@@V?$allocator@V?$basic_string@DU?$char_traits@D@std@@V?$allocator@D@2@@std@@@2@@std@@@std@@QBE?AV01@H@Z 004537d1 f   Main.obj
 0001:000527f0       __unwindfunclet$??1?$_String_val@DV?$allocator@D@std@@@std@@QAE@XZ$0 004537f0 f   Main.obj
 0001:000527f8       __ehhandler$??1?$_String_val@DV?$allocator@D@std@@@std@@QAE@XZ 004537f8 f   Main.obj
 0001:00052820       __unwindfunclet$?_Make_iter@?$vector@V?$basic_string@DU?$char_traits@D@std@@V?$allocator@D@2@@std@@V?$allocator@V?$basic_string@DU?$char_traits@D@std@@V?$allocator@D@2@@std@@@2@@std@@QBE?AV?$_Vector_iterator@V?$_Vector_val@V?$basic_string@DU?$char_traits@D@std@@V?$allocator@D@2@@std@@V?$allocator@V?$basic_string@DU?$char_traits@D@std@@V?$allocator@D@2@@std@@@2@@std@@@2@V?$_Vector_const_iterator@V?$_Vector_val@V?$basic_string@DU?$char_traits@D@std@@V?$allocator@D@2@@std@@V?$allocator@V?$basic_string@DU?$char_traits@D@std@@V?$allocator@D@2@@std@@@2@@std@@@2@@Z$0 00453820 f   Main.obj
 0001:00052828       __unwindfunclet$?_Make_iter@?$vector@V?$basic_string@DU?$char_traits@D@std@@V?$allocator@D@2@@std@@V?$allocator@V?$basic_string@DU?$char_traits@D@std@@V?$allocator@D@2@@std@@@2@@std@@QBE?AV?$_Vector_iterator@V?$_Vector_val@V?$basic_string@DU?$char_traits@D@std@@V?$allocator@D@2@@std@@V?$allocator@V?$basic_string@DU?$char_traits@D@std@@V?$allocator@D@2@@std@@@2@@std@@@2@V?$_Vector_const_iterator@V?$_Vector_val@V?$basic_string@DU?$char_traits@D@std@@V?$allocator@D@2@@std@@V?$allocator@V?$basic_string@DU?$char_traits@D@std@@V?$allocator@D@2@@std@@@2@@std@@@2@@Z$1 00453828 f   Main.obj
 0001:00052841       __ehhandler$?_Make_iter@?$vector@V?$basic_string@DU?$char_traits@D@std@@V?$allocator@D@2@@std@@V?$allocator@V?$basic_string@DU?$char_traits@D@std@@V?$allocator@D@2@@std@@@2@@std@@QBE?AV?$_Vector_iterator@V?$_Vector_val@V?$basic_string@DU?$char_traits@D@std@@V?$allocator@D@2@@std@@V?$allocator@V?$basic_string@DU?$char_traits@D@std@@V?$allocator@D@2@@std@@@2@@std@@@2@V?$_Vector_const_iterator@V?$_Vector_val@V?$basic_string@DU?$char_traits@D@std@@V?$allocator@D@2@@std@@V?$allocator@V?$basic_string@DU?$char_traits@D@std@@V?$allocator@D@2@@std@@@2@@std@@@2@@Z 00453841 f   Main.obj
 0001:00052860       __unwindfunclet$?erase@?$vector@V?$basic_string@DU?$char_traits@D@std@@V?$allocator@D@2@@std@@V?$allocator@V?$basic_string@DU?$char_traits@D@std@@V?$allocator@D@2@@std@@@2@@std@@QAE?AV?$_Vector_iterator@V?$_Vector_val@V?$basic_string@DU?$char_traits@D@std@@V?$allocator@D@2@@std@@V?$allocator@V?$basic_string@DU?$char_traits@D@std@@V?$allocator@D@2@@std@@@2@@std@@@2@V?$_Vector_const_iterator@V?$_Vector_val@V?$basic_string@DU?$char_traits@D@std@@V?$allocator@D@2@@std@@V?$allocator@V?$basic_string@DU?$char_traits@D@std@@V?$allocator@D@2@@std@@@2@@std@@@2@0@Z$0 00453860 f   Main.obj
 0001:00052868       __unwindfunclet$?erase@?$vector@V?$basic_string@DU?$char_traits@D@std@@V?$allocator@D@2@@std@@V?$allocator@V?$basic_string@DU?$char_traits@D@std@@V?$allocator@D@2@@std@@@2@@std@@QAE?AV?$_Vector_iterator@V?$_Vector_val@V?$basic_string@DU?$char_traits@D@std@@V?$allocator@D@2@@std@@V?$allocator@V?$basic_string@DU?$char_traits@D@std@@V?$allocator@D@2@@std@@@2@@std@@@2@V?$_Vector_const_iterator@V?$_Vector_val@V?$basic_string@DU?$char_traits@D@std@@V?$allocator@D@2@@std@@V?$allocator@V?$basic_string@DU?$char_traits@D@std@@V?$allocator@D@2@@std@@@2@@std@@@2@0@Z$1 00453868 f   Main.obj
 0001:00052870       __unwindfunclet$?erase@?$vector@V?$basic_string@DU?$char_traits@D@std@@V?$allocator@D@2@@std@@V?$allocator@V?$basic_string@DU?$char_traits@D@std@@V?$allocator@D@2@@std@@@2@@std@@QAE?AV?$_Vector_iterator@V?$_Vector_val@V?$basic_string@DU?$char_traits@D@std@@V?$allocator@D@2@@std@@V?$allocator@V?$basic_string@DU?$char_traits@D@std@@V?$allocator@D@2@@std@@@2@@std@@@2@V?$_Vector_const_iterator@V?$_Vector_val@V?$basic_string@DU?$char_traits@D@std@@V?$allocator@D@2@@std@@V?$allocator@V?$basic_string@DU?$char_traits@D@std@@V?$allocator@D@2@@std@@@2@@std@@@2@0@Z$3 00453870 f   Main.obj
 0001:00052878       __unwindfunclet$?erase@?$vector@V?$basic_string@DU?$char_traits@D@std@@V?$allocator@D@2@@std@@V?$allocator@V?$basic_string@DU?$char_traits@D@std@@V?$allocator@D@2@@std@@@2@@std@@QAE?AV?$_Vector_iterator@V?$_Vector_val@V?$basic_string@DU?$char_traits@D@std@@V?$allocator@D@2@@std@@V?$allocator@V?$basic_string@DU?$char_traits@D@std@@V?$allocator@D@2@@std@@@2@@std@@@2@V?$_Vector_const_iterator@V?$_Vector_val@V?$basic_string@DU?$char_traits@D@std@@V?$allocator@D@2@@std@@V?$allocator@V?$basic_string@DU?$char_traits@D@std@@V?$allocator@D@2@@std@@@2@@std@@@2@0@Z$5 00453878 f   Main.obj
 0001:00052880       __unwindfunclet$?erase@?$vector@V?$basic_string@DU?$char_traits@D@std@@V?$allocator@D@2@@std@@V?$allocator@V?$basic_string@DU?$char_traits@D@std@@V?$allocator@D@2@@std@@@2@@std@@QAE?AV?$_Vector_iterator@V?$_Vector_val@V?$basic_string@DU?$char_traits@D@std@@V?$allocator@D@2@@std@@V?$allocator@V?$basic_string@DU?$char_traits@D@std@@V?$allocator@D@2@@std@@@2@@std@@@2@V?$_Vector_const_iterator@V?$_Vector_val@V?$basic_string@DU?$char_traits@D@std@@V?$allocator@D@2@@std@@V?$allocator@V?$basic_string@DU?$char_traits@D@std@@V?$allocator@D@2@@std@@@2@@std@@@2@0@Z$7 00453880 f   Main.obj
 0001:00052899       __ehhandler$?erase@?$vector@V?$basic_string@DU?$char_traits@D@std@@V?$allocator@D@2@@std@@V?$allocator@V?$basic_string@DU?$char_traits@D@std@@V?$allocator@D@2@@std@@@2@@std@@QAE?AV?$_Vector_iterator@V?$_Vector_val@V?$basic_string@DU?$char_traits@D@std@@V?$allocator@D@2@@std@@V?$allocator@V?$basic_string@DU?$char_traits@D@std@@V?$allocator@D@2@@std@@@2@@std@@@2@V?$_Vector_const_iterator@V?$_Vector_val@V?$basic_string@DU?$char_traits@D@std@@V?$allocator@D@2@@std@@V?$allocator@V?$basic_string@DU?$char_traits@D@std@@V?$allocator@D@2@@std@@@2@@std@@@2@0@Z 00453899 f   Main.obj
 0001:000528c0       __unwindfunclet$?_Orphan_range@?$vector@V?$basic_string@DU?$char_traits@D@std@@V?$allocator@D@2@@std@@V?$allocator@V?$basic_string@DU?$char_traits@D@std@@V?$allocator@D@2@@std@@@2@@std@@IBEXPAV?$basic_string@DU?$char_traits@D@std@@V?$allocator@D@2@@2@0@Z$0 004538c0 f   Main.obj
 0001:000528c8       __ehhandler$?_Orphan_range@?$vector@V?$basic_string@DU?$char_traits@D@std@@V?$allocator@D@2@@std@@V?$allocator@V?$basic_string@DU?$char_traits@D@std@@V?$allocator@D@2@@std@@@2@@std@@IBEXPAV?$basic_string@DU?$char_traits@D@std@@V?$allocator@D@2@@2@0@Z 004538c8 f   Main.obj
 0001:000528f0       __unwindfunclet$??0?$basic_iostream@DU?$char_traits@D@std@@@std@@QAE@PAV?$basic_streambuf@DU?$char_traits@D@std@@@1@@Z$0 004538f0 f   Main.obj
 0001:0005290c       __unwindfunclet$??0?$basic_iostream@DU?$char_traits@D@std@@@std@@QAE@PAV?$basic_streambuf@DU?$char_traits@D@std@@@1@@Z$1 0045390c f   Main.obj
 0001:00052917       __ehhandler$??0?$basic_iostream@DU?$char_traits@D@std@@@std@@QAE@PAV?$basic_streambuf@DU?$char_traits@D@std@@@1@@Z 00453917 f   Main.obj
 0001:00052940       __unwindfunclet$??0?$basic_stringbuf@DU?$char_traits@D@std@@V?$allocator@D@2@@std@@QAE@H@Z$0 00453940 f   Main.obj
 0001:00052948       __ehhandler$??0?$basic_stringbuf@DU?$char_traits@D@std@@V?$allocator@D@2@@std@@QAE@H@Z 00453948 f   Main.obj
 0001:00052970       __unwindfunclet$?str@?$basic_stringbuf@DU?$char_traits@D@std@@V?$allocator@D@2@@std@@QBE?AV?$basic_string@DU?$char_traits@D@std@@V?$allocator@D@2@@2@XZ$0 00453970 f   Main.obj
 0001:00052978       __unwindfunclet$?str@?$basic_stringbuf@DU?$char_traits@D@std@@V?$allocator@D@2@@std@@QBE?AV?$basic_string@DU?$char_traits@D@std@@V?$allocator@D@2@@2@XZ$1 00453978 f   Main.obj
 0001:00052997       __unwindfunclet$?str@?$basic_stringbuf@DU?$char_traits@D@std@@V?$allocator@D@2@@std@@QBE?AV?$basic_string@DU?$char_traits@D@std@@V?$allocator@D@2@@2@XZ$2 00453997 f   Main.obj
 0001:0005299f       __unwindfunclet$?str@?$basic_stringbuf@DU?$char_traits@D@std@@V?$allocator@D@2@@std@@QBE?AV?$basic_string@DU?$char_traits@D@std@@V?$allocator@D@2@@2@XZ$3 0045399f f   Main.obj
 0001:000529aa       __ehhandler$?str@?$basic_stringbuf@DU?$char_traits@D@std@@V?$allocator@D@2@@std@@QBE?AV?$basic_string@DU?$char_traits@D@std@@V?$allocator@D@2@@2@XZ 004539aa f   Main.obj
 0001:000529e0       __unwindfunclet$??0?$basic_string@DU?$char_traits@D@std@@V?$allocator@D@2@@std@@QAE@XZ$0 004539e0 f   Main.obj
 0001:000529e8       __ehhandler$??0?$basic_string@DU?$char_traits@D@std@@V?$allocator@D@2@@std@@QAE@XZ 004539e8 f   Main.obj
 0001:00052a10       __unwindfunclet$??0?$basic_string@DU?$char_traits@D@std@@V?$allocator@D@2@@std@@QAE@$$QAV01@@Z$0 00453a10 f   Main.obj
 0001:00052a18       __ehhandler$??0?$basic_string@DU?$char_traits@D@std@@V?$allocator@D@2@@std@@QAE@$$QAV01@@Z 00453a18 f   Main.obj
 0001:00052a40       __unwindfunclet$??0?$_String_val@DV?$allocator@D@std@@@std@@QAE@V?$allocator@D@1@@Z$0 00453a40 f   Main.obj
 0001:00052a48       __ehhandler$??0?$_String_val@DV?$allocator@D@std@@@std@@QAE@V?$allocator@D@1@@Z 00453a48 f   Main.obj
 0001:00052a70       __unwindfunclet$??0sentry@?$basic_ostream@DU?$char_traits@D@std@@@std@@QAE@AAV12@@Z$0 00453a70 f   Main.obj
 0001:00052a78       __ehhandler$??0sentry@?$basic_ostream@DU?$char_traits@D@std@@@std@@QAE@AAV12@@Z 00453a78 f   Main.obj
 0001:00052aa0       __unwindfunclet$??1sentry@?$basic_ostream@DU?$char_traits@D@std@@@std@@QAE@XZ$0 00453aa0 f   Main.obj
 0001:00052aa8       __ehhandler$??1sentry@?$basic_ostream@DU?$char_traits@D@std@@@std@@QAE@XZ 00453aa8 f   Main.obj
 0001:00052ad0       __unwindfunclet$??0?$basic_string@DU?$char_traits@D@std@@V?$allocator@D@2@@std@@QAE@PBDI@Z$0 00453ad0 f   Main.obj
 0001:00052ad8       __ehhandler$??0?$basic_string@DU?$char_traits@D@std@@V?$allocator@D@2@@std@@QAE@PBDI@Z 00453ad8 f   Main.obj
 0001:00052b00       __unwindfunclet$??0?$basic_ostream@DU?$char_traits@D@std@@@std@@QAE@W4_Uninitialized@1@_N@Z$0 00453b00 f   Main.obj
 0001:00052b1c       __ehhandler$??0?$basic_ostream@DU?$char_traits@D@std@@@std@@QAE@W4_Uninitialized@1@_N@Z 00453b1c f   Main.obj
 0001:00052b40       __ehhandler$?_Osfx@?$basic_ostream@DU?$char_traits@D@std@@@std@@QAEXXZ 00453b40 f   Main.obj
 0001:00052b60       __unwindfunclet$??0?$basic_istream@DU?$char_traits@D@std@@@std@@QAE@PAV?$basic_streambuf@DU?$char_traits@D@std@@@1@_N@Z$0 00453b60 f   Main.obj
 0001:00052b7c       __ehhandler$??0?$basic_istream@DU?$char_traits@D@std@@@std@@QAE@PAV?$basic_streambuf@DU?$char_traits@D@std@@@1@_N@Z 00453b7c f   Main.obj
 0001:00052ba0       __unwindfunclet$??0?$basic_streambuf@DU?$char_traits@D@std@@@std@@IAE@XZ$0 00453ba0 f   Main.obj
 0001:00052bab       __ehhandler$??0?$basic_streambuf@DU?$char_traits@D@std@@@std@@IAE@XZ 00453bab f   Main.obj
 0001:00052bd0       __ehhandler$?reserve@?$vector@V?$basic_string@DU?$char_traits@D@std@@V?$allocator@D@2@@std@@V?$allocator@V?$basic_string@DU?$char_traits@D@std@@V?$allocator@D@2@@std@@@2@@std@@QAEXI@Z 00453bd0 f   Main.obj
 0001:00052bf0       __unwindfunclet$??0?$_Vector_const_iterator@V?$_Vector_val@V?$basic_string@DU?$char_traits@D@std@@V?$allocator@D@2@@std@@V?$allocator@V?$basic_string@DU?$char_traits@D@std@@V?$allocator@D@2@@std@@@2@@std@@@std@@QAE@PAV?$basic_string@DU?$char_traits@D@std@@V?$allocator@D@2@@1@PBU_Container_base12@1@@Z$0 00453bf0 f   Main.obj
 0001:00052bf8       __ehhandler$??0?$_Vector_const_iterator@V?$_Vector_val@V?$basic_string@DU?$char_traits@D@std@@V?$allocator@D@2@@std@@V?$allocator@V?$basic_string@DU?$char_traits@D@std@@V?$allocator@D@2@@std@@@2@@std@@@std@@QAE@PAV?$basic_string@DU?$char_traits@D@std@@V?$allocator@D@2@@1@PBU_Container_base12@1@@Z 00453bf8 f   Main.obj
 0001:00052c20       __ehhandler$?_Copy@?$basic_string@DU?$char_traits@D@std@@V?$allocator@D@2@@std@@QAEXII@Z 00453c20 f   Main.obj
 0001:00052c40       __unwindfunclet$?widen@?$basic_ios@DU?$char_traits@D@std@@@std@@QBEDD@Z$0 00453c40 f   Main.obj
 0001:00052c48       __ehhandler$?widen@?$basic_ios@DU?$char_traits@D@std@@@std@@QBEDD@Z 00453c48 f   Main.obj
 0001:00052c70       __unwindfunclet$??$use_facet@V?$ctype@D@std@@@std@@YAABV?$ctype@D@0@ABVlocale@0@@Z$0 00453c70 f   Main.obj
 0001:00052c78       __ehhandler$??$use_facet@V?$ctype@D@std@@@std@@YAABV?$ctype@D@0@ABVlocale@0@@Z 00453c78 f   Main.obj
 0001:00052ca0       __unwindfunclet$?_Getcat@?$ctype@D@std@@SAIPAPBVfacet@locale@2@PBV42@@Z$0 00453ca0 f   Main.obj
 0001:00052cbb       __unwindfunclet$?_Getcat@?$ctype@D@std@@SAIPAPBVfacet@locale@2@PBV42@@Z$1 00453cbb f   Main.obj
 0001:00052cd4       __ehhandler$?_Getcat@?$ctype@D@std@@SAIPAPBVfacet@locale@2@PBV42@@Z 00453cd4 f   Main.obj
 0001:00052cf0       __unwindfunclet$??0_Locinfo@std@@QAE@PBD@Z$0 00453cf0 f   Main.obj
 0001:00052cf8       __unwindfunclet$??0_Locinfo@std@@QAE@PBD@Z$1 00453cf8 f   Main.obj
 0001:00052d03       __unwindfunclet$??0_Locinfo@std@@QAE@PBD@Z$2 00453d03 f   Main.obj
 0001:00052d0e       __unwindfunclet$??0_Locinfo@std@@QAE@PBD@Z$3 00453d0e f   Main.obj
 0001:00052d19       __unwindfunclet$??0_Locinfo@std@@QAE@PBD@Z$4 00453d19 f   Main.obj
 0001:00052d24       __ehhandler$??0_Locinfo@std@@QAE@PBD@Z 00453d24 f   Main.obj
 0001:00052d40       __unwindfunclet$??1_Locinfo@std@@QAE@XZ$0 00453d40 f   Main.obj
 0001:00052d48       __unwindfunclet$??1_Locinfo@std@@QAE@XZ$1 00453d48 f   Main.obj
 0001:00052d53       __unwindfunclet$??1_Locinfo@std@@QAE@XZ$2 00453d53 f   Main.obj
 0001:00052d5e       __unwindfunclet$??1_Locinfo@std@@QAE@XZ$3 00453d5e f   Main.obj
 0001:00052d69       __unwindfunclet$??1_Locinfo@std@@QAE@XZ$4 00453d69 f   Main.obj
 0001:00052d74       __ehhandler$??1_Locinfo@std@@QAE@XZ 00453d74 f   Main.obj
 0001:00052d90       __unwindfunclet$??0?$ctype@D@std@@QAE@ABV_Locinfo@1@I@Z$0 00453d90 f   Main.obj
 0001:00052d98       __ehhandler$??0?$ctype@D@std@@QAE@ABV_Locinfo@1@I@Z 00453d98 f   Main.obj
 0001:00052dc0       __unwindfunclet$??1?$ctype@D@std@@MAE@XZ$0 00453dc0 f   Main.obj
 0001:00052dc8       __ehhandler$??1?$ctype@D@std@@MAE@XZ 00453dc8 f   Main.obj
 0001:00052df0       __unwindfunclet$??$?6U?$char_traits@D@std@@@std@@YAAAV?$basic_ostream@DU?$char_traits@D@std@@@0@AAV10@PBD@Z$2 00453df0 f   Main.obj
 0001:00052df8       __ehhandler$??$?6U?$char_traits@D@std@@@std@@YAAAV?$basic_ostream@DU?$char_traits@D@std@@@0@AAV10@PBD@Z 00453df8 f   Main.obj
 0001:00052e20       __unwindfunclet$??$use_facet@V?$num_put@DV?$ostreambuf_iterator@DU?$char_traits@D@std@@@std@@@std@@@std@@YAABV?$num_put@DV?$ostreambuf_iterator@DU?$char_traits@D@std@@@std@@@0@ABVlocale@0@@Z$0 00453e20 f   Main.obj
 0001:00052e28       __ehhandler$??$use_facet@V?$num_put@DV?$ostreambuf_iterator@DU?$char_traits@D@std@@@std@@@std@@@std@@YAABV?$num_put@DV?$ostreambuf_iterator@DU?$char_traits@D@std@@@std@@@0@ABVlocale@0@@Z 00453e28 f   Main.obj
 0001:00052e50       __unwindfunclet$?construct@?$allocator@V?$basic_string@DU?$char_traits@D@std@@V?$allocator@D@2@@std@@@std@@QAEXPAV?$basic_string@DU?$char_traits@D@std@@V?$allocator@D@2@@2@$$QAV32@@Z$0 00453e50 f   Main.obj
 0001:00052e61       __ehhandler$?construct@?$allocator@V?$basic_string@DU?$char_traits@D@std@@V?$allocator@D@2@@std@@@std@@QAEXPAV?$basic_string@DU?$char_traits@D@std@@V?$allocator@D@2@@2@$$QAV32@@Z 00453e61 f   Main.obj
 0001:00052e80       __unwindfunclet$?_Getcat@?$num_put@DV?$ostreambuf_iterator@DU?$char_traits@D@std@@@std@@@std@@SAIPAPBVfacet@locale@2@PBV42@@Z$0 00453e80 f   Main.obj
 0001:00052e9b       __unwindfunclet$?_Getcat@?$num_put@DV?$ostreambuf_iterator@DU?$char_traits@D@std@@@std@@@std@@SAIPAPBVfacet@locale@2@PBV42@@Z$1 00453e9b f   Main.obj
 0001:00052eb4       __ehhandler$?_Getcat@?$num_put@DV?$ostreambuf_iterator@DU?$char_traits@D@std@@@std@@@std@@SAIPAPBVfacet@locale@2@PBV42@@Z 00453eb4 f   Main.obj
 0001:00052ed0       __unwindfunclet$?construct@?$allocator@U_Container_proxy@std@@@std@@QAEXPAU_Container_proxy@2@$$QAU32@@Z$0 00453ed0 f   Main.obj
 0001:00052ee1       __ehhandler$?construct@?$allocator@U_Container_proxy@std@@@std@@QAEXPAU_Container_proxy@2@$$QAU32@@Z 00453ee1 f   Main.obj
 0001:00052f00       __unwindfunclet$??0?$num_put@DV?$ostreambuf_iterator@DU?$char_traits@D@std@@@std@@@std@@QAE@ABV_Locinfo@1@I@Z$0 00453f00 f   Main.obj
 0001:00052f08       __ehhandler$??0?$num_put@DV?$ostreambuf_iterator@DU?$char_traits@D@std@@@std@@@std@@QAE@ABV_Locinfo@1@I@Z 00453f08 f   Main.obj
 0001:00052f30       __unwindfunclet$?do_put@?$num_put@DV?$ostreambuf_iterator@DU?$char_traits@D@std@@@std@@@std@@MBE?AV?$ostreambuf_iterator@DU?$char_traits@D@std@@@2@V32@AAVios_base@2@D_N@Z$0 00453f30 f   Main.obj
 0001:00052f3b       __unwindfunclet$?do_put@?$num_put@DV?$ostreambuf_iterator@DU?$char_traits@D@std@@@std@@@std@@MBE?AV?$ostreambuf_iterator@DU?$char_traits@D@std@@@2@V32@AAVios_base@2@D_N@Z$1 00453f3b f   Main.obj
 0001:00052f43       __unwindfunclet$?do_put@?$num_put@DV?$ostreambuf_iterator@DU?$char_traits@D@std@@@std@@@std@@MBE?AV?$ostreambuf_iterator@DU?$char_traits@D@std@@@2@V32@AAVios_base@2@D_N@Z$2 00453f43 f   Main.obj
 0001:00052f4b       __unwindfunclet$?do_put@?$num_put@DV?$ostreambuf_iterator@DU?$char_traits@D@std@@@std@@@std@@MBE?AV?$ostreambuf_iterator@DU?$char_traits@D@std@@@2@V32@AAVios_base@2@D_N@Z$3 00453f4b f   Main.obj
 0001:00052f53       __ehhandler$?do_put@?$num_put@DV?$ostreambuf_iterator@DU?$char_traits@D@std@@@std@@@std@@MBE?AV?$ostreambuf_iterator@DU?$char_traits@D@std@@@2@V32@AAVios_base@2@D_N@Z 00453f53 f   Main.obj
 0001:00052f80       __unwindfunclet$?_Fput@?$num_put@DV?$ostreambuf_iterator@DU?$char_traits@D@std@@@std@@@std@@ABA?AV?$ostreambuf_iterator@DU?$char_traits@D@std@@@2@V32@AAVios_base@2@DPBDIIII@Z$0 00453f80 f   Main.obj
 0001:00052f8b       __unwindfunclet$?_Fput@?$num_put@DV?$ostreambuf_iterator@DU?$char_traits@D@std@@@std@@@std@@ABA?AV?$ostreambuf_iterator@DU?$char_traits@D@std@@@2@V32@AAVios_base@2@DPBDIIII@Z$1 00453f8b f   Main.obj
 0001:00052f93       __unwindfunclet$?_Fput@?$num_put@DV?$ostreambuf_iterator@DU?$char_traits@D@std@@@std@@@std@@ABA?AV?$ostreambuf_iterator@DU?$char_traits@D@std@@@2@V32@AAVios_base@2@DPBDIIII@Z$2 00453f93 f   Main.obj
 0001:00052f9b       __ehhandler$?_Fput@?$num_put@DV?$ostreambuf_iterator@DU?$char_traits@D@std@@@std@@@std@@ABA?AV?$ostreambuf_iterator@DU?$char_traits@D@std@@@2@V32@AAVios_base@2@DPBDIIII@Z 00453f9b f   Main.obj
 0001:00052fe0       __unwindfunclet$?_Iput@?$num_put@DV?$ostreambuf_iterator@DU?$char_traits@D@std@@@std@@@std@@ABA?AV?$ostreambuf_iterator@DU?$char_traits@D@std@@@2@V32@AAVios_base@2@DPADI@Z$0 00453fe0 f   Main.obj
 0001:00052fe8       __unwindfunclet$?_Iput@?$num_put@DV?$ostreambuf_iterator@DU?$char_traits@D@std@@@std@@@std@@ABA?AV?$ostreambuf_iterator@DU?$char_traits@D@std@@@2@V32@AAVios_base@2@DPADI@Z$1 00453fe8 f   Main.obj
 0001:00052ff0       __ehhandler$?_Iput@?$num_put@DV?$ostreambuf_iterator@DU?$char_traits@D@std@@@std@@@std@@ABA?AV?$ostreambuf_iterator@DU?$char_traits@D@std@@@2@V32@AAVios_base@2@DPADI@Z 00453ff0 f   Main.obj
 0001:00053020       __unwindfunclet$??$use_facet@V?$numpunct@D@std@@@std@@YAABV?$numpunct@D@0@ABVlocale@0@@Z$0 00454020 f   Main.obj
 0001:00053028       __ehhandler$??$use_facet@V?$numpunct@D@std@@@std@@YAABV?$numpunct@D@0@ABVlocale@0@@Z 00454028 f   Main.obj
 0001:00053050       __unwindfunclet$?_Getcat@?$numpunct@D@std@@SAIPAPBVfacet@locale@2@PBV42@@Z$0 00454050 f   Main.obj
 0001:00053068       __unwindfunclet$?_Getcat@?$numpunct@D@std@@SAIPAPBVfacet@locale@2@PBV42@@Z$1 00454068 f   Main.obj
 0001:00053081       __ehhandler$?_Getcat@?$numpunct@D@std@@SAIPAPBVfacet@locale@2@PBV42@@Z 00454081 f   Main.obj
 0001:000530a0       __unwindfunclet$??0?$numpunct@D@std@@QAE@ABV_Locinfo@1@I_N@Z$0 004540a0 f   Main.obj
 0001:000530a8       __ehhandler$??0?$numpunct@D@std@@QAE@ABV_Locinfo@1@I_N@Z 004540a8 f   Main.obj
 0001:000530d0       __unwindfunclet$??0?$basic_string@DU?$char_traits@D@std@@V?$allocator@D@2@@std@@QAE@PBD@Z$0 004540d0 f   Main.obj
 0001:000530d8       __ehhandler$??0?$basic_string@DU?$char_traits@D@std@@V?$allocator@D@2@@std@@QAE@PBD@Z 004540d8 f   Main.obj
 0001:00053100       __unwindfunclet$??1?$numpunct@D@std@@MAE@XZ$0 00454100 f   Main.obj
 0001:00053108       __ehhandler$??1?$numpunct@D@std@@MAE@XZ 00454108 f   Main.obj
 0001:00053130       __ehhandler$?_Init@?$numpunct@D@std@@IAEXABV_Locinfo@2@_N@Z 00454130 f   Main.obj
 0001:00053150       __unwindfunclet$??$_Uninit_def_fill_n@PAV?$basic_string@DU?$char_traits@D@std@@V?$allocator@D@2@@std@@IV12@V?$allocator@V?$basic_string@DU?$char_traits@D@std@@V?$allocator@D@2@@std@@@2@V12@@std@@YAXPAV?$basic_string@DU?$char_traits@D@std@@V?$allocator@D@2@@0@IPBV10@AAV?$allocator@V?$basic_string@DU?$char_traits@D@std@@V?$allocator@D@2@@std@@@0@0U_Nonscalar_ptr_iterator_tag@0@@Z$2 00454150 f   Main.obj
 0001:00053158       __ehhandler$??$_Uninit_def_fill_n@PAV?$basic_string@DU?$char_traits@D@std@@V?$allocator@D@2@@std@@IV12@V?$allocator@V?$basic_string@DU?$char_traits@D@std@@V?$allocator@D@2@@std@@@2@V12@@std@@YAXPAV?$basic_string@DU?$char_traits@D@std@@V?$allocator@D@2@@0@IPBV10@AAV?$allocator@V?$basic_string@DU?$char_traits@D@std@@V?$allocator@D@2@@std@@@0@0U_Nonscalar_ptr_iterator_tag@0@@Z 00454158 f   Main.obj
 0001:00053180       __ehhandler$??$_Uninit_move@PAV?$basic_string@DU?$char_traits@D@std@@V?$allocator@D@2@@std@@PAV12@V?$allocator@V?$basic_string@DU?$char_traits@D@std@@V?$allocator@D@2@@std@@@2@V12@@std@@YAPAV?$basic_string@DU?$char_traits@D@std@@V?$allocator@D@2@@0@PAV10@00AAV?$allocator@V?$basic_string@DU?$char_traits@D@std@@V?$allocator@D@2@@std@@@0@0U_Nonscalar_ptr_iterator_tag@0@@Z 00454180 f   Main.obj
 0001:000531a0       __unwindfunclet$??0?$_Vector_val@V?$basic_string@DU?$char_traits@D@std@@V?$allocator@D@2@@std@@V?$allocator@V?$basic_string@DU?$char_traits@D@std@@V?$allocator@D@2@@std@@@2@@std@@QAE@V?$allocator@V?$basic_string@DU?$char_traits@D@std@@V?$allocator@D@2@@std@@@1@@Z$0 004541a0 f   Main.obj
 0001:000531a8       __ehhandler$??0?$_Vector_val@V?$basic_string@DU?$char_traits@D@std@@V?$allocator@D@2@@std@@V?$allocator@V?$basic_string@DU?$char_traits@D@std@@V?$allocator@D@2@@std@@@2@@std@@QAE@V?$allocator@V?$basic_string@DU?$char_traits@D@std@@V?$allocator@D@2@@std@@@1@@Z 004541a8 f   Main.obj
 0001:000531d0       __unwindfunclet$??1?$vector@V?$basic_string@DU?$char_traits@D@std@@V?$allocator@D@2@@std@@V?$allocator@V?$basic_string@DU?$char_traits@D@std@@V?$allocator@D@2@@std@@@2@@std@@QAE@XZ$0 004541d0 f   Main.obj
 0001:000531d8       __ehhandler$??1?$vector@V?$basic_string@DU?$char_traits@D@std@@V?$allocator@D@2@@std@@V?$allocator@V?$basic_string@DU?$char_traits@D@std@@V?$allocator@D@2@@std@@@2@@std@@QAE@XZ 004541d8 f   Main.obj
 0001:00053200       __unwindfunclet$??1?$_Vector_val@V?$basic_string@DU?$char_traits@D@std@@V?$allocator@D@2@@std@@V?$allocator@V?$basic_string@DU?$char_traits@D@std@@V?$allocator@D@2@@std@@@2@@std@@QAE@XZ$0 00454200 f   Main.obj
 0001:00053208       __ehhandler$??1?$_Vector_val@V?$basic_string@DU?$char_traits@D@std@@V?$allocator@D@2@@std@@V?$allocator@V?$basic_string@DU?$char_traits@D@std@@V?$allocator@D@2@@std@@@2@@std@@QAE@XZ 00454208 f   Main.obj
 0001:00053230       __unwindfunclet$?_Facet_Register@facet@locale@std@@CAXPAV123@@Z$0 00454230 f   libcpmtd:locale0.obj
 0001:00053248       __ehhandler$?_Facet_Register@facet@locale@std@@CAXPAV123@@Z 00454248 f   libcpmtd:locale0.obj
 0001:00053270       __unwindfunclet$?empty@locale@std@@SA?AV12@XZ$0 00454270 f   libcpmtd:locale0.obj
 0001:0005328b       __ehhandler$?empty@locale@std@@SA?AV12@XZ 0045428b f   libcpmtd:locale0.obj
 0001:000532b0       __unwindfunclet$??0_Locimp@locale@std@@AAE@_N@Z$0 004542b0 f   libcpmtd:locale0.obj
 0001:000532b8       __ehhandler$??0_Locimp@locale@std@@AAE@_N@Z 004542b8 f   libcpmtd:locale0.obj
 0001:000532e0       __unwindfunclet$??1_Locimp@locale@std@@MAE@XZ$0 004542e0 f   libcpmtd:locale0.obj
 0001:000532e8       __unwindfunclet$??1_Locimp@locale@std@@MAE@XZ$1 004542e8 f   libcpmtd:locale0.obj
 0001:000532f3       __ehhandler$??1_Locimp@locale@std@@MAE@XZ 004542f3 f   libcpmtd:locale0.obj
 0001:00053310       __unwindfunclet$?_Init@locale@std@@CAPAV_Locimp@12@XZ$0 00454310 f   libcpmtd:locale0.obj
 0001:00053318       __unwindfunclet$?_Init@locale@std@@CAPAV_Locimp@12@XZ$1 00454318 f   libcpmtd:locale0.obj
 0001:00053333       __unwindfunclet$?_Init@locale@std@@CAPAV_Locimp@12@XZ$2 00454333 f   libcpmtd:locale0.obj
 0001:00053345       __ehhandler$?_Init@locale@std@@CAPAV_Locimp@12@XZ 00454345 f   libcpmtd:locale0.obj
 0001:00053360       __unwindfunclet$?_Locimp_dtor@_Locimp@locale@std@@CAXPAV123@@Z$0 00454360 f   libcpmtd:locale0.obj
 0001:00053368       __ehhandler$?_Locimp_dtor@_Locimp@locale@std@@CAXPAV123@@Z 00454368 f   libcpmtd:locale0.obj
 0001:00053390       __unwindfunclet$?_Fac_tidy@@YAXXZ$0 00454390 f   libcpmtd:locale0.obj
 0001:00053398       __ehhandler$?_Fac_tidy@@YAXXZ 00454398 f   libcpmtd:locale0.obj
 0001:000533c0       __ehhandler$?CallUnexpected@@YAXPBU_s_ESTypeList@@@Z 004543c0 f   LIBCMTD:frame.obj
 0001:000533e0       __unwindfunclet$?getSystemCP@@YAHH@Z$0 004543e0 f   LIBCMTD:mbctype.obj
 0001:000533e8       __ehhandler$?getSystemCP@@YAHH@Z 004543e8 f   LIBCMTD:mbctype.obj
 0001:00053410       __unwindfunclet$?make@DNameStatusNode@@SAPAV1@W4DNameStatus@@@Z$0 00454410 f   LIBCMTD:undname.obj
 0001:0005341e       __ehhandler$?make@DNameStatusNode@@SAPAV1@W4DNameStatus@@@Z 0045441e f   LIBCMTD:undname.obj
 0001:00053440       __unwindfunclet$?x_ismbbtype_l@@YAHPAUlocaleinfo_struct@@IHH@Z$0 00454440 f   LIBCMTD:ismbbyte.obj
 0001:00053448       __ehhandler$?x_ismbbtype_l@@YAHPAUlocaleinfo_struct@@IHH@Z 00454448 f   LIBCMTD:ismbbyte.obj
 0001:00053470       __unwindfunclet$?strtoxl@@YAKPAUlocaleinfo_struct@@PBDPAPBDHH@Z$0 00454470 f   LIBCMTD:strtol.obj
 0001:00053478       __ehhandler$?strtoxl@@YAKPAUlocaleinfo_struct@@PBDPAPBDHH@Z 00454478 f   LIBCMTD:strtol.obj
 0001:000534a0       __unwindfunclet$?strtoxq@@YA_KPAUlocaleinfo_struct@@PBDPAPBDHH@Z$0 004544a0 f   LIBCMTD:strtoq.obj
 0001:000534a8       __ehhandler$?strtoxq@@YA_KPAUlocaleinfo_struct@@PBDPAPBDHH@Z 004544a8 f   LIBCMTD:strtoq.obj
 0001:000534d0       ??__Edomain@@YAXXZ         004544d0 f   Main.obj
 0001:00053500       ??__Edesc@@YAXXZ           00454500 f   Main.obj
 0001:00053530       ??__E?id@?$num_put@DV?$ostreambuf_iterator@DU?$char_traits@D@std@@@std@@@std@@2V0locale@2@A@@YAXXZ 00454530 f   Main.obj
 0001:00053550       ??__E?id@?$numpunct@D@std@@2V0locale@2@A@@YAXXZ 00454550 f   Main.obj
 0001:00053570       ??__Einitlocks@std@@YAXXZ  00454570 f   libcpmtd:xlock.obj
 0001:00053590       ??__E_Generic_object@std@@YAXXZ 00454590 f   libcpmtd:syserror.obj
 0001:000535b0       ??__E_Iostream_object@std@@YAXXZ 004545b0 f   libcpmtd:syserror.obj
 0001:000535d0       ??__E_System_object@std@@YAXXZ 004545d0 f   libcpmtd:syserror.obj
 0001:000535f0       ??__E_Fac_tidy_reg@std@@YAXXZ 004545f0 f   libcpmtd:locale0.obj
 0001:00053610       ??__Eclassic_locale@std@@YAXXZ 00454610 f   libcpmtd:locale0.obj
 0001:00053630       ??__E?id@?$ctype@D@std@@2V0locale@2@A@@YAXXZ 00454630 f   libcpmtd:locale0.obj
 0001:00053650       ??__E?id@?$ctype@_W@std@@2V0locale@2@A@@YAXXZ 00454650 f   libcpmtd:locale0.obj
 0001:00053670       ??__E?id@?$codecvt@_WDH@std@@2V0locale@2@A@@YAXXZ 00454670 f   libcpmtd:locale0.obj
 0001:00053690       ??__E?id@?$ctype@G@std@@2V0locale@2@A@@YAXXZ 00454690 f   libcpmtd:locale0.obj
 0001:000536b0       ??__E?id@?$codecvt@GDH@std@@2V0locale@2@A@@YAXXZ 004546b0 f   libcpmtd:locale0.obj
 0001:000536d0       ??__Einitlocks@std@@YAXXZ  004546d0 f   libcpmtd:iosptrs.obj
 0001:000536f0       ??__Einit_atexit@@YAXXZ    004546f0 f   libcpmtd:iosptrs.obj
 0001:00053710       ??__Fdomain@@YAXXZ         00454710 f   Main.obj
 0001:00053730       ??__Fdesc@@YAXXZ           00454730 f   Main.obj
 0001:00053750       ??__Finitlocks@std@@YAXXZ  00454750 f   libcpmtd:xlock.obj
 0001:00053770       ??__F_Generic_object@std@@YAXXZ 00454770 f   libcpmtd:syserror.obj
 0001:00053790       ??__F_Iostream_object@std@@YAXXZ 00454790 f   libcpmtd:syserror.obj
 0001:000537b0       ??__F_System_object@std@@YAXXZ 004547b0 f   libcpmtd:syserror.obj
 0001:000537d0       ??__Fnomem@?4???2@YAPAXIABU_DebugHeapTag_t@std@@PADH@Z@YAXXZ 004547d0 f   libcpmtd:xdebug.obj
 0001:000537f0       ??__F_Fac_tidy_reg@std@@YAXXZ 004547f0 f   libcpmtd:locale0.obj
 0001:00053810       ??__Fclassic_locale@std@@YAXXZ 00454810 f   libcpmtd:locale0.obj
 0001:00053830       ??__Finitlocks@std@@YAXXZ  00454830 f   libcpmtd:iosptrs.obj
 0001:00053850       ??__Finit_atexit@@YAXXZ    00454850 f   libcpmtd:iosptrs.obj
 0001:00053870       ??__Fnomem@?5???2@YAPAXI@Z@YAXXZ 00454870 f   LIBCMTD:new.obj
