 MenuDemo_ud

 Timestamp is 54bcacc3 (Mon Jan 19 15:05:39 2015)

 Preferred load address is 00400000

 Start         Length     Name                   Class
 0001:00000000 0004a4e4H .text                   CODE
 0001:0004a4f0 00000983H .text$x                 CODE
 0001:0004ae80 0000007eH .text$yc                CODE
 0001:0004af00 00000071H .text$yd                CODE
 0002:00000000 000005a8H .idata$5                DATA
 0002:000005a8 00000004H .CRT$XCA                DATA
 0002:000005ac 00000004H .CRT$XCC                DATA
 0002:000005b0 00000008H .CRT$XCU                DATA
 0002:000005b8 00000004H .CRT$XCZ                DATA
 0002:000005bc 00000004H .CRT$XIA                DATA
 0002:000005c0 00000010H .CRT$XIC                DATA
 0002:000005d0 00000004H .CRT$XIY                DATA
 0002:000005d4 00000004H .CRT$XIZ                DATA
 0002:000005d8 00000004H .CRT$XPA                DATA
 0002:000005dc 00000008H .CRT$XPX                DATA
 0002:000005e4 00000004H .CRT$XPXA               DATA
 0002:000005e8 00000004H .CRT$XPZ                DATA
 0002:000005ec 00000004H .CRT$XTA                DATA
 0002:000005f0 00000004H .CRT$XTZ                DATA
 0002:00000600 0000db60H .rdata                  DATA
 0002:0000e160 0000005cH .rdata$debug            DATA
 0002:0000e1bc 00000c10H .rdata$r                DATA
 0002:0000edd0 000000d0H .rdata$sxdata           DATA
 0002:0000eea0 00000004H .rtc$IAA                DATA
 0002:0000eea4 00000004H .rtc$IMZ                DATA
 0002:0000eea8 00000004H .rtc$IZZ                DATA
 0002:0000eeac 00000004H .rtc$TAA                DATA
 0002:0000eeb0 00000004H .rtc$TMZ                DATA
 0002:0000eeb4 00000004H .rtc$TZZ                DATA
 0002:0000eeb8 00001660H .xdata$x                DATA
 0002:00010518 00000050H .idata$2                DATA
 0002:00010568 00000014H .idata$3                DATA
 0002:0001057c 000005a8H .idata$4                DATA
 0002:00010b24 000037b8H .idata$6                DATA
 0002:000142dc 00000000H .edata                  DATA
 0003:00000000 00001690H .data                   DATA
 0003:000016a0 00002310H .bss                    DATA
 0004:00000000 000005f0H .rsrc$01                DATA
 0004:000005f0 00041c40H .rsrc$02                DATA

  Address         Publics by Value              Rva+Base       Lib:Object

 0000:00000000       __except_list              00000000     <absolute>
 0000:00000034       ___safe_se_handler_count   00000034     <absolute>
 0000:00000000       ___ImageBase               00400000     <linker-defined>
 0001:00000000       ??_H@YGXPAXIHP6EPAX0@Z@Z   00401000 f i debug.obj
 0001:00000040       ??0OS_CLockable@@QAE@XZ    00401040 f   debug.obj
 0001:00000130       ??1OS_CLockable@@QAE@XZ    00401130 f   debug.obj
 0001:00000170       ?Acquire@OS_CLockable@@QAEXXZ 00401170 f   debug.obj
 0001:000001b0       ?Release@OS_CLockable@@QAEXXZ 004011b0 f   debug.obj
 0001:000001f0       ?DbgPrint@@YAHPB_WZZ       004011f0 f   debug.obj
 0001:00000500       ??0OS_CAutoLock@@QAE@AAVOS_CLockable@@@Z 00401500 f i debug.obj
 0001:00000540       ??1OS_CAutoLock@@QAE@XZ    00401540 f i debug.obj
 0001:00000570       ??0MainFrame@@QAE@XZ       00401570 f   main_frame.obj
 0001:000005e0       ??1MainFrame@@UAE@XZ       004015e0 f   main_frame.obj
 0001:00000660       ?GetWindowClassName@MainFrame@@UBEPB_WXZ 00401660 f   main_frame.obj
 0001:00000680       ?CreateControl@MainFrame@@UAEPAVCControlUI@DuiLib@@PB_W@Z 00401680 f   main_frame.obj
 0001:000006a0       ?OnFinalMessage@MainFrame@@UAEXPAUHWND__@@@Z 004016a0 f   main_frame.obj
 0001:00000720       ?GetSkinFile@MainFrame@@UAE?AVCDuiString@DuiLib@@XZ 00401720 f   main_frame.obj
 0001:00000810       ?GetSkinFolder@MainFrame@@UAE?AVCDuiString@DuiLib@@XZ 00401810 f   main_frame.obj
 0001:00000870       ?GetResourceType@MainFrame@@UBE?AW4UILIB_RESOURCETYPE@DuiLib@@XZ 00401870 f   main_frame.obj
 0001:00000890       ?OnSysCommand@MainFrame@@UAEJIIJAAH@Z 00401890 f   main_frame.obj
 0001:00000a30       ?HandleMessage@MainFrame@@UAEJIIJ@Z 00401a30 f   main_frame.obj
 0001:00000a70       ?ResponseDefaultKeyEvent@MainFrame@@UAEJI@Z 00401a70 f   main_frame.obj
 0001:00000aa0       ?OnTimer@MainFrame@@IAEXAAUtagTNotifyUI@DuiLib@@@Z 00401aa0 f   main_frame.obj
 0001:00000ac0       ?OnExit@MainFrame@@IAEXAAUtagTNotifyUI@DuiLib@@@Z 00401ac0 f   main_frame.obj
 0001:00000b00       ?InitWindow@MainFrame@@UAEXXZ 00401b00 f   main_frame.obj
 0001:00000b20       ?OnPrepare@MainFrame@@IAEXAAUtagTNotifyUI@DuiLib@@@Z 00401b20 f   main_frame.obj
 0001:00000b40       ?Notify@MainFrame@@MAEXAAUtagTNotifyUI@DuiLib@@@Z 00401b40 f   main_frame.obj
 0001:00001110       ?HandleCustomMessage@MainFrame@@UAEJIIJAAH@Z 00402110 f   main_frame.obj
 0001:00001130       ??_EMainFrame@@UAEPAXI@Z   00402130 f i main_frame.obj
 0001:00001130       ??_GMainFrame@@UAEPAXI@Z   00402130 f i main_frame.obj
 0001:00001170       ??0STRINGorID@DuiLib@@QAE@I@Z 00402170 f i main_frame.obj
 0001:00001190       ??0CMenuUI@DuiLib@@QAE@XZ  00402190 f   UIMenu.obj
 0001:00001280       ??1CMenuUI@DuiLib@@UAE@XZ  00402280 f   UIMenu.obj
 0001:000012e0       ?GetClass@CMenuUI@DuiLib@@UBEPB_WXZ 004022e0 f   UIMenu.obj
 0001:00001300       ?GetInterface@CMenuUI@DuiLib@@UAEPAXPB_W@Z 00402300 f   UIMenu.obj
 0001:00001360       ?DoEvent@CMenuUI@DuiLib@@UAEXAAUtagTEventUI@2@@Z 00402360 f   UIMenu.obj
 0001:000013a0       ?Add@CMenuUI@DuiLib@@UAE_NPAVCControlUI@2@@Z 004023a0 f   UIMenu.obj
 0001:00001500       ?AddAt@CMenuUI@DuiLib@@UAE_NPAVCControlUI@2@H@Z 00402500 f   UIMenu.obj
 0001:00001660       ?GetItemIndex@CMenuUI@DuiLib@@UBEHPAVCControlUI@2@@Z 00402660 f   UIMenu.obj
 0001:000016d0       ?SetItemIndex@CMenuUI@DuiLib@@UAE_NPAVCControlUI@2@H@Z 004026d0 f   UIMenu.obj
 0001:00001740       ?Remove@CMenuUI@DuiLib@@UAE_NPAVCControlUI@2@@Z 00402740 f   UIMenu.obj
 0001:000017b0       ?EstimateSize@CMenuUI@DuiLib@@UAE?AUtagSIZE@@U3@@Z 004027b0 f   UIMenu.obj
 0001:00001910       ?SetAttribute@CMenuUI@DuiLib@@UAEXPB_W0@Z 00402910 f   UIMenu.obj
 0001:00001950       ??0CMenuWnd@DuiLib@@QAE@PAUHWND__@@@Z 00402950 f   UIMenu.obj
 0001:00001a40       ?Receive@CMenuWnd@DuiLib@@UAEHUContextMenuParam@2@@Z 00402a40 f   UIMenu.obj
 0001:00001b00       ?Init@CMenuWnd@DuiLib@@QAEXPAVCMenuElementUI@2@VSTRINGorID@2@PB_WUtagPOINT@@@Z 00402b00 f   UIMenu.obj
 0001:00001ce0       ?GetWindowClassName@CMenuWnd@DuiLib@@UBEPB_WXZ 00402ce0 f   UIMenu.obj
 0001:00001d00       ?OnFinalMessage@CMenuWnd@DuiLib@@UAEXPAUHWND__@@@Z 00402d00 f   UIMenu.obj
 0001:00001fb0       ?HandleMessage@CMenuWnd@DuiLib@@UAEJIIJ@Z 00402fb0 f   UIMenu.obj
 0001:00003270       ??0CMenuElementUI@DuiLib@@QAE@XZ 00404270 f   UIMenu.obj
 0001:00003340       ??1CMenuElementUI@DuiLib@@UAE@XZ 00404340 f   UIMenu.obj
 0001:000033a0       ?GetClass@CMenuElementUI@DuiLib@@UBEPB_WXZ 004043a0 f   UIMenu.obj
 0001:000033c0       ?GetInterface@CMenuElementUI@DuiLib@@UAEPAXPB_W@Z 004043c0 f   UIMenu.obj
 0001:00003420       ?DoPaint@CMenuElementUI@DuiLib@@UAEXPAUHDC__@@ABUtagRECT@@@Z 00404420 f   UIMenu.obj
 0001:000035a0       ?DrawItemText@CMenuElementUI@DuiLib@@UAEXPAUHDC__@@ABUtagRECT@@@Z 004045a0 f   UIMenu.obj
 0001:00003810       ?EstimateSize@CMenuElementUI@DuiLib@@UAE?AUtagSIZE@@U3@@Z 00404810 f   UIMenu.obj
 0001:00003be0       ?DoEvent@CMenuElementUI@DuiLib@@UAEXAAUtagTEventUI@2@@Z 00404be0 f   UIMenu.obj
 0001:000040b0       ?Activate@CMenuElementUI@DuiLib@@UAE_NXZ 004050b0 f   UIMenu.obj
 0001:000042f0       ?GetMenuWnd@CMenuElementUI@DuiLib@@QAEPAVCMenuWnd@2@XZ 004052f0 f   UIMenu.obj
 0001:00004310       ?CreateMenuWnd@CMenuElementUI@DuiLib@@QAEXXZ 00405310 f   UIMenu.obj
 0001:000044b0       ??_ECMenuUI@DuiLib@@UAEPAXI@Z 004054b0 f i UIMenu.obj
 0001:000044b0       ??_GCMenuUI@DuiLib@@UAEPAXI@Z 004054b0 f i UIMenu.obj
 0001:000044f0       ??0STRINGorID@DuiLib@@QAE@PB_W@Z 004054f0 f i UIMenu.obj
 0001:00004510       ??0CMenuBuilderCallback@DuiLib@@QAE@XZ 00405510 f i UIMenu.obj
 0001:00004540       ??0IDialogBuilderCallback@DuiLib@@QAE@XZ 00405540 f i UIMenu.obj
 0001:00004560       ?CreateControl@CMenuBuilderCallback@DuiLib@@EAEPAVCControlUI@2@PB_W@Z 00405560 f i UIMenu.obj
 0001:00004680       ??_GCMenuElementUI@DuiLib@@UAEPAXI@Z 00405680 f i UIMenu.obj
 0001:00004680       ??_ECMenuElementUI@DuiLib@@UAEPAXI@Z 00405680 f i UIMenu.obj
 0001:000046c0       ?AddReceiver@?$ObserverImpl@HUContextMenuParam@DuiLib@@@@UAEXPAV?$ReceiverImplBase@HUContextMenuParam@DuiLib@@@@@Z 004056c0 f i UIMenu.obj
 0001:00004710       ?RBroadcast@?$ObserverImpl@HUContextMenuParam@DuiLib@@@@UAEHUContextMenuParam@DuiLib@@@Z 00405710 f i UIMenu.obj
 0001:00004840       ??0?$ReceiverImpl@HUContextMenuParam@DuiLib@@@@QAE@XZ 00405840 f i UIMenu.obj
 0001:00004880       ??1?$ReceiverImpl@HUContextMenuParam@DuiLib@@@@UAE@XZ 00405880 f i UIMenu.obj
 0001:000048b0       ?AddObserver@?$ReceiverImpl@HUContextMenuParam@DuiLib@@@@UAEXPAV?$ObserverImplBase@HUContextMenuParam@DuiLib@@@@@Z 004058b0 f i UIMenu.obj
 0001:000048e0       ?RemoveObserver@?$ReceiverImpl@HUContextMenuParam@DuiLib@@@@UAEXXZ 004058e0 f i UIMenu.obj
 0001:00004a00       ?Receive@?$ReceiverImpl@HUContextMenuParam@DuiLib@@@@UAEHUContextMenuParam@DuiLib@@@Z 00405a00 f i UIMenu.obj
 0001:00004a20       ?Respond@?$ReceiverImpl@HUContextMenuParam@DuiLib@@@@UAEHUContextMenuParam@DuiLib@@PAV?$ObserverImplBase@HUContextMenuParam@DuiLib@@@@@Z 00405a20 f i UIMenu.obj
 0001:00004a40       ??0?$Iterator@HUContextMenuParam@DuiLib@@@?$ObserverImpl@HUContextMenuParam@DuiLib@@@@QAE@AAV1@@Z 00405a40 f i UIMenu.obj
 0001:00004a80       ?next@?$Iterator@HUContextMenuParam@DuiLib@@@?$ObserverImpl@HUContextMenuParam@DuiLib@@@@QAEPAV?$ReceiverImplBase@HUContextMenuParam@DuiLib@@@@XZ 00405a80 f i UIMenu.obj
 0001:00004b20       ??1?$reverse_iterator@V?$_Vector_iterator@V?$_Vector_val@PAV?$ReceiverImplBase@HUContextMenuParam@DuiLib@@@@V?$allocator@PAV?$ReceiverImplBase@HUContextMenuParam@DuiLib@@@@@std@@@std@@@std@@@std@@QAE@XZ 00405b20 f i UIMenu.obj
 0001:00004b50       ??_G?$ReceiverImpl@HUContextMenuParam@DuiLib@@@@UAEPAXI@Z 00405b50 f i UIMenu.obj
 0001:00004b50       ??_E?$ReceiverImpl@HUContextMenuParam@DuiLib@@@@UAEPAXI@Z 00405b50 f i UIMenu.obj
 0001:00004b90       ??0?$ReceiverImplBase@HUContextMenuParam@DuiLib@@@@QAE@XZ 00405b90 f i UIMenu.obj
 0001:00004bb0       ??1?$_Vector_iterator@V?$_Vector_val@PAV?$ObserverImplBase@HUContextMenuParam@DuiLib@@@@V?$allocator@PAV?$ObserverImplBase@HUContextMenuParam@DuiLib@@@@@std@@@std@@@std@@QAE@XZ 00405bb0 f i UIMenu.obj
 0001:00004be0       ??1?$_Revranit@V?$_Vector_iterator@V?$_Vector_val@PAV?$ReceiverImplBase@HUContextMenuParam@DuiLib@@@@V?$allocator@PAV?$ReceiverImplBase@HUContextMenuParam@DuiLib@@@@@std@@@std@@@std@@U?$iterator@Urandom_access_iterator_tag@std@@PAV?$ReceiverImplBase@HUContextMenuParam@DuiLib@@@@HPAPAV3@AAPAV3@@2@@std@@QAE@XZ 00405be0 f i UIMenu.obj
 0001:00004c10       ??1?$_Vector_iterator@V?$_Vector_val@PAV?$ReceiverImplBase@HUContextMenuParam@DuiLib@@@@V?$allocator@PAV?$ReceiverImplBase@HUContextMenuParam@DuiLib@@@@@std@@@std@@@std@@QAE@XZ 00405c10 f i UIMenu.obj
 0001:00004c40       ??1?$_Vector_const_iterator@V?$_Vector_val@PAV?$ReceiverImplBase@HUContextMenuParam@DuiLib@@@@V?$allocator@PAV?$ReceiverImplBase@HUContextMenuParam@DuiLib@@@@@std@@@std@@@std@@QAE@XZ 00405c40 f i UIMenu.obj
 0001:00004c70       ??1?$_Iterator012@Urandom_access_iterator_tag@std@@PAV?$ReceiverImplBase@HUContextMenuParam@DuiLib@@@@HPBQAV3@ABQAV3@U_Iterator_base12@2@@std@@QAE@XZ 00405c70 f i UIMenu.obj
 0001:00004ca0       ??1_Iterator_base12@std@@QAE@XZ 00405ca0 f i UIMenu.obj
 0001:00004d50       ?_Orphan_me@_Iterator_base12@std@@QAEXXZ 00405d50 f i UIMenu.obj
 0001:00004de0       ??1?$_Vector_const_iterator@V?$_Vector_val@PAV?$ObserverImplBase@HUContextMenuParam@DuiLib@@@@V?$allocator@PAV?$ObserverImplBase@HUContextMenuParam@DuiLib@@@@@std@@@std@@@std@@QAE@XZ 00405de0 f i UIMenu.obj
 0001:00004e10       ??1?$_Iterator012@Urandom_access_iterator_tag@std@@PAV?$ObserverImplBase@HUContextMenuParam@DuiLib@@@@HPBQAV3@ABQAV3@U_Iterator_base12@2@@std@@QAE@XZ 00405e10 f i UIMenu.obj
 0001:00004e40       ?rbegin@?$vector@PAV?$ReceiverImplBase@HUContextMenuParam@DuiLib@@@@V?$allocator@PAV?$ReceiverImplBase@HUContextMenuParam@DuiLib@@@@@std@@@std@@QAE?AV?$reverse_iterator@V?$_Vector_iterator@V?$_Vector_val@PAV?$ReceiverImplBase@HUContextMenuParam@DuiLib@@@@V?$allocator@PAV?$ReceiverImplBase@HUContextMenuParam@DuiLib@@@@@std@@@std@@@std@@@2@XZ 00405e40 f i UIMenu.obj
 0001:00004f00       ?end@?$vector@PAV?$ReceiverImplBase@HUContextMenuParam@DuiLib@@@@V?$allocator@PAV?$ReceiverImplBase@HUContextMenuParam@DuiLib@@@@@std@@@std@@QAE?AV?$_Vector_iterator@V?$_Vector_val@PAV?$ReceiverImplBase@HUContextMenuParam@DuiLib@@@@V?$allocator@PAV?$ReceiverImplBase@HUContextMenuParam@DuiLib@@@@@std@@@std@@@2@XZ 00405f00 f i UIMenu.obj
 0001:00004f50       ?rend@?$vector@PAV?$ReceiverImplBase@HUContextMenuParam@DuiLib@@@@V?$allocator@PAV?$ReceiverImplBase@HUContextMenuParam@DuiLib@@@@@std@@@std@@QAE?AV?$reverse_iterator@V?$_Vector_iterator@V?$_Vector_val@PAV?$ReceiverImplBase@HUContextMenuParam@DuiLib@@@@V?$allocator@PAV?$ReceiverImplBase@HUContextMenuParam@DuiLib@@@@@std@@@std@@@std@@@2@XZ 00405f50 f i UIMenu.obj
 0001:00005010       ?begin@?$vector@PAV?$ReceiverImplBase@HUContextMenuParam@DuiLib@@@@V?$allocator@PAV?$ReceiverImplBase@HUContextMenuParam@DuiLib@@@@@std@@@std@@QAE?AV?$_Vector_iterator@V?$_Vector_val@PAV?$ReceiverImplBase@HUContextMenuParam@DuiLib@@@@V?$allocator@PAV?$ReceiverImplBase@HUContextMenuParam@DuiLib@@@@@std@@@std@@@2@XZ 00406010 f i UIMenu.obj
 0001:00005060       ?size@?$vector@PAV?$ReceiverImplBase@HUContextMenuParam@DuiLib@@@@V?$allocator@PAV?$ReceiverImplBase@HUContextMenuParam@DuiLib@@@@@std@@@std@@QBEIXZ 00406060 f i UIMenu.obj
 0001:00005090       ??A?$vector@PAV?$ReceiverImplBase@HUContextMenuParam@DuiLib@@@@V?$allocator@PAV?$ReceiverImplBase@HUContextMenuParam@DuiLib@@@@@std@@@std@@QAEAAPAV?$ReceiverImplBase@HUContextMenuParam@DuiLib@@@@I@Z 00406090 f i UIMenu.obj
 0001:00005130       ?push_back@?$vector@PAV?$ReceiverImplBase@HUContextMenuParam@DuiLib@@@@V?$allocator@PAV?$ReceiverImplBase@HUContextMenuParam@DuiLib@@@@@std@@@std@@QAEXABQAV?$ReceiverImplBase@HUContextMenuParam@DuiLib@@@@@Z 00406130 f i UIMenu.obj
 0001:00005250       ??0?$vector@PAV?$ObserverImplBase@HUContextMenuParam@DuiLib@@@@V?$allocator@PAV?$ObserverImplBase@HUContextMenuParam@DuiLib@@@@@std@@@std@@QAE@XZ 00406250 f i UIMenu.obj
 0001:00005290       ??1?$vector@PAV?$ObserverImplBase@HUContextMenuParam@DuiLib@@@@V?$allocator@PAV?$ObserverImplBase@HUContextMenuParam@DuiLib@@@@@std@@@std@@QAE@XZ 00406290 f i UIMenu.obj
 0001:00005300       ?begin@?$vector@PAV?$ObserverImplBase@HUContextMenuParam@DuiLib@@@@V?$allocator@PAV?$ObserverImplBase@HUContextMenuParam@DuiLib@@@@@std@@@std@@QAE?AV?$_Vector_iterator@V?$_Vector_val@PAV?$ObserverImplBase@HUContextMenuParam@DuiLib@@@@V?$allocator@PAV?$ObserverImplBase@HUContextMenuParam@DuiLib@@@@@std@@@std@@@2@XZ 00406300 f i UIMenu.obj
 0001:00005350       ?end@?$vector@PAV?$ObserverImplBase@HUContextMenuParam@DuiLib@@@@V?$allocator@PAV?$ObserverImplBase@HUContextMenuParam@DuiLib@@@@@std@@@std@@QAE?AV?$_Vector_iterator@V?$_Vector_val@PAV?$ObserverImplBase@HUContextMenuParam@DuiLib@@@@V?$allocator@PAV?$ObserverImplBase@HUContextMenuParam@DuiLib@@@@@std@@@std@@@2@XZ 00406350 f i UIMenu.obj
 0001:000053a0       ?push_back@?$vector@PAV?$ObserverImplBase@HUContextMenuParam@DuiLib@@@@V?$allocator@PAV?$ObserverImplBase@HUContextMenuParam@DuiLib@@@@@std@@@std@@QAEXABQAV?$ObserverImplBase@HUContextMenuParam@DuiLib@@@@@Z 004063a0 f i UIMenu.obj
 0001:000054c0       ??E?$reverse_iterator@V?$_Vector_iterator@V?$_Vector_val@PAV?$ReceiverImplBase@HUContextMenuParam@DuiLib@@@@V?$allocator@PAV?$ReceiverImplBase@HUContextMenuParam@DuiLib@@@@@std@@@std@@@std@@@std@@QAEAAV01@XZ 004064c0 f i UIMenu.obj
 0001:000054f0       ??D?$_Revranit@V?$_Vector_iterator@V?$_Vector_val@PAV?$ReceiverImplBase@HUContextMenuParam@DuiLib@@@@V?$allocator@PAV?$ReceiverImplBase@HUContextMenuParam@DuiLib@@@@@std@@@std@@@std@@U?$iterator@Urandom_access_iterator_tag@std@@PAV?$ReceiverImplBase@HUContextMenuParam@DuiLib@@@@HPAPAV3@AAPAV3@@2@@std@@QBEAAPAV?$ReceiverImplBase@HUContextMenuParam@DuiLib@@@@XZ 004064f0 f i UIMenu.obj
 0001:000055b0       ??D?$_Vector_iterator@V?$_Vector_val@PAV?$ReceiverImplBase@HUContextMenuParam@DuiLib@@@@V?$allocator@PAV?$ReceiverImplBase@HUContextMenuParam@DuiLib@@@@@std@@@std@@@std@@QBEAAPAV?$ReceiverImplBase@HUContextMenuParam@DuiLib@@@@XZ 004065b0 f i UIMenu.obj
 0001:000055e0       ??D?$_Vector_iterator@V?$_Vector_val@PAV?$ObserverImplBase@HUContextMenuParam@DuiLib@@@@V?$allocator@PAV?$ObserverImplBase@HUContextMenuParam@DuiLib@@@@@std@@@std@@@std@@QBEAAPAV?$ObserverImplBase@HUContextMenuParam@DuiLib@@@@XZ 004065e0 f i UIMenu.obj
 0001:00005610       ??E?$_Vector_iterator@V?$_Vector_val@PAV?$ObserverImplBase@HUContextMenuParam@DuiLib@@@@V?$allocator@PAV?$ObserverImplBase@HUContextMenuParam@DuiLib@@@@@std@@@std@@@std@@QAEAAV01@XZ 00406610 f i UIMenu.obj
 0001:00005640       ??9?$_Vector_const_iterator@V?$_Vector_val@PAV?$ObserverImplBase@HUContextMenuParam@DuiLib@@@@V?$allocator@PAV?$ObserverImplBase@HUContextMenuParam@DuiLib@@@@@std@@@std@@@std@@QBE_NABV01@@Z 00406640 f i UIMenu.obj
 0001:00005680       ??0?$reverse_iterator@V?$_Vector_iterator@V?$_Vector_val@PAV?$ReceiverImplBase@HUContextMenuParam@DuiLib@@@@V?$allocator@PAV?$ReceiverImplBase@HUContextMenuParam@DuiLib@@@@@std@@@std@@@std@@@std@@QAE@ABV01@@Z 00406680 f i UIMenu.obj
 0001:000056b0       ??0?$_Vector_iterator@V?$_Vector_val@PAV?$ReceiverImplBase@HUContextMenuParam@DuiLib@@@@V?$allocator@PAV?$ReceiverImplBase@HUContextMenuParam@DuiLib@@@@@std@@@std@@@std@@QAE@ABV01@@Z 004066b0 f i UIMenu.obj
 0001:000056e0       ??0?$_Vector_const_iterator@V?$_Vector_val@PAV?$ReceiverImplBase@HUContextMenuParam@DuiLib@@@@V?$allocator@PAV?$ReceiverImplBase@HUContextMenuParam@DuiLib@@@@@std@@@std@@@std@@QAE@ABV01@@Z 004066e0 f i UIMenu.obj
 0001:00005720       ??0?$_Iterator012@Urandom_access_iterator_tag@std@@PAV?$ReceiverImplBase@HUContextMenuParam@DuiLib@@@@HPBQAV3@ABQAV3@U_Iterator_base12@2@@std@@QAE@ABU01@@Z 00406720 f i UIMenu.obj
 0001:00005750       ??0_Iterator_base12@std@@QAE@ABU01@@Z 00406750 f i UIMenu.obj
 0001:00005790       ??4_Iterator_base12@std@@QAEAAU01@ABU01@@Z 00406790 f i UIMenu.obj
 0001:000057d0       ?_Adopt@_Iterator_base12@std@@QAEXPBU_Container_base12@2@@Z 004067d0 f i UIMenu.obj
 0001:000058c0       ??0?$_Revranit@V?$_Vector_iterator@V?$_Vector_val@PAV?$ReceiverImplBase@HUContextMenuParam@DuiLib@@@@V?$allocator@PAV?$ReceiverImplBase@HUContextMenuParam@DuiLib@@@@@std@@@std@@@std@@U?$iterator@Urandom_access_iterator_tag@std@@PAV?$ReceiverImplBase@HUContextMenuParam@DuiLib@@@@HPAPAV3@AAPAV3@@2@@std@@QAE@ABV01@@Z 004068c0 f i UIMenu.obj
 0001:000058f0       ?_Inside@?$vector@PAV?$ReceiverImplBase@HUContextMenuParam@DuiLib@@@@V?$allocator@PAV?$ReceiverImplBase@HUContextMenuParam@DuiLib@@@@@std@@@std@@IBE_NPBQAV?$ReceiverImplBase@HUContextMenuParam@DuiLib@@@@@Z 004068f0 f i UIMenu.obj
 0001:00005940       ?_Reserve@?$vector@PAV?$ReceiverImplBase@HUContextMenuParam@DuiLib@@@@V?$allocator@PAV?$ReceiverImplBase@HUContextMenuParam@DuiLib@@@@@std@@@std@@IAEXI@Z 00406940 f i UIMenu.obj
 0001:000059c0       ?_Orphan_range@?$vector@PAV?$ReceiverImplBase@HUContextMenuParam@DuiLib@@@@V?$allocator@PAV?$ReceiverImplBase@HUContextMenuParam@DuiLib@@@@@std@@@std@@IBEXPAPAV?$ReceiverImplBase@HUContextMenuParam@DuiLib@@@@0@Z 004069c0 f i UIMenu.obj
 0001:00005ad0       ?_Getpfirst@_Container_base12@std@@QBEPAPAU_Iterator_base12@2@XZ 00406ad0 f i UIMenu.obj
 0001:00005b10       ?_Clrcont@_Iterator_base12@std@@QAEXXZ 00406b10 f i UIMenu.obj
 0001:00005b30       ?_Getpnext@_Iterator_base12@std@@QAEPAPAU12@XZ 00406b30 f i UIMenu.obj
 0001:00005b50       ?_Inside@?$vector@PAV?$ObserverImplBase@HUContextMenuParam@DuiLib@@@@V?$allocator@PAV?$ObserverImplBase@HUContextMenuParam@DuiLib@@@@@std@@@std@@IBE_NPBQAV?$ObserverImplBase@HUContextMenuParam@DuiLib@@@@@Z 00406b50 f i UIMenu.obj
 0001:00005ba0       ?_Reserve@?$vector@PAV?$ObserverImplBase@HUContextMenuParam@DuiLib@@@@V?$allocator@PAV?$ObserverImplBase@HUContextMenuParam@DuiLib@@@@@std@@@std@@IAEXI@Z 00406ba0 f i UIMenu.obj
 0001:00005c20       ?_Tidy@?$vector@PAV?$ObserverImplBase@HUContextMenuParam@DuiLib@@@@V?$allocator@PAV?$ObserverImplBase@HUContextMenuParam@DuiLib@@@@@std@@@std@@IAEXXZ 00406c20 f i UIMenu.obj
 0001:00005cb0       ?_Orphan_all@_Container_base12@std@@QAEXXZ 00406cb0 f i UIMenu.obj
 0001:00005d60       ?_Orphan_range@?$vector@PAV?$ObserverImplBase@HUContextMenuParam@DuiLib@@@@V?$allocator@PAV?$ObserverImplBase@HUContextMenuParam@DuiLib@@@@@std@@@std@@IBEXPAPAV?$ObserverImplBase@HUContextMenuParam@DuiLib@@@@0@Z 00406d60 f i UIMenu.obj
 0001:00005e70       ??0?$_Vector_val@PAV?$ObserverImplBase@HUContextMenuParam@DuiLib@@@@V?$allocator@PAV?$ObserverImplBase@HUContextMenuParam@DuiLib@@@@@std@@@std@@QAE@V?$allocator@PAV?$ObserverImplBase@HUContextMenuParam@DuiLib@@@@@1@@Z 00406e70 f i UIMenu.obj
 0001:00005f90       ??0_Container_proxy@std@@QAE@XZ 00406f90 f i UIMenu.obj
 0001:00005fc0       ??0_Container_base12@std@@QAE@XZ 00406fc0 f i UIMenu.obj
 0001:00005fe0       ??1_Container_base12@std@@QAE@XZ 00406fe0 f i UIMenu.obj
 0001:00006010       ??1?$_Vector_val@PAV?$ObserverImplBase@HUContextMenuParam@DuiLib@@@@V?$allocator@PAV?$ObserverImplBase@HUContextMenuParam@DuiLib@@@@@std@@@std@@QAE@XZ 00407010 f i UIMenu.obj
 0001:000060f0       ??0?$allocator@PAV?$ObserverImplBase@HUContextMenuParam@DuiLib@@@@@std@@QAE@XZ 004070f0 f i UIMenu.obj
 0001:00006110       ??0?$_Vector_iterator@V?$_Vector_val@PAV?$ReceiverImplBase@HUContextMenuParam@DuiLib@@@@V?$allocator@PAV?$ReceiverImplBase@HUContextMenuParam@DuiLib@@@@@std@@@std@@@std@@QAE@PAPAV?$ReceiverImplBase@HUContextMenuParam@DuiLib@@@@PBU_Container_base12@1@@Z 00407110 f i UIMenu.obj
 0001:00006150       ??F?$_Vector_iterator@V?$_Vector_val@PAV?$ReceiverImplBase@HUContextMenuParam@DuiLib@@@@V?$allocator@PAV?$ReceiverImplBase@HUContextMenuParam@DuiLib@@@@@std@@@std@@@std@@QAEAAV01@XZ 00407150 f i UIMenu.obj
 0001:00006180       ??D?$_Vector_const_iterator@V?$_Vector_val@PAV?$ReceiverImplBase@HUContextMenuParam@DuiLib@@@@V?$allocator@PAV?$ReceiverImplBase@HUContextMenuParam@DuiLib@@@@@std@@@std@@@std@@QBEABQAV?$ReceiverImplBase@HUContextMenuParam@DuiLib@@@@XZ 00407180 f i UIMenu.obj
 0001:00006240       ?_Getcont@_Iterator_base12@std@@QBEPBU_Container_base12@2@XZ 00407240 f i UIMenu.obj
 0001:00006280       ??0?$reverse_iterator@V?$_Vector_iterator@V?$_Vector_val@PAV?$ReceiverImplBase@HUContextMenuParam@DuiLib@@@@V?$allocator@PAV?$ReceiverImplBase@HUContextMenuParam@DuiLib@@@@@std@@@std@@@std@@@std@@QAE@V?$_Vector_iterator@V?$_Vector_val@PAV?$ReceiverImplBase@HUContextMenuParam@DuiLib@@@@V?$allocator@PAV?$ReceiverImplBase@HUContextMenuParam@DuiLib@@@@@std@@@std@@@1@@Z 00407280 f i UIMenu.obj
 0001:00006310       ??E?$_Revranit@V?$_Vector_iterator@V?$_Vector_val@PAV?$ReceiverImplBase@HUContextMenuParam@DuiLib@@@@V?$allocator@PAV?$ReceiverImplBase@HUContextMenuParam@DuiLib@@@@@std@@@std@@@std@@U?$iterator@Urandom_access_iterator_tag@std@@PAV?$ReceiverImplBase@HUContextMenuParam@DuiLib@@@@HPAPAV3@AAPAV3@@2@@std@@QAEAAV01@XZ 00407310 f i UIMenu.obj
 0001:00006340       ??0?$_Vector_iterator@V?$_Vector_val@PAV?$ObserverImplBase@HUContextMenuParam@DuiLib@@@@V?$allocator@PAV?$ObserverImplBase@HUContextMenuParam@DuiLib@@@@@std@@@std@@@std@@QAE@PAPAV?$ObserverImplBase@HUContextMenuParam@DuiLib@@@@PBU_Container_base12@1@@Z 00407340 f i UIMenu.obj
 0001:00006380       ??D?$_Vector_const_iterator@V?$_Vector_val@PAV?$ObserverImplBase@HUContextMenuParam@DuiLib@@@@V?$allocator@PAV?$ObserverImplBase@HUContextMenuParam@DuiLib@@@@@std@@@std@@@std@@QBEABQAV?$ObserverImplBase@HUContextMenuParam@DuiLib@@@@XZ 00407380 f i UIMenu.obj
 0001:00006440       ??E?$_Vector_const_iterator@V?$_Vector_val@PAV?$ObserverImplBase@HUContextMenuParam@DuiLib@@@@V?$allocator@PAV?$ObserverImplBase@HUContextMenuParam@DuiLib@@@@@std@@@std@@@std@@QAEAAV01@XZ 00407440 f i UIMenu.obj
 0001:000064f0       ??8?$_Vector_const_iterator@V?$_Vector_val@PAV?$ObserverImplBase@HUContextMenuParam@DuiLib@@@@V?$allocator@PAV?$ObserverImplBase@HUContextMenuParam@DuiLib@@@@@std@@@std@@@std@@QBE_NABV01@@Z 004074f0 f i UIMenu.obj
 0001:00006530       ?deallocate@?$allocator@U_Container_proxy@std@@@std@@QAEXPAU_Container_proxy@2@I@Z 00407530 f i UIMenu.obj
 0001:00006560       ?allocate@?$allocator@U_Container_proxy@std@@@std@@QAEPAU_Container_proxy@2@I@Z 00407560 f i UIMenu.obj
 0001:00006590       ?reserve@?$vector@PAV?$ReceiverImplBase@HUContextMenuParam@DuiLib@@@@V?$allocator@PAV?$ReceiverImplBase@HUContextMenuParam@DuiLib@@@@@std@@@std@@QAEXI@Z 00407590 f i UIMenu.obj
 0001:00006700       ?_Destroy@?$vector@PAV?$ReceiverImplBase@HUContextMenuParam@DuiLib@@@@V?$allocator@PAV?$ReceiverImplBase@HUContextMenuParam@DuiLib@@@@@std@@@std@@IAEXPAPAV?$ReceiverImplBase@HUContextMenuParam@DuiLib@@@@0@Z 00407700 f i UIMenu.obj
 0001:00006740       ?capacity@?$vector@PAV?$ReceiverImplBase@HUContextMenuParam@DuiLib@@@@V?$allocator@PAV?$ReceiverImplBase@HUContextMenuParam@DuiLib@@@@@std@@@std@@QBEIXZ 00407740 f i UIMenu.obj
 0001:00006770       ?max_size@?$vector@PAV?$ReceiverImplBase@HUContextMenuParam@DuiLib@@@@V?$allocator@PAV?$ReceiverImplBase@HUContextMenuParam@DuiLib@@@@@std@@@std@@QBEIXZ 00407770 f i UIMenu.obj
 0001:000067a0       ?_Grow_to@?$vector@PAV?$ReceiverImplBase@HUContextMenuParam@DuiLib@@@@V?$allocator@PAV?$ReceiverImplBase@HUContextMenuParam@DuiLib@@@@@std@@@std@@IBEII@Z 004077a0 f i UIMenu.obj
 0001:00006820       ?_Xlen@?$vector@PAV?$ReceiverImplBase@HUContextMenuParam@DuiLib@@@@V?$allocator@PAV?$ReceiverImplBase@HUContextMenuParam@DuiLib@@@@@std@@@std@@IBEXXZ 00407820 f i UIMenu.obj
 0001:00006850       ?deallocate@?$allocator@PAV?$ReceiverImplBase@HUContextMenuParam@DuiLib@@@@@std@@QAEXPAPAV?$ReceiverImplBase@HUContextMenuParam@DuiLib@@@@I@Z 00407850 f i UIMenu.obj
 0001:00006880       ?reserve@?$vector@PAV?$ObserverImplBase@HUContextMenuParam@DuiLib@@@@V?$allocator@PAV?$ObserverImplBase@HUContextMenuParam@DuiLib@@@@@std@@@std@@QAEXI@Z 00407880 f i UIMenu.obj
 0001:000069f0       ?capacity@?$vector@PAV?$ObserverImplBase@HUContextMenuParam@DuiLib@@@@V?$allocator@PAV?$ObserverImplBase@HUContextMenuParam@DuiLib@@@@@std@@@std@@QBEIXZ 004079f0 f i UIMenu.obj
 0001:00006a20       ?size@?$vector@PAV?$ObserverImplBase@HUContextMenuParam@DuiLib@@@@V?$allocator@PAV?$ObserverImplBase@HUContextMenuParam@DuiLib@@@@@std@@@std@@QBEIXZ 00407a20 f i UIMenu.obj
 0001:00006a50       ?max_size@?$vector@PAV?$ObserverImplBase@HUContextMenuParam@DuiLib@@@@V?$allocator@PAV?$ObserverImplBase@HUContextMenuParam@DuiLib@@@@@std@@@std@@QBEIXZ 00407a50 f i UIMenu.obj
 0001:00006a80       ?_Destroy@?$vector@PAV?$ObserverImplBase@HUContextMenuParam@DuiLib@@@@V?$allocator@PAV?$ObserverImplBase@HUContextMenuParam@DuiLib@@@@@std@@@std@@IAEXPAPAV?$ObserverImplBase@HUContextMenuParam@DuiLib@@@@0@Z 00407a80 f i UIMenu.obj
 0001:00006ac0       ?_Grow_to@?$vector@PAV?$ObserverImplBase@HUContextMenuParam@DuiLib@@@@V?$allocator@PAV?$ObserverImplBase@HUContextMenuParam@DuiLib@@@@@std@@@std@@IBEII@Z 00407ac0 f i UIMenu.obj
 0001:00006b40       ?_Xlen@?$vector@PAV?$ObserverImplBase@HUContextMenuParam@DuiLib@@@@V?$allocator@PAV?$ObserverImplBase@HUContextMenuParam@DuiLib@@@@@std@@@std@@IBEXXZ 00407b40 f i UIMenu.obj
 0001:00006b70       ??0?$allocator@PAV?$ObserverImplBase@HUContextMenuParam@DuiLib@@@@@std@@QAE@ABV01@@Z 00407b70 f i UIMenu.obj
 0001:00006b90       ?deallocate@?$allocator@PAV?$ObserverImplBase@HUContextMenuParam@DuiLib@@@@@std@@QAEXPAPAV?$ObserverImplBase@HUContextMenuParam@DuiLib@@@@I@Z 00407b90 f i UIMenu.obj
 0001:00006bc0       ??0?$_Vector_const_iterator@V?$_Vector_val@PAV?$ReceiverImplBase@HUContextMenuParam@DuiLib@@@@V?$allocator@PAV?$ReceiverImplBase@HUContextMenuParam@DuiLib@@@@@std@@@std@@@std@@QAE@PAPAV?$ReceiverImplBase@HUContextMenuParam@DuiLib@@@@PBU_Container_base12@1@@Z 00407bc0 f i UIMenu.obj
 0001:00006c40       ??F?$_Vector_const_iterator@V?$_Vector_val@PAV?$ReceiverImplBase@HUContextMenuParam@DuiLib@@@@V?$allocator@PAV?$ReceiverImplBase@HUContextMenuParam@DuiLib@@@@@std@@@std@@@std@@QAEAAV01@XZ 00407c40 f i UIMenu.obj
 0001:00006d00       ??0?$_Revranit@V?$_Vector_iterator@V?$_Vector_val@PAV?$ReceiverImplBase@HUContextMenuParam@DuiLib@@@@V?$allocator@PAV?$ReceiverImplBase@HUContextMenuParam@DuiLib@@@@@std@@@std@@@std@@U?$iterator@Urandom_access_iterator_tag@std@@PAV?$ReceiverImplBase@HUContextMenuParam@DuiLib@@@@HPAPAV3@AAPAV3@@2@@std@@QAE@V?$_Vector_iterator@V?$_Vector_val@PAV?$ReceiverImplBase@HUContextMenuParam@DuiLib@@@@V?$allocator@PAV?$ReceiverImplBase@HUContextMenuParam@DuiLib@@@@@std@@@std@@@1@@Z 00407d00 f i UIMenu.obj
 0001:00006d70       ??0?$_Vector_const_iterator@V?$_Vector_val@PAV?$ObserverImplBase@HUContextMenuParam@DuiLib@@@@V?$allocator@PAV?$ObserverImplBase@HUContextMenuParam@DuiLib@@@@@std@@@std@@@std@@QAE@PAPAV?$ObserverImplBase@HUContextMenuParam@DuiLib@@@@PBU_Container_base12@1@@Z 00407d70 f i UIMenu.obj
 0001:00006df0       ?_Compat@?$_Vector_const_iterator@V?$_Vector_val@PAV?$ObserverImplBase@HUContextMenuParam@DuiLib@@@@V?$allocator@PAV?$ObserverImplBase@HUContextMenuParam@DuiLib@@@@@std@@@std@@@std@@QBEXABV12@@Z 00407df0 f i UIMenu.obj
 0001:00006ea0       ??0?$_Iterator012@Urandom_access_iterator_tag@std@@PAV?$ReceiverImplBase@HUContextMenuParam@DuiLib@@@@HPBQAV3@ABQAV3@U_Iterator_base12@2@@std@@QAE@XZ 00407ea0 f i UIMenu.obj
 0001:00006ed0       ??0_Iterator_base12@std@@QAE@XZ 00407ed0 f i UIMenu.obj
 0001:00006f00       ??0?$_Iterator012@Urandom_access_iterator_tag@std@@PAV?$ObserverImplBase@HUContextMenuParam@DuiLib@@@@HPBQAV3@ABQAV3@U_Iterator_base12@2@@std@@QAE@XZ 00407f00 f i UIMenu.obj
 0001:00006f30       ?allocate@?$allocator@PAV?$ReceiverImplBase@HUContextMenuParam@DuiLib@@@@@std@@QAEPAPAV?$ReceiverImplBase@HUContextMenuParam@DuiLib@@@@I@Z 00407f30 f i UIMenu.obj
 0001:00006f60       ?max_size@?$allocator@PAV?$ReceiverImplBase@HUContextMenuParam@DuiLib@@@@@std@@QBEIXZ 00407f60 f i UIMenu.obj
 0001:00006fb0       ?allocate@?$allocator@PAV?$ObserverImplBase@HUContextMenuParam@DuiLib@@@@@std@@QAEPAPAV?$ObserverImplBase@HUContextMenuParam@DuiLib@@@@I@Z 00407fb0 f i UIMenu.obj
 0001:00006fe0       ?max_size@?$allocator@PAV?$ObserverImplBase@HUContextMenuParam@DuiLib@@@@@std@@QBEIXZ 00407fe0 f i UIMenu.obj
 0001:00007030       ??$?9V?$_Vector_iterator@V?$_Vector_val@PAV?$ReceiverImplBase@HUContextMenuParam@DuiLib@@@@V?$allocator@PAV?$ReceiverImplBase@HUContextMenuParam@DuiLib@@@@@std@@@std@@@std@@V01@@std@@YA_NABV?$reverse_iterator@V?$_Vector_iterator@V?$_Vector_val@PAV?$ReceiverImplBase@HUContextMenuParam@DuiLib@@@@V?$allocator@PAV?$ReceiverImplBase@HUContextMenuParam@DuiLib@@@@@std@@@std@@@std@@@0@0@Z 00408030 f i UIMenu.obj
 0001:00007060       ??$_Cons_val@V?$allocator@U_Container_proxy@std@@@std@@U_Container_proxy@2@U32@@std@@YAXAAV?$allocator@U_Container_proxy@std@@@0@PAU_Container_proxy@0@$$QAU20@@Z 00408060 f i UIMenu.obj
 0001:00007090       ??$_Dest_val@V?$allocator@U_Container_proxy@std@@@std@@U_Container_proxy@2@@std@@YAXAAV?$allocator@U_Container_proxy@std@@@0@PAU_Container_proxy@0@@Z 00408090 f i UIMenu.obj
 0001:000070b0       ??$addressof@QAV?$ReceiverImplBase@HUContextMenuParam@DuiLib@@@@@std@@YAPBQAV?$ReceiverImplBase@HUContextMenuParam@DuiLib@@@@ABQAV1@@Z 004080b0 f i UIMenu.obj
 0001:000070c0       ??$_Cons_val@V?$allocator@PAV?$ReceiverImplBase@HUContextMenuParam@DuiLib@@@@@std@@PAV?$ReceiverImplBase@HUContextMenuParam@DuiLib@@@@AAPAV3@@std@@YAXAAV?$allocator@PAV?$ReceiverImplBase@HUContextMenuParam@DuiLib@@@@@0@PAPAV?$ReceiverImplBase@HUContextMenuParam@DuiLib@@@@AAPAV2@@Z 004080c0 f i UIMenu.obj
 0001:000070f0       ??$_Cons_val@V?$allocator@PAV?$ReceiverImplBase@HUContextMenuParam@DuiLib@@@@@std@@PAV?$ReceiverImplBase@HUContextMenuParam@DuiLib@@@@ABQAV3@@std@@YAXAAV?$allocator@PAV?$ReceiverImplBase@HUContextMenuParam@DuiLib@@@@@0@PAPAV?$ReceiverImplBase@HUContextMenuParam@DuiLib@@@@ABQAV2@@Z 004080f0 f i UIMenu.obj
 0001:00007120       ??$addressof@QAV?$ObserverImplBase@HUContextMenuParam@DuiLib@@@@@std@@YAPBQAV?$ObserverImplBase@HUContextMenuParam@DuiLib@@@@ABQAV1@@Z 00408120 f i UIMenu.obj
 0001:00007130       ??$_Cons_val@V?$allocator@PAV?$ObserverImplBase@HUContextMenuParam@DuiLib@@@@@std@@PAV?$ObserverImplBase@HUContextMenuParam@DuiLib@@@@AAPAV3@@std@@YAXAAV?$allocator@PAV?$ObserverImplBase@HUContextMenuParam@DuiLib@@@@@0@PAPAV?$ObserverImplBase@HUContextMenuParam@DuiLib@@@@AAPAV2@@Z 00408130 f i UIMenu.obj
 0001:00007160       ??$_Cons_val@V?$allocator@PAV?$ObserverImplBase@HUContextMenuParam@DuiLib@@@@@std@@PAV?$ObserverImplBase@HUContextMenuParam@DuiLib@@@@ABQAV3@@std@@YAXAAV?$allocator@PAV?$ObserverImplBase@HUContextMenuParam@DuiLib@@@@@0@PAPAV?$ObserverImplBase@HUContextMenuParam@DuiLib@@@@ABQAV2@@Z 00408160 f i UIMenu.obj
 0001:00007190       ??$_Destroy_range@V?$allocator@PAV?$ReceiverImplBase@HUContextMenuParam@DuiLib@@@@@std@@@std@@YAXPAPAV?$ReceiverImplBase@HUContextMenuParam@DuiLib@@@@0AAV?$allocator@PAV?$ReceiverImplBase@HUContextMenuParam@DuiLib@@@@@0@@Z 00408190 f i UIMenu.obj
 0001:000071e0       ??$?0PAV?$ObserverImplBase@HUContextMenuParam@DuiLib@@@@@?$allocator@U_Container_proxy@std@@@std@@QAE@ABV?$allocator@PAV?$ObserverImplBase@HUContextMenuParam@DuiLib@@@@@1@@Z 004081e0 f i UIMenu.obj
 0001:00007200       ??$_Allocate@U_Container_proxy@std@@@std@@YAPAU_Container_proxy@0@IPAU10@@Z 00408200 f i UIMenu.obj
 0001:00007280       ??0bad_alloc@std@@QAE@PBD@Z 00408280 f i UIMenu.obj
 0001:000072c0       ??1bad_alloc@std@@UAE@XZ   004082c0 f i UIMenu.obj
 0001:000072f0       ??_Gbad_alloc@std@@UAEPAXI@Z 004082f0 f i UIMenu.obj
 0001:000072f0       ??_Ebad_alloc@std@@UAEPAXI@Z 004082f0 f i UIMenu.obj
 0001:00007330       ??$_Umove@PAPAV?$ReceiverImplBase@HUContextMenuParam@DuiLib@@@@@?$vector@PAV?$ReceiverImplBase@HUContextMenuParam@DuiLib@@@@V?$allocator@PAV?$ReceiverImplBase@HUContextMenuParam@DuiLib@@@@@std@@@std@@IAEPAPAV?$ReceiverImplBase@HUContextMenuParam@DuiLib@@@@PAPAV2@00@Z 00408330 f i UIMenu.obj
 0001:00007370       ??$_Umove@PAPAV?$ObserverImplBase@HUContextMenuParam@DuiLib@@@@@?$vector@PAV?$ObserverImplBase@HUContextMenuParam@DuiLib@@@@V?$allocator@PAV?$ObserverImplBase@HUContextMenuParam@DuiLib@@@@@std@@@std@@IAEPAPAV?$ObserverImplBase@HUContextMenuParam@DuiLib@@@@PAPAV2@00@Z 00408370 f i UIMenu.obj
 0001:000073b0       ??$_Destroy_range@V?$allocator@PAV?$ObserverImplBase@HUContextMenuParam@DuiLib@@@@@std@@@std@@YAXPAPAV?$ObserverImplBase@HUContextMenuParam@DuiLib@@@@0AAV?$allocator@PAV?$ObserverImplBase@HUContextMenuParam@DuiLib@@@@@0@@Z 004083b0 f i UIMenu.obj
 0001:00007400       ??$_Allocate@PAV?$ReceiverImplBase@HUContextMenuParam@DuiLib@@@@@std@@YAPAPAV?$ReceiverImplBase@HUContextMenuParam@DuiLib@@@@IPAPAV1@@Z 00408400 f i UIMenu.obj
 0001:00007480       ??$_Allocate@PAV?$ObserverImplBase@HUContextMenuParam@DuiLib@@@@@std@@YAPAPAV?$ObserverImplBase@HUContextMenuParam@DuiLib@@@@IPAPAV1@@Z 00408480 f i UIMenu.obj
 0001:00007500       ??0bad_alloc@std@@QAE@ABV01@@Z 00408500 f i UIMenu.obj
 0001:00007540       ?construct@?$allocator@PAV?$ReceiverImplBase@HUContextMenuParam@DuiLib@@@@@std@@QAEXPAPAV?$ReceiverImplBase@HUContextMenuParam@DuiLib@@@@ABQAV3@@Z 00408540 f i UIMenu.obj
 0001:00007570       ?construct@?$allocator@PAV?$ObserverImplBase@HUContextMenuParam@DuiLib@@@@@std@@QAEXPAPAV?$ObserverImplBase@HUContextMenuParam@DuiLib@@@@ABQAV3@@Z 00408570 f i UIMenu.obj
 0001:000075a0       ?construct@?$allocator@U_Container_proxy@std@@@std@@QAEXPAU_Container_proxy@2@$$QAU32@@Z 004085a0 f i UIMenu.obj
 0001:00007650       ??2@YAPAXIPAX@Z            00408650 f i UIMenu.obj
 0001:00007660       ??3@YAXPAX0@Z              00408660 f i UIMenu.obj
 0001:00007670       ?destroy@?$allocator@U_Container_proxy@std@@@std@@QAEXPAU_Container_proxy@2@@Z 00408670 f i UIMenu.obj
 0001:000076a0       ??$?8V?$_Vector_iterator@V?$_Vector_val@PAV?$ReceiverImplBase@HUContextMenuParam@DuiLib@@@@V?$allocator@PAV?$ReceiverImplBase@HUContextMenuParam@DuiLib@@@@@std@@@std@@@std@@V01@@std@@YA_NABV?$reverse_iterator@V?$_Vector_iterator@V?$_Vector_val@PAV?$ReceiverImplBase@HUContextMenuParam@DuiLib@@@@V?$allocator@PAV?$ReceiverImplBase@HUContextMenuParam@DuiLib@@@@@std@@@std@@@std@@@0@0@Z 004086a0 f i UIMenu.obj
 0001:000076c0       ??$forward@U_Container_proxy@std@@@std@@YA$$QAU_Container_proxy@0@AAU10@@Z 004086c0 f i UIMenu.obj
 0001:000076d0       ??$forward@AAPAV?$ReceiverImplBase@HUContextMenuParam@DuiLib@@@@@std@@YAAAPAV?$ReceiverImplBase@HUContextMenuParam@DuiLib@@@@AAPAV1@@Z 004086d0 f i UIMenu.obj
 0001:000076e0       ??$construct@AAPAV?$ReceiverImplBase@HUContextMenuParam@DuiLib@@@@@?$allocator@PAV?$ReceiverImplBase@HUContextMenuParam@DuiLib@@@@@std@@QAEXPAPAV?$ReceiverImplBase@HUContextMenuParam@DuiLib@@@@AAPAV2@@Z 004086e0 f i UIMenu.obj
 0001:00007790       ??$forward@ABQAV?$ReceiverImplBase@HUContextMenuParam@DuiLib@@@@@std@@YAABQAV?$ReceiverImplBase@HUContextMenuParam@DuiLib@@@@ABQAV1@@Z 00408790 f i UIMenu.obj
 0001:000077a0       ??$_Ptr_cat@PAV?$ReceiverImplBase@HUContextMenuParam@DuiLib@@@@PAV1@@std@@YA?AU_Scalar_ptr_iterator_tag@0@PAPAV?$ReceiverImplBase@HUContextMenuParam@DuiLib@@@@0@Z 004087a0 f i UIMenu.obj
 0001:000077f0       ??$forward@AAPAV?$ObserverImplBase@HUContextMenuParam@DuiLib@@@@@std@@YAAAPAV?$ObserverImplBase@HUContextMenuParam@DuiLib@@@@AAPAV1@@Z 004087f0 f i UIMenu.obj
 0001:00007800       ??$construct@AAPAV?$ObserverImplBase@HUContextMenuParam@DuiLib@@@@@?$allocator@PAV?$ObserverImplBase@HUContextMenuParam@DuiLib@@@@@std@@QAEXPAPAV?$ObserverImplBase@HUContextMenuParam@DuiLib@@@@AAPAV2@@Z 00408800 f i UIMenu.obj
 0001:000078b0       ??$forward@ABQAV?$ObserverImplBase@HUContextMenuParam@DuiLib@@@@@std@@YAABQAV?$ObserverImplBase@HUContextMenuParam@DuiLib@@@@ABQAV1@@Z 004088b0 f i UIMenu.obj
 0001:000078c0       ??$_Destroy_range@V?$allocator@PAV?$ReceiverImplBase@HUContextMenuParam@DuiLib@@@@@std@@@std@@YAXPAPAV?$ReceiverImplBase@HUContextMenuParam@DuiLib@@@@0AAV?$allocator@PAV?$ReceiverImplBase@HUContextMenuParam@DuiLib@@@@@0@U_Scalar_ptr_iterator_tag@0@@Z 004088c0 f i UIMenu.obj
 0001:000078d0       ??$_Uninitialized_move@PAPAV?$ReceiverImplBase@HUContextMenuParam@DuiLib@@@@PAPAV1@V?$allocator@PAV?$ReceiverImplBase@HUContextMenuParam@DuiLib@@@@@std@@@std@@YAPAPAV?$ReceiverImplBase@HUContextMenuParam@DuiLib@@@@PAPAV1@00AAV?$allocator@PAV?$ReceiverImplBase@HUContextMenuParam@DuiLib@@@@@0@@Z 004088d0 f i UIMenu.obj
 0001:00007930       ??$_Uninitialized_move@PAPAV?$ObserverImplBase@HUContextMenuParam@DuiLib@@@@PAPAV1@V?$allocator@PAV?$ObserverImplBase@HUContextMenuParam@DuiLib@@@@@std@@@std@@YAPAPAV?$ObserverImplBase@HUContextMenuParam@DuiLib@@@@PAPAV1@00AAV?$allocator@PAV?$ObserverImplBase@HUContextMenuParam@DuiLib@@@@@0@@Z 00408930 f i UIMenu.obj
 0001:00007990       ??$_Ptr_cat@PAV?$ObserverImplBase@HUContextMenuParam@DuiLib@@@@PAV1@@std@@YA?AU_Scalar_ptr_iterator_tag@0@PAPAV?$ObserverImplBase@HUContextMenuParam@DuiLib@@@@0@Z 00408990 f i UIMenu.obj
 0001:000079e0       ??$_Destroy_range@V?$allocator@PAV?$ObserverImplBase@HUContextMenuParam@DuiLib@@@@@std@@@std@@YAXPAPAV?$ObserverImplBase@HUContextMenuParam@DuiLib@@@@0AAV?$allocator@PAV?$ObserverImplBase@HUContextMenuParam@DuiLib@@@@@0@U_Scalar_ptr_iterator_tag@0@@Z 004089e0 f i UIMenu.obj
 0001:000079f0       ??$_Construct@PAV?$ReceiverImplBase@HUContextMenuParam@DuiLib@@@@ABQAV1@@std@@YAXPAPAV?$ReceiverImplBase@HUContextMenuParam@DuiLib@@@@ABQAV1@@Z 004089f0 f i UIMenu.obj
 0001:00007aa0       ??$_Construct@PAV?$ObserverImplBase@HUContextMenuParam@DuiLib@@@@ABQAV1@@std@@YAXPAPAV?$ObserverImplBase@HUContextMenuParam@DuiLib@@@@ABQAV1@@Z 00408aa0 f i UIMenu.obj
 0001:00007b50       ??$_Destroy@U_Container_proxy@std@@@std@@YAXPAU_Container_proxy@0@@Z 00408b50 f i UIMenu.obj
 0001:00007b60       ??$_Equal@V?$_Vector_iterator@V?$_Vector_val@PAV?$ReceiverImplBase@HUContextMenuParam@DuiLib@@@@V?$allocator@PAV?$ReceiverImplBase@HUContextMenuParam@DuiLib@@@@@std@@@std@@@std@@U?$iterator@Urandom_access_iterator_tag@std@@PAV?$ReceiverImplBase@HUContextMenuParam@DuiLib@@@@HPAPAV3@AAPAV3@@2@@?$_Revranit@V?$_Vector_iterator@V?$_Vector_val@PAV?$ReceiverImplBase@HUContextMenuParam@DuiLib@@@@V?$allocator@PAV?$ReceiverImplBase@HUContextMenuParam@DuiLib@@@@@std@@@std@@@std@@U?$iterator@Urandom_access_iterator_tag@std@@PAV?$ReceiverImplBase@HUContextMenuParam@DuiLib@@@@HPAPAV3@AAPAV3@@2@@std@@QBE_NABV01@@Z 00408b60 f i UIMenu.obj
 0001:00007c00       ??8?$_Vector_const_iterator@V?$_Vector_val@PAV?$ReceiverImplBase@HUContextMenuParam@DuiLib@@@@V?$allocator@PAV?$ReceiverImplBase@HUContextMenuParam@DuiLib@@@@@std@@@std@@@std@@QBE_NABV01@@Z 00408c00 f i UIMenu.obj
 0001:00007c40       ?_Compat@?$_Vector_const_iterator@V?$_Vector_val@PAV?$ReceiverImplBase@HUContextMenuParam@DuiLib@@@@V?$allocator@PAV?$ReceiverImplBase@HUContextMenuParam@DuiLib@@@@@std@@@std@@@std@@QBEXABV12@@Z 00408c40 f i UIMenu.obj
 0001:00007cf0       ??$_Val_type@PAPAV?$ReceiverImplBase@HUContextMenuParam@DuiLib@@@@@std@@YAPAPAV?$ReceiverImplBase@HUContextMenuParam@DuiLib@@@@PAPAV1@@Z 00408cf0 f i UIMenu.obj
 0001:00007d00       ??$_Uninit_move@PAV?$ReceiverImplBase@HUContextMenuParam@DuiLib@@@@PAV1@PAV1@@std@@YAPAPAV?$ReceiverImplBase@HUContextMenuParam@DuiLib@@@@PAPAV1@00AAV?$allocator@PAV?$ReceiverImplBase@HUContextMenuParam@DuiLib@@@@@0@0U_Scalar_ptr_iterator_tag@0@@Z 00408d00 f i UIMenu.obj
 0001:00007d80       ??$_Val_type@PAPAV?$ObserverImplBase@HUContextMenuParam@DuiLib@@@@@std@@YAPAPAV?$ObserverImplBase@HUContextMenuParam@DuiLib@@@@PAPAV1@@Z 00408d80 f i UIMenu.obj
 0001:00007d90       ??$_Uninit_move@PAV?$ObserverImplBase@HUContextMenuParam@DuiLib@@@@PAV1@PAV1@@std@@YAPAPAV?$ObserverImplBase@HUContextMenuParam@DuiLib@@@@PAPAV1@00AAV?$allocator@PAV?$ObserverImplBase@HUContextMenuParam@DuiLib@@@@@0@0U_Scalar_ptr_iterator_tag@0@@Z 00408d90 f i UIMenu.obj
 0001:00007e10       ?base@?$_Revranit@V?$_Vector_iterator@V?$_Vector_val@PAV?$ReceiverImplBase@HUContextMenuParam@DuiLib@@@@V?$allocator@PAV?$ReceiverImplBase@HUContextMenuParam@DuiLib@@@@@std@@@std@@@std@@U?$iterator@Urandom_access_iterator_tag@std@@PAV?$ReceiverImplBase@HUContextMenuParam@DuiLib@@@@HPAPAV3@AAPAV3@@2@@std@@QBE?AV?$_Vector_iterator@V?$_Vector_val@PAV?$ReceiverImplBase@HUContextMenuParam@DuiLib@@@@V?$allocator@PAV?$ReceiverImplBase@HUContextMenuParam@DuiLib@@@@@std@@@std@@@2@XZ 00408e10 f i UIMenu.obj
 0001:00007e60       ??$_Debug_range@PAPAV?$ReceiverImplBase@HUContextMenuParam@DuiLib@@@@@std@@YAXPAPAV?$ReceiverImplBase@HUContextMenuParam@DuiLib@@@@0PB_WI@Z 00408e60 f i UIMenu.obj
 0001:00007eb0       ??$_Debug_pointer@PAV?$ReceiverImplBase@HUContextMenuParam@DuiLib@@@@@std@@YAXPAPAV?$ReceiverImplBase@HUContextMenuParam@DuiLib@@@@PB_WI@Z 00408eb0 f i UIMenu.obj
 0001:00007ee0       ??$_Debug_range@PAPAV?$ObserverImplBase@HUContextMenuParam@DuiLib@@@@@std@@YAXPAPAV?$ObserverImplBase@HUContextMenuParam@DuiLib@@@@0PB_WI@Z 00408ee0 f i UIMenu.obj
 0001:00007f30       ??$_Debug_pointer@PAV?$ObserverImplBase@HUContextMenuParam@DuiLib@@@@@std@@YAXPAPAV?$ObserverImplBase@HUContextMenuParam@DuiLib@@@@PB_WI@Z 00408f30 f i UIMenu.obj
 0001:00007f60       ??$_Iter_cat@PAPAV?$ReceiverImplBase@HUContextMenuParam@DuiLib@@@@@std@@YA?AUrandom_access_iterator_tag@0@ABQAPAV?$ReceiverImplBase@HUContextMenuParam@DuiLib@@@@@Z 00408f60 f i UIMenu.obj
 0001:00007fc0       ??$_Debug_range2@PAPAV?$ReceiverImplBase@HUContextMenuParam@DuiLib@@@@@std@@YAXPAPAV?$ReceiverImplBase@HUContextMenuParam@DuiLib@@@@0PB_WIUrandom_access_iterator_tag@0@@Z 00408fc0 f i UIMenu.obj
 0001:00008020       ??$_Iter_cat@PAPAV?$ObserverImplBase@HUContextMenuParam@DuiLib@@@@@std@@YA?AUrandom_access_iterator_tag@0@ABQAPAV?$ObserverImplBase@HUContextMenuParam@DuiLib@@@@@Z 00409020 f i UIMenu.obj
 0001:00008080       ??$_Debug_range2@PAPAV?$ObserverImplBase@HUContextMenuParam@DuiLib@@@@@std@@YAXPAPAV?$ObserverImplBase@HUContextMenuParam@DuiLib@@@@0PB_WIUrandom_access_iterator_tag@0@@Z 00409080 f i UIMenu.obj
 0001:000080e0       ??_ECMenuWnd@DuiLib@@WBA@AEPAXI@Z 004090e0 f i UIMenu.obj
 0001:000080f0       ??_GCMenuWnd@DuiLib@@UAEPAXI@Z 004090f0 f i UIMenu.obj
 0001:000080f0       ??_ECMenuWnd@DuiLib@@UAEPAXI@Z 004090f0 f i UIMenu.obj
 0001:00008130       ??1CMenuWnd@DuiLib@@UAE@XZ 00409130 f i UIMenu.obj
 0001:000081d0       ?DoEvent@CMenuUI@DuiLib@@WEPE@AEXAAUtagTEventUI@2@@Z 004091d0 f i UIMenu.obj
 0001:000081e0       ??0?$ObserverImpl@HUContextMenuParam@DuiLib@@@@QAE@XZ 004091e0 f i UIMenu.obj
 0001:00008220       ?RemoveReceiver@?$ObserverImpl@HUContextMenuParam@DuiLib@@@@UAEXPAV?$ReceiverImplBase@HUContextMenuParam@DuiLib@@@@@Z 00409220 f i UIMenu.obj
 0001:00008360       ?Broadcast@?$ObserverImpl@HUContextMenuParam@DuiLib@@@@UAEHUContextMenuParam@DuiLib@@@Z 00409360 f i UIMenu.obj
 0001:00008490       ?Notify@?$ObserverImpl@HUContextMenuParam@DuiLib@@@@UAEHUContextMenuParam@DuiLib@@@Z 00409490 f i UIMenu.obj
 0001:000085c0       ??_G?$ObserverImpl@HUContextMenuParam@DuiLib@@@@UAEPAXI@Z 004095c0 f i UIMenu.obj
 0001:000085c0       ??_E?$ObserverImpl@HUContextMenuParam@DuiLib@@@@UAEPAXI@Z 004095c0 f i UIMenu.obj
 0001:00008600       ??1?$ObserverImpl@HUContextMenuParam@DuiLib@@@@UAE@XZ 00409600 f i UIMenu.obj
 0001:00008630       ??0?$ObserverImplBase@HUContextMenuParam@DuiLib@@@@QAE@XZ 00409630 f i UIMenu.obj
 0001:00008650       ??0?$vector@PAV?$ReceiverImplBase@HUContextMenuParam@DuiLib@@@@V?$allocator@PAV?$ReceiverImplBase@HUContextMenuParam@DuiLib@@@@@std@@@std@@QAE@XZ 00409650 f i UIMenu.obj
 0001:00008690       ??1?$vector@PAV?$ReceiverImplBase@HUContextMenuParam@DuiLib@@@@V?$allocator@PAV?$ReceiverImplBase@HUContextMenuParam@DuiLib@@@@@std@@@std@@QAE@XZ 00409690 f i UIMenu.obj
 0001:00008700       ?erase@?$vector@PAV?$ReceiverImplBase@HUContextMenuParam@DuiLib@@@@V?$allocator@PAV?$ReceiverImplBase@HUContextMenuParam@DuiLib@@@@@std@@@std@@QAE?AV?$_Vector_iterator@V?$_Vector_val@PAV?$ReceiverImplBase@HUContextMenuParam@DuiLib@@@@V?$allocator@PAV?$ReceiverImplBase@HUContextMenuParam@DuiLib@@@@@std@@@std@@@2@V?$_Vector_const_iterator@V?$_Vector_val@PAV?$ReceiverImplBase@HUContextMenuParam@DuiLib@@@@V?$allocator@PAV?$ReceiverImplBase@HUContextMenuParam@DuiLib@@@@@std@@@std@@@2@@Z 00409700 f i UIMenu.obj
 0001:00008830       ??E?$_Vector_iterator@V?$_Vector_val@PAV?$ReceiverImplBase@HUContextMenuParam@DuiLib@@@@V?$allocator@PAV?$ReceiverImplBase@HUContextMenuParam@DuiLib@@@@@std@@@std@@@std@@QAEAAV01@XZ 00409830 f i UIMenu.obj
 0001:00008860       ??9?$_Vector_const_iterator@V?$_Vector_val@PAV?$ReceiverImplBase@HUContextMenuParam@DuiLib@@@@V?$allocator@PAV?$ReceiverImplBase@HUContextMenuParam@DuiLib@@@@@std@@@std@@@std@@QBE_NABV01@@Z 00409860 f i UIMenu.obj
 0001:000088a0       ?_Make_iter@?$vector@PAV?$ReceiverImplBase@HUContextMenuParam@DuiLib@@@@V?$allocator@PAV?$ReceiverImplBase@HUContextMenuParam@DuiLib@@@@@std@@@std@@QBE?AV?$_Vector_iterator@V?$_Vector_val@PAV?$ReceiverImplBase@HUContextMenuParam@DuiLib@@@@V?$allocator@PAV?$ReceiverImplBase@HUContextMenuParam@DuiLib@@@@@std@@@std@@@2@V?$_Vector_const_iterator@V?$_Vector_val@PAV?$ReceiverImplBase@HUContextMenuParam@DuiLib@@@@V?$allocator@PAV?$ReceiverImplBase@HUContextMenuParam@DuiLib@@@@@std@@@std@@@2@@Z 004098a0 f i UIMenu.obj
 0001:00008930       ?_Tidy@?$vector@PAV?$ReceiverImplBase@HUContextMenuParam@DuiLib@@@@V?$allocator@PAV?$ReceiverImplBase@HUContextMenuParam@DuiLib@@@@@std@@@std@@IAEXXZ 00409930 f i UIMenu.obj
 0001:000089c0       ??0?$_Vector_val@PAV?$ReceiverImplBase@HUContextMenuParam@DuiLib@@@@V?$allocator@PAV?$ReceiverImplBase@HUContextMenuParam@DuiLib@@@@@std@@@std@@QAE@V?$allocator@PAV?$ReceiverImplBase@HUContextMenuParam@DuiLib@@@@@1@@Z 004099c0 f i UIMenu.obj
 0001:00008ae0       ??1?$_Vector_val@PAV?$ReceiverImplBase@HUContextMenuParam@DuiLib@@@@V?$allocator@PAV?$ReceiverImplBase@HUContextMenuParam@DuiLib@@@@@std@@@std@@QAE@XZ 00409ae0 f i UIMenu.obj
 0001:00008bc0       ??0?$allocator@PAV?$ReceiverImplBase@HUContextMenuParam@DuiLib@@@@@std@@QAE@XZ 00409bc0 f i UIMenu.obj
 0001:00008be0       ??E?$_Vector_const_iterator@V?$_Vector_val@PAV?$ReceiverImplBase@HUContextMenuParam@DuiLib@@@@V?$allocator@PAV?$ReceiverImplBase@HUContextMenuParam@DuiLib@@@@@std@@@std@@@std@@QAEAAV01@XZ 00409be0 f i UIMenu.obj
 0001:00008c90       ??0?$allocator@PAV?$ReceiverImplBase@HUContextMenuParam@DuiLib@@@@@std@@QAE@ABV01@@Z 00409c90 f i UIMenu.obj
 0001:00008cb0       ??$_Move@PAPAV?$ReceiverImplBase@HUContextMenuParam@DuiLib@@@@PAPAV1@@std@@YAPAPAV?$ReceiverImplBase@HUContextMenuParam@DuiLib@@@@PAPAV1@00@Z 00409cb0 f i UIMenu.obj
 0001:00008d00       ??$?0PAV?$ReceiverImplBase@HUContextMenuParam@DuiLib@@@@@?$allocator@U_Container_proxy@std@@@std@@QAE@ABV?$allocator@PAV?$ReceiverImplBase@HUContextMenuParam@DuiLib@@@@@1@@Z 00409d00 f i UIMenu.obj
 0001:00008d20       ??$_Move@PAPAV?$ReceiverImplBase@HUContextMenuParam@DuiLib@@@@PAPAV1@@std@@YAPAPAV?$ReceiverImplBase@HUContextMenuParam@DuiLib@@@@PAPAV1@00U_Scalar_ptr_iterator_tag@0@@Z 00409d20 f i UIMenu.obj
 0001:00008d70       _WinMain@16                00409d70 f   main.obj
 0001:00008e90       _InitializeCriticalSection@4 00409e90 f   kernel32:KERNEL32.dll
 0001:00008e96       _GetVersionExW@4           00409e96 f   kernel32:KERNEL32.dll
 0001:00008e9c       _DeleteCriticalSection@4   00409e9c f   kernel32:KERNEL32.dll
 0001:00008ea2       _EnterCriticalSection@4    00409ea2 f   kernel32:KERNEL32.dll
 0001:00008ea8       _LeaveCriticalSection@4    00409ea8 f   kernel32:KERNEL32.dll
 0001:00008eae       _OutputDebugStringW@4      00409eae f   kernel32:KERNEL32.dll
 0001:00008eb4       _GetTickCount@0            00409eb4 f   kernel32:KERNEL32.dll
 0001:00008eba       _GetLocalTime@4            00409eba f   kernel32:KERNEL32.dll
 0001:00008ec0       _PostQuitMessage@4         00409ec0 f   user32:USER32.dll
 0001:00008ec6       _IsZoomed@4                00409ec6 f   user32:USER32.dll
 0001:00008ecc       _ClientToScreen@8          00409ecc f   user32:USER32.dll
 0001:00008ed2       _GetParent@4               00409ed2 f   user32:USER32.dll
 0001:00008ed8       _SendMessageW@16           00409ed8 f   user32:USER32.dll
 0001:00008ede       _ShowWindow@8              00409ede f   user32:USER32.dll
 0001:00008ee4       _SetForegroundWindow@4     00409ee4 f   user32:USER32.dll
 0001:00008eea       _MoveWindow@24             00409eea f   user32:USER32.dll
 0001:00008ef0       _MapWindowPoints@16        00409ef0 f   user32:USER32.dll
 0001:00008ef6       _GetWindowRect@8           00409ef6 f   user32:USER32.dll
 0001:00008efc       _GetMonitorInfoW@8         00409efc f   user32:USER32.dll
 0001:00008f02       _MonitorFromWindow@8       00409f02 f   user32:USER32.dll
 0001:00008f08       _SetWindowPos@28           00409f08 f   user32:USER32.dll
 0001:00008f0e       _GetClientRect@8           00409f0e f   user32:USER32.dll
 0001:00008f14       _SetWindowLongW@12         00409f14 f   user32:USER32.dll
 0001:00008f1a       _GetWindowLongW@8          00409f1a f   user32:USER32.dll
 0001:00008f20       _IntersectRect@12          00409f20 f   user32:USER32.dll
 0001:00008f26       _CoInitialize@4            00409f26 f   ole32:ole32.dll
 0001:00008f2c       ??0WindowImplBase@DuiLib@@QAE@XZ 00409f2c f   DuiLib_ud:DuiLib_ud.dll
 0001:00008f32       ?GetSuperClassName@CWindowWnd@DuiLib@@MBEPB_WXZ 00409f32 f   DuiLib_ud:DuiLib_ud.dll
 0001:00008f38       ?GetClassStyle@WindowImplBase@DuiLib@@UBEIXZ 00409f38 f   DuiLib_ud:DuiLib_ud.dll
 0001:00008f3e       ?OnClick@WindowImplBase@DuiLib@@MAEXAAUtagTNotifyUI@2@@Z 00409f3e f   DuiLib_ud:DuiLib_ud.dll
 0001:00008f44       ?GetZIPFileName@WindowImplBase@DuiLib@@UBE?AVCDuiString@2@XZ 00409f44 f   DuiLib_ud:DuiLib_ud.dll
 0001:00008f4a       ?GetResourceID@WindowImplBase@DuiLib@@UBEPB_WXZ 00409f4a f   DuiLib_ud:DuiLib_ud.dll
 0001:00008f50       ?OnClose@WindowImplBase@DuiLib@@UAEJIIJAAH@Z 00409f50 f   DuiLib_ud:DuiLib_ud.dll
 0001:00008f56       ?OnDestroy@WindowImplBase@DuiLib@@UAEJIIJAAH@Z 00409f56 f   DuiLib_ud:DuiLib_ud.dll
 0001:00008f5c       ?OnNcActivate@WindowImplBase@DuiLib@@UAEJIIJAAH@Z 00409f5c f   DuiLib_ud:DuiLib_ud.dll
 0001:00008f62       ?OnNcCalcSize@WindowImplBase@DuiLib@@UAEJIIJAAH@Z 00409f62 f   DuiLib_ud:DuiLib_ud.dll
 0001:00008f68       ?OnNcPaint@WindowImplBase@DuiLib@@UAEJIIJAAH@Z 00409f68 f   DuiLib_ud:DuiLib_ud.dll
 0001:00008f6e       ?OnNcHitTest@WindowImplBase@DuiLib@@UAEJIIJAAH@Z 00409f6e f   DuiLib_ud:DuiLib_ud.dll
 0001:00008f74       ?OnGetMinMaxInfo@WindowImplBase@DuiLib@@UAEJIIJAAH@Z 00409f74 f   DuiLib_ud:DuiLib_ud.dll
 0001:00008f7a       ?OnMouseWheel@WindowImplBase@DuiLib@@UAEJIIJAAH@Z 00409f7a f   DuiLib_ud:DuiLib_ud.dll
 0001:00008f80       ?OnMouseHover@WindowImplBase@DuiLib@@UAEJIIJAAH@Z 00409f80 f   DuiLib_ud:DuiLib_ud.dll
 0001:00008f86       ?OnSize@WindowImplBase@DuiLib@@UAEJIIJAAH@Z 00409f86 f   DuiLib_ud:DuiLib_ud.dll
 0001:00008f8c       ?OnChar@WindowImplBase@DuiLib@@UAEJIIJAAH@Z 00409f8c f   DuiLib_ud:DuiLib_ud.dll
 0001:00008f92       ?OnCreate@WindowImplBase@DuiLib@@UAEJIIJAAH@Z 00409f92 f   DuiLib_ud:DuiLib_ud.dll
 0001:00008f98       ?OnKeyDown@WindowImplBase@DuiLib@@UAEJIIJAAH@Z 00409f98 f   DuiLib_ud:DuiLib_ud.dll
 0001:00008f9e       ?OnKillFocus@WindowImplBase@DuiLib@@UAEJIIJAAH@Z 00409f9e f   DuiLib_ud:DuiLib_ud.dll
 0001:00008fa4       ?OnSetFocus@WindowImplBase@DuiLib@@UAEJIIJAAH@Z 00409fa4 f   DuiLib_ud:DuiLib_ud.dll
 0001:00008faa       ?OnLButtonDown@WindowImplBase@DuiLib@@UAEJIIJAAH@Z 00409faa f   DuiLib_ud:DuiLib_ud.dll
 0001:00008fb0       ?OnLButtonUp@WindowImplBase@DuiLib@@UAEJIIJAAH@Z 00409fb0 f   DuiLib_ud:DuiLib_ud.dll
 0001:00008fb6       ?OnMouseMove@WindowImplBase@DuiLib@@UAEJIIJAAH@Z 00409fb6 f   DuiLib_ud:DuiLib_ud.dll
 0001:00008fbc       ?GetStyle@WindowImplBase@DuiLib@@UAEJXZ 00409fbc f   DuiLib_ud:DuiLib_ud.dll
 0001:00008fc2       ?GetMessageMap@WindowImplBase@DuiLib@@MBEPBUDUI_MSGMAP@2@XZ 00409fc2 f   DuiLib_ud:DuiLib_ud.dll
 0001:00008fc8       ?MessageHandler@WindowImplBase@DuiLib@@UAEJIIJAA_N@Z 00409fc8 f   DuiLib_ud:DuiLib_ud.dll
 0001:00008fce       ??1WindowImplBase@DuiLib@@UAE@XZ 00409fce f   DuiLib_ud:DuiLib_ud.dll
 0001:00008fd4       ?OnFinalMessage@WindowImplBase@DuiLib@@UAEXPAUHWND__@@@Z 00409fd4 f   DuiLib_ud:DuiLib_ud.dll
 0001:00008fda       ??0CDuiString@DuiLib@@QAE@PB_WH@Z 00409fda f   DuiLib_ud:DuiLib_ud.dll
 0001:00008fe0       ?FindControl@CPaintManagerUI@DuiLib@@QBEPAVCControlUI@2@PB_W@Z 00409fe0 f   DuiLib_ud:DuiLib_ud.dll
 0001:00008fe6       ?HandleMessage@CWindowWnd@DuiLib@@MAEJIIJ@Z 00409fe6 f   DuiLib_ud:DuiLib_ud.dll
 0001:00008fec       ?HandleMessage@WindowImplBase@DuiLib@@UAEJIIJ@Z 00409fec f   DuiLib_ud:DuiLib_ud.dll
 0001:00008ff2       ?Close@CWindowWnd@DuiLib@@QAEXI@Z 00409ff2 f   DuiLib_ud:DuiLib_ud.dll
 0001:00008ff8       ??0CPoint@DuiLib@@QAE@ABUtagPOINT@@@Z 00409ff8 f   DuiLib_ud:DuiLib_ud.dll
 0001:00008ffe       ?SendMessageW@CWindowWnd@DuiLib@@QAEJIIJ@Z 00409ffe f   DuiLib_ud:DuiLib_ud.dll
 0001:00009004       ??1CDuiString@DuiLib@@QAE@XZ 0040a004 f   DuiLib_ud:DuiLib_ud.dll
 0001:0000900a       ??BCDuiString@DuiLib@@QBEPB_WXZ 0040a00a f   DuiLib_ud:DuiLib_ud.dll
 0001:00009010       ??1CListUI@DuiLib@@UAE@XZ  0040a010 f   DuiLib_ud:DuiLib_ud.dll
 0001:00009016       ?GetHeader@CListUI@DuiLib@@UBEPAVCListHeaderUI@2@XZ 0040a016 f   DuiLib_ud:DuiLib_ud.dll
 0001:0000901c       ??0CListUI@DuiLib@@QAE@XZ  0040a01c f   DuiLib_ud:DuiLib_ud.dll
 0001:00009022       ?GetName@CControlUI@DuiLib@@UBE?AVCDuiString@2@XZ 0040a022 f   DuiLib_ud:DuiLib_ud.dll
 0001:00009028       ?SetName@CControlUI@DuiLib@@UAEXPB_W@Z 0040a028 f   DuiLib_ud:DuiLib_ud.dll
 0001:0000902e       ?GetControlFlags@CListUI@DuiLib@@UBEIXZ 0040a02e f   DuiLib_ud:DuiLib_ud.dll
 0001:00009034       ?Activate@CControlUI@DuiLib@@UAE_NXZ 0040a034 f   DuiLib_ud:DuiLib_ud.dll
 0001:0000903a       ?GetManager@CControlUI@DuiLib@@UBEPAVCPaintManagerUI@2@XZ 0040a03a f   DuiLib_ud:DuiLib_ud.dll
 0001:00009040       ?SetManager@CContainerUI@DuiLib@@UAEXPAVCPaintManagerUI@2@PAVCControlUI@2@_N@Z 0040a040 f   DuiLib_ud:DuiLib_ud.dll
 0001:00009046       ?GetParent@CControlUI@DuiLib@@UBEPAV12@XZ 0040a046 f   DuiLib_ud:DuiLib_ud.dll
 0001:0000904c       ?GetText@CControlUI@DuiLib@@UBE?AVCDuiString@2@XZ 0040a04c f   DuiLib_ud:DuiLib_ud.dll
 0001:00009052       ?SetText@CControlUI@DuiLib@@UAEXPB_W@Z 0040a052 f   DuiLib_ud:DuiLib_ud.dll
 0001:00009058       ?GetPos@CControlUI@DuiLib@@UBEABUtagRECT@@XZ 0040a058 f   DuiLib_ud:DuiLib_ud.dll
 0001:0000905e       ?SetPos@CListUI@DuiLib@@UAEXUtagRECT@@@Z 0040a05e f   DuiLib_ud:DuiLib_ud.dll
 0001:00009064       ?GetWidth@CControlUI@DuiLib@@UBEHXZ 0040a064 f   DuiLib_ud:DuiLib_ud.dll
 0001:0000906a       ?GetHeight@CControlUI@DuiLib@@UBEHXZ 0040a06a f   DuiLib_ud:DuiLib_ud.dll
 0001:00009070       ?GetX@CControlUI@DuiLib@@UBEHXZ 0040a070 f   DuiLib_ud:DuiLib_ud.dll
 0001:00009076       ?GetY@CControlUI@DuiLib@@UBEHXZ 0040a076 f   DuiLib_ud:DuiLib_ud.dll
 0001:0000907c       ?GetPadding@CControlUI@DuiLib@@UBE?AUtagRECT@@XZ 0040a07c f   DuiLib_ud:DuiLib_ud.dll
 0001:00009082       ?SetPadding@CControlUI@DuiLib@@UAEXUtagRECT@@@Z 0040a082 f   DuiLib_ud:DuiLib_ud.dll
 0001:00009088       ?GetFixedXY@CControlUI@DuiLib@@UBE?AUtagSIZE@@XZ 0040a088 f   DuiLib_ud:DuiLib_ud.dll
 0001:0000908e       ?SetFixedXY@CControlUI@DuiLib@@UAEXUtagSIZE@@@Z 0040a08e f   DuiLib_ud:DuiLib_ud.dll
 0001:00009094       ?GetFixedWidth@CControlUI@DuiLib@@UBEHXZ 0040a094 f   DuiLib_ud:DuiLib_ud.dll
 0001:0000909a       ?SetFixedWidth@CControlUI@DuiLib@@UAEXH@Z 0040a09a f   DuiLib_ud:DuiLib_ud.dll
 0001:000090a0       ?GetFixedHeight@CControlUI@DuiLib@@UBEHXZ 0040a0a0 f   DuiLib_ud:DuiLib_ud.dll
 0001:000090a6       ?SetFixedHeight@CControlUI@DuiLib@@UAEXH@Z 0040a0a6 f   DuiLib_ud:DuiLib_ud.dll
 0001:000090ac       ?GetMinWidth@CControlUI@DuiLib@@UBEHXZ 0040a0ac f   DuiLib_ud:DuiLib_ud.dll
 0001:000090b2       ?SetMinWidth@CControlUI@DuiLib@@UAEXH@Z 0040a0b2 f   DuiLib_ud:DuiLib_ud.dll
 0001:000090b8       ?GetMaxWidth@CControlUI@DuiLib@@UBEHXZ 0040a0b8 f   DuiLib_ud:DuiLib_ud.dll
 0001:000090be       ?SetMaxWidth@CControlUI@DuiLib@@UAEXH@Z 0040a0be f   DuiLib_ud:DuiLib_ud.dll
 0001:000090c4       ?GetMinHeight@CControlUI@DuiLib@@UBEHXZ 0040a0c4 f   DuiLib_ud:DuiLib_ud.dll
 0001:000090ca       ?SetMinHeight@CControlUI@DuiLib@@UAEXH@Z 0040a0ca f   DuiLib_ud:DuiLib_ud.dll
 0001:000090d0       ?GetMaxHeight@CControlUI@DuiLib@@UBEHXZ 0040a0d0 f   DuiLib_ud:DuiLib_ud.dll
 0001:000090d6       ?SetMaxHeight@CControlUI@DuiLib@@UAEXH@Z 0040a0d6 f   DuiLib_ud:DuiLib_ud.dll
 0001:000090dc       ?SetRelativePos@CControlUI@DuiLib@@UAEXUtagSIZE@@0@Z 0040a0dc f   DuiLib_ud:DuiLib_ud.dll
 0001:000090e2       ?SetRelativeParentSize@CControlUI@DuiLib@@UAEXUtagSIZE@@@Z 0040a0e2 f   DuiLib_ud:DuiLib_ud.dll
 0001:000090e8       ?GetRelativePos@CControlUI@DuiLib@@UBE?AUtagTRelativePosUI@2@XZ 0040a0e8 f   DuiLib_ud:DuiLib_ud.dll
 0001:000090ee       ?IsRelativePos@CControlUI@DuiLib@@UBE_NXZ 0040a0ee f   DuiLib_ud:DuiLib_ud.dll
 0001:000090f4       ?GetToolTip@CControlUI@DuiLib@@UBE?AVCDuiString@2@XZ 0040a0f4 f   DuiLib_ud:DuiLib_ud.dll
 0001:000090fa       ?SetToolTip@CControlUI@DuiLib@@UAEXPB_W@Z 0040a0fa f   DuiLib_ud:DuiLib_ud.dll
 0001:00009100       ?SetToolTipWidth@CControlUI@DuiLib@@UAEXH@Z 0040a100 f   DuiLib_ud:DuiLib_ud.dll
 0001:00009106       ?GetToolTipWidth@CControlUI@DuiLib@@UAEHXZ 0040a106 f   DuiLib_ud:DuiLib_ud.dll
 0001:0000910c       ?GetShortcut@CControlUI@DuiLib@@UBE_WXZ 0040a10c f   DuiLib_ud:DuiLib_ud.dll
 0001:00009112       ?SetShortcut@CControlUI@DuiLib@@UAEX_W@Z 0040a112 f   DuiLib_ud:DuiLib_ud.dll
 0001:00009118       ?IsContextMenuUsed@CControlUI@DuiLib@@UBE_NXZ 0040a118 f   DuiLib_ud:DuiLib_ud.dll
 0001:0000911e       ?SetContextMenuUsed@CControlUI@DuiLib@@UAEX_N@Z 0040a11e f   DuiLib_ud:DuiLib_ud.dll
 0001:00009124       ?GetUserData@CControlUI@DuiLib@@UAEABVCDuiString@2@XZ 0040a124 f   DuiLib_ud:DuiLib_ud.dll
 0001:0000912a       ?SetUserData@CControlUI@DuiLib@@UAEXPB_W@Z 0040a12a f   DuiLib_ud:DuiLib_ud.dll
 0001:00009130       ?GetTag@CControlUI@DuiLib@@UBEIXZ 0040a130 f   DuiLib_ud:DuiLib_ud.dll
 0001:00009136       ?SetTag@CControlUI@DuiLib@@UAEXI@Z 0040a136 f   DuiLib_ud:DuiLib_ud.dll
 0001:0000913c       ?IsVisible@CControlUI@DuiLib@@UBE_NXZ 0040a13c f   DuiLib_ud:DuiLib_ud.dll
 0001:00009142       ?SetVisible@CContainerUI@DuiLib@@UAEX_N@Z 0040a142 f   DuiLib_ud:DuiLib_ud.dll
 0001:00009148       ?SetInternVisible@CContainerUI@DuiLib@@UAEX_N@Z 0040a148 f   DuiLib_ud:DuiLib_ud.dll
 0001:0000914e       ?IsEnabled@CControlUI@DuiLib@@UBE_NXZ 0040a14e f   DuiLib_ud:DuiLib_ud.dll
 0001:00009154       ?SetEnabled@CControlUI@DuiLib@@UAEX_N@Z 0040a154 f   DuiLib_ud:DuiLib_ud.dll
 0001:0000915a       ?IsMouseEnabled@CControlUI@DuiLib@@UBE_NXZ 0040a15a f   DuiLib_ud:DuiLib_ud.dll
 0001:00009160       ?SetMouseEnabled@CContainerUI@DuiLib@@UAEX_N@Z 0040a160 f   DuiLib_ud:DuiLib_ud.dll
 0001:00009166       ?IsKeyboardEnabled@CControlUI@DuiLib@@UBE_NXZ 0040a166 f   DuiLib_ud:DuiLib_ud.dll
 0001:0000916c       ?SetKeyboardEnabled@CControlUI@DuiLib@@UAEX_N@Z 0040a16c f   DuiLib_ud:DuiLib_ud.dll
 0001:00009172       ?IsFocused@CControlUI@DuiLib@@UBE_NXZ 0040a172 f   DuiLib_ud:DuiLib_ud.dll
 0001:00009178       ?SetFocus@CControlUI@DuiLib@@UAEXXZ 0040a178 f   DuiLib_ud:DuiLib_ud.dll
 0001:0000917e       ?IsFloat@CControlUI@DuiLib@@UBE_NXZ 0040a17e f   DuiLib_ud:DuiLib_ud.dll
 0001:00009184       ?SetFloat@CControlUI@DuiLib@@UAEX_N@Z 0040a184 f   DuiLib_ud:DuiLib_ud.dll
 0001:0000918a       ?FindControl@CContainerUI@DuiLib@@UAEPAVCControlUI@2@P6GPAV32@PAV32@PAX@Z1I@Z 0040a18a f   DuiLib_ud:DuiLib_ud.dll
 0001:00009190       ?Init@CControlUI@DuiLib@@UAEXXZ 0040a190 f   DuiLib_ud:DuiLib_ud.dll
 0001:00009196       ?DoInit@CControlUI@DuiLib@@UAEXXZ 0040a196 f   DuiLib_ud:DuiLib_ud.dll
 0001:0000919c       ?Event@CControlUI@DuiLib@@UAEXAAUtagTEventUI@2@@Z 0040a19c f   DuiLib_ud:DuiLib_ud.dll
 0001:000091a2       ?DoPaint@CContainerUI@DuiLib@@UAEXPAUHDC__@@ABUtagRECT@@@Z 0040a1a2 f   DuiLib_ud:DuiLib_ud.dll
 0001:000091a8       ?PaintBkColor@CControlUI@DuiLib@@UAEXPAUHDC__@@@Z 0040a1a8 f   DuiLib_ud:DuiLib_ud.dll
 0001:000091ae       ?PaintBkImage@CControlUI@DuiLib@@UAEXPAUHDC__@@@Z 0040a1ae f   DuiLib_ud:DuiLib_ud.dll
 0001:000091b4       ?PaintStatusImage@CControlUI@DuiLib@@UAEXPAUHDC__@@@Z 0040a1b4 f   DuiLib_ud:DuiLib_ud.dll
 0001:000091ba       ?PaintText@CControlUI@DuiLib@@UAEXPAUHDC__@@@Z 0040a1ba f   DuiLib_ud:DuiLib_ud.dll
 0001:000091c0       ?PaintBorder@CControlUI@DuiLib@@UAEXPAUHDC__@@@Z 0040a1c0 f   DuiLib_ud:DuiLib_ud.dll
 0001:000091c6       ?DoPostPaint@CVerticalLayoutUI@DuiLib@@UAEXPAUHDC__@@ABUtagRECT@@@Z 0040a1c6 f   DuiLib_ud:DuiLib_ud.dll
 0001:000091cc       ?GetInset@CContainerUI@DuiLib@@UBE?AUtagRECT@@XZ 0040a1cc f   DuiLib_ud:DuiLib_ud.dll
 0001:000091d2       ?SetInset@CContainerUI@DuiLib@@UAEXUtagRECT@@@Z 0040a1d2 f   DuiLib_ud:DuiLib_ud.dll
 0001:000091d8       ?GetChildPadding@CListUI@DuiLib@@UBEHXZ 0040a1d8 f   DuiLib_ud:DuiLib_ud.dll
 0001:000091de       ?SetChildPadding@CListUI@DuiLib@@UAEXH@Z 0040a1de f   DuiLib_ud:DuiLib_ud.dll
 0001:000091e4       ?IsAutoDestroy@CContainerUI@DuiLib@@UBE_NXZ 0040a1e4 f   DuiLib_ud:DuiLib_ud.dll
 0001:000091ea       ?SetAutoDestroy@CContainerUI@DuiLib@@UAEX_N@Z 0040a1ea f   DuiLib_ud:DuiLib_ud.dll
 0001:000091f0       ?IsDelayedDestroy@CContainerUI@DuiLib@@UBE_NXZ 0040a1f0 f   DuiLib_ud:DuiLib_ud.dll
 0001:000091f6       ?SetDelayedDestroy@CContainerUI@DuiLib@@UAEX_N@Z 0040a1f6 f   DuiLib_ud:DuiLib_ud.dll
 0001:000091fc       ?IsMouseChildEnabled@CContainerUI@DuiLib@@UBE_NXZ 0040a1fc f   DuiLib_ud:DuiLib_ud.dll
 0001:00009202       ?SetMouseChildEnabled@CContainerUI@DuiLib@@UAEX_N@Z 0040a202 f   DuiLib_ud:DuiLib_ud.dll
 0001:00009208       ?FindSelectable@CContainerUI@DuiLib@@UBEHH_N@Z 0040a208 f   DuiLib_ud:DuiLib_ud.dll
 0001:0000920e       ?GetScrollPos@CListUI@DuiLib@@UBE?AUtagSIZE@@XZ 0040a20e f   DuiLib_ud:DuiLib_ud.dll
 0001:00009214       ?GetScrollRange@CListUI@DuiLib@@UBE?AUtagSIZE@@XZ 0040a214 f   DuiLib_ud:DuiLib_ud.dll
 0001:0000921a       ?SetScrollPos@CListUI@DuiLib@@UAEXUtagSIZE@@@Z 0040a21a f   DuiLib_ud:DuiLib_ud.dll
 0001:00009220       ?LineUp@CListUI@DuiLib@@UAEXXZ 0040a220 f   DuiLib_ud:DuiLib_ud.dll
 0001:00009226       ?LineDown@CListUI@DuiLib@@UAEXXZ 0040a226 f   DuiLib_ud:DuiLib_ud.dll
 0001:0000922c       ?PageUp@CListUI@DuiLib@@UAEXXZ 0040a22c f   DuiLib_ud:DuiLib_ud.dll
 0001:00009232       ?PageDown@CListUI@DuiLib@@UAEXXZ 0040a232 f   DuiLib_ud:DuiLib_ud.dll
 0001:00009238       ?HomeUp@CListUI@DuiLib@@UAEXXZ 0040a238 f   DuiLib_ud:DuiLib_ud.dll
 0001:0000923e       ?EndDown@CListUI@DuiLib@@UAEXXZ 0040a23e f   DuiLib_ud:DuiLib_ud.dll
 0001:00009244       ?LineLeft@CListUI@DuiLib@@UAEXXZ 0040a244 f   DuiLib_ud:DuiLib_ud.dll
 0001:0000924a       ?LineRight@CListUI@DuiLib@@UAEXXZ 0040a24a f   DuiLib_ud:DuiLib_ud.dll
 0001:00009250       ?PageLeft@CListUI@DuiLib@@UAEXXZ 0040a250 f   DuiLib_ud:DuiLib_ud.dll
 0001:00009256       ?PageRight@CListUI@DuiLib@@UAEXXZ 0040a256 f   DuiLib_ud:DuiLib_ud.dll
 0001:0000925c       ?HomeLeft@CListUI@DuiLib@@UAEXXZ 0040a25c f   DuiLib_ud:DuiLib_ud.dll
 0001:00009262       ?EndRight@CListUI@DuiLib@@UAEXXZ 0040a262 f   DuiLib_ud:DuiLib_ud.dll
 0001:00009268       ?EnableScrollBar@CListUI@DuiLib@@UAEX_N0@Z 0040a268 f   DuiLib_ud:DuiLib_ud.dll
 0001:0000926e       ?GetVerticalScrollBar@CListUI@DuiLib@@UBEPAVCScrollBarUI@2@XZ 0040a26e f   DuiLib_ud:DuiLib_ud.dll
 0001:00009274       ?GetHorizontalScrollBar@CListUI@DuiLib@@UBEPAVCScrollBarUI@2@XZ 0040a274 f   DuiLib_ud:DuiLib_ud.dll
 0001:0000927a       ?SetFloatPos@CContainerUI@DuiLib@@MAEXH@Z 0040a27a f   DuiLib_ud:DuiLib_ud.dll
 0001:00009280       ?ProcessScrollBar@CContainerUI@DuiLib@@MAEXUtagRECT@@HH@Z 0040a280 f   DuiLib_ud:DuiLib_ud.dll
 0001:00009286       ?GetItemAt@CListUI@DuiLib@@UBEPAVCControlUI@2@H@Z 0040a286 f   DuiLib_ud:DuiLib_ud.dll
 0001:0000928c       ?GetCount@CListUI@DuiLib@@UBEHXZ 0040a28c f   DuiLib_ud:DuiLib_ud.dll
 0001:00009292       ?RemoveAt@CListUI@DuiLib@@UAE_NH@Z 0040a292 f   DuiLib_ud:DuiLib_ud.dll
 0001:00009298       ?RemoveAll@CListUI@DuiLib@@UAEXXZ 0040a298 f   DuiLib_ud:DuiLib_ud.dll
 0001:0000929e       ?GetListInfo@CListUI@DuiLib@@UAEPAUtagTListInfoUI@2@XZ 0040a29e f   DuiLib_ud:DuiLib_ud.dll
 0001:000092a4       ?GetCurSel@CListUI@DuiLib@@UBEHXZ 0040a2a4 f   DuiLib_ud:DuiLib_ud.dll
 0001:000092aa       ?SelectItem@CListUI@DuiLib@@UAE_NH_N@Z 0040a2aa f   DuiLib_ud:DuiLib_ud.dll
 0001:000092b0       ?GetList@CListUI@DuiLib@@UBEPAVCContainerUI@2@XZ 0040a2b0 f   DuiLib_ud:DuiLib_ud.dll
 0001:000092b6       ?GetTextCallback@CListUI@DuiLib@@UBEPAVIListCallbackUI@2@XZ 0040a2b6 f   DuiLib_ud:DuiLib_ud.dll
 0001:000092bc       ?SetTextCallback@CListUI@DuiLib@@UAEXPAVIListCallbackUI@2@@Z 0040a2bc f   DuiLib_ud:DuiLib_ud.dll
 0001:000092c2       ?ExpandItem@CListUI@DuiLib@@UAE_NH_N@Z 0040a2c2 f   DuiLib_ud:DuiLib_ud.dll
 0001:000092c8       ?GetExpandedItem@CListUI@DuiLib@@UBEHXZ 0040a2c8 f   DuiLib_ud:DuiLib_ud.dll
 0001:000092ce       ?GetInterface@CListUI@DuiLib@@UAEPAXPB_W@Z 0040a2ce f   DuiLib_ud:DuiLib_ud.dll
 0001:000092d4       ?DoEvent@CListUI@DuiLib@@UAEXAAUtagTEventUI@2@@Z 0040a2d4 f   DuiLib_ud:DuiLib_ud.dll
 0001:000092da       ?Add@CListUI@DuiLib@@UAE_NPAVCControlUI@2@@Z 0040a2da f   DuiLib_ud:DuiLib_ud.dll
 0001:000092e0       ?AddAt@CListUI@DuiLib@@UAE_NPAVCControlUI@2@H@Z 0040a2e0 f   DuiLib_ud:DuiLib_ud.dll
 0001:000092e6       ?GetItemIndex@CListUI@DuiLib@@UBEHPAVCControlUI@2@@Z 0040a2e6 f   DuiLib_ud:DuiLib_ud.dll
 0001:000092ec       ?SetItemIndex@CListUI@DuiLib@@UAE_NPAVCControlUI@2@H@Z 0040a2ec f   DuiLib_ud:DuiLib_ud.dll
 0001:000092f2       ?Remove@CListUI@DuiLib@@UAE_NPAVCControlUI@2@@Z 0040a2f2 f   DuiLib_ud:DuiLib_ud.dll
 0001:000092f8       ??0CSize@DuiLib@@QAE@HH@Z  0040a2f8 f   DuiLib_ud:DuiLib_ud.dll
 0001:000092fe       ?SetAttribute@CListUI@DuiLib@@UAEXPB_W0@Z 0040a2fe f   DuiLib_ud:DuiLib_ud.dll
 0001:00009304       ??0CPaintManagerUI@DuiLib@@QAE@XZ 0040a304 f   DuiLib_ud:DuiLib_ud.dll
 0001:0000930a       ??0CDuiString@DuiLib@@QAE@XZ 0040a30a f   DuiLib_ud:DuiLib_ud.dll
 0001:00009310       ??0CWindowWnd@DuiLib@@QAE@XZ 0040a310 f   DuiLib_ud:DuiLib_ud.dll
 0001:00009316       ?GetClassStyle@CWindowWnd@DuiLib@@MBEIXZ 0040a316 f   DuiLib_ud:DuiLib_ud.dll
 0001:0000931c       ?Create@CWindowWnd@DuiLib@@QAEPAUHWND__@@PAU3@PB_WKKUtagRECT@@PAUHMENU__@@@Z 0040a31c f   DuiLib_ud:DuiLib_ud.dll
 0001:00009322       ??0CDuiRect@DuiLib@@QAE@XZ 0040a322 f   DuiLib_ud:DuiLib_ud.dll
 0001:00009328       ?GetPaintWindow@CPaintManagerUI@DuiLib@@QBEPAUHWND__@@XZ 0040a328 f   DuiLib_ud:DuiLib_ud.dll
 0001:0000932e       ??4CDuiString@DuiLib@@QAEABV01@PB_W@Z 0040a32e f   DuiLib_ud:DuiLib_ud.dll
 0001:00009334       ?Invalidate@CListContainerElementUI@DuiLib@@QAEXXZ 0040a334 f   DuiLib_ud:DuiLib_ud.dll
 0001:0000933a       ?MessageHandler@CPaintManagerUI@DuiLib@@QAE_NIIJAAJ@Z 0040a33a f   DuiLib_ud:DuiLib_ud.dll
 0001:00009340       ??1CDialogBuilder@DuiLib@@QAE@XZ 0040a340 f   DuiLib_ud:DuiLib_ud.dll
 0001:00009346       ?GetHeight@CDuiRect@DuiLib@@QBEHXZ 0040a346 f   DuiLib_ud:DuiLib_ud.dll
 0001:0000934c       ?GetWidth@CDuiRect@DuiLib@@QBEHXZ 0040a34c f   DuiLib_ud:DuiLib_ud.dll
 0001:00009352       ?GetInitSize@CPaintManagerUI@DuiLib@@QAE?AUtagSIZE@@XZ 0040a352 f   DuiLib_ud:DuiLib_ud.dll
 0001:00009358       ?SetInitSize@CPaintManagerUI@DuiLib@@QAEXHH@Z 0040a358 f   DuiLib_ud:DuiLib_ud.dll
 0001:0000935e       ?Create@CDialogBuilder@DuiLib@@QAEPAVCControlUI@2@VSTRINGorID@2@PB_WPAVIDialogBuilderCallback@2@PAVCPaintManagerUI@2@PAV32@@Z 0040a35e f   DuiLib_ud:DuiLib_ud.dll
 0001:00009364       ?GetData@CDuiString@DuiLib@@QBEPB_WXZ 0040a364 f   DuiLib_ud:DuiLib_ud.dll
 0001:0000936a       ??0CDialogBuilder@DuiLib@@QAE@XZ 0040a36a f   DuiLib_ud:DuiLib_ud.dll
 0001:00009370       ?GetHWND@CWindowWnd@DuiLib@@QBEPAUHWND__@@XZ 0040a370 f   DuiLib_ud:DuiLib_ud.dll
 0001:00009376       ??0CDuiRect@DuiLib@@QAE@ABUtagRECT@@@Z 0040a376 f   DuiLib_ud:DuiLib_ud.dll
 0001:0000937c       ?AttachDialog@CPaintManagerUI@DuiLib@@QAE_NPAVCControlUI@2@@Z 0040a37c f   DuiLib_ud:DuiLib_ud.dll
 0001:00009382       ?SetBorderSize@CControlUI@DuiLib@@QAEXH@Z 0040a382 f   DuiLib_ud:DuiLib_ud.dll
 0001:00009388       ?SetBorderColor@CControlUI@DuiLib@@QAEXK@Z 0040a388 f   DuiLib_ud:DuiLib_ud.dll
 0001:0000938e       ?SetBkColor@CControlUI@DuiLib@@QAEXK@Z 0040a38e f   DuiLib_ud:DuiLib_ud.dll
 0001:00009394       ?ApplyAttributeList@CControlUI@DuiLib@@QAEPAV12@PB_W@Z 0040a394 f   DuiLib_ud:DuiLib_ud.dll
 0001:0000939a       ?GetDefaultAttributeList@CPaintManagerUI@DuiLib@@QBEPB_WPB_W@Z 0040a39a f   DuiLib_ud:DuiLib_ud.dll
 0001:000093a0       ?UseParentResource@CPaintManagerUI@DuiLib@@QAE_NPAV12@@Z 0040a3a0 f   DuiLib_ud:DuiLib_ud.dll
 0001:000093a6       ?Init@CPaintManagerUI@DuiLib@@QAEXPAUHWND__@@@Z 0040a3a6 f   DuiLib_ud:DuiLib_ud.dll
 0001:000093ac       ??BCWindowWnd@DuiLib@@QBEPAUHWND__@@XZ 0040a3ac f   DuiLib_ud:DuiLib_ud.dll
 0001:000093b2       ??1CListContainerElementUI@DuiLib@@UAE@XZ 0040a3b2 f   DuiLib_ud:DuiLib_ud.dll
 0001:000093b8       ??0CListContainerElementUI@DuiLib@@QAE@XZ 0040a3b8 f   DuiLib_ud:DuiLib_ud.dll
 0001:000093be       ?GetControlFlags@CListContainerElementUI@DuiLib@@UBEIXZ 0040a3be f   DuiLib_ud:DuiLib_ud.dll
 0001:000093c4       ?SetPos@CContainerUI@DuiLib@@UAEXUtagRECT@@@Z 0040a3c4 f   DuiLib_ud:DuiLib_ud.dll
 0001:000093ca       ?SetVisible@CListContainerElementUI@DuiLib@@UAEX_N@Z 0040a3ca f   DuiLib_ud:DuiLib_ud.dll
 0001:000093d0       ?SetEnabled@CListContainerElementUI@DuiLib@@UAEX_N@Z 0040a3d0 f   DuiLib_ud:DuiLib_ud.dll
 0001:000093d6       ?SetAttribute@CListContainerElementUI@DuiLib@@UAEXPB_W0@Z 0040a3d6 f   DuiLib_ud:DuiLib_ud.dll
 0001:000093dc       ?DoPostPaint@CControlUI@DuiLib@@UAEXPAUHDC__@@ABUtagRECT@@@Z 0040a3dc f   DuiLib_ud:DuiLib_ud.dll
 0001:000093e2       ?GetChildPadding@CContainerUI@DuiLib@@UBEHXZ 0040a3e2 f   DuiLib_ud:DuiLib_ud.dll
 0001:000093e8       ?SetChildPadding@CContainerUI@DuiLib@@UAEXH@Z 0040a3e8 f   DuiLib_ud:DuiLib_ud.dll
 0001:000093ee       ?GetScrollPos@CContainerUI@DuiLib@@UBE?AUtagSIZE@@XZ 0040a3ee f   DuiLib_ud:DuiLib_ud.dll
 0001:000093f4       ?GetScrollRange@CContainerUI@DuiLib@@UBE?AUtagSIZE@@XZ 0040a3f4 f   DuiLib_ud:DuiLib_ud.dll
 0001:000093fa       ?SetScrollPos@CContainerUI@DuiLib@@UAEXUtagSIZE@@@Z 0040a3fa f   DuiLib_ud:DuiLib_ud.dll
 0001:00009400       ?LineUp@CContainerUI@DuiLib@@UAEXXZ 0040a400 f   DuiLib_ud:DuiLib_ud.dll
 0001:00009406       ?LineDown@CContainerUI@DuiLib@@UAEXXZ 0040a406 f   DuiLib_ud:DuiLib_ud.dll
 0001:0000940c       ?PageUp@CContainerUI@DuiLib@@UAEXXZ 0040a40c f   DuiLib_ud:DuiLib_ud.dll
 0001:00009412       ?PageDown@CContainerUI@DuiLib@@UAEXXZ 0040a412 f   DuiLib_ud:DuiLib_ud.dll
 0001:00009418       ?HomeUp@CContainerUI@DuiLib@@UAEXXZ 0040a418 f   DuiLib_ud:DuiLib_ud.dll
 0001:0000941e       ?EndDown@CContainerUI@DuiLib@@UAEXXZ 0040a41e f   DuiLib_ud:DuiLib_ud.dll
 0001:00009424       ?LineLeft@CContainerUI@DuiLib@@UAEXXZ 0040a424 f   DuiLib_ud:DuiLib_ud.dll
 0001:0000942a       ?LineRight@CContainerUI@DuiLib@@UAEXXZ 0040a42a f   DuiLib_ud:DuiLib_ud.dll
 0001:00009430       ?PageLeft@CContainerUI@DuiLib@@UAEXXZ 0040a430 f   DuiLib_ud:DuiLib_ud.dll
 0001:00009436       ?PageRight@CContainerUI@DuiLib@@UAEXXZ 0040a436 f   DuiLib_ud:DuiLib_ud.dll
 0001:0000943c       ?HomeLeft@CContainerUI@DuiLib@@UAEXXZ 0040a43c f   DuiLib_ud:DuiLib_ud.dll
 0001:00009442       ?EndRight@CContainerUI@DuiLib@@UAEXXZ 0040a442 f   DuiLib_ud:DuiLib_ud.dll
 0001:00009448       ?EnableScrollBar@CContainerUI@DuiLib@@UAEX_N0@Z 0040a448 f   DuiLib_ud:DuiLib_ud.dll
 0001:0000944e       ?GetVerticalScrollBar@CContainerUI@DuiLib@@UBEPAVCScrollBarUI@2@XZ 0040a44e f   DuiLib_ud:DuiLib_ud.dll
 0001:00009454       ?GetHorizontalScrollBar@CContainerUI@DuiLib@@UBEPAVCScrollBarUI@2@XZ 0040a454 f   DuiLib_ud:DuiLib_ud.dll
 0001:0000945a       ?GetItemAt@CContainerUI@DuiLib@@UBEPAVCControlUI@2@H@Z 0040a45a f   DuiLib_ud:DuiLib_ud.dll
 0001:00009460       ?GetItemIndex@CContainerUI@DuiLib@@UBEHPAVCControlUI@2@@Z 0040a460 f   DuiLib_ud:DuiLib_ud.dll
 0001:00009466       ?SetItemIndex@CContainerUI@DuiLib@@UAE_NPAVCControlUI@2@H@Z 0040a466 f   DuiLib_ud:DuiLib_ud.dll
 0001:0000946c       ?GetCount@CContainerUI@DuiLib@@UBEHXZ 0040a46c f   DuiLib_ud:DuiLib_ud.dll
 0001:00009472       ?Add@CContainerUI@DuiLib@@UAE_NPAVCControlUI@2@@Z 0040a472 f   DuiLib_ud:DuiLib_ud.dll
 0001:00009478       ?AddAt@CContainerUI@DuiLib@@UAE_NPAVCControlUI@2@H@Z 0040a478 f   DuiLib_ud:DuiLib_ud.dll
 0001:0000947e       ?Remove@CContainerUI@DuiLib@@UAE_NPAVCControlUI@2@@Z 0040a47e f   DuiLib_ud:DuiLib_ud.dll
 0001:00009484       ?RemoveAt@CContainerUI@DuiLib@@UAE_NH@Z 0040a484 f   DuiLib_ud:DuiLib_ud.dll
 0001:0000948a       ?RemoveAll@CContainerUI@DuiLib@@UAEXXZ 0040a48a f   DuiLib_ud:DuiLib_ud.dll
 0001:00009490       ?GetIndex@CListContainerElementUI@DuiLib@@UBEHXZ 0040a490 f   DuiLib_ud:DuiLib_ud.dll
 0001:00009496       ?SetIndex@CListContainerElementUI@DuiLib@@UAEXH@Z 0040a496 f   DuiLib_ud:DuiLib_ud.dll
 0001:0000949c       ?GetOwner@CListContainerElementUI@DuiLib@@UAEPAVIListOwnerUI@2@XZ 0040a49c f   DuiLib_ud:DuiLib_ud.dll
 0001:000094a2       ?SetOwner@CListContainerElementUI@DuiLib@@UAEXPAVCControlUI@2@@Z 0040a4a2 f   DuiLib_ud:DuiLib_ud.dll
 0001:000094a8       ?IsSelected@CListContainerElementUI@DuiLib@@UBE_NXZ 0040a4a8 f   DuiLib_ud:DuiLib_ud.dll
 0001:000094ae       ?Select@CListContainerElementUI@DuiLib@@UAE_N_N@Z 0040a4ae f   DuiLib_ud:DuiLib_ud.dll
 0001:000094b4       ?IsExpanded@CListContainerElementUI@DuiLib@@UBE_NXZ 0040a4b4 f   DuiLib_ud:DuiLib_ud.dll
 0001:000094ba       ?Expand@CListContainerElementUI@DuiLib@@UAE_N_N@Z 0040a4ba f   DuiLib_ud:DuiLib_ud.dll
 0001:000094c0       ?GetInterface@CListContainerElementUI@DuiLib@@UAEPAXPB_W@Z 0040a4c0 f   DuiLib_ud:DuiLib_ud.dll
 0001:000094c6       ?DrawItemBk@CListContainerElementUI@DuiLib@@QAEXPAUHDC__@@ABUtagRECT@@@Z 0040a4c6 f   DuiLib_ud:DuiLib_ud.dll
 0001:000094cc       ?DrawTextW@CRenderEngine@DuiLib@@SAXPAUHDC__@@PAVCPaintManagerUI@2@AAUtagRECT@@PB_WKHI@Z 0040a4cc f   DuiLib_ud:DuiLib_ud.dll
 0001:000094d2       ?DrawHtmlText@CRenderEngine@DuiLib@@SAXPAUHDC__@@PAVCPaintManagerUI@2@AAUtagRECT@@PB_WKPAU5@PAVCDuiString@2@AAHI@Z 0040a4d2 f   DuiLib_ud:DuiLib_ud.dll
 0001:000094d8       ?IsEmpty@CDuiString@DuiLib@@QBE_NXZ 0040a4d8 f   DuiLib_ud:DuiLib_ud.dll
 0001:000094de       ?GetPaintDC@CPaintManagerUI@DuiLib@@QBEPAUHDC__@@XZ 0040a4de f   DuiLib_ud:DuiLib_ud.dll
 0001:000094e4       ?DoEvent@CListContainerElementUI@DuiLib@@UAEXAAUtagTEventUI@2@@Z 0040a4e4 f   DuiLib_ud:DuiLib_ud.dll
 0001:000094ea       ?Activate@CListContainerElementUI@DuiLib@@UAE_NXZ 0040a4ea f   DuiLib_ud:DuiLib_ud.dll
 0001:000094f0       ??0CPoint@DuiLib@@QAE@XZ   0040a4f0 f   DuiLib_ud:DuiLib_ud.dll
 0001:000094f6       ??1CPaintManagerUI@DuiLib@@QAE@XZ 0040a4f6 f   DuiLib_ud:DuiLib_ud.dll
 0001:000094fc       ?MessageLoop@CPaintManagerUI@DuiLib@@SAXXZ 0040a4fc f   DuiLib_ud:DuiLib_ud.dll
 0001:00009502       ?CenterWindow@CWindowWnd@DuiLib@@QAEXXZ 0040a502 f   DuiLib_ud:DuiLib_ud.dll
 0001:00009508       ?Create@CWindowWnd@DuiLib@@QAEPAUHWND__@@PAU3@PB_WKKHHHHPAUHMENU__@@@Z 0040a508 f   DuiLib_ud:DuiLib_ud.dll
 0001:0000950e       ?SetInstance@CPaintManagerUI@DuiLib@@SAXPAUHINSTANCE__@@@Z 0040a50e f   DuiLib_ud:DuiLib_ud.dll
 0001:00009520       ??0_Init_locks@std@@QAE@XZ 0040a520 f   libcpmtd:xlock.obj
 0001:00009570       ??1_Init_locks@std@@QAE@XZ 0040a570 f   libcpmtd:xlock.obj
 0001:000095c0       ?_Init_locks_ctor@_Init_locks@std@@CAXPAV12@@Z 0040a5c0 f   libcpmtd:xlock.obj
 0001:00009610       ?_Init_locks_dtor@_Init_locks@std@@CAXPAV12@@Z 0040a610 f   libcpmtd:xlock.obj
 0001:00009660       ??0_Lockit@std@@QAE@XZ     0040a660 f   libcpmtd:xlock.obj
 0001:00009690       ??0_Lockit@std@@QAE@H@Z    0040a690 f   libcpmtd:xlock.obj
 0001:000096d0       ??1_Lockit@std@@QAE@XZ     0040a6d0 f   libcpmtd:xlock.obj
 0001:00009700       ?_Lockit_ctor@_Lockit@std@@CAXPAV12@@Z 0040a700 f   libcpmtd:xlock.obj
 0001:00009720       ?_Lockit_ctor@_Lockit@std@@CAXPAV12@H@Z 0040a720 f   libcpmtd:xlock.obj
 0001:00009750       ?_Lockit_dtor@_Lockit@std@@CAXPAV12@@Z 0040a750 f   libcpmtd:xlock.obj
 0001:00009770       ?_Lockit_ctor@_Lockit@std@@SAXH@Z 0040a770 f   libcpmtd:xlock.obj
 0001:00009790       ?_Lockit_dtor@_Lockit@std@@SAXH@Z 0040a790 f   libcpmtd:xlock.obj
 0001:000097b0       ?_Debug_message@std@@YAXPB_W0I@Z 0040a7b0 f   libcpmtd:stdthrow.obj
 0001:000097e0       ?_Debug_message@std@@YAXPBG0I@Z 0040a7e0 f   libcpmtd:stdthrow.obj
 0001:00009800       ?_Xinvalid_argument@std@@YAXPBD@Z 0040a800 f   libcpmtd:xthrow.obj
 0001:00009830       ??0invalid_argument@std@@QAE@PBD@Z 0040a830 f i libcpmtd:xthrow.obj
 0001:00009860       ??0logic_error@std@@QAE@PBD@Z 0040a860 f i libcpmtd:xthrow.obj
 0001:00009890       ??_Elogic_error@std@@UAEPAXI@Z 0040a890 f i libcpmtd:xthrow.obj
 0001:00009890       ??_Glogic_error@std@@UAEPAXI@Z 0040a890 f i libcpmtd:xthrow.obj
 0001:000098c0       ??1logic_error@std@@UAE@XZ 0040a8c0 f i libcpmtd:xthrow.obj
 0001:000098e0       ??_Einvalid_argument@std@@UAEPAXI@Z 0040a8e0 f i libcpmtd:xthrow.obj
 0001:000098e0       ??_Ginvalid_argument@std@@UAEPAXI@Z 0040a8e0 f i libcpmtd:xthrow.obj
 0001:00009910       ??1invalid_argument@std@@UAE@XZ 0040a910 f i libcpmtd:xthrow.obj
 0001:00009930       ??0invalid_argument@std@@QAE@ABV01@@Z 0040a930 f i libcpmtd:xthrow.obj
 0001:00009960       ??0logic_error@std@@QAE@ABV01@@Z 0040a960 f i libcpmtd:xthrow.obj
 0001:00009990       ?_Xlength_error@std@@YAXPBD@Z 0040a990 f   libcpmtd:xthrow.obj
 0001:000099c0       ??0length_error@std@@QAE@PBD@Z 0040a9c0 f i libcpmtd:xthrow.obj
 0001:000099f0       ??_Elength_error@std@@UAEPAXI@Z 0040a9f0 f i libcpmtd:xthrow.obj
 0001:000099f0       ??_Glength_error@std@@UAEPAXI@Z 0040a9f0 f i libcpmtd:xthrow.obj
 0001:00009a20       ??1length_error@std@@UAE@XZ 0040aa20 f i libcpmtd:xthrow.obj
 0001:00009a40       ??0length_error@std@@QAE@ABV01@@Z 0040aa40 f i libcpmtd:xthrow.obj
 0001:00009a70       ?_Xout_of_range@std@@YAXPBD@Z 0040aa70 f   libcpmtd:xthrow.obj
 0001:00009aa0       ??0out_of_range@std@@QAE@PBD@Z 0040aaa0 f i libcpmtd:xthrow.obj
 0001:00009ad0       ??_Eout_of_range@std@@UAEPAXI@Z 0040aad0 f i libcpmtd:xthrow.obj
 0001:00009ad0       ??_Gout_of_range@std@@UAEPAXI@Z 0040aad0 f i libcpmtd:xthrow.obj
 0001:00009b00       ??1out_of_range@std@@UAE@XZ 0040ab00 f i libcpmtd:xthrow.obj
 0001:00009b20       ??0out_of_range@std@@QAE@ABV01@@Z 0040ab20 f i libcpmtd:xthrow.obj
 0001:00009b50       ?_Xoverflow_error@std@@YAXPBD@Z 0040ab50 f   libcpmtd:xthrow.obj
 0001:00009b80       ??0overflow_error@std@@QAE@PBD@Z 0040ab80 f i libcpmtd:xthrow.obj
 0001:00009bb0       ??0runtime_error@std@@QAE@PBD@Z 0040abb0 f i libcpmtd:xthrow.obj
 0001:00009be0       ??_Gruntime_error@std@@UAEPAXI@Z 0040abe0 f i libcpmtd:xthrow.obj
 0001:00009be0       ??_Eruntime_error@std@@UAEPAXI@Z 0040abe0 f i libcpmtd:xthrow.obj
 0001:00009c10       ??1runtime_error@std@@UAE@XZ 0040ac10 f i libcpmtd:xthrow.obj
 0001:00009c30       ??_Goverflow_error@std@@UAEPAXI@Z 0040ac30 f i libcpmtd:xthrow.obj
 0001:00009c30       ??_Eoverflow_error@std@@UAEPAXI@Z 0040ac30 f i libcpmtd:xthrow.obj
 0001:00009c60       ??1overflow_error@std@@UAE@XZ 0040ac60 f i libcpmtd:xthrow.obj
 0001:00009c80       ??0overflow_error@std@@QAE@ABV01@@Z 0040ac80 f i libcpmtd:xthrow.obj
 0001:00009cb0       ??0runtime_error@std@@QAE@ABV01@@Z 0040acb0 f i libcpmtd:xthrow.obj
 0001:00009ce0       ?_Xruntime_error@std@@YAXPBD@Z 0040ace0 f   libcpmtd:xthrow.obj
 0001:00009d10       __Once                     0040ad10 f   libcpmtd:xmtx.obj
 0001:00009d70       __Mtxinit                  0040ad70 f   libcpmtd:xmtx.obj
 0001:00009d90       __Mtxdst                   0040ad90 f   libcpmtd:xmtx.obj
 0001:00009db0       __Mtxlock                  0040adb0 f   libcpmtd:xmtx.obj
 0001:00009dd0       __Mtxunlock                0040add0 f   libcpmtd:xmtx.obj
 0001:00009df0       __RTC_CheckEsp             0040adf0 f   LIBCMTD:_stack_.obj
 0001:00009e20       @_RTC_CheckStackVars@8     0040ae20 f   LIBCMTD:_stack_.obj
 0001:00009e90       @_RTC_AllocaHelper@12      0040ae90 f   LIBCMTD:_stack_.obj
 0001:00009ed0       @_RTC_CheckStackVars2@12   0040aed0 f   LIBCMTD:_stack_.obj
 0001:00009fb0       __RTC_InitBase             0040afb0 f   LIBCMTD:_init_.obj
 0001:00009fe0       __RTC_Shutdown             0040afe0 f   LIBCMTD:_init_.obj
 0001:0000a000       @__security_check_cookie@4 0040b000 f   LIBCMTD:secchk.obj
 0001:0000a010       _memset                    0040b010 f   LIBCMTD:memset.obj
 0001:0000a090       __vswprintf_helper         0040b090 f   LIBCMTD:vswprnc.obj
 0001:0000a2f0       __vswprintf_c              0040b2f0 f   LIBCMTD:vswprnc.obj
 0001:0000a340       __vswprintf_c_l            0040b340 f   LIBCMTD:vswprnc.obj
 0001:0000a390       __vswprintf_s_l            0040b390 f   LIBCMTD:vswprnc.obj
 0001:0000a600       _vswprintf_s               0040b600 f   LIBCMTD:vswprnc.obj
 0001:0000a630       __vsnwprintf_s_l           0040b630 f   LIBCMTD:vswprnc.obj
 0001:0000a9e0       __vsnwprintf_s             0040b9e0 f   LIBCMTD:vswprnc.obj
 0001:0000aa10       __vswprintf_p              0040ba10 f   LIBCMTD:vswprnc.obj
 0001:0000aa60       __vswprintf_p_l            0040ba60 f   LIBCMTD:vswprnc.obj
 0001:0000aab0       _fflush                    0040bab0 f   LIBCMTD:fflush.obj
 0001:0000ab50       __fflush_nolock            0040bb50 f   LIBCMTD:fflush.obj
 0001:0000abb0       __flush                    0040bbb0 f   LIBCMTD:fflush.obj
 0001:0000ac70       __flushall                 0040bc70 f   LIBCMTD:fflush.obj
 0001:0000ae40       _vfwprintf_helper          0040be40 f   LIBCMTD:vfwprint.obj
 0001:0000afc0       __vfwprintf_l              0040bfc0 f   LIBCMTD:vfwprint.obj
 0001:0000aff0       __vfwprintf_s_l            0040bff0 f   LIBCMTD:vfwprint.obj
 0001:0000b020       __vfwprintf_p_l            0040c020 f   LIBCMTD:vfwprint.obj
 0001:0000b050       _vfwprintf                 0040c050 f   LIBCMTD:vfwprint.obj
 0001:0000b080       _vfwprintf_s               0040c080 f   LIBCMTD:vfwprint.obj
 0001:0000b0b0       __vfwprintf_p              0040c0b0 f   LIBCMTD:vfwprint.obj
 0001:0000b0e0       _fclose                    0040c0e0 f   LIBCMTD:fclose.obj
 0001:0000b1f0       __fclose_nolock            0040c1f0 f   LIBCMTD:fclose.obj
 0001:0000b2f0       _ftell                     0040c2f0 f   LIBCMTD:ftell.obj
 0001:0000b3e0       __ftell_nolock             0040c3e0 f   LIBCMTD:ftell.obj
 0001:0000b6b0       _fseek                     0040c6b0 f   LIBCMTD:fseek.obj
 0001:0000b820       __fseek_nolock             0040c820 f   LIBCMTD:fseek.obj
 0001:0000b900       __wfsopen                  0040c900 f   LIBCMTD:wfopen.obj
 0001:0000bb10       __wfopen                   0040cb10 f   LIBCMTD:wfopen.obj
 0001:0000bb30       __wfopen_s                 0040cb30 f   LIBCMTD:wfopen.obj
 0001:0000bbd0       __swprintf                 0040cbd0 f   LIBCMTD:swprintf.obj
 0001:0000bdd0       ___swprintf_l              0040cdd0 f   LIBCMTD:swprintf.obj
 0001:0000be00       _swprintf_s                0040ce00 f   LIBCMTD:swprintf.obj
 0001:0000be30       __snwprintf_s              0040ce30 f   LIBCMTD:swprintf.obj
 0001:0000be60       __swprintf_p               0040ce60 f   LIBCMTD:swprintf.obj
 0001:0000be90       __swprintf_s_l             0040ce90 f   LIBCMTD:swprintf.obj
 0001:0000bec0       __snwprintf_s_l            0040cec0 f   LIBCMTD:swprintf.obj
 0001:0000bef0       __swprintf_p_l             0040cef0 f   LIBCMTD:swprintf.obj
 0001:0000bf20       __scwprintf                0040cf20 f   LIBCMTD:swprintf.obj
 0001:0000bf40       __scwprintf_p              0040cf40 f   LIBCMTD:swprintf.obj
 0001:0000bf60       __scwprintf_l              0040cf60 f   LIBCMTD:swprintf.obj
 0001:0000bf90       __scwprintf_p_l            0040cf90 f   LIBCMTD:swprintf.obj
 0001:0000bfc0       ?_JumpToContinuation@@YGXPAXPAUEHRegistrationNode@@@Z 0040cfc0 f   LIBCMTD:_trnsctrl_.obj
 0001:0000c000       ?_CallMemberFunction0@@YGXPAX0@Z 0040d000 f   LIBCMTD:_trnsctrl_.obj
 0001:0000c010       ?_CallMemberFunction1@@YGXPAX00@Z 0040d010 f   LIBCMTD:_trnsctrl_.obj
 0001:0000c020       ?_CallMemberFunction2@@YGXPAX00H@Z 0040d020 f   LIBCMTD:_trnsctrl_.obj
 0001:0000c030       ?_UnwindNestedFrames@@YGXPAUEHRegistrationNode@@PAUEHExceptionRecord@@@Z 0040d030 f   LIBCMTD:_trnsctrl_.obj
 0001:0000c090       ___CxxFrameHandler         0040d090 f   LIBCMTD:_trnsctrl_.obj
 0001:0000c0d0       ___CxxFrameHandler3        0040d0d0 f   LIBCMTD:_trnsctrl_.obj
 0001:0000c110       ___CxxFrameHandler2        0040d110 f   LIBCMTD:_trnsctrl_.obj
 0001:0000c150       ___CxxLongjmpUnwind@4      0040d150 f   LIBCMTD:_trnsctrl_.obj
 0001:0000c180       ?_CallCatchBlock2@@YAPAXPAUEHRegistrationNode@@PBU_s_FuncInfo@@PAXHK@Z 0040d180 f   LIBCMTD:_trnsctrl_.obj
 0001:0000c240       ?_CallSETranslator@@YAHPAUEHExceptionRecord@@PAUEHRegistrationNode@@PAX2PBU_s_FuncInfo@@H1@Z 0040d240 f   LIBCMTD:_trnsctrl_.obj
 0001:0000c3e0       ?_GetRangeOfTrysToCheck@@YAPBU_s_TryBlockMapEntry@@PBU_s_FuncInfo@@HHPAI1@Z 0040d3e0 f   LIBCMTD:_trnsctrl_.obj
 0001:0000c460       __CreateFrameInfo          0040d460 f   LIBCMTD:_trnsctrl_.obj
 0001:0000c490       __IsExceptionObjectToBeDestroyed 0040d490 f   LIBCMTD:_trnsctrl_.obj
 0001:0000c4c0       __FindAndUnlinkFrame       0040d4c0 f   LIBCMTD:_trnsctrl_.obj
 0001:0000c520       __onexit                   0040d520 f   LIBCMTD:onexit.obj
 0001:0000c6f0       _atexit                    0040d6f0 f   LIBCMTD:onexit.obj
 0001:0000c710       ___onexitinit              0040d710 f   LIBCMTD:onexit.obj
 0001:0000c770       ?name@type_info@@QBEPBDPAU__type_info_node@@@Z 0040d770 f   LIBCMTD:typinfo.obj
 0001:0000c790       ??1type_info@@UAE@XZ       0040d790 f   LIBCMTD:typinfo.obj
 0001:0000c7c0       ??_Etype_info@@UAEPAXI@Z   0040d7c0 f i LIBCMTD:typinfo.obj
 0001:0000c7c0       ??_Gtype_info@@UAEPAXI@Z   0040d7c0 f i LIBCMTD:typinfo.obj
 0001:0000c7f0       ?_name_internal_method@type_info@@QBEPBDPAU__type_info_node@@@Z 0040d7f0 f   LIBCMTD:typinfo.obj
 0001:0000c810       ?_type_info_dtor_internal_method@type_info@@QAEXXZ 0040d810 f   LIBCMTD:typinfo.obj
 0001:0000c830       ??8type_info@@QBE_NABV0@@Z 0040d830 f   LIBCMTD:typinfo.obj
 0001:0000c860       ??9type_info@@QBE_NABV0@@Z 0040d860 f   LIBCMTD:typinfo.obj
 0001:0000c890       ?before@type_info@@QBEHABV1@@Z 0040d890 f   LIBCMTD:typinfo.obj
 0001:0000c8c0       ?raw_name@type_info@@QBEPBDXZ 0040d8c0 f   LIBCMTD:typinfo.obj
 0001:0000c8e0       ??0type_info@@AAE@ABV0@@Z  0040d8e0 f   LIBCMTD:typinfo.obj
 0001:0000c900       ??4type_info@@AAEAAV0@ABV0@@Z 0040d900 f   LIBCMTD:typinfo.obj
 0001:0000c920       ??3@YAXPAX@Z               0040d920 f   LIBCMTD:dbgdel.obj
 0001:0000ca10       ??2@YAPAXI@Z               0040da10 f   LIBCMTD:new.obj
 0001:0000ca90       ??0bad_alloc@std@@QAE@XZ   0040da90 f i LIBCMTD:new.obj
 0001:0000cac0       __wcsicmp_l                0040dac0 f   LIBCMTD:wcsicmp.obj
 0001:0000ccf0       ??0_LocaleUpdate@@QAE@PAUlocaleinfo_struct@@@Z 0040dcf0 f i LIBCMTD:wcsicmp.obj
 0001:0000cdd0       ??1_LocaleUpdate@@QAE@XZ   0040ddd0 f i LIBCMTD:wcsicmp.obj
 0001:0000ce00       ?GetLocaleT@_LocaleUpdate@@QAEPAUlocaleinfo_struct@@XZ 0040de00 f i LIBCMTD:wcsicmp.obj
 0001:0000ce10       __wcsicmp                  0040de10 f   LIBCMTD:wcsicmp.obj
 0001:0000cfb0       ___RTCastToVoid            0040dfb0 f   LIBCMTD:rtti.obj
 0001:0000d080       ___RTtypeid                0040e080 f   LIBCMTD:rtti.obj
 0001:0000d1b0       ___RTDynamicCast           0040e1b0 f   LIBCMTD:rtti.obj
 0001:0000d8b0       __purecall                 0040e8b0 f   LIBCMTD:purevirt.obj
 0001:0000d8f0       __set_purecall_handler     0040e8f0 f   LIBCMTD:purevirt.obj
 0001:0000d930       __get_purecall_handler     0040e930 f   LIBCMTD:purevirt.obj
 0001:0000d950       __CrtSetReportHookW2       0040e950 f   LIBCMTD:dbgrptw.obj
 0001:0000dc80       __CrtDbgReportW            0040ec80 f   LIBCMTD:dbgrptw.obj
 0001:0000dcc0       __CrtDbgReportWV           0040ecc0 f i LIBCMTD:dbgrptw.obj
 0001:0000dcf0       ___crtMessageWindowW       0040ecf0 f   LIBCMTD:dbgrptw.obj
 0001:0000e0f0       __invoke_watson_if_error   0040f0f0 f i LIBCMTD:dbgrptw.obj
 0001:0000e120       __invoke_watson_if_oneof   0040f120 f i LIBCMTD:dbgrptw.obj
 0001:0000e160       ?_CrtDbgReportW@@YAHHPBGH00ZZ 0040f160 f   LIBCMTD:dbgrptw.obj
 0001:0000e1a0       __initp_misc_invarg        0040f1a0 f   LIBCMTD:invarg.obj
 0001:0000e1b0       __invalid_parameter        0040f1b0 f   LIBCMTD:invarg.obj
 0001:0000e210       __invoke_watson            0040f210 f   LIBCMTD:invarg.obj
 0001:0000e240       __call_reportfault         0040f240 f   LIBCMTD:invarg.obj
 0001:0000e390       __set_invalid_parameter_handler 0040f390 f   LIBCMTD:invarg.obj
 0001:0000e3d0       __get_invalid_parameter_handler 0040f3d0 f   LIBCMTD:invarg.obj
 0001:0000e400       ?_invalid_parameter@@YAXPBG00II@Z 0040f400 f   LIBCMTD:invarg.obj
 0001:0000e430       ?_invoke_watson@@YAXPBG00II@Z 0040f430 f   LIBCMTD:invarg.obj
 0001:0000e450       __CxxThrowException@8      0040f450 f   LIBCMTD:throw.obj
 0001:0000e4b0       ??0exception@std@@QAE@XZ   0040f4b0 f   LIBCMTD:stdexcpt.obj
 0001:0000e4e0       ??_Eexception@std@@UAEPAXI@Z 0040f4e0 f i LIBCMTD:stdexcpt.obj
 0001:0000e4e0       ??_Gexception@std@@UAEPAXI@Z 0040f4e0 f i LIBCMTD:stdexcpt.obj
 0001:0000e510       ??0exception@std@@QAE@ABQBD@Z 0040f510 f   LIBCMTD:stdexcpt.obj
 0001:0000e550       ??0exception@std@@QAE@ABQBDH@Z 0040f550 f   LIBCMTD:stdexcpt.obj
 0001:0000e580       ??0exception@std@@QAE@ABV01@@Z 0040f580 f   LIBCMTD:stdexcpt.obj
 0001:0000e5c0       ??4exception@std@@QAEAAV01@ABV01@@Z 0040f5c0 f   LIBCMTD:stdexcpt.obj
 0001:0000e610       ??1exception@std@@UAE@XZ   0040f610 f   LIBCMTD:stdexcpt.obj
 0001:0000e630       ?what@exception@std@@UBEPBDXZ 0040f630 f   LIBCMTD:stdexcpt.obj
 0001:0000e660       ?_Copy_str@exception@std@@AAEXPBD@Z 0040f660 f   LIBCMTD:stdexcpt.obj
 0001:0000e6d0       ?_Tidy@exception@std@@AAEXXZ 0040f6d0 f   LIBCMTD:stdexcpt.obj
 0001:0000e710       ??0bad_cast@std@@QAE@PBD@Z 0040f710 f   LIBCMTD:stdexcpt.obj
 0001:0000e740       ??_Gbad_cast@std@@UAEPAXI@Z 0040f740 f i LIBCMTD:stdexcpt.obj
 0001:0000e740       ??_Ebad_cast@std@@UAEPAXI@Z 0040f740 f i LIBCMTD:stdexcpt.obj
 0001:0000e770       ??0bad_cast@std@@QAE@ABV01@@Z 0040f770 f   LIBCMTD:stdexcpt.obj
 0001:0000e7a0       ??1bad_cast@std@@UAE@XZ    0040f7a0 f   LIBCMTD:stdexcpt.obj
 0001:0000e7c0       ??0bad_typeid@std@@QAE@PBD@Z 0040f7c0 f   LIBCMTD:stdexcpt.obj
 0001:0000e7f0       ??_Gbad_typeid@std@@UAEPAXI@Z 0040f7f0 f i LIBCMTD:stdexcpt.obj
 0001:0000e7f0       ??_Ebad_typeid@std@@UAEPAXI@Z 0040f7f0 f i LIBCMTD:stdexcpt.obj
 0001:0000e820       ??0bad_typeid@std@@QAE@ABV01@@Z 0040f820 f   LIBCMTD:stdexcpt.obj
 0001:0000e850       ??1bad_typeid@std@@UAE@XZ  0040f850 f   LIBCMTD:stdexcpt.obj
 0001:0000e870       ??0__non_rtti_object@std@@QAE@PBD@Z 0040f870 f   LIBCMTD:stdexcpt.obj
 0001:0000e8a0       ??_E__non_rtti_object@std@@UAEPAXI@Z 0040f8a0 f i LIBCMTD:stdexcpt.obj
 0001:0000e8a0       ??_G__non_rtti_object@std@@UAEPAXI@Z 0040f8a0 f i LIBCMTD:stdexcpt.obj
 0001:0000e8d0       ??0__non_rtti_object@std@@QAE@ABV01@@Z 0040f8d0 f   LIBCMTD:stdexcpt.obj
 0001:0000e900       ??1__non_rtti_object@std@@UAE@XZ 0040f900 f   LIBCMTD:stdexcpt.obj
 0001:0000e920       _memmove                   0040f920 f   LIBCMTD:memmove.obj
 0001:0000ec90       _WinMainCRTStartup         0040fc90 f   LIBCMTD:wincrt0.obj
 0001:0000ef10       ?_RTC_Failure@@YAXPAXH@Z   0040ff10 f   LIBCMTD:_error_.obj
 0001:0000f2c0       ?_RTC_StackFailure@@YAXPAXPBD@Z 004102c0 f   LIBCMTD:_error_.obj
 0001:0000f3c0       ?_RTC_AllocaFailure@@YAXPAXPAU_RTC_ALLOCA_NODE@@H@Z 004103c0 f   LIBCMTD:_error_.obj
 0001:0000f570       __RTC_UninitUse            00410570 f   LIBCMTD:_error_.obj
 0001:0000f660       __RTC_NumErrors            00410660 f   LIBCMTD:_userapi_.obj
 0001:0000f670       __RTC_GetErrDesc           00410670 f   LIBCMTD:_userapi_.obj
 0001:0000f690       __RTC_SetErrorType         00410690 f   LIBCMTD:_userapi_.obj
 0001:0000f6c0       __RTC_SetErrorFunc         004106c0 f   LIBCMTD:_userapi_.obj
 0001:0000f6e0       __RTC_SetErrorFuncW        004106e0 f   LIBCMTD:_userapi_.obj
 0001:0000f700       ?_RTC_GetErrorFunc@@YAP6AHHPBDH00ZZPBX@Z 00410700 f   LIBCMTD:_userapi_.obj
 0001:0000f710       ?_RTC_GetErrorFuncW@@YAP6AHHPB_WH00ZZPBX@Z 00410710 f   LIBCMTD:_userapi_.obj
 0001:0000f720       __chkesp                   00410720 f   LIBCMTD:chkesp.obj
 0001:0000f760       __CRT_RTC_INIT             00410760 f   LIBCMTD:chkesp.obj
 0001:0000f770       __CRT_RTC_INITW            00410770 f   LIBCMTD:chkesp.obj
 0001:0000f780       ___report_gsfailure        00410780 f   LIBCMTD:gs_report.obj
 0001:0000f890       __VEC_memzero              00410890 f   LIBCMTD:p4_memset.obj
 0001:0000f950       ___sse2_available_init     00410950 f   LIBCMTD:cpu_disp.obj
 0001:0000f970       __flsbuf                   00410970 f   LIBCMTD:_flsbuf.obj
 0001:0000fc30       __dosmaperr                00410c30 f   LIBCMTD:dosmap.obj
 0001:0000fc60       __get_errno_from_oserr     00410c60 f   LIBCMTD:dosmap.obj
 0001:0000fce0       __set_errno                00410ce0 f   LIBCMTD:dosmap.obj
 0001:0000fd10       __get_errno                00410d10 f   LIBCMTD:dosmap.obj
 0001:0000fd90       __set_doserrno             00410d90 f   LIBCMTD:dosmap.obj
 0001:0000fdc0       __get_doserrno             00410dc0 f   LIBCMTD:dosmap.obj
 0001:0000fe40       __errno                    00410e40 f   LIBCMTD:dosmap.obj
 0001:0000fe70       ___doserrno                00410e70 f   LIBCMTD:dosmap.obj
 0001:0000fea0       __woutput_l                00410ea0 f   LIBCMTD:woutput.obj
 0001:000110a0       _get_int_arg               004120a0 f i LIBCMTD:woutput.obj
 0001:000110c0       _get_int64_arg             004120c0 f i LIBCMTD:woutput.obj
 0001:000110e0       __malloc_dbg               004120e0 f   LIBCMTD:dbgheap.obj
 0001:00011110       __nh_malloc                00412110 f   LIBCMTD:dbgheap.obj
 0001:00011130       __nh_malloc_dbg            00412130 f   LIBCMTD:dbgheap.obj
 0001:00011210       __heap_alloc               00412210 f   LIBCMTD:dbgheap.obj
 0001:000115f0       __heap_alloc_dbg           004125f0 f   LIBCMTD:dbgheap.obj
 0001:00011650       __calloc_dbg_impl          00412650 f   LIBCMTD:dbgheap.obj
 0001:000116d0       __calloc_dbg               004126d0 f   LIBCMTD:dbgheap.obj
 0001:00011730       __recalloc                 00412730 f   LIBCMTD:dbgheap.obj
 0001:00011760       __realloc_dbg              00412760 f   LIBCMTD:dbgheap.obj
 0001:00011e00       __recalloc_dbg             00412e00 f   LIBCMTD:dbgheap.obj
 0001:00011eb0       __expand                   00412eb0 f   LIBCMTD:dbgheap.obj
 0001:00011ee0       __expand_dbg               00412ee0 f   LIBCMTD:dbgheap.obj
 0001:00011ff0       __free_nolock              00412ff0 f   LIBCMTD:dbgheap.obj
 0001:00012010       __free_dbg                 00413010 f   LIBCMTD:dbgheap.obj
 0001:00012090       __free_dbg_nolock          00413090 f   LIBCMTD:dbgheap.obj
 0001:00012570       __msize                    00413570 f   LIBCMTD:dbgheap.obj
 0001:00012590       __msize_dbg                00413590 f   LIBCMTD:dbgheap.obj
 0001:00012780       __CrtSetBreakAlloc         00413780 f   LIBCMTD:dbgheap.obj
 0001:000127a0       __CrtSetDbgBlockType       004137a0 f   LIBCMTD:dbgheap.obj
 0001:00012890       __CrtSetAllocHook          00413890 f   LIBCMTD:dbgheap.obj
 0001:000128b0       __CrtGetAllocHook          004138b0 f   LIBCMTD:dbgheap.obj
 0001:00012900       __CrtCheckMemory           00413900 f   LIBCMTD:dbgheap.obj
 0001:00012d60       __CrtSetDbgFlag            00413d60 f   LIBCMTD:dbgheap.obj
 0001:00012eb0       __CrtDoForAllClientObjects 00413eb0 f   LIBCMTD:dbgheap.obj
 0001:00012fd0       __CrtIsValidPointer        00413fd0 f   LIBCMTD:dbgheap.obj
 0001:00012fe0       __CrtIsValidHeapPointer    00413fe0 f   LIBCMTD:dbgheap.obj
 0001:00013030       __CrtIsMemoryBlock         00414030 f   LIBCMTD:dbgheap.obj
 0001:000131a0       __CrtReportBlockType       004141a0 f   LIBCMTD:dbgheap.obj
 0001:000131d0       __CrtSetDumpClient         004141d0 f   LIBCMTD:dbgheap.obj
 0001:000131f0       __CrtGetDumpClient         004141f0 f   LIBCMTD:dbgheap.obj
 0001:00013200       __CrtMemCheckpoint         00414200 f   LIBCMTD:dbgheap.obj
 0001:00013420       __CrtMemDifference         00414420 f   LIBCMTD:dbgheap.obj
 0001:00013640       __CrtMemDumpAllObjectsSince 00414640 f   LIBCMTD:dbgheap.obj
 0001:00013b30       __CrtDumpMemoryLeaks       00414b30 f   LIBCMTD:dbgheap.obj
 0001:00013bb0       __CrtMemDumpStatistics     00414bb0 f   LIBCMTD:dbgheap.obj
 0001:00013cc0       __aligned_malloc           00414cc0 f   LIBCMTD:dbgheap.obj
 0001:00013ce0       __aligned_malloc_dbg       00414ce0 f   LIBCMTD:dbgheap.obj
 0001:00013d10       __aligned_realloc          00414d10 f   LIBCMTD:dbgheap.obj
 0001:00013d40       __aligned_recalloc         00414d40 f   LIBCMTD:dbgheap.obj
 0001:00013d70       __aligned_realloc_dbg      00414d70 f   LIBCMTD:dbgheap.obj
 0001:00013da0       __aligned_recalloc_dbg     00414da0 f   LIBCMTD:dbgheap.obj
 0001:00013dd0       __aligned_offset_malloc    00414dd0 f   LIBCMTD:dbgheap.obj
 0001:00013df0       __aligned_offset_malloc_dbg 00414df0 f   LIBCMTD:dbgheap.obj
 0001:00013fb0       __aligned_offset_realloc   00414fb0 f   LIBCMTD:dbgheap.obj
 0001:00013fe0       __aligned_offset_recalloc  00414fe0 f   LIBCMTD:dbgheap.obj
 0001:00014010       __aligned_offset_realloc_dbg 00415010 f   LIBCMTD:dbgheap.obj
 0001:00014300       __aligned_offset_recalloc_dbg 00415300 f   LIBCMTD:dbgheap.obj
 0001:000143c0       __aligned_free             004153c0 f   LIBCMTD:dbgheap.obj
 0001:000143e0       __aligned_free_dbg         004153e0 f   LIBCMTD:dbgheap.obj
 0001:00014490       __CrtSetDebugFillThreshold 00415490 f   LIBCMTD:dbgheap.obj
 0001:000144b0       __CrtSetCheckCount         004154b0 f   LIBCMTD:dbgheap.obj
 0001:000144d0       __CrtGetCheckCount         004154d0 f   LIBCMTD:dbgheap.obj
 0001:000144e0       __aligned_msize            004154e0 f   LIBCMTD:dbgheap.obj
 0001:00014500       __aligned_msize_dbg        00415500 f   LIBCMTD:dbgheap.obj
 0001:00014610       __woutput_s_l              00415610 f   LIBCMTD:woutputs.obj
 0001:00015960       __validate_param_reuseW    00416960 f   LIBCMTD:woutputp.obj
 0001:00015bd0       __woutput_p_l              00416bd0 f   LIBCMTD:woutputp.obj
 0001:00019360       ___iob_func                0041a360 f   LIBCMTD:_file.obj
 0001:00019370       ___initstdio               0041a370 f   LIBCMTD:_file.obj
 0001:000194c0       ___endstdio                0041a4c0 f   LIBCMTD:_file.obj
 0001:000194f0       __lock_file                0041a4f0 f   LIBCMTD:_file.obj
 0001:00019550       __lock_file2               0041a550 f   LIBCMTD:_file.obj
 0001:00019590       __unlock_file              0041a590 f   LIBCMTD:_file.obj
 0001:000195f0       __unlock_file2             0041a5f0 f   LIBCMTD:_file.obj
 0001:00019630       __except_handler4          0041a630 f   LIBCMTD:chandler4.obj
 0001:00019850       __commit                   0041a850 f   LIBCMTD:commit.obj
 0001:00019a70       __fileno                   0041aa70 f   LIBCMTD:fileno.obj
 0001:00019af0       __write                    0041aaf0 f   LIBCMTD:write.obj
 0001:00019d20       __write_nolock             0041ad20 f   LIBCMTD:write.obj
 0001:0001a860       __mtinitlocks              0041b860 f   LIBCMTD:mlock.obj
 0001:0001a8f0       __mtdeletelocks            0041b8f0 f   LIBCMTD:mlock.obj
 0001:0001a9b0       __mtinitlocknum            0041b9b0 f   LIBCMTD:mlock.obj
 0001:0001ab00       __lock                     0041bb00 f   LIBCMTD:mlock.obj
 0001:0001ab40       __unlock                   0041bb40 f   LIBCMTD:mlock.obj
 0001:0001ab60       __lockerr_exit             0041bb60 f   LIBCMTD:mlock.obj
 0001:0001ab80       __stbuf                    0041bb80 f   LIBCMTD:_sftbuf.obj
 0001:0001ace0       __ftbuf                    0041bce0 f   LIBCMTD:_sftbuf.obj
 0001:0001ad70       __close                    0041bd70 f   LIBCMTD:close.obj
 0001:0001af80       __close_nolock             0041bf80 f   LIBCMTD:close.obj
 0001:0001b050       __freebuf                  0041c050 f   LIBCMTD:_freebuf.obj
 0001:0001b0e0       __ioinit                   0041c0e0 f   LIBCMTD:ioinit.obj
 0001:0001b4f0       __ioterm                   0041c4f0 f   LIBCMTD:ioinit.obj
 0001:0001b590       __lseek                    0041c590 f   LIBCMTD:lseek.obj
 0001:0001b7c0       __lseek_nolock             0041c7c0 f   LIBCMTD:lseek.obj
 0001:0001b8a0       __wopenfile                0041c8a0 f   LIBCMTD:_wopen.obj
 0001:0001c060       __getstream                0041d060 f   LIBCMTD:stream.obj
 0001:0001c2c0       __local_unwind4            0041d2c0 f   LIBCMTD:exsup4.obj
 0001:0001c396       __seh_longjmp_unwind4@4    0041d396 f   LIBCMTD:exsup4.obj
 0001:0001c3b2       @_EH4_CallFilterFunc@8     0041d3b2 f   LIBCMTD:exsup4.obj
 0001:0001c3c9       @_EH4_TransferToHandler@8  0041d3c9 f   LIBCMTD:exsup4.obj
 0001:0001c3e2       @_EH4_GlobalUnwind2@8      0041d3e2 f   LIBCMTD:exsup4.obj
 0001:0001c3fb       @_EH4_LocalUnwind@16       0041d3fb f   LIBCMTD:exsup4.obj
 0001:0001c420       __vswprintf_l              0041d420 f   LIBCMTD:vswprint.obj
 0001:0001c610       __vswprintf                0041d610 f   LIBCMTD:vswprint.obj
 0001:0001c630       ___vswprintf_l             0041d630 f   LIBCMTD:vswprint.obj
 0001:0001c650       __vscwprintf_helper        0041d650 f   LIBCMTD:vswprint.obj
 0001:0001c730       __vscwprintf               0041d730 f   LIBCMTD:vswprint.obj
 0001:0001c750       __vscwprintf_l             0041d750 f   LIBCMTD:vswprint.obj
 0001:0001c770       __vscwprintf_p             0041d770 f   LIBCMTD:vswprint.obj
 0001:0001c790       __vscwprintf_p_l           0041d790 f   LIBCMTD:vswprint.obj
 0001:0001c7b0       ___InternalCxxFrameHandler 0041d7b0 f   LIBCMTD:frame.obj
 0001:0001cdb0       ??0bad_exception@std@@QAE@PBD@Z 0041ddb0 f i LIBCMTD:frame.obj
 0001:0001cde0       ??1bad_exception@std@@UAE@XZ 0041dde0 f i LIBCMTD:frame.obj
 0001:0001ce00       ??_Ebad_exception@std@@UAEPAXI@Z 0041de00 f i LIBCMTD:frame.obj
 0001:0001ce00       ??_Gbad_exception@std@@UAEPAXI@Z 0041de00 f i LIBCMTD:frame.obj
 0001:0001ce30       ??0bad_exception@std@@QAE@ABV01@@Z 0041de30 f i LIBCMTD:frame.obj
 0001:0001cff0       ___TypeMatch               0041dff0 f   LIBCMTD:frame.obj
 0001:0001d0a0       ___FrameUnwindFilter       0041e0a0 f   LIBCMTD:frame.obj
 0001:0001d120       ___FrameUnwindToState      0041e120 f   LIBCMTD:frame.obj
 0001:0001d660       ___BuildCatchObjectHelper  0041e660 f   LIBCMTD:frame.obj
 0001:0001d8d0       ___BuildCatchObject        0041e8d0 f   LIBCMTD:frame.obj
 0001:0001d9e0       ___DestructExceptionObject 0041e9e0 f   LIBCMTD:frame.obj
 0001:0001da90       ___AdjustPointer           0041ea90 f   LIBCMTD:frame.obj
 0001:0001dae0       ?__uncaught_exception@@YA_NXZ 0041eae0 f   LIBCMTD:frame.obj
 0001:0001db00       ___CxxExceptionFilter      0041eb00 f   LIBCMTD:frame.obj
 0001:0001dd00       ___CxxRegisterExceptionObject 0041ed00 f   LIBCMTD:frame.obj
 0001:0001de30       ___CxxDetectRethrow        0041ee30 f   LIBCMTD:frame.obj
 0001:0001dec0       ___CxxUnregisterExceptionObject 0041eec0 f   LIBCMTD:frame.obj
 0001:0001e040       ___CxxQueryExceptionSize   0041f040 f   LIBCMTD:frame.obj
 0001:0001e050       ___CxxCallUnwindDtor       0041f050 f   LIBCMTD:frame.obj
 0001:0001e0d0       ___CxxCallUnwindDelDtor    0041f0d0 f   LIBCMTD:frame.obj
 0001:0001e150       ___CxxCallUnwindStdDelDtor 0041f150 f   LIBCMTD:frame.obj
 0001:0001e1d0       ___CxxCallUnwindVecDtor    0041f1d0 f   LIBCMTD:frame.obj
 0001:0001e400       ?_is_exception_typeof@@YAHABVtype_info@@PAU_EXCEPTION_POINTERS@@@Z 0041f400 f   LIBCMTD:frame.obj
 0001:0001e4e0       __CallSettingFrame@12      0041f4e0 f   LIBCMTD:lowhelpr.obj
 0001:0001e507       __NLG_Return               0041f507     LIBCMTD:lowhelpr.obj
 0001:0001e530       __encoded_null             0041f530 f   LIBCMTD:tidtable.obj
 0001:0001e540       ___crtTlsAlloc@4           0041f540 f   LIBCMTD:tidtable.obj
 0001:0001e550       ___fls_getvalue@4          0041f550 f   LIBCMTD:tidtable.obj
 0001:0001e570       ___get_flsindex            0041f570 f   LIBCMTD:tidtable.obj
 0001:0001e580       ___set_flsgetvalue         0041f580 f   LIBCMTD:tidtable.obj
 0001:0001e5d0       ___fls_setvalue@8          0041f5d0 f   LIBCMTD:tidtable.obj
 0001:0001e5f0       __mtinit                   0041f5f0 f   LIBCMTD:tidtable.obj
 0001:0001e7f0       __mtterm                   0041f7f0 f   LIBCMTD:tidtable.obj
 0001:0001e850       __initptd                  0041f850 f   LIBCMTD:tidtable.obj
 0001:0001e980       __getptd_noexit            0041f980 f   LIBCMTD:tidtable.obj
 0001:0001ea40       __getptd                   0041fa40 f   LIBCMTD:tidtable.obj
 0001:0001ea70       __freefls@4                0041fa70 f   LIBCMTD:tidtable.obj
 0001:0001ec80       __freeptd                  0041fc80 f   LIBCMTD:tidtable.obj
 0001:0001ed00       ___threadid                0041fd00 f   LIBCMTD:tidtable.obj
 0001:0001ed10       ___threadhandle            0041fd10 f   LIBCMTD:tidtable.obj
 0001:0001ed20       __initp_eh_hooks           0041fd20 f   LIBCMTD:hooks.obj
 0001:0001ed40       ?terminate@@YAXXZ          0041fd40 f   LIBCMTD:hooks.obj
 0001:0001edc0       ?unexpected@@YAXXZ         0041fdc0 f   LIBCMTD:hooks.obj
 0001:0001edf0       ?_inconsistency@@YAXXZ     0041fdf0 f   LIBCMTD:hooks.obj
 0001:0001ee80       __cinit                    0041fe80 f   LIBCMTD:crt0dat.obj
 0001:0001ef20       _exit                      0041ff20 f   LIBCMTD:crt0dat.obj
 0001:0001ef40       __exit                     0041ff40 f   LIBCMTD:crt0dat.obj
 0001:0001ef60       __cexit                    0041ff60 f   LIBCMTD:crt0dat.obj
 0001:0001ef80       __c_exit                   0041ff80 f   LIBCMTD:crt0dat.obj
 0001:0001efa0       __amsg_exit                0041ffa0 f   LIBCMTD:crt0dat.obj
 0001:0001efd0       ___freeCrtMemory           0041ffd0 f   LIBCMTD:crt0dat.obj
 0001:0001f310       ___crtCorExitProcess       00420310 f   LIBCMTD:crt0dat.obj
 0001:0001f350       ___crtExitProcess          00420350 f   LIBCMTD:crt0dat.obj
 0001:0001f370       __lockexit                 00420370 f   LIBCMTD:crt0dat.obj
 0001:0001f390       __unlockexit               00420390 f   LIBCMTD:crt0dat.obj
 0001:0001f3b0       __init_pointers            004203b0 f   LIBCMTD:crt0dat.obj
 0001:0001f440       __initterm_e               00420440 f   LIBCMTD:crt0dat.obj
 0001:0001f480       __get_wpgmptr              00420480 f   LIBCMTD:crt0dat.obj
 0001:0001f570       __get_pgmptr               00420570 f   LIBCMTD:crt0dat.obj
 0001:0001f660       ?_Type_info_dtor@type_info@@CAXPAV1@@Z 00420660 f   LIBCMTD:typname.obj
 0001:0001f770       ?_Name_base@type_info@@CAPBDPBV1@PAU__type_info_node@@@Z 00420770 f   LIBCMTD:typname.obj
 0001:0001f920       ?_Type_info_dtor_internal@type_info@@CAXPAV1@@Z 00420920 f   LIBCMTD:typname.obj
 0001:0001fa30       ___unDNameHelper           00420a30 f   LIBCMTD:typname.obj
 0001:0001fa70       ?_Name_base_internal@type_info@@CAPBDPBV1@PAU__type_info_node@@@Z 00420a70 f   LIBCMTD:typname.obj
 0001:0001fc30       ___clean_type_info_names_internal 00420c30 f   LIBCMTD:typname.obj
 0001:0001fcf0       _strcmp                    00420cf0 f   LIBCMTD:strcmp.obj
 0001:0001fd80       __initp_heap_handler       00420d80 f   LIBCMTD:handler.obj
 0001:0001fd90       ?_set_new_handler@@YAP6AHI@ZP6AHI@Z@Z 00420d90 f   LIBCMTD:handler.obj
 0001:0001fdd0       ?_set_new_handler@@YAP6AHI@ZH@Z 00420dd0 f   LIBCMTD:handler.obj
 0001:0001fe10       ?_query_new_handler@@YAP6AHI@ZXZ 00420e10 f   LIBCMTD:handler.obj
 0001:0001fe30       __callnewh                 00420e30 f   LIBCMTD:handler.obj
 0001:0001fe70       _malloc                    00420e70 f   LIBCMTD:dbgmalloc.obj
 0001:0001fea0       __towlower_l               00420ea0 f   LIBCMTD:towlower.obj
 0001:0001ffe0       _towlower                  00420fe0 f   LIBCMTD:towlower.obj
 0001:00020000       ___updatetmbcinfo          00421000 f   LIBCMTD:mbctype.obj
 0001:00020110       __setmbcp                  00421110 f   LIBCMTD:mbctype.obj
 0001:000204c0       __setmbcp_nolock           004214c0 f   LIBCMTD:mbctype.obj
 0001:00020cb0       __getmbcp                  00421cb0 f   LIBCMTD:mbctype.obj
 0001:00020d20       ___initmbctable            00421d20 f   LIBCMTD:mbctype.obj
 0001:00020d50       ___addlocaleref            00421d50 f   LIBCMTD:localref.obj
 0001:00020e70       ___removelocaleref         00421e70 f   LIBCMTD:localref.obj
 0001:00020fa0       ___freetlocinfo            00421fa0 f   LIBCMTD:localref.obj
 0001:00021280       __updatetlocinfoEx_nolock  00422280 f   LIBCMTD:localref.obj
 0001:00021300       ___updatetlocinfo          00422300 f   LIBCMTD:localref.obj
 0001:000213d0       ____setlc_active_func      004223d0 f   LIBCMTD:setlocal.obj
 0001:000213e0       ____unguarded_readlc_active_add_func 004223e0 f   LIBCMTD:setlocal.obj
 0001:000213f0       __configthreadlocale       004223f0 f   LIBCMTD:setlocal.obj
 0001:00021500       __locterm                  00422500 f   LIBCMTD:setlocal.obj
 0001:000215a0       __free_locale              004225a0 f   LIBCMTD:setlocal.obj
 0001:000216e0       ___free_locale             004226e0 f   LIBCMTD:setlocal.obj
 0001:00021700       __create_locale            00422700 f   LIBCMTD:setlocal.obj
 0001:00021930       ___create_locale           00422930 f   LIBCMTD:setlocal.obj
 0001:00021950       __get_current_locale       00422950 f   LIBCMTD:setlocal.obj
 0001:00021a70       ___get_current_locale      00422a70 f   LIBCMTD:setlocal.obj
 0001:00021a80       _setlocale                 00422a80 f   LIBCMTD:setlocal.obj
 0001:00022930       __expandlocale             00423930 f   LIBCMTD:setlocal.obj
 0001:00022be0       ___init_dummy              00423be0 f   LIBCMTD:setlocal.obj
 0001:00022bf0       __strcats                  00423bf0 f   LIBCMTD:setlocal.obj
 0001:00022c70       ___lc_strtolc              00423c70 f   LIBCMTD:setlocal.obj
 0001:00022e70       ___lc_lctostr              00423e70 f   LIBCMTD:setlocal.obj
 0001:00022f10       _abort                     00423f10 f   LIBCMTD:abort.obj
 0001:00022f70       __set_abort_behavior       00423f70 f   LIBCMTD:abort.obj
 0001:00022fa0       __FF_MSGBANNER             00423fa0 f   LIBCMTD:crt0msg.obj
 0001:00022ff0       __GET_RTERRMSG             00423ff0 f   LIBCMTD:crt0msg.obj
 0001:00023040       __NMSG_WRITE               00424040 f   LIBCMTD:crt0msg.obj
 0001:00023380       ___getlocaleinfo           00424380 f   LIBCMTD:inithelp.obj
 0001:00023660       __initp_misc_purevirt      00424660 f   LIBCMTD:inithelp.obj
 0001:00023670       __CrtDbgBreak              00424670 f   LIBCMTD:dbgrptt.obj
 0001:00023680       __CrtSetReportMode         00424680 f   LIBCMTD:dbgrptt.obj
 0001:000237c0       __CrtSetReportFile         004247c0 f   LIBCMTD:dbgrptt.obj
 0001:000238c0       __CrtSetReportHook         004248c0 f   LIBCMTD:dbgrptt.obj
 0001:000238e0       __CrtGetReportHook         004248e0 f   LIBCMTD:dbgrptt.obj
 0001:000238f0       __VCrtDbgReportA           004248f0 f   LIBCMTD:dbgrptt.obj
 0001:00024120       __VCrtDbgReportW           00425120 f   LIBCMTD:dbgrptt.obj
 0001:00024a50       __initp_misc_winsig        00425a50 f   LIBCMTD:winsig.obj
 0001:00024a80       _signal                    00425a80 f   LIBCMTD:winsig.obj
 0001:00024f20       _raise                     00425f20 f   LIBCMTD:winsig.obj
 0001:00025290       ___get_sigabrt             00426290 f   LIBCMTD:winsig.obj
 0001:000252b0       ___fpecode                 004262b0 f   LIBCMTD:winsig.obj
 0001:000252c0       ___pxcptinfoptrs           004262c0 f   LIBCMTD:winsig.obj
 0001:000252d0       ___crtMessageBoxW          004262d0 f   LIBCMTD:crtmboxw.obj
 0001:000254f0       _memcpy_s                  004264f0 f   LIBCMTD:memcpy_s.obj
 0001:00025680       _wcslen                    00426680 f   LIBCMTD:wcslen.obj
 0001:000256b0       _wcscpy_s                  004266b0 f   LIBCMTD:wcscpy_s.obj
 0001:00025990       __chkstk                   00426990 f   LIBCMTD:chkstk.obj
 0001:00025990       __alloca_probe             00426990     LIBCMTD:chkstk.obj
 0001:000259c0       __CrtDefaultAllocHook      004269c0 f   LIBCMTD:dbghook.obj
 0001:000259d0       __crt_debugger_hook        004269d0 f   LIBCMTD:dbghook.obj
 0001:000259f0       _strcpy_s                  004269f0 f   LIBCMTD:strcpy_s.obj
 0001:00025cd0       _strlen                    00426cd0 f   LIBCMTD:strlen.obj
 0001:00025d60       _free                      00426d60 f   LIBCMTD:dbgfree.obj
 0001:00025d80       __VEC_memcpy               00426d80 f   LIBCMTD:p4_memcpy.obj
 0001:00025e90       ?__CxxUnhandledExceptionFilter@@YGJPAU_EXCEPTION_POINTERS@@@Z 00426e90 f   LIBCMTD:unhandld.obj
 0001:00025f00       ___CxxSetUnhandledExceptionFilter 00426f00 f   LIBCMTD:unhandld.obj
 0001:00025f20       ___security_init_cookie    00426f20 f   LIBCMTD:gs_support.obj
 0001:00026000       ___CppXcptFilter           00427000 f   LIBCMTD:winxfltr.obj
 0001:00026030       __XcptFilter               00427030 f   LIBCMTD:winxfltr.obj
 0001:00026290       __wincmdln                 00427290 f   LIBCMTD:wincmdln.obj
 0001:00026360       __setenvp                  00427360 f   LIBCMTD:stdenvp.obj
 0001:00026500       __setargv                  00427500 f   LIBCMTD:stdargv.obj
 0001:00026620       __set_pgmptr               00427620 f i LIBCMTD:stdargv.obj
 0001:00026990       ___crtGetEnvironmentStringsA 00427990 f   LIBCMTD:a_env.obj
 0001:00026a90       __RTC_Initialize           00427a90 f   LIBCMTD:_initsect_.obj
 0001:00026ac0       __RTC_Terminate            00427ac0 f   LIBCMTD:_initsect_.obj
 0001:00026af0       __heap_init                00427af0 f   LIBCMTD:heapinit.obj
 0001:00026b30       __heap_term                00427b30 f   LIBCMTD:heapinit.obj
 0001:00026b50       __get_heap_handle          00427b50 f   LIBCMTD:heapinit.obj
 0001:00026b90       ?_RTC_GetSrcLine@@YAHPAEPA_WKPAH1K@Z 00427b90 f   LIBCMTD:_pdblkup_.obj
 0001:000271e0       __CrtSetReportHook2        004281e0 f   LIBCMTD:dbgrpt.obj
 0001:00027510       __CrtDbgReport             00428510 f   LIBCMTD:dbgrpt.obj
 0001:00027550       __CrtDbgReportV            00428550 f i LIBCMTD:dbgrpt.obj
 0001:00027580       ___crtMessageWindowA       00428580 f   LIBCMTD:dbgrpt.obj
 0001:00027980       __lseeki64                 00428980 f   LIBCMTD:lseeki64.obj
 0001:00027bd0       __lseeki64_nolock          00428bd0 f   LIBCMTD:lseeki64.obj
 0001:00027cc0       __getbuf                   00428cc0 f   LIBCMTD:_getbuf.obj
 0001:00027d90       __isatty                   00428d90 f   LIBCMTD:isatty.obj
 0001:00027e50       __initp_misc_cfltcvt_tab   00428e50 f   LIBCMTD:cmiscdat.obj
 0001:00027e90       _printf                    00428e90 f   LIBCMTD:printf.obj
 0001:00027fd0       __printf_l                 00428fd0 f   LIBCMTD:printf.obj
 0001:00028000       __printf_s_l               00429000 f   LIBCMTD:printf.obj
 0001:00028030       _printf_s                  00429030 f   LIBCMTD:printf.obj
 0001:00028060       __printf_p_l               00429060 f   LIBCMTD:printf.obj
 0001:00028090       __printf_p                 00429090 f   LIBCMTD:printf.obj
 0001:000280c0       __set_printf_count_output  004290c0 f   LIBCMTD:printf.obj
 0001:00028110       __get_printf_count_output  00429110 f   LIBCMTD:printf.obj
 0001:00028130       __output_l                 00429130 f   LIBCMTD:output.obj
 0001:000295a0       _get_short_arg             0042a5a0 f i LIBCMTD:output.obj
 0001:000295c0       __isleadbyte_l             0042a5c0 f i LIBCMTD:_wctype.obj
 0001:00029610       _isleadbyte                0042a610 f i LIBCMTD:_wctype.obj
 0001:00029630       __iswalpha_l               0042a630 f i LIBCMTD:_wctype.obj
 0001:00029650       _iswalpha                  0042a650 f i LIBCMTD:_wctype.obj
 0001:00029670       __iswupper_l               0042a670 f i LIBCMTD:_wctype.obj
 0001:00029690       _iswupper                  0042a690 f i LIBCMTD:_wctype.obj
 0001:000296b0       __iswlower_l               0042a6b0 f i LIBCMTD:_wctype.obj
 0001:000296d0       _iswlower                  0042a6d0 f i LIBCMTD:_wctype.obj
 0001:000296f0       __iswdigit_l               0042a6f0 f i LIBCMTD:_wctype.obj
 0001:00029710       _iswdigit                  0042a710 f i LIBCMTD:_wctype.obj
 0001:00029730       __iswxdigit_l              0042a730 f i LIBCMTD:_wctype.obj
 0001:00029750       _iswxdigit                 0042a750 f i LIBCMTD:_wctype.obj
 0001:00029770       __iswspace_l               0042a770 f i LIBCMTD:_wctype.obj
 0001:00029790       _iswspace                  0042a790 f i LIBCMTD:_wctype.obj
 0001:000297b0       __iswpunct_l               0042a7b0 f i LIBCMTD:_wctype.obj
 0001:000297d0       _iswpunct                  0042a7d0 f i LIBCMTD:_wctype.obj
 0001:000297f0       __iswalnum_l               0042a7f0 f i LIBCMTD:_wctype.obj
 0001:00029810       _iswalnum                  0042a810 f i LIBCMTD:_wctype.obj
 0001:00029830       __iswprint_l               0042a830 f i LIBCMTD:_wctype.obj
 0001:00029850       _iswprint                  0042a850 f i LIBCMTD:_wctype.obj
 0001:00029870       __iswgraph_l               0042a870 f i LIBCMTD:_wctype.obj
 0001:00029890       _iswgraph                  0042a890 f i LIBCMTD:_wctype.obj
 0001:000298b0       __iswcntrl_l               0042a8b0 f i LIBCMTD:_wctype.obj
 0001:000298d0       _iswcntrl                  0042a8d0 f i LIBCMTD:_wctype.obj
 0001:000298f0       _iswascii                  0042a8f0 f i LIBCMTD:_wctype.obj
 0001:00029910       __iswcsym_l                0042a910 f i LIBCMTD:_wctype.obj
 0001:00029950       ___iswcsym                 0042a950 f i LIBCMTD:_wctype.obj
 0001:00029990       __iswcsymf_l               0042a990 f i LIBCMTD:_wctype.obj
 0001:000299d0       ___iswcsymf                0042a9d0 f i LIBCMTD:_wctype.obj
 0001:00029a10       __mbtowc_l                 0042aa10 f   LIBCMTD:mbtowc.obj
 0001:00029c30       _mbtowc                    0042ac30 f   LIBCMTD:mbtowc.obj
 0001:00029c50       __aulldiv                  0042ac50 f   LIBCMTD:ulldiv.obj
 0001:00029cc0       __aullrem                  0042acc0 f   LIBCMTD:ullrem.obj
 0001:00029d40       _fputwc                    0042ad40 f   LIBCMTD:fputwc.obj
 0001:00029e40       __fputwc_nolock            0042ae40 f   LIBCMTD:fputwc.obj
 0001:0002a130       _putwc                     0042b130 f   LIBCMTD:fputwc.obj
 0001:0002a150       __malloc_base              0042b150 f   LIBCMTD:malloc.obj
 0001:0002a1e0       __heap_alloc_base          0042b1e0 f i LIBCMTD:malloc.obj
 0001:0002a240       __expand_base              0042b240 f   LIBCMTD:expand.obj
 0001:0002a3a0       __realloc_base             0042b3a0 f   LIBCMTD:realloc.obj
 0001:0002a4a0       __free_base                0042b4a0 f   LIBCMTD:free.obj
 0001:0002a4f0       __heapchk                  0042b4f0 f   LIBCMTD:heapchk.obj
 0001:0002a520       __heapset                  0042b520 f   LIBCMTD:heapchk.obj
 0001:0002a530       _sprintf                   0042b530 f   LIBCMTD:sprintf.obj
 0001:0002a6d0       __sprintf_l                0042b6d0 f   LIBCMTD:sprintf.obj
 0001:0002a700       _sprintf_s                 0042b700 f   LIBCMTD:sprintf.obj
 0001:0002a730       __sprintf_s_l              0042b730 f   LIBCMTD:sprintf.obj
 0001:0002a760       __snprintf_s               0042b760 f   LIBCMTD:sprintf.obj
 0001:0002a790       __snprintf_s_l             0042b790 f   LIBCMTD:sprintf.obj
 0001:0002a7c0       __sprintf_p                0042b7c0 f   LIBCMTD:sprintf.obj
 0001:0002a7f0       __sprintf_p_l              0042b7f0 f   LIBCMTD:sprintf.obj
 0001:0002a820       __scprintf                 0042b820 f   LIBCMTD:sprintf.obj
 0001:0002a840       __scprintf_p               0042b840 f   LIBCMTD:sprintf.obj
 0001:0002a860       __scprintf_l               0042b860 f   LIBCMTD:sprintf.obj
 0001:0002a890       __scprintf_p_l             0042b890 f   LIBCMTD:sprintf.obj
 0001:0002a8c0       __chvalidator              0042b8c0 f   LIBCMTD:isctype.obj
 0001:0002a910       __chvalidator_l            0042b910 f   LIBCMTD:isctype.obj
 0001:0002a9c0       __isctype_l                0042b9c0 f   LIBCMTD:isctype.obj
 0001:0002aae0       __isctype                  0042bae0 f   LIBCMTD:isctype.obj
 0001:0002ab20       _memcpy                    0042bb20 f   LIBCMTD:memcpy.obj
 0001:0002ae90       __output_s_l               0042be90 f   LIBCMTD:outputs.obj
 0001:0002c460       __validate_param_reuseA    0042d460 f   LIBCMTD:outputp.obj
 0001:0002c6d0       __output_p_l               0042d6d0 f   LIBCMTD:outputp.obj
 0001:000302e0       _get_crtdouble_arg         004312e0 f i LIBCMTD:outputp.obj
 0001:00030300       _wcstol                    00431300 f   LIBCMTD:wcstol.obj
 0001:000306d0       __wcstol_l                 004316d0 f   LIBCMTD:wcstol.obj
 0001:000306f0       _wcstoul                   004316f0 f   LIBCMTD:wcstol.obj
 0001:00030710       __wcstoul_l                00431710 f   LIBCMTD:wcstol.obj
 0001:00030730       __fcloseall                00431730 f   LIBCMTD:closeall.obj
 0001:00030860       __ValidateImageBase        00431860 f   LIBCMTD:pesect.obj
 0001:000308c0       __FindPESection            004318c0 f   LIBCMTD:pesect.obj
 0001:00030940       __IsNonwritableInCurrentImage 00431940 f   LIBCMTD:pesect.obj
 0001:00030a60       __alloc_osfhnd             00431a60 f   LIBCMTD:osfinfo.obj
 0001:00030d10       __set_osfhnd               00431d10 f   LIBCMTD:osfinfo.obj
 0001:00030de0       __free_osfhnd              00431de0 f   LIBCMTD:osfinfo.obj
 0001:00030ee0       __get_osfhandle            00431ee0 f   LIBCMTD:osfinfo.obj
 0001:00031050       __open_osfhandle           00432050 f   LIBCMTD:osfinfo.obj
 0001:00031280       ___lock_fhandle            00432280 f   LIBCMTD:osfinfo.obj
 0001:00031380       __unlock_fhandle           00432380 f   LIBCMTD:osfinfo.obj
 0001:000313b0       __putwch                   004323b0 f   LIBCMTD:putwch.obj
 0001:00031440       __putwch_nolock            00432440 f   LIBCMTD:putwch.obj
 0001:00031490       __wopen                    00432490 f   LIBCMTD:wopen.obj
 0001:00031610       __wsopen_helper            00432610 f   LIBCMTD:wopen.obj
 0001:00032870       __wsopen                   00433870 f   LIBCMTD:wopen.obj
 0001:000328f0       __wsopen_s                 004338f0 f   LIBCMTD:wopen.obj
 0001:00032920       __wcsnicmp_l               00433920 f   LIBCMTD:wcsnicmp.obj
 0001:00032b50       __wcsnicmp                 00433b50 f   LIBCMTD:wcsnicmp.obj
 0001:00032d10       _wcsncmp                   00433d10 f   LIBCMTD:wcsncmp.obj
 0001:00032d70       __global_unwind2           00433d70 f   LIBCMTD:exsup.obj
 0001:00032dd5       __local_unwind2            00433dd5 f   LIBCMTD:exsup.obj
 0001:00032e59       __abnormal_termination     00433e59 f   LIBCMTD:exsup.obj
 0001:00032e7c       __NLG_Notify1              00433e7c f   LIBCMTD:exsup.obj
 0001:00032e85       __NLG_Notify               00433e85 f   LIBCMTD:exsup.obj
 0001:00032e9c       __NLG_Dispatch2            00433e9c     LIBCMTD:exsup.obj
 0001:00032e9c       __NLG_Dispatch             00433e9c     LIBCMTD:exsup.obj
 0001:00032ea4       __NLG_Call                 00433ea4 f   LIBCMTD:exsup.obj
 0001:00032ea6       __NLG_Return2              00433ea6     LIBCMTD:exsup.obj
 0001:00032eb0       ?_ValidateRead@@YAHPBXI@Z  00433eb0 f   LIBCMTD:validate.obj
 0001:00032ee0       ?_ValidateWrite@@YAHPAXI@Z 00433ee0 f   LIBCMTD:validate.obj
 0001:00032f10       ?_ValidateExecute@@YAHP6GHXZ@Z 00433f10 f   LIBCMTD:validate.obj
 0001:00032f40       __initp_misc_rand_s        00433f40 f   LIBCMTD:rand_s.obj
 0001:00032f50       _rand_s                    00433f50 f   LIBCMTD:rand_s.obj
 0001:00033170       ___unDName                 00434170 f   LIBCMTD:undname.obj
 0001:00033250       ?Constructor@_HeapManager@@QAEXP6APAXI@ZP6AXPAX@Z@Z 00434250 f i LIBCMTD:undname.obj
 0001:00033290       ?Destructor@_HeapManager@@QAEXXZ 00434290 f i LIBCMTD:undname.obj
 0001:000332e0       ___unDNameEx               004342e0 f   LIBCMTD:undname.obj
 0001:000333c0       ??0UnDecorator@@QAE@PADPBDHP6APADJ@ZK@Z 004343c0 f i LIBCMTD:undname.obj
 0001:00033460       ??BUnDecorator@@QAEPADXZ   00434460 f i LIBCMTD:undname.obj
 0001:00033690       ?dbGetString@DName@@QBEPADXZ 00434690 f   LIBCMTD:undname.obj
 0001:000336c0       ?getDecoratedName@UnDecorator@@CA?AVDName@@XZ 004346c0 f   LIBCMTD:undname.obj
 0001:000339d0       ?getSymbolName@UnDecorator@@CA?AVDName@@XZ 004349d0 f i LIBCMTD:undname.obj
 0001:00033a50       ?getZName@UnDecorator@@CA?AVDName@@_N0@Z 00434a50 f   LIBCMTD:undname.obj
 0001:00033cf0       ?getOperatorName@UnDecorator@@CA?AVDName@@_NPA_N@Z 00434cf0 f i LIBCMTD:undname.obj
 0001:00034660       ?getStringEncoding@UnDecorator@@CA?AVDName@@PADH@Z 00435660 f   LIBCMTD:undname.obj
 0001:00034760       ?getScope@UnDecorator@@CA?AVDName@@XZ 00435760 f   LIBCMTD:undname.obj
 0001:00034b40       ?getSignedDimension@UnDecorator@@CA?AVDName@@XZ 00435b40 f   LIBCMTD:undname.obj
 0001:00034bc0       ?getDimension@UnDecorator@@CA?AVDName@@_N@Z 00435bc0 f   LIBCMTD:undname.obj
 0001:00034e70       ?getNumberOfDimensions@UnDecorator@@CAHXZ 00435e70 f   LIBCMTD:undname.obj
 0001:00034f80       ?getTemplateName@UnDecorator@@CA?AVDName@@_N@Z 00435f80 f   LIBCMTD:undname.obj
 0001:00035140       ?getTemplateArgumentList@UnDecorator@@CA?AVDName@@XZ 00436140 f   LIBCMTD:undname.obj
 0001:000353c0       ?getTemplateConstant@UnDecorator@@CA?AVDName@@XZ 004363c0 f   LIBCMTD:undname.obj
 0001:00035850       ?composeDeclaration@UnDecorator@@CA?AVDName@@ABV2@@Z 00436850 f i LIBCMTD:undname.obj
 0001:00036e50       ?getTypeEncoding@UnDecorator@@CAHXZ 00437e50 f i LIBCMTD:undname.obj
 0001:00037890       ?getBasedType@UnDecorator@@CA?AVDName@@XZ 00438890 f   LIBCMTD:undname.obj
 0001:00037950       ?getScopedName@UnDecorator@@CA?AVDName@@XZ 00438950 f   LIBCMTD:undname.obj
 0001:00037a70       ?getCallingConvention@UnDecorator@@CA?AVDName@@XZ 00438a70 f   LIBCMTD:undname.obj
 0001:00037bf0       ?getReturnType@UnDecorator@@CA?AVDName@@PAV2@@Z 00438bf0 f   LIBCMTD:undname.obj
 0001:00037c40       ?getDataType@UnDecorator@@CA?AVDName@@PAV2@@Z 00438c40 f   LIBCMTD:undname.obj
 0001:00037d60       ?getPrimaryDataType@UnDecorator@@CA?AVDName@@ABV2@@Z 00438d60 f   LIBCMTD:undname.obj
 0001:00038100       ?getArgumentTypes@UnDecorator@@CA?AVDName@@XZ 00439100 f   LIBCMTD:undname.obj
 0001:00038260       ?getArgumentList@UnDecorator@@CA?AVDName@@XZ 00439260 f   LIBCMTD:undname.obj
 0001:000383b0       ?getThrowTypes@UnDecorator@@CA?AVDName@@XZ 004393b0 f   LIBCMTD:undname.obj
 0001:00038460       ?getBasicDataType@UnDecorator@@CA?AVDName@@ABV2@@Z 00439460 f   LIBCMTD:undname.obj
 0001:00038a20       ?getECSUDataType@UnDecorator@@CA?AVDName@@XZ 00439a20 f   LIBCMTD:undname.obj
 0001:00038bf0       ?getECSUName@UnDecorator@@CA?AVDName@@XZ 00439bf0 f i LIBCMTD:undname.obj
 0001:00038c10       ?getEnumType@UnDecorator@@CA?AVDName@@XZ 00439c10 f i LIBCMTD:undname.obj
 0001:00038d60       ?getFunctionIndirectType@UnDecorator@@CA?AVDName@@ABV2@@Z 00439d60 f   LIBCMTD:undname.obj
 0001:000391a0       ?getPtrRefType@UnDecorator@@CA?AVDName@@ABV2@0PBD@Z 0043a1a0 f   LIBCMTD:undname.obj
 0001:00039300       ?getExtendedDataIndirectType@UnDecorator@@CA?AVDName@@AAPBDAA_NH@Z 0043a300 f   LIBCMTD:undname.obj
 0001:00039520       ?getDataIndirectType@UnDecorator@@CA?AVDName@@ABV2@PBD0H@Z 0043a520 f   LIBCMTD:undname.obj
 0001:00039c20       ?getPtrRefDataType@UnDecorator@@CA?AVDName@@ABV2@H@Z 0043ac20 f i LIBCMTD:undname.obj
 0001:00039d60       ?getArrayType@UnDecorator@@CA?AVDName@@ABV2@@Z 0043ad60 f i LIBCMTD:undname.obj
 0001:00039f90       ?getLexicalFrame@UnDecorator@@CA?AVDName@@XZ 0043af90 f i LIBCMTD:undname.obj
 0001:00039fd0       ?getThisType@UnDecorator@@CA?AVDName@@XZ 0043afd0 f i LIBCMTD:undname.obj
 0001:0003a010       ?getPointerType@UnDecorator@@CA?AVDName@@ABV2@0@Z 0043b010 f i LIBCMTD:undname.obj
 0001:0003a040       ?getPointerTypeArray@UnDecorator@@CA?AVDName@@ABV2@0@Z 0043b040 f i LIBCMTD:undname.obj
 0001:0003a070       ?getReferenceType@UnDecorator@@CA?AVDName@@ABV2@0PBD@Z 0043b070 f i LIBCMTD:undname.obj
 0001:0003a0a0       ?getDisplacement@UnDecorator@@CA?AVDName@@XZ 0043b0a0 f i LIBCMTD:undname.obj
 0001:0003a0c0       ?getCallIndex@UnDecorator@@CA?AVDName@@XZ 0043b0c0 f i LIBCMTD:undname.obj
 0001:0003a0e0       ?getGuardNumber@UnDecorator@@CA?AVDName@@XZ 0043b0e0 f i LIBCMTD:undname.obj
 0001:0003a100       ?getVbTableType@UnDecorator@@CA?AVDName@@ABV2@@Z 0043b100 f i LIBCMTD:undname.obj
 0001:0003a120       ?getVCallThunkType@UnDecorator@@CA?AVDName@@XZ 0043b120 f i LIBCMTD:undname.obj
 0001:0003a180       ?getVfTableType@UnDecorator@@CA?AVDName@@ABV2@@Z 0043b180 f i LIBCMTD:undname.obj
 0001:0003a340       ?getStorageConvention@UnDecorator@@CA?AVDName@@XZ 0043b340 f i LIBCMTD:undname.obj
 0001:0003a360       ?getDataIndirectType@UnDecorator@@CA?AVDName@@XZ 0043b360 f i LIBCMTD:undname.obj
 0001:0003a3a0       ?getVdispMapType@UnDecorator@@CA?AVDName@@ABV2@@Z 0043b3a0 f i LIBCMTD:undname.obj
 0001:0003a410       ?getExternalDataType@UnDecorator@@CA?AVDName@@ABV2@@Z 0043b410 f i LIBCMTD:undname.obj
 0001:0003a4a0       ?doMSKeywords@UnDecorator@@SAHXZ 0043b4a0 f i LIBCMTD:undname.obj
 0001:0003a4c0       ?doPtr64@UnDecorator@@SAHXZ 0043b4c0 f i LIBCMTD:undname.obj
 0001:0003a4e0       ?doFunctionReturns@UnDecorator@@SAHXZ 0043b4e0 f i LIBCMTD:undname.obj
 0001:0003a500       ?doAllocationModel@UnDecorator@@SAHXZ 0043b500 f i LIBCMTD:undname.obj
 0001:0003a520       ?doAllocationLanguage@UnDecorator@@SAHXZ 0043b520 f i LIBCMTD:undname.obj
 0001:0003a540       ?doThisTypes@UnDecorator@@SAHXZ 0043b540 f i LIBCMTD:undname.obj
 0001:0003a560       ?doAccessSpecifiers@UnDecorator@@SAHXZ 0043b560 f i LIBCMTD:undname.obj
 0001:0003a580       ?doThrowTypes@UnDecorator@@SAHXZ 0043b580 f i LIBCMTD:undname.obj
 0001:0003a5a0       ?doMemberTypes@UnDecorator@@SAHXZ 0043b5a0 f i LIBCMTD:undname.obj
 0001:0003a5c0       ?doNameOnly@UnDecorator@@SAHXZ 0043b5c0 f i LIBCMTD:undname.obj
 0001:0003a5e0       ?doTypeOnly@UnDecorator@@SAHXZ 0043b5e0 f i LIBCMTD:undname.obj
 0001:0003a600       ?haveTemplateParameters@UnDecorator@@SAHXZ 0043b600 f i LIBCMTD:undname.obj
 0001:0003a620       ?doEcsu@UnDecorator@@SAHXZ 0043b620 f i LIBCMTD:undname.obj
 0001:0003a640       ?doEllipsis@UnDecorator@@SAHXZ 0043b640 f i LIBCMTD:undname.obj
 0001:0003a660       ?UScore@UnDecorator@@SAPBDW4Tokens@@@Z 0043b660 f   LIBCMTD:undname.obj
 0001:0003a690       ?doUnderScore@UnDecorator@@SAHXZ 0043b690 f i LIBCMTD:undname.obj
 0001:0003a6b0       ??2@YAPAXIAAV_HeapManager@@H@Z 0043b6b0 f i LIBCMTD:undname.obj
 0001:0003a6d0       ?getMemory@_HeapManager@@QAEPAXIH@Z 0043b6d0 f   LIBCMTD:undname.obj
 0001:0003a7e0       ??0Block@_HeapManager@@QAE@XZ 0043b7e0 f i LIBCMTD:undname.obj
 0001:0003a800       ??H@YA?AVDName@@DABV0@@Z   0043b800 f i LIBCMTD:undname.obj
 0001:0003a830       ??H@YA?AVDName@@W4DNameStatus@@ABV0@@Z 0043b830 f i LIBCMTD:undname.obj
 0001:0003a860       ??H@YA?AVDName@@PBDABV0@@Z 0043b860 f i LIBCMTD:undname.obj
 0001:0003a890       ??0DName@@QAE@XZ           0043b890 f i LIBCMTD:undname.obj
 0001:0003a950       ??0DName@@QAE@D@Z          0043b950 f   LIBCMTD:undname.obj
 0001:0003aa30       ??0DName@@QAE@ABV0@@Z      0043ba30 f i LIBCMTD:undname.obj
 0001:0003aa60       ??0DName@@QAE@PAV0@@Z      0043ba60 f   LIBCMTD:undname.obj
 0001:0003ab90       ??0DName@@QAE@PBD@Z        0043bb90 f   LIBCMTD:undname.obj
 0001:0003ac80       ??0DName@@QAE@AAPBDD@Z     0043bc80 f   LIBCMTD:undname.obj
 0001:0003af40       ?doNoIdentCharCheck@UnDecorator@@SAHXZ 0043bf40 f i LIBCMTD:undname.obj
 0001:0003af60       ??0DName@@QAE@_K@Z         0043bf60 f   LIBCMTD:undname.obj
 0001:0003b0a0       ??0DName@@QAE@_J@Z         0043c0a0 f   LIBCMTD:undname.obj
 0001:0003b220       ??0DName@@QAE@W4DNameStatus@@@Z 0043c220 f   LIBCMTD:undname.obj
 0001:0003b340       ?isValid@DName@@QBEHXZ     0043c340 f i LIBCMTD:undname.obj
 0001:0003b370       ?isEmpty@DName@@QBEHXZ     0043c370 f i LIBCMTD:undname.obj
 0001:0003b390       ?status@DName@@QBE?AW4DNameStatus@@XZ 0043c390 f i LIBCMTD:undname.obj
 0001:0003b3b0       ?setPtrRef@DName@@QAEAAV1@XZ 0043c3b0 f i LIBCMTD:undname.obj
 0001:0003b3e0       ?isPtrRef@DName@@QBEHXZ    0043c3e0 f i LIBCMTD:undname.obj
 0001:0003b400       ?isUDC@DName@@QBEHXZ       0043c400 f i LIBCMTD:undname.obj
 0001:0003b440       ?setIsUDC@DName@@QAEXXZ    0043c440 f i LIBCMTD:undname.obj
 0001:0003b470       ?isUDTThunk@DName@@QBEHXZ  0043c470 f i LIBCMTD:undname.obj
 0001:0003b4b0       ?setIsArray@DName@@QAEXXZ  0043c4b0 f i LIBCMTD:undname.obj
 0001:0003b4d0       ?isArray@DName@@QBEHXZ     0043c4d0 f i LIBCMTD:undname.obj
 0001:0003b4f0       ?isNoTE@DName@@QBEHXZ      0043c4f0 f i LIBCMTD:undname.obj
 0001:0003b510       ?setIsNoTE@DName@@QAEXXZ   0043c510 f i LIBCMTD:undname.obj
 0001:0003b530       ?isPinPtr@DName@@QBEHXZ    0043c530 f i LIBCMTD:undname.obj
 0001:0003b550       ?setIsPinPtr@DName@@QAEXXZ 0043c550 f i LIBCMTD:undname.obj
 0001:0003b570       ?isComArray@DName@@QBEHXZ  0043c570 f i LIBCMTD:undname.obj
 0001:0003b590       ?setIsComArray@DName@@QAEXXZ 0043c590 f i LIBCMTD:undname.obj
 0001:0003b5b0       ?isVCallThunk@DName@@QBEHXZ 0043c5b0 f i LIBCMTD:undname.obj
 0001:0003b5d0       ?setIsVCallThunk@DName@@QAEXXZ 0043c5d0 f i LIBCMTD:undname.obj
 0001:0003b5f0       ?length@DName@@QBEHXZ      0043c5f0 f i LIBCMTD:undname.obj
 0001:0003b620       ?getLastChar@DName@@QBEDXZ 0043c620 f i LIBCMTD:undname.obj
 0001:0003b650       ?getString@DName@@QBEPADPADH@Z 0043c650 f i LIBCMTD:undname.obj
 0001:0003b6e0       ?getString@DName@@QBEPADPAD0@Z 0043c6e0 f i LIBCMTD:undname.obj
 0001:0003b720       ??HDName@@QBE?AV0@D@Z      0043c720 f   LIBCMTD:undname.obj
 0001:0003b760       ??HDName@@QBE?AV0@PBD@Z    0043c760 f   LIBCMTD:undname.obj
 0001:0003b7a0       ??HDName@@QBE?AV0@ABV0@@Z  0043c7a0 f   LIBCMTD:undname.obj
 0001:0003b7e0       ??HDName@@QBE?AV0@PAV0@@Z  0043c7e0 f   LIBCMTD:undname.obj
 0001:0003b820       ??HDName@@QBE?AV0@W4DNameStatus@@@Z 0043c820 f   LIBCMTD:undname.obj
 0001:0003b860       ?append@DName@@AAEXPAVDNameNode@@@Z 0043c860 f   LIBCMTD:undname.obj
 0001:0003b8f0       ??YDName@@QAEAAV0@D@Z      0043c8f0 f   LIBCMTD:undname.obj
 0001:0003b980       ??YDName@@QAEAAV0@PBD@Z    0043c980 f   LIBCMTD:undname.obj
 0001:0003ba20       ??YDName@@QAEAAV0@ABV0@@Z  0043ca20 f   LIBCMTD:undname.obj
 0001:0003ba90       ??YDName@@QAEAAV0@PAV0@@Z  0043ca90 f   LIBCMTD:undname.obj
 0001:0003bb50       ??YDName@@QAEAAV0@W4DNameStatus@@@Z 0043cb50 f   LIBCMTD:undname.obj
 0001:0003bbc0       ??_5DName@@QAEAAV0@ABV0@@Z 0043cbc0 f   LIBCMTD:undname.obj
 0001:0003bc20       ??4DName@@QAEAAV0@D@Z      0043cc20 f i LIBCMTD:undname.obj
 0001:0003bd00       ??4DName@@QAEAAV0@PBD@Z    0043cd00 f   LIBCMTD:undname.obj
 0001:0003bde0       ??4DName@@QAEAAV0@ABV0@@Z  0043cde0 f   LIBCMTD:undname.obj
 0001:0003be10       ??4DName@@QAEAAV0@PAV0@@Z  0043ce10 f   LIBCMTD:undname.obj
 0001:0003bf50       ??4DName@@QAEAAV0@W4DNameStatus@@@Z 0043cf50 f   LIBCMTD:undname.obj
 0001:0003c050       ?doPchar@DName@@AAEXPBDH@Z 0043d050 f   LIBCMTD:undname.obj
 0001:0003c190       ?isFull@Replicator@@QBEHXZ 0043d190 f i LIBCMTD:undname.obj
 0001:0003c1b0       ??0Replicator@@QAE@XZ      0043d1b0 f i LIBCMTD:undname.obj
 0001:0003c1d0       ??YReplicator@@QAEAAV0@ABVDName@@@Z 0043d1d0 f   LIBCMTD:undname.obj
 0001:0003c260       ??AReplicator@@QBE?AVDName@@H@Z 0043d260 f   LIBCMTD:undname.obj
 0001:0003c2d0       ??0DNameNode@@IAE@XZ       0043d2d0 f   LIBCMTD:undname.obj
 0001:0003c2f0       ??0charNode@@QAE@D@Z       0043d2f0 f   LIBCMTD:undname.obj
 0001:0003c320       ?length@charNode@@UBEHXZ   0043d320 f i LIBCMTD:undname.obj
 0001:0003c340       ?getLastChar@charNode@@UBEDXZ 0043d340 f i LIBCMTD:undname.obj
 0001:0003c360       ?getString@charNode@@UBEPADPAD0@Z 0043d360 f i LIBCMTD:undname.obj
 0001:0003c390       ??0pcharNode@@QAE@PBDH@Z   0043d390 f   LIBCMTD:undname.obj
 0001:0003c420       ?length@pcharNode@@UBEHXZ  0043d420 f i LIBCMTD:undname.obj
 0001:0003c440       ?getLastChar@pcharNode@@UBEDXZ 0043d440 f i LIBCMTD:undname.obj
 0001:0003c480       ?getString@pcharNode@@UBEPADPAD0@Z 0043d480 f i LIBCMTD:undname.obj
 0001:0003c4b0       ?getStringHelper@@YAPADPAD00H@Z 0043d4b0 f i LIBCMTD:undname.obj
 0001:0003c4f0       ??0pDNameNode@@QAE@PAVDName@@@Z 0043d4f0 f   LIBCMTD:undname.obj
 0001:0003c550       ?length@pDNameNode@@UBEHXZ 0043d550 f i LIBCMTD:undname.obj
 0001:0003c590       ?getLastChar@pDNameNode@@UBEDXZ 0043d590 f i LIBCMTD:undname.obj
 0001:0003c5c0       ?getString@pDNameNode@@UBEPADPAD0@Z 0043d5c0 f i LIBCMTD:undname.obj
 0001:0003c600       ??0DNameStatusNode@@AAE@W4DNameStatus@@@Z 0043d600 f   LIBCMTD:undname.obj
 0001:0003c650       ?length@DNameStatusNode@@UBEHXZ 0043d650 f i LIBCMTD:undname.obj
 0001:0003c670       ?getLastChar@DNameStatusNode@@UBEDXZ 0043d670 f i LIBCMTD:undname.obj
 0001:0003c690       ?getString@DNameStatusNode@@UBEPADPAD0@Z 0043d690 f i LIBCMTD:undname.obj
 0001:0003c6d0       ?make@DNameStatusNode@@SAPAV1@W4DNameStatus@@@Z 0043d6d0 f i LIBCMTD:undname.obj
 0001:0003c780       ??0pairNode@@QAE@PAVDNameNode@@0@Z 0043d780 f   LIBCMTD:undname.obj
 0001:0003c7c0       ?length@pairNode@@UBEHXZ   0043d7c0 f i LIBCMTD:undname.obj
 0001:0003c810       ?getLastChar@pairNode@@UBEDXZ 0043d810 f i LIBCMTD:undname.obj
 0001:0003c860       ?getString@pairNode@@UBEPADPAD0@Z 0043d860 f i LIBCMTD:undname.obj
 0001:0003c9a0       ___crtLCMapStringW         0043d9a0 f   LIBCMTD:w_map.obj
 0001:0003c9e0       __iswctype_l               0043d9e0 f   LIBCMTD:iswctype.obj
 0001:0003ca00       _iswctype                  0043da00 f   LIBCMTD:iswctype.obj
 0001:0003ca60       _is_wctype                 0043da60 f   LIBCMTD:iswctype.obj
 0001:0003ca80       ___crtLCMapStringA         0043da80 f   LIBCMTD:a_map.obj
 0001:0003cd70       __MarkAllocaS              0043dd70 f i LIBCMTD:a_map.obj
 0001:0003cda0       __freea                    0043dda0 f i LIBCMTD:a_map.obj
 0001:0003ce60       ___crtGetStringTypeA       0043de60 f   LIBCMTD:a_str.obj
 0001:0003cfd0       ___init_time               0043dfd0 f   LIBCMTD:inittime.obj
 0001:0003dd00       ___free_lc_time            0043ed00 f   LIBCMTD:inittime.obj
 0001:0003e370       ___init_numeric            0043f370 f   LIBCMTD:initnum.obj
 0001:0003e720       ___free_lconv_num          0043f720 f   LIBCMTD:initnum.obj
 0001:0003e7d0       ___init_monetary           0043f7d0 f   LIBCMTD:initmon.obj
 0001:0003edc0       ___free_lconv_mon          0043fdc0 f   LIBCMTD:initmon.obj
 0001:0003ef70       _localeconv                0043ff70 f   LIBCMTD:lconv.obj
 0001:0003efc0       ___pwctype_func            0043ffc0 f   LIBCMTD:ctype.obj
 0001:0003efd0       ___pctype_func             0043ffd0 f   LIBCMTD:ctype.obj
 0001:0003f020       ___init_ctype              00440020 f   LIBCMTD:initctyp.obj
 0001:0003f5d0       ____mb_cur_max_func        004405d0 f   LIBCMTD:initctyp.obj
 0001:0003f620       ____mb_cur_max_l_func      00440620 f   LIBCMTD:initctyp.obj
 0001:0003f650       ____lc_codepage_func       00440650 f   LIBCMTD:initctyp.obj
 0001:0003f6a0       ____lc_collate_cp_func     004406a0 f   LIBCMTD:initctyp.obj
 0001:0003f6f0       ____lc_handle_func         004406f0 f   LIBCMTD:initctyp.obj
 0001:0003f740       ___init_collate            00440740 f   LIBCMTD:initcoll.obj
 0001:0003f750       _strncpy_s                 00440750 f   LIBCMTD:strncpy_s.obj
 0001:0003fb40       _strcspn                   00440b40 f   LIBCMTD:strcspn.obj
 0001:0003fb90       _strncmp                   00440b90 f   LIBCMTD:strncmp.obj
 0001:0003fd10       _strpbrk                   00440d10 f   LIBCMTD:strpbrk.obj
 0001:0003fd50       _memcmp                    00440d50 f   LIBCMTD:memcmp.obj
 0001:000407c0       _strcat_s                  004417c0 f   LIBCMTD:strcat_s.obj
 0001:00040ba0       ___get_qualified_locale    00441ba0 f   LIBCMTD:getqloc.obj
 0001:00041a10       __set_error_mode           00442a10 f   LIBCMTD:errmode.obj
 0001:00041ad0       ___set_app_type            00442ad0 f   LIBCMTD:errmode.obj
 0001:00041ae0       _wcscat_s                  00442ae0 f   LIBCMTD:wcscat_s.obj
 0001:00041ed0       _wcsncpy_s                 00442ed0 f   LIBCMTD:wcsncpy_s.obj
 0001:000422e0       ___crtGetLocaleInfoA       004432e0 f   LIBCMTD:a_loc.obj
 0001:00042440       __mbstowcs_l_helper        00443440 f   LIBCMTD:mbstowcs.obj
 0001:00042790       __mbstowcs_l               00443790 f   LIBCMTD:mbstowcs.obj
 0001:000427b0       _mbstowcs                  004437b0 f   LIBCMTD:mbstowcs.obj
 0001:00042800       __mbstowcs_s_l             00443800 f   LIBCMTD:mbstowcs.obj
 0001:00042b80       _mbstowcs_s                00443b80 f   LIBCMTD:mbstowcs.obj
 0001:00042bb0       __vsnprintf_helper         00443bb0 f   LIBCMTD:vsnprnc.obj
 0001:00042da0       __vsnprintf_c              00443da0 f   LIBCMTD:vsnprnc.obj
 0001:00042df0       __vsnprintf_c_l            00443df0 f   LIBCMTD:vsnprnc.obj
 0001:00042e40       __vsprintf_s_l             00443e40 f   LIBCMTD:vsnprnc.obj
 0001:000430b0       _vsprintf_s                004440b0 f   LIBCMTD:vsnprnc.obj
 0001:000430e0       __vsnprintf_s_l            004440e0 f   LIBCMTD:vsnprnc.obj
 0001:00043480       __vsnprintf_s              00444480 f   LIBCMTD:vsnprnc.obj
 0001:000434b0       __vsprintf_p               004444b0 f   LIBCMTD:vsnprnc.obj
 0001:00043500       __vsprintf_p_l             00444500 f   LIBCMTD:vsnprnc.obj
 0001:00043550       __itoa_s                   00444550 f   LIBCMTD:xtoas.obj
 0001:00043920       __ltoa_s                   00444920 f   LIBCMTD:xtoas.obj
 0001:00043960       __ultoa_s                  00444960 f   LIBCMTD:xtoas.obj
 0001:00043980       __i64toa_s                 00444980 f   LIBCMTD:xtoas.obj
 0001:00043d80       __ui64toa_s                00444d80 f   LIBCMTD:xtoas.obj
 0001:00043da0       __wcstombs_l_helper        00444da0 f   LIBCMTD:wcstombs.obj
 0001:000442e0       __wcstombs_l               004452e0 f   LIBCMTD:wcstombs.obj
 0001:00044300       _wcstombs                  00445300 f   LIBCMTD:wcstombs.obj
 0001:00044320       __wcstombs_s_l             00445320 f   LIBCMTD:wcstombs.obj
 0001:00044650       _wcstombs_s                00445650 f   LIBCMTD:wcstombs.obj
 0001:00044680       __itow_s                   00445680 f   LIBCMTD:xtows.obj
 0001:00044a60       __ltow_s                   00445a60 f   LIBCMTD:xtows.obj
 0001:00044aa0       __ultow_s                  00445aa0 f   LIBCMTD:xtows.obj
 0001:00044ac0       __i64tow_s                 00445ac0 f   LIBCMTD:xtows.obj
 0001:00044ee0       __ui64tow_s                00445ee0 f   LIBCMTD:xtows.obj
 0001:00044f00       __ismbbkalnum_l            00445f00 f   LIBCMTD:ismbbyte.obj
 0001:00044f20       __ismbbkalnum              00445f20 f   LIBCMTD:ismbbyte.obj
 0001:00044f40       __ismbbkprint_l            00445f40 f   LIBCMTD:ismbbyte.obj
 0001:00044f60       __ismbbkprint              00445f60 f   LIBCMTD:ismbbyte.obj
 0001:00044f80       __ismbbkpunct_l            00445f80 f   LIBCMTD:ismbbyte.obj
 0001:00044fa0       __ismbbkpunct              00445fa0 f   LIBCMTD:ismbbyte.obj
 0001:00044fc0       __ismbbalnum_l             00445fc0 f   LIBCMTD:ismbbyte.obj
 0001:00044fe0       __ismbbalnum               00445fe0 f   LIBCMTD:ismbbyte.obj
 0001:00045000       __ismbbalpha_l             00446000 f   LIBCMTD:ismbbyte.obj
 0001:00045020       __ismbbalpha               00446020 f   LIBCMTD:ismbbyte.obj
 0001:00045040       __ismbbgraph_l             00446040 f   LIBCMTD:ismbbyte.obj
 0001:00045060       __ismbbgraph               00446060 f   LIBCMTD:ismbbyte.obj
 0001:00045080       __ismbbprint_l             00446080 f   LIBCMTD:ismbbyte.obj
 0001:000450a0       __ismbbprint               004460a0 f   LIBCMTD:ismbbyte.obj
 0001:000450c0       __ismbbpunct_l             004460c0 f   LIBCMTD:ismbbyte.obj
 0001:000450e0       __ismbbpunct               004460e0 f   LIBCMTD:ismbbyte.obj
 0001:00045100       __ismbblead_l              00446100 f   LIBCMTD:ismbbyte.obj
 0001:00045120       __ismbblead                00446120 f   LIBCMTD:ismbbyte.obj
 0001:00045140       __ismbbtrail_l             00446140 f   LIBCMTD:ismbbyte.obj
 0001:00045160       __ismbbtrail               00446160 f   LIBCMTD:ismbbyte.obj
 0001:00045180       __ismbbkana_l              00446180 f   LIBCMTD:ismbbyte.obj
 0001:000451f0       __ismbbkana                004461f0 f   LIBCMTD:ismbbyte.obj
 0001:000452e0       __wmakepath_s              004462e0 f   LIBCMTD:wmakepath_s.obj
 0001:00045690       __wsplitpath_s             00446690 f   LIBCMTD:wsplitpath_s.obj
 0001:00045cc0       ___crtMessageBoxA          00446cc0 f   LIBCMTD:crtmbox.obj
 0001:00045ee0       __fptrap                   00446ee0 f   LIBCMTD:crt0fp.obj
 0001:00045f00       _vprintf_helper            00446f00 f   LIBCMTD:vprintf.obj
 0001:00046020       __vprintf_l                00447020 f   LIBCMTD:vprintf.obj
 0001:00046040       __vprintf_s_l              00447040 f   LIBCMTD:vprintf.obj
 0001:00046060       __vprintf_p_l              00447060 f   LIBCMTD:vprintf.obj
 0001:00046080       _vprintf                   00447080 f   LIBCMTD:vprintf.obj
 0001:000460a0       _vprintf_s                 004470a0 f   LIBCMTD:vprintf.obj
 0001:000460c0       __vprintf_p                004470c0 f   LIBCMTD:vprintf.obj
 0001:000460e0       __wctomb_s_l               004470e0 f   LIBCMTD:wctomb.obj
 0001:000463e0       _wctomb_s                  004473e0 f   LIBCMTD:wctomb.obj
 0001:00046410       __wctomb_l                 00447410 f   LIBCMTD:wctomb.obj
 0001:00046490       _wctomb                    00447490 f   LIBCMTD:wctomb.obj
 0001:000464e0       __flswbuf                  004474e0 f   LIBCMTD:_flswbuf.obj
 0001:000467c0       __vsprintf_l               004477c0 f   LIBCMTD:vsprintf.obj
 0001:00046960       _vsprintf                  00447960 f   LIBCMTD:vsprintf.obj
 0001:00046980       __vscprintf_helper         00447980 f   LIBCMTD:vsprintf.obj
 0001:00046a60       __vscprintf                00447a60 f   LIBCMTD:vsprintf.obj
 0001:00046a80       __vscprintf_l              00447a80 f   LIBCMTD:vsprintf.obj
 0001:00046aa0       __vscprintf_p              00447aa0 f   LIBCMTD:vsprintf.obj
 0001:00046ac0       __vscprintf_p_l            00447ac0 f   LIBCMTD:vsprintf.obj
 0001:00046ae0       _strtol                    00447ae0 f   LIBCMTD:strtol.obj
 0001:00047010       __strtol_l                 00448010 f   LIBCMTD:strtol.obj
 0001:00047040       _strtoul                   00448040 f   LIBCMTD:strtol.obj
 0001:00047090       __strtoul_l                00448090 f   LIBCMTD:strtol.obj
 0001:000470c0       __wchartodigit             004480c0 f   LIBCMTD:wchtodig.obj
 0001:000473f0       ___initconout              004483f0 f   LIBCMTD:initcon.obj
 0001:00047420       ___termconout              00448420 f   LIBCMTD:initcon.obj
 0001:00047450       __chsize_s                 00448450 f   LIBCMTD:chsize.obj
 0001:000476f0       __chsize_nolock            004486f0 f   LIBCMTD:chsize.obj
 0001:00047990       __chsize                   00448990 f   LIBCMTD:chsize.obj
 0001:000479c0       __read                     004489c0 f   LIBCMTD:read.obj
 0001:00047c50       __read_nolock              00448c50 f   LIBCMTD:read.obj
 0001:00048ba0       __setmode                  00449ba0 f   LIBCMTD:setmode.obj
 0001:00048e30       __setmode_nolock           00449e30 f   LIBCMTD:setmode.obj
 0001:000490a0       __set_fmode                0044a0a0 f   LIBCMTD:setmode.obj
 0001:00049150       __get_fmode                0044a150 f   LIBCMTD:setmode.obj
 0001:000491d0       _atol                      0044a1d0 f   LIBCMTD:atox.obj
 0001:000491f0       __atol_l                   0044a1f0 f   LIBCMTD:atox.obj
 0001:00049210       _atoi                      0044a210 f   LIBCMTD:atox.obj
 0001:00049230       __atoi_l                   0044a230 f   LIBCMTD:atox.obj
 0001:00049250       __atoi64                   0044a250 f   LIBCMTD:atox.obj
 0001:00049270       __atoi64_l                 0044a270 f   LIBCMTD:atox.obj
 0001:00049290       __allshl                   0044a290 f   LIBCMTD:llshl.obj
 0001:000492b0       _wcsnlen                   0044a2b0 f   LIBCMTD:wcslen_s.obj
 0001:000492f0       __stricmp_l                0044a2f0 f   LIBCMTD:stricmp.obj
 0001:000494a0       ___ascii_stricmp           0044a4a0 f   LIBCMTD:stricmp.obj
 0001:00049520       __stricmp                  0044a520 f   LIBCMTD:stricmp.obj
 0001:00049630       __strnicmp_l               0044a630 f   LIBCMTD:strnicmp.obj
 0001:00049870       __strnicmp                 0044a870 f   LIBCMTD:strnicmp.obj
 0001:00049a00       __strtoi64                 0044aa00 f   LIBCMTD:strtoq.obj
 0001:00049f70       __strtoi64_l               0044af70 f   LIBCMTD:strtoq.obj
 0001:00049fa0       __strtoui64                0044afa0 f   LIBCMTD:strtoq.obj
 0001:00049ff0       __strtoui64_l              0044aff0 f   LIBCMTD:strtoq.obj
 0001:0004a020       __tolower                  0044b020 f   LIBCMTD:tolower.obj
 0001:0004a030       __tolower_l                0044b030 f   LIBCMTD:tolower.obj
 0001:0004a210       _tolower                   0044b210 f   LIBCMTD:tolower.obj
 0001:0004a260       ___ascii_strnicmp          0044b260 f   LIBCMTD:_strnicm.obj
 0001:0004a2d0       __allmul                   0044b2d0 f   LIBCMTD:llmul.obj
 0001:0004a304       _InterlockedIncrement@4    0044b304 f   kernel32:KERNEL32.dll
 0001:0004a30a       _InterlockedDecrement@4    0044b30a f   kernel32:KERNEL32.dll
 0001:0004a310       _Sleep@4                   0044b310 f   kernel32:KERNEL32.dll
 0001:0004a316       _InterlockedExchange@8     0044b316 f   kernel32:KERNEL32.dll
 0001:0004a31c       _RtlUnwind@16              0044b31c f   kernel32:KERNEL32.dll
 0001:0004a322       _EncodePointer@4           0044b322 f   kernel32:KERNEL32.dll
 0001:0004a328       _DecodePointer@4           0044b328 f   kernel32:KERNEL32.dll
 0001:0004a32e       _GetModuleFileNameW@12     0044b32e f   kernel32:KERNEL32.dll
 0001:0004a334       _TerminateProcess@8        0044b334 f   kernel32:KERNEL32.dll
 0001:0004a33a       _GetCurrentProcess@0       0044b33a f   kernel32:KERNEL32.dll
 0001:0004a340       _UnhandledExceptionFilter@4 0044b340 f   kernel32:KERNEL32.dll
 0001:0004a346       _SetUnhandledExceptionFilter@4 0044b346 f   kernel32:KERNEL32.dll
 0001:0004a34c       _IsDebuggerPresent@0       0044b34c f   kernel32:KERNEL32.dll
 0001:0004a352       _RaiseException@16         0044b352 f   kernel32:KERNEL32.dll
 0001:0004a358       _GetCommandLineA@0         0044b358 f   kernel32:KERNEL32.dll
 0001:0004a35e       _HeapSetInformation@16     0044b35e f   kernel32:KERNEL32.dll
 0001:0004a364       _GetStartupInfoW@4         0044b364 f   kernel32:KERNEL32.dll
 0001:0004a36a       _WideCharToMultiByte@32    0044b36a f   kernel32:KERNEL32.dll
 0001:0004a370       _MultiByteToWideChar@24    0044b370 f   kernel32:KERNEL32.dll
 0001:0004a376       _lstrlenA@4                0044b376 f   kernel32:KERNEL32.dll
 0001:0004a37c       _GetProcAddress@8          0044b37c f   kernel32:KERNEL32.dll
 0001:0004a382       _LoadLibraryW@4            0044b382 f   kernel32:KERNEL32.dll
 0001:0004a388       _IsProcessorFeaturePresent@4 0044b388 f   kernel32:KERNEL32.dll
 0001:0004a38e       _HeapValidate@12           0044b38e f   kernel32:KERNEL32.dll
 0001:0004a394       _IsBadReadPtr@8            0044b394 f   kernel32:KERNEL32.dll
 0001:0004a39a       _GetLastError@0            0044b39a f   kernel32:KERNEL32.dll
 0001:0004a3a0       _FlushFileBuffers@4        0044b3a0 f   kernel32:KERNEL32.dll
 0001:0004a3a6       _WriteFile@20              0044b3a6 f   kernel32:KERNEL32.dll
 0001:0004a3ac       _GetConsoleCP@0            0044b3ac f   kernel32:KERNEL32.dll
 0001:0004a3b2       _GetConsoleMode@8          0044b3b2 f   kernel32:KERNEL32.dll
 0001:0004a3b8       _InitializeCriticalSectionAndSpinCount@8 0044b3b8 f   kernel32:KERNEL32.dll
 0001:0004a3be       _FatalAppExitA@8           0044b3be f   kernel32:KERNEL32.dll
 0001:0004a3c4       _CloseHandle@4             0044b3c4 f   kernel32:KERNEL32.dll
 0001:0004a3ca       _SetHandleCount@4          0044b3ca f   kernel32:KERNEL32.dll
 0001:0004a3d0       _GetStdHandle@4            0044b3d0 f   kernel32:KERNEL32.dll
 0001:0004a3d6       _GetFileType@4             0044b3d6 f   kernel32:KERNEL32.dll
 0001:0004a3dc       _SetFilePointer@16         0044b3dc f   kernel32:KERNEL32.dll
 0001:0004a3e2       _TlsAlloc@0                0044b3e2 f   kernel32:KERNEL32.dll
 0001:0004a3e8       _TlsGetValue@4             0044b3e8 f   kernel32:KERNEL32.dll
 0001:0004a3ee       _TlsSetValue@8             0044b3ee f   kernel32:KERNEL32.dll
 0001:0004a3f4       _GetCurrentThreadId@0      0044b3f4 f   kernel32:KERNEL32.dll
 0001:0004a3fa       _TlsFree@4                 0044b3fa f   kernel32:KERNEL32.dll
 0001:0004a400       _GetModuleHandleW@4        0044b400 f   kernel32:KERNEL32.dll
 0001:0004a406       _SetLastError@4            0044b406 f   kernel32:KERNEL32.dll
 0001:0004a40c       _GetCurrentThread@0        0044b40c f   kernel32:KERNEL32.dll
 0001:0004a412       _ExitProcess@4             0044b412 f   kernel32:KERNEL32.dll
 0001:0004a418       _GetACP@0                  0044b418 f   kernel32:KERNEL32.dll
 0001:0004a41e       _GetOEMCP@0                0044b41e f   kernel32:KERNEL32.dll
 0001:0004a424       _GetCPInfo@8               0044b424 f   kernel32:KERNEL32.dll
 0001:0004a42a       _IsValidCodePage@4         0044b42a f   kernel32:KERNEL32.dll
 0001:0004a430       _GetLocaleInfoW@16         0044b430 f   kernel32:KERNEL32.dll
 0001:0004a436       _OutputDebugStringA@4      0044b436 f   kernel32:KERNEL32.dll
 0001:0004a43c       _WriteConsoleW@20          0044b43c f   kernel32:KERNEL32.dll
 0001:0004a442       _SetConsoleCtrlHandler@8   0044b442 f   kernel32:KERNEL32.dll
 0001:0004a448       _QueryPerformanceCounter@4 0044b448 f   kernel32:KERNEL32.dll
 0001:0004a44e       _GetCurrentProcessId@0     0044b44e f   kernel32:KERNEL32.dll
 0001:0004a454       _GetSystemTimeAsFileTime@4 0044b454 f   kernel32:KERNEL32.dll
 0001:0004a45a       _GetModuleFileNameA@12     0044b45a f   kernel32:KERNEL32.dll
 0001:0004a460       _FreeEnvironmentStringsW@4 0044b460 f   kernel32:KERNEL32.dll
 0001:0004a466       _GetEnvironmentStringsW@0  0044b466 f   kernel32:KERNEL32.dll
 0001:0004a46c       _HeapCreate@12             0044b46c f   kernel32:KERNEL32.dll
 0001:0004a472       _HeapDestroy@4             0044b472 f   kernel32:KERNEL32.dll
 0001:0004a478       _HeapFree@12               0044b478 f   kernel32:KERNEL32.dll
 0001:0004a47e       _HeapAlloc@12              0044b47e f   kernel32:KERNEL32.dll
 0001:0004a484       _GetProcessHeap@0          0044b484 f   kernel32:KERNEL32.dll
 0001:0004a48a       _VirtualQuery@12           0044b48a f   kernel32:KERNEL32.dll
 0001:0004a490       _FreeLibrary@4             0044b490 f   kernel32:KERNEL32.dll
 0001:0004a496       _HeapReAlloc@16            0044b496 f   kernel32:KERNEL32.dll
 0001:0004a49c       _HeapSize@12               0044b49c f   kernel32:KERNEL32.dll
 0001:0004a4a2       _HeapQueryInformation@20   0044b4a2 f   kernel32:KERNEL32.dll
 0001:0004a4a8       _SetStdHandle@8            0044b4a8 f   kernel32:KERNEL32.dll
 0001:0004a4ae       _CreateFileW@28            0044b4ae f   kernel32:KERNEL32.dll
 0001:0004a4b4       _LCMapStringW@24           0044b4b4 f   kernel32:KERNEL32.dll
 0001:0004a4ba       _GetStringTypeW@16         0044b4ba f   kernel32:KERNEL32.dll
 0001:0004a4c0       _GetLocaleInfoA@16         0044b4c0 f   kernel32:KERNEL32.dll
 0001:0004a4c6       _IsValidLocale@8           0044b4c6 f   kernel32:KERNEL32.dll
 0001:0004a4cc       _EnumSystemLocalesA@8      0044b4cc f   kernel32:KERNEL32.dll
 0001:0004a4d2       _GetUserDefaultLCID@0      0044b4d2 f   kernel32:KERNEL32.dll
 0001:0004a4d8       _SetEndOfFile@4            0044b4d8 f   kernel32:KERNEL32.dll
 0001:0004a4de       _ReadFile@20               0044b4de f   kernel32:KERNEL32.dll
 0002:00000000       __imp_?SetTextCallback@CListUI@DuiLib@@UAEXPAVIListCallbackUI@2@@Z 0044c000     DuiLib_ud:DuiLib_ud.dll
 0002:00000004       __imp_?SetInstance@CPaintManagerUI@DuiLib@@SAXPAUHINSTANCE__@@@Z 0044c004     DuiLib_ud:DuiLib_ud.dll
 0002:00000008       __imp_?Create@CWindowWnd@DuiLib@@QAEPAUHWND__@@PAU3@PB_WKKHHHHPAUHMENU__@@@Z 0044c008     DuiLib_ud:DuiLib_ud.dll
 0002:0000000c       __imp_?CenterWindow@CWindowWnd@DuiLib@@QAEXXZ 0044c00c     DuiLib_ud:DuiLib_ud.dll
 0002:00000010       __imp_?MessageLoop@CPaintManagerUI@DuiLib@@SAXXZ 0044c010     DuiLib_ud:DuiLib_ud.dll
 0002:00000014       __imp_??1CPaintManagerUI@DuiLib@@QAE@XZ 0044c014     DuiLib_ud:DuiLib_ud.dll
 0002:00000018       __imp_??0CPoint@DuiLib@@QAE@XZ 0044c018     DuiLib_ud:DuiLib_ud.dll
 0002:0000001c       __imp_?Activate@CListContainerElementUI@DuiLib@@UAE_NXZ 0044c01c     DuiLib_ud:DuiLib_ud.dll
 0002:00000020       __imp_?DoEvent@CListContainerElementUI@DuiLib@@UAEXAAUtagTEventUI@2@@Z 0044c020     DuiLib_ud:DuiLib_ud.dll
 0002:00000024       __imp_?GetPaintDC@CPaintManagerUI@DuiLib@@QBEPAUHDC__@@XZ 0044c024     DuiLib_ud:DuiLib_ud.dll
 0002:00000028       __imp_?IsEmpty@CDuiString@DuiLib@@QBE_NXZ 0044c028     DuiLib_ud:DuiLib_ud.dll
 0002:0000002c       __imp_?DrawHtmlText@CRenderEngine@DuiLib@@SAXPAUHDC__@@PAVCPaintManagerUI@2@AAUtagRECT@@PB_WKPAU5@PAVCDuiString@2@AAHI@Z 0044c02c     DuiLib_ud:DuiLib_ud.dll
 0002:00000030       __imp_?DrawTextW@CRenderEngine@DuiLib@@SAXPAUHDC__@@PAVCPaintManagerUI@2@AAUtagRECT@@PB_WKHI@Z 0044c030     DuiLib_ud:DuiLib_ud.dll
 0002:00000034       __imp_?DrawItemBk@CListContainerElementUI@DuiLib@@QAEXPAUHDC__@@ABUtagRECT@@@Z 0044c034     DuiLib_ud:DuiLib_ud.dll
 0002:00000038       __imp_?GetInterface@CListContainerElementUI@DuiLib@@UAEPAXPB_W@Z 0044c038     DuiLib_ud:DuiLib_ud.dll
 0002:0000003c       __imp_?Expand@CListContainerElementUI@DuiLib@@UAE_N_N@Z 0044c03c     DuiLib_ud:DuiLib_ud.dll
 0002:00000040       __imp_?IsExpanded@CListContainerElementUI@DuiLib@@UBE_NXZ 0044c040     DuiLib_ud:DuiLib_ud.dll
 0002:00000044       __imp_?Select@CListContainerElementUI@DuiLib@@UAE_N_N@Z 0044c044     DuiLib_ud:DuiLib_ud.dll
 0002:00000048       __imp_?IsSelected@CListContainerElementUI@DuiLib@@UBE_NXZ 0044c048     DuiLib_ud:DuiLib_ud.dll
 0002:0000004c       __imp_?SetOwner@CListContainerElementUI@DuiLib@@UAEXPAVCControlUI@2@@Z 0044c04c     DuiLib_ud:DuiLib_ud.dll
 0002:00000050       __imp_?GetOwner@CListContainerElementUI@DuiLib@@UAEPAVIListOwnerUI@2@XZ 0044c050     DuiLib_ud:DuiLib_ud.dll
 0002:00000054       __imp_?SetIndex@CListContainerElementUI@DuiLib@@UAEXH@Z 0044c054     DuiLib_ud:DuiLib_ud.dll
 0002:00000058       __imp_?GetIndex@CListContainerElementUI@DuiLib@@UBEHXZ 0044c058     DuiLib_ud:DuiLib_ud.dll
 0002:0000005c       __imp_?RemoveAll@CContainerUI@DuiLib@@UAEXXZ 0044c05c     DuiLib_ud:DuiLib_ud.dll
 0002:00000060       __imp_?RemoveAt@CContainerUI@DuiLib@@UAE_NH@Z 0044c060     DuiLib_ud:DuiLib_ud.dll
 0002:00000064       __imp_?Remove@CContainerUI@DuiLib@@UAE_NPAVCControlUI@2@@Z 0044c064     DuiLib_ud:DuiLib_ud.dll
 0002:00000068       __imp_?AddAt@CContainerUI@DuiLib@@UAE_NPAVCControlUI@2@H@Z 0044c068     DuiLib_ud:DuiLib_ud.dll
 0002:0000006c       __imp_?Add@CContainerUI@DuiLib@@UAE_NPAVCControlUI@2@@Z 0044c06c     DuiLib_ud:DuiLib_ud.dll
 0002:00000070       __imp_?GetCount@CContainerUI@DuiLib@@UBEHXZ 0044c070     DuiLib_ud:DuiLib_ud.dll
 0002:00000074       __imp_??0WindowImplBase@DuiLib@@QAE@XZ 0044c074     DuiLib_ud:DuiLib_ud.dll
 0002:00000078       __imp_?GetSuperClassName@CWindowWnd@DuiLib@@MBEPB_WXZ 0044c078     DuiLib_ud:DuiLib_ud.dll
 0002:0000007c       __imp_?GetClassStyle@WindowImplBase@DuiLib@@UBEIXZ 0044c07c     DuiLib_ud:DuiLib_ud.dll
 0002:00000080       __imp_?OnClick@WindowImplBase@DuiLib@@MAEXAAUtagTNotifyUI@2@@Z 0044c080     DuiLib_ud:DuiLib_ud.dll
 0002:00000084       __imp_?GetZIPFileName@WindowImplBase@DuiLib@@UBE?AVCDuiString@2@XZ 0044c084     DuiLib_ud:DuiLib_ud.dll
 0002:00000088       __imp_?GetResourceID@WindowImplBase@DuiLib@@UBEPB_WXZ 0044c088     DuiLib_ud:DuiLib_ud.dll
 0002:0000008c       __imp_?OnClose@WindowImplBase@DuiLib@@UAEJIIJAAH@Z 0044c08c     DuiLib_ud:DuiLib_ud.dll
 0002:00000090       __imp_?OnDestroy@WindowImplBase@DuiLib@@UAEJIIJAAH@Z 0044c090     DuiLib_ud:DuiLib_ud.dll
 0002:00000094       __imp_?OnNcActivate@WindowImplBase@DuiLib@@UAEJIIJAAH@Z 0044c094     DuiLib_ud:DuiLib_ud.dll
 0002:00000098       __imp_?OnNcCalcSize@WindowImplBase@DuiLib@@UAEJIIJAAH@Z 0044c098     DuiLib_ud:DuiLib_ud.dll
 0002:0000009c       __imp_?OnNcPaint@WindowImplBase@DuiLib@@UAEJIIJAAH@Z 0044c09c     DuiLib_ud:DuiLib_ud.dll
 0002:000000a0       __imp_?OnNcHitTest@WindowImplBase@DuiLib@@UAEJIIJAAH@Z 0044c0a0     DuiLib_ud:DuiLib_ud.dll
 0002:000000a4       __imp_?OnGetMinMaxInfo@WindowImplBase@DuiLib@@UAEJIIJAAH@Z 0044c0a4     DuiLib_ud:DuiLib_ud.dll
 0002:000000a8       __imp_?OnMouseWheel@WindowImplBase@DuiLib@@UAEJIIJAAH@Z 0044c0a8     DuiLib_ud:DuiLib_ud.dll
 0002:000000ac       __imp_?OnMouseHover@WindowImplBase@DuiLib@@UAEJIIJAAH@Z 0044c0ac     DuiLib_ud:DuiLib_ud.dll
 0002:000000b0       __imp_?OnSize@WindowImplBase@DuiLib@@UAEJIIJAAH@Z 0044c0b0     DuiLib_ud:DuiLib_ud.dll
 0002:000000b4       __imp_?OnChar@WindowImplBase@DuiLib@@UAEJIIJAAH@Z 0044c0b4     DuiLib_ud:DuiLib_ud.dll
 0002:000000b8       __imp_?OnCreate@WindowImplBase@DuiLib@@UAEJIIJAAH@Z 0044c0b8     DuiLib_ud:DuiLib_ud.dll
 0002:000000bc       __imp_?OnKeyDown@WindowImplBase@DuiLib@@UAEJIIJAAH@Z 0044c0bc     DuiLib_ud:DuiLib_ud.dll
 0002:000000c0       __imp_?OnKillFocus@WindowImplBase@DuiLib@@UAEJIIJAAH@Z 0044c0c0     DuiLib_ud:DuiLib_ud.dll
 0002:000000c4       __imp_?OnSetFocus@WindowImplBase@DuiLib@@UAEJIIJAAH@Z 0044c0c4     DuiLib_ud:DuiLib_ud.dll
 0002:000000c8       __imp_?OnLButtonDown@WindowImplBase@DuiLib@@UAEJIIJAAH@Z 0044c0c8     DuiLib_ud:DuiLib_ud.dll
 0002:000000cc       __imp_?OnLButtonUp@WindowImplBase@DuiLib@@UAEJIIJAAH@Z 0044c0cc     DuiLib_ud:DuiLib_ud.dll
 0002:000000d0       __imp_?OnMouseMove@WindowImplBase@DuiLib@@UAEJIIJAAH@Z 0044c0d0     DuiLib_ud:DuiLib_ud.dll
 0002:000000d4       __imp_?GetStyle@WindowImplBase@DuiLib@@UAEJXZ 0044c0d4     DuiLib_ud:DuiLib_ud.dll
 0002:000000d8       __imp_?GetMessageMap@WindowImplBase@DuiLib@@MBEPBUDUI_MSGMAP@2@XZ 0044c0d8     DuiLib_ud:DuiLib_ud.dll
 0002:000000dc       __imp_?MessageHandler@WindowImplBase@DuiLib@@UAEJIIJAA_N@Z 0044c0dc     DuiLib_ud:DuiLib_ud.dll
 0002:000000e0       __imp_??1WindowImplBase@DuiLib@@UAE@XZ 0044c0e0     DuiLib_ud:DuiLib_ud.dll
 0002:000000e4       __imp_?OnFinalMessage@WindowImplBase@DuiLib@@UAEXPAUHWND__@@@Z 0044c0e4     DuiLib_ud:DuiLib_ud.dll
 0002:000000e8       __imp_??0CDuiString@DuiLib@@QAE@PB_WH@Z 0044c0e8     DuiLib_ud:DuiLib_ud.dll
 0002:000000ec       __imp_?FindControl@CPaintManagerUI@DuiLib@@QBEPAVCControlUI@2@PB_W@Z 0044c0ec     DuiLib_ud:DuiLib_ud.dll
 0002:000000f0       __imp_?HandleMessage@CWindowWnd@DuiLib@@MAEJIIJ@Z 0044c0f0     DuiLib_ud:DuiLib_ud.dll
 0002:000000f4       __imp_?HandleMessage@WindowImplBase@DuiLib@@UAEJIIJ@Z 0044c0f4     DuiLib_ud:DuiLib_ud.dll
 0002:000000f8       __imp_?Close@CWindowWnd@DuiLib@@QAEXI@Z 0044c0f8     DuiLib_ud:DuiLib_ud.dll
 0002:000000fc       __imp_??0CPoint@DuiLib@@QAE@ABUtagPOINT@@@Z 0044c0fc     DuiLib_ud:DuiLib_ud.dll
 0002:00000100       __imp_?SendMessageW@CWindowWnd@DuiLib@@QAEJIIJ@Z 0044c100     DuiLib_ud:DuiLib_ud.dll
 0002:00000104       __imp_??1CDuiString@DuiLib@@QAE@XZ 0044c104     DuiLib_ud:DuiLib_ud.dll
 0002:00000108       __imp_??BCDuiString@DuiLib@@QBEPB_WXZ 0044c108     DuiLib_ud:DuiLib_ud.dll
 0002:0000010c       __imp_??1CListUI@DuiLib@@UAE@XZ 0044c10c     DuiLib_ud:DuiLib_ud.dll
 0002:00000110       __imp_?GetHeader@CListUI@DuiLib@@UBEPAVCListHeaderUI@2@XZ 0044c110     DuiLib_ud:DuiLib_ud.dll
 0002:00000114       __imp_??0CListUI@DuiLib@@QAE@XZ 0044c114     DuiLib_ud:DuiLib_ud.dll
 0002:00000118       __imp_?GetName@CControlUI@DuiLib@@UBE?AVCDuiString@2@XZ 0044c118     DuiLib_ud:DuiLib_ud.dll
 0002:0000011c       __imp_?SetName@CControlUI@DuiLib@@UAEXPB_W@Z 0044c11c     DuiLib_ud:DuiLib_ud.dll
 0002:00000120       __imp_?GetControlFlags@CListUI@DuiLib@@UBEIXZ 0044c120     DuiLib_ud:DuiLib_ud.dll
 0002:00000124       __imp_?Activate@CControlUI@DuiLib@@UAE_NXZ 0044c124     DuiLib_ud:DuiLib_ud.dll
 0002:00000128       __imp_?GetManager@CControlUI@DuiLib@@UBEPAVCPaintManagerUI@2@XZ 0044c128     DuiLib_ud:DuiLib_ud.dll
 0002:0000012c       __imp_?SetManager@CContainerUI@DuiLib@@UAEXPAVCPaintManagerUI@2@PAVCControlUI@2@_N@Z 0044c12c     DuiLib_ud:DuiLib_ud.dll
 0002:00000130       __imp_?GetParent@CControlUI@DuiLib@@UBEPAV12@XZ 0044c130     DuiLib_ud:DuiLib_ud.dll
 0002:00000134       __imp_?GetText@CControlUI@DuiLib@@UBE?AVCDuiString@2@XZ 0044c134     DuiLib_ud:DuiLib_ud.dll
 0002:00000138       __imp_?SetText@CControlUI@DuiLib@@UAEXPB_W@Z 0044c138     DuiLib_ud:DuiLib_ud.dll
 0002:0000013c       __imp_?GetPos@CControlUI@DuiLib@@UBEABUtagRECT@@XZ 0044c13c     DuiLib_ud:DuiLib_ud.dll
 0002:00000140       __imp_?SetPos@CListUI@DuiLib@@UAEXUtagRECT@@@Z 0044c140     DuiLib_ud:DuiLib_ud.dll
 0002:00000144       __imp_?GetWidth@CControlUI@DuiLib@@UBEHXZ 0044c144     DuiLib_ud:DuiLib_ud.dll
 0002:00000148       __imp_?GetHeight@CControlUI@DuiLib@@UBEHXZ 0044c148     DuiLib_ud:DuiLib_ud.dll
 0002:0000014c       __imp_?GetX@CControlUI@DuiLib@@UBEHXZ 0044c14c     DuiLib_ud:DuiLib_ud.dll
 0002:00000150       __imp_?GetY@CControlUI@DuiLib@@UBEHXZ 0044c150     DuiLib_ud:DuiLib_ud.dll
 0002:00000154       __imp_?GetPadding@CControlUI@DuiLib@@UBE?AUtagRECT@@XZ 0044c154     DuiLib_ud:DuiLib_ud.dll
 0002:00000158       __imp_?SetPadding@CControlUI@DuiLib@@UAEXUtagRECT@@@Z 0044c158     DuiLib_ud:DuiLib_ud.dll
 0002:0000015c       __imp_?GetFixedXY@CControlUI@DuiLib@@UBE?AUtagSIZE@@XZ 0044c15c     DuiLib_ud:DuiLib_ud.dll
 0002:00000160       __imp_?SetFixedXY@CControlUI@DuiLib@@UAEXUtagSIZE@@@Z 0044c160     DuiLib_ud:DuiLib_ud.dll
 0002:00000164       __imp_?GetFixedWidth@CControlUI@DuiLib@@UBEHXZ 0044c164     DuiLib_ud:DuiLib_ud.dll
 0002:00000168       __imp_?SetFixedWidth@CControlUI@DuiLib@@UAEXH@Z 0044c168     DuiLib_ud:DuiLib_ud.dll
 0002:0000016c       __imp_?GetFixedHeight@CControlUI@DuiLib@@UBEHXZ 0044c16c     DuiLib_ud:DuiLib_ud.dll
 0002:00000170       __imp_?SetFixedHeight@CControlUI@DuiLib@@UAEXH@Z 0044c170     DuiLib_ud:DuiLib_ud.dll
 0002:00000174       __imp_?GetMinWidth@CControlUI@DuiLib@@UBEHXZ 0044c174     DuiLib_ud:DuiLib_ud.dll
 0002:00000178       __imp_?SetMinWidth@CControlUI@DuiLib@@UAEXH@Z 0044c178     DuiLib_ud:DuiLib_ud.dll
 0002:0000017c       __imp_?GetMaxWidth@CControlUI@DuiLib@@UBEHXZ 0044c17c     DuiLib_ud:DuiLib_ud.dll
 0002:00000180       __imp_?SetMaxWidth@CControlUI@DuiLib@@UAEXH@Z 0044c180     DuiLib_ud:DuiLib_ud.dll
 0002:00000184       __imp_?GetMinHeight@CControlUI@DuiLib@@UBEHXZ 0044c184     DuiLib_ud:DuiLib_ud.dll
 0002:00000188       __imp_?SetMinHeight@CControlUI@DuiLib@@UAEXH@Z 0044c188     DuiLib_ud:DuiLib_ud.dll
 0002:0000018c       __imp_?GetMaxHeight@CControlUI@DuiLib@@UBEHXZ 0044c18c     DuiLib_ud:DuiLib_ud.dll
 0002:00000190       __imp_?SetMaxHeight@CControlUI@DuiLib@@UAEXH@Z 0044c190     DuiLib_ud:DuiLib_ud.dll
 0002:00000194       __imp_?SetRelativePos@CControlUI@DuiLib@@UAEXUtagSIZE@@0@Z 0044c194     DuiLib_ud:DuiLib_ud.dll
 0002:00000198       __imp_?SetRelativeParentSize@CControlUI@DuiLib@@UAEXUtagSIZE@@@Z 0044c198     DuiLib_ud:DuiLib_ud.dll
 0002:0000019c       __imp_?GetRelativePos@CControlUI@DuiLib@@UBE?AUtagTRelativePosUI@2@XZ 0044c19c     DuiLib_ud:DuiLib_ud.dll
 0002:000001a0       __imp_?IsRelativePos@CControlUI@DuiLib@@UBE_NXZ 0044c1a0     DuiLib_ud:DuiLib_ud.dll
 0002:000001a4       __imp_?GetToolTip@CControlUI@DuiLib@@UBE?AVCDuiString@2@XZ 0044c1a4     DuiLib_ud:DuiLib_ud.dll
 0002:000001a8       __imp_?SetToolTip@CControlUI@DuiLib@@UAEXPB_W@Z 0044c1a8     DuiLib_ud:DuiLib_ud.dll
 0002:000001ac       __imp_?SetToolTipWidth@CControlUI@DuiLib@@UAEXH@Z 0044c1ac     DuiLib_ud:DuiLib_ud.dll
 0002:000001b0       __imp_?GetToolTipWidth@CControlUI@DuiLib@@UAEHXZ 0044c1b0     DuiLib_ud:DuiLib_ud.dll
 0002:000001b4       __imp_?GetShortcut@CControlUI@DuiLib@@UBE_WXZ 0044c1b4     DuiLib_ud:DuiLib_ud.dll
 0002:000001b8       __imp_?SetShortcut@CControlUI@DuiLib@@UAEX_W@Z 0044c1b8     DuiLib_ud:DuiLib_ud.dll
 0002:000001bc       __imp_?IsContextMenuUsed@CControlUI@DuiLib@@UBE_NXZ 0044c1bc     DuiLib_ud:DuiLib_ud.dll
 0002:000001c0       __imp_?SetContextMenuUsed@CControlUI@DuiLib@@UAEX_N@Z 0044c1c0     DuiLib_ud:DuiLib_ud.dll
 0002:000001c4       __imp_?GetUserData@CControlUI@DuiLib@@UAEABVCDuiString@2@XZ 0044c1c4     DuiLib_ud:DuiLib_ud.dll
 0002:000001c8       __imp_?SetUserData@CControlUI@DuiLib@@UAEXPB_W@Z 0044c1c8     DuiLib_ud:DuiLib_ud.dll
 0002:000001cc       __imp_?GetTag@CControlUI@DuiLib@@UBEIXZ 0044c1cc     DuiLib_ud:DuiLib_ud.dll
 0002:000001d0       __imp_?SetTag@CControlUI@DuiLib@@UAEXI@Z 0044c1d0     DuiLib_ud:DuiLib_ud.dll
 0002:000001d4       __imp_?IsVisible@CControlUI@DuiLib@@UBE_NXZ 0044c1d4     DuiLib_ud:DuiLib_ud.dll
 0002:000001d8       __imp_?SetVisible@CContainerUI@DuiLib@@UAEX_N@Z 0044c1d8     DuiLib_ud:DuiLib_ud.dll
 0002:000001dc       __imp_?SetInternVisible@CContainerUI@DuiLib@@UAEX_N@Z 0044c1dc     DuiLib_ud:DuiLib_ud.dll
 0002:000001e0       __imp_?IsEnabled@CControlUI@DuiLib@@UBE_NXZ 0044c1e0     DuiLib_ud:DuiLib_ud.dll
 0002:000001e4       __imp_?SetEnabled@CControlUI@DuiLib@@UAEX_N@Z 0044c1e4     DuiLib_ud:DuiLib_ud.dll
 0002:000001e8       __imp_?IsMouseEnabled@CControlUI@DuiLib@@UBE_NXZ 0044c1e8     DuiLib_ud:DuiLib_ud.dll
 0002:000001ec       __imp_?SetMouseEnabled@CContainerUI@DuiLib@@UAEX_N@Z 0044c1ec     DuiLib_ud:DuiLib_ud.dll
 0002:000001f0       __imp_?IsKeyboardEnabled@CControlUI@DuiLib@@UBE_NXZ 0044c1f0     DuiLib_ud:DuiLib_ud.dll
 0002:000001f4       __imp_?SetKeyboardEnabled@CControlUI@DuiLib@@UAEX_N@Z 0044c1f4     DuiLib_ud:DuiLib_ud.dll
 0002:000001f8       __imp_?IsFocused@CControlUI@DuiLib@@UBE_NXZ 0044c1f8     DuiLib_ud:DuiLib_ud.dll
 0002:000001fc       __imp_?SetFocus@CControlUI@DuiLib@@UAEXXZ 0044c1fc     DuiLib_ud:DuiLib_ud.dll
 0002:00000200       __imp_?IsFloat@CControlUI@DuiLib@@UBE_NXZ 0044c200     DuiLib_ud:DuiLib_ud.dll
 0002:00000204       __imp_?SetFloat@CControlUI@DuiLib@@UAEX_N@Z 0044c204     DuiLib_ud:DuiLib_ud.dll
 0002:00000208       __imp_?FindControl@CContainerUI@DuiLib@@UAEPAVCControlUI@2@P6GPAV32@PAV32@PAX@Z1I@Z 0044c208     DuiLib_ud:DuiLib_ud.dll
 0002:0000020c       __imp_?Init@CControlUI@DuiLib@@UAEXXZ 0044c20c     DuiLib_ud:DuiLib_ud.dll
 0002:00000210       __imp_?DoInit@CControlUI@DuiLib@@UAEXXZ 0044c210     DuiLib_ud:DuiLib_ud.dll
 0002:00000214       __imp_?Event@CControlUI@DuiLib@@UAEXAAUtagTEventUI@2@@Z 0044c214     DuiLib_ud:DuiLib_ud.dll
 0002:00000218       __imp_?DoPaint@CContainerUI@DuiLib@@UAEXPAUHDC__@@ABUtagRECT@@@Z 0044c218     DuiLib_ud:DuiLib_ud.dll
 0002:0000021c       __imp_?PaintBkColor@CControlUI@DuiLib@@UAEXPAUHDC__@@@Z 0044c21c     DuiLib_ud:DuiLib_ud.dll
 0002:00000220       __imp_?PaintBkImage@CControlUI@DuiLib@@UAEXPAUHDC__@@@Z 0044c220     DuiLib_ud:DuiLib_ud.dll
 0002:00000224       __imp_?PaintStatusImage@CControlUI@DuiLib@@UAEXPAUHDC__@@@Z 0044c224     DuiLib_ud:DuiLib_ud.dll
 0002:00000228       __imp_?PaintText@CControlUI@DuiLib@@UAEXPAUHDC__@@@Z 0044c228     DuiLib_ud:DuiLib_ud.dll
 0002:0000022c       __imp_?PaintBorder@CControlUI@DuiLib@@UAEXPAUHDC__@@@Z 0044c22c     DuiLib_ud:DuiLib_ud.dll
 0002:00000230       __imp_?DoPostPaint@CVerticalLayoutUI@DuiLib@@UAEXPAUHDC__@@ABUtagRECT@@@Z 0044c230     DuiLib_ud:DuiLib_ud.dll
 0002:00000234       __imp_?GetInset@CContainerUI@DuiLib@@UBE?AUtagRECT@@XZ 0044c234     DuiLib_ud:DuiLib_ud.dll
 0002:00000238       __imp_?SetInset@CContainerUI@DuiLib@@UAEXUtagRECT@@@Z 0044c238     DuiLib_ud:DuiLib_ud.dll
 0002:0000023c       __imp_?GetChildPadding@CListUI@DuiLib@@UBEHXZ 0044c23c     DuiLib_ud:DuiLib_ud.dll
 0002:00000240       __imp_?SetChildPadding@CListUI@DuiLib@@UAEXH@Z 0044c240     DuiLib_ud:DuiLib_ud.dll
 0002:00000244       __imp_?IsAutoDestroy@CContainerUI@DuiLib@@UBE_NXZ 0044c244     DuiLib_ud:DuiLib_ud.dll
 0002:00000248       __imp_?SetAutoDestroy@CContainerUI@DuiLib@@UAEX_N@Z 0044c248     DuiLib_ud:DuiLib_ud.dll
 0002:0000024c       __imp_?IsDelayedDestroy@CContainerUI@DuiLib@@UBE_NXZ 0044c24c     DuiLib_ud:DuiLib_ud.dll
 0002:00000250       __imp_?SetDelayedDestroy@CContainerUI@DuiLib@@UAEX_N@Z 0044c250     DuiLib_ud:DuiLib_ud.dll
 0002:00000254       __imp_?IsMouseChildEnabled@CContainerUI@DuiLib@@UBE_NXZ 0044c254     DuiLib_ud:DuiLib_ud.dll
 0002:00000258       __imp_?SetMouseChildEnabled@CContainerUI@DuiLib@@UAEX_N@Z 0044c258     DuiLib_ud:DuiLib_ud.dll
 0002:0000025c       __imp_?FindSelectable@CContainerUI@DuiLib@@UBEHH_N@Z 0044c25c     DuiLib_ud:DuiLib_ud.dll
 0002:00000260       __imp_?GetScrollPos@CListUI@DuiLib@@UBE?AUtagSIZE@@XZ 0044c260     DuiLib_ud:DuiLib_ud.dll
 0002:00000264       __imp_?GetScrollRange@CListUI@DuiLib@@UBE?AUtagSIZE@@XZ 0044c264     DuiLib_ud:DuiLib_ud.dll
 0002:00000268       __imp_?SetScrollPos@CListUI@DuiLib@@UAEXUtagSIZE@@@Z 0044c268     DuiLib_ud:DuiLib_ud.dll
 0002:0000026c       __imp_?LineUp@CListUI@DuiLib@@UAEXXZ 0044c26c     DuiLib_ud:DuiLib_ud.dll
 0002:00000270       __imp_?LineDown@CListUI@DuiLib@@UAEXXZ 0044c270     DuiLib_ud:DuiLib_ud.dll
 0002:00000274       __imp_?PageUp@CListUI@DuiLib@@UAEXXZ 0044c274     DuiLib_ud:DuiLib_ud.dll
 0002:00000278       __imp_?PageDown@CListUI@DuiLib@@UAEXXZ 0044c278     DuiLib_ud:DuiLib_ud.dll
 0002:0000027c       __imp_?HomeUp@CListUI@DuiLib@@UAEXXZ 0044c27c     DuiLib_ud:DuiLib_ud.dll
 0002:00000280       __imp_?EndDown@CListUI@DuiLib@@UAEXXZ 0044c280     DuiLib_ud:DuiLib_ud.dll
 0002:00000284       __imp_?LineLeft@CListUI@DuiLib@@UAEXXZ 0044c284     DuiLib_ud:DuiLib_ud.dll
 0002:00000288       __imp_?LineRight@CListUI@DuiLib@@UAEXXZ 0044c288     DuiLib_ud:DuiLib_ud.dll
 0002:0000028c       __imp_?PageLeft@CListUI@DuiLib@@UAEXXZ 0044c28c     DuiLib_ud:DuiLib_ud.dll
 0002:00000290       __imp_?PageRight@CListUI@DuiLib@@UAEXXZ 0044c290     DuiLib_ud:DuiLib_ud.dll
 0002:00000294       __imp_?HomeLeft@CListUI@DuiLib@@UAEXXZ 0044c294     DuiLib_ud:DuiLib_ud.dll
 0002:00000298       __imp_?EndRight@CListUI@DuiLib@@UAEXXZ 0044c298     DuiLib_ud:DuiLib_ud.dll
 0002:0000029c       __imp_?EnableScrollBar@CListUI@DuiLib@@UAEX_N0@Z 0044c29c     DuiLib_ud:DuiLib_ud.dll
 0002:000002a0       __imp_?GetVerticalScrollBar@CListUI@DuiLib@@UBEPAVCScrollBarUI@2@XZ 0044c2a0     DuiLib_ud:DuiLib_ud.dll
 0002:000002a4       __imp_?GetHorizontalScrollBar@CListUI@DuiLib@@UBEPAVCScrollBarUI@2@XZ 0044c2a4     DuiLib_ud:DuiLib_ud.dll
 0002:000002a8       __imp_?SetFloatPos@CContainerUI@DuiLib@@MAEXH@Z 0044c2a8     DuiLib_ud:DuiLib_ud.dll
 0002:000002ac       __imp_?ProcessScrollBar@CContainerUI@DuiLib@@MAEXUtagRECT@@HH@Z 0044c2ac     DuiLib_ud:DuiLib_ud.dll
 0002:000002b0       __imp_?GetItemAt@CListUI@DuiLib@@UBEPAVCControlUI@2@H@Z 0044c2b0     DuiLib_ud:DuiLib_ud.dll
 0002:000002b4       __imp_?GetCount@CListUI@DuiLib@@UBEHXZ 0044c2b4     DuiLib_ud:DuiLib_ud.dll
 0002:000002b8       __imp_?RemoveAt@CListUI@DuiLib@@UAE_NH@Z 0044c2b8     DuiLib_ud:DuiLib_ud.dll
 0002:000002bc       __imp_?RemoveAll@CListUI@DuiLib@@UAEXXZ 0044c2bc     DuiLib_ud:DuiLib_ud.dll
 0002:000002c0       __imp_?GetListInfo@CListUI@DuiLib@@UAEPAUtagTListInfoUI@2@XZ 0044c2c0     DuiLib_ud:DuiLib_ud.dll
 0002:000002c4       __imp_?GetCurSel@CListUI@DuiLib@@UBEHXZ 0044c2c4     DuiLib_ud:DuiLib_ud.dll
 0002:000002c8       __imp_?SelectItem@CListUI@DuiLib@@UAE_NH_N@Z 0044c2c8     DuiLib_ud:DuiLib_ud.dll
 0002:000002cc       __imp_?GetList@CListUI@DuiLib@@UBEPAVCContainerUI@2@XZ 0044c2cc     DuiLib_ud:DuiLib_ud.dll
 0002:000002d0       __imp_?GetTextCallback@CListUI@DuiLib@@UBEPAVIListCallbackUI@2@XZ 0044c2d0     DuiLib_ud:DuiLib_ud.dll
 0002:000002d4       __imp_?SetItemIndex@CContainerUI@DuiLib@@UAE_NPAVCControlUI@2@H@Z 0044c2d4     DuiLib_ud:DuiLib_ud.dll
 0002:000002d8       __imp_?ExpandItem@CListUI@DuiLib@@UAE_NH_N@Z 0044c2d8     DuiLib_ud:DuiLib_ud.dll
 0002:000002dc       __imp_?GetExpandedItem@CListUI@DuiLib@@UBEHXZ 0044c2dc     DuiLib_ud:DuiLib_ud.dll
 0002:000002e0       __imp_?GetInterface@CListUI@DuiLib@@UAEPAXPB_W@Z 0044c2e0     DuiLib_ud:DuiLib_ud.dll
 0002:000002e4       __imp_?DoEvent@CListUI@DuiLib@@UAEXAAUtagTEventUI@2@@Z 0044c2e4     DuiLib_ud:DuiLib_ud.dll
 0002:000002e8       __imp_?Add@CListUI@DuiLib@@UAE_NPAVCControlUI@2@@Z 0044c2e8     DuiLib_ud:DuiLib_ud.dll
 0002:000002ec       __imp_?AddAt@CListUI@DuiLib@@UAE_NPAVCControlUI@2@H@Z 0044c2ec     DuiLib_ud:DuiLib_ud.dll
 0002:000002f0       __imp_?GetItemIndex@CListUI@DuiLib@@UBEHPAVCControlUI@2@@Z 0044c2f0     DuiLib_ud:DuiLib_ud.dll
 0002:000002f4       __imp_?SetItemIndex@CListUI@DuiLib@@UAE_NPAVCControlUI@2@H@Z 0044c2f4     DuiLib_ud:DuiLib_ud.dll
 0002:000002f8       __imp_?Remove@CListUI@DuiLib@@UAE_NPAVCControlUI@2@@Z 0044c2f8     DuiLib_ud:DuiLib_ud.dll
 0002:000002fc       __imp_??0CSize@DuiLib@@QAE@HH@Z 0044c2fc     DuiLib_ud:DuiLib_ud.dll
 0002:00000300       __imp_?SetAttribute@CListUI@DuiLib@@UAEXPB_W0@Z 0044c300     DuiLib_ud:DuiLib_ud.dll
 0002:00000304       __imp_??0CPaintManagerUI@DuiLib@@QAE@XZ 0044c304     DuiLib_ud:DuiLib_ud.dll
 0002:00000308       __imp_??0CDuiString@DuiLib@@QAE@XZ 0044c308     DuiLib_ud:DuiLib_ud.dll
 0002:0000030c       __imp_??0CWindowWnd@DuiLib@@QAE@XZ 0044c30c     DuiLib_ud:DuiLib_ud.dll
 0002:00000310       __imp_?GetClassStyle@CWindowWnd@DuiLib@@MBEIXZ 0044c310     DuiLib_ud:DuiLib_ud.dll
 0002:00000314       __imp_?Create@CWindowWnd@DuiLib@@QAEPAUHWND__@@PAU3@PB_WKKUtagRECT@@PAUHMENU__@@@Z 0044c314     DuiLib_ud:DuiLib_ud.dll
 0002:00000318       __imp_??0CDuiRect@DuiLib@@QAE@XZ 0044c318     DuiLib_ud:DuiLib_ud.dll
 0002:0000031c       __imp_?GetPaintWindow@CPaintManagerUI@DuiLib@@QBEPAUHWND__@@XZ 0044c31c     DuiLib_ud:DuiLib_ud.dll
 0002:00000320       __imp_??4CDuiString@DuiLib@@QAEABV01@PB_W@Z 0044c320     DuiLib_ud:DuiLib_ud.dll
 0002:00000324       __imp_?Invalidate@CListContainerElementUI@DuiLib@@QAEXXZ 0044c324     DuiLib_ud:DuiLib_ud.dll
 0002:00000328       __imp_?MessageHandler@CPaintManagerUI@DuiLib@@QAE_NIIJAAJ@Z 0044c328     DuiLib_ud:DuiLib_ud.dll
 0002:0000032c       __imp_??1CDialogBuilder@DuiLib@@QAE@XZ 0044c32c     DuiLib_ud:DuiLib_ud.dll
 0002:00000330       __imp_?GetHeight@CDuiRect@DuiLib@@QBEHXZ 0044c330     DuiLib_ud:DuiLib_ud.dll
 0002:00000334       __imp_?GetWidth@CDuiRect@DuiLib@@QBEHXZ 0044c334     DuiLib_ud:DuiLib_ud.dll
 0002:00000338       __imp_?GetInitSize@CPaintManagerUI@DuiLib@@QAE?AUtagSIZE@@XZ 0044c338     DuiLib_ud:DuiLib_ud.dll
 0002:0000033c       __imp_?SetInitSize@CPaintManagerUI@DuiLib@@QAEXHH@Z 0044c33c     DuiLib_ud:DuiLib_ud.dll
 0002:00000340       __imp_?Create@CDialogBuilder@DuiLib@@QAEPAVCControlUI@2@VSTRINGorID@2@PB_WPAVIDialogBuilderCallback@2@PAVCPaintManagerUI@2@PAV32@@Z 0044c340     DuiLib_ud:DuiLib_ud.dll
 0002:00000344       __imp_?GetData@CDuiString@DuiLib@@QBEPB_WXZ 0044c344     DuiLib_ud:DuiLib_ud.dll
 0002:00000348       __imp_??0CDialogBuilder@DuiLib@@QAE@XZ 0044c348     DuiLib_ud:DuiLib_ud.dll
 0002:0000034c       __imp_?GetHWND@CWindowWnd@DuiLib@@QBEPAUHWND__@@XZ 0044c34c     DuiLib_ud:DuiLib_ud.dll
 0002:00000350       __imp_??0CDuiRect@DuiLib@@QAE@ABUtagRECT@@@Z 0044c350     DuiLib_ud:DuiLib_ud.dll
 0002:00000354       __imp_?AttachDialog@CPaintManagerUI@DuiLib@@QAE_NPAVCControlUI@2@@Z 0044c354     DuiLib_ud:DuiLib_ud.dll
 0002:00000358       __imp_?SetBorderSize@CControlUI@DuiLib@@QAEXH@Z 0044c358     DuiLib_ud:DuiLib_ud.dll
 0002:0000035c       __imp_?SetBorderColor@CControlUI@DuiLib@@QAEXK@Z 0044c35c     DuiLib_ud:DuiLib_ud.dll
 0002:00000360       __imp_?SetBkColor@CControlUI@DuiLib@@QAEXK@Z 0044c360     DuiLib_ud:DuiLib_ud.dll
 0002:00000364       __imp_?ApplyAttributeList@CControlUI@DuiLib@@QAEPAV12@PB_W@Z 0044c364     DuiLib_ud:DuiLib_ud.dll
 0002:00000368       __imp_?GetDefaultAttributeList@CPaintManagerUI@DuiLib@@QBEPB_WPB_W@Z 0044c368     DuiLib_ud:DuiLib_ud.dll
 0002:0000036c       __imp_?UseParentResource@CPaintManagerUI@DuiLib@@QAE_NPAV12@@Z 0044c36c     DuiLib_ud:DuiLib_ud.dll
 0002:00000370       __imp_?Init@CPaintManagerUI@DuiLib@@QAEXPAUHWND__@@@Z 0044c370     DuiLib_ud:DuiLib_ud.dll
 0002:00000374       __imp_??BCWindowWnd@DuiLib@@QBEPAUHWND__@@XZ 0044c374     DuiLib_ud:DuiLib_ud.dll
 0002:00000378       __imp_??1CListContainerElementUI@DuiLib@@UAE@XZ 0044c378     DuiLib_ud:DuiLib_ud.dll
 0002:0000037c       __imp_??0CListContainerElementUI@DuiLib@@QAE@XZ 0044c37c     DuiLib_ud:DuiLib_ud.dll
 0002:00000380       __imp_?GetControlFlags@CListContainerElementUI@DuiLib@@UBEIXZ 0044c380     DuiLib_ud:DuiLib_ud.dll
 0002:00000384       __imp_?SetPos@CContainerUI@DuiLib@@UAEXUtagRECT@@@Z 0044c384     DuiLib_ud:DuiLib_ud.dll
 0002:00000388       __imp_?SetVisible@CListContainerElementUI@DuiLib@@UAEX_N@Z 0044c388     DuiLib_ud:DuiLib_ud.dll
 0002:0000038c       __imp_?SetEnabled@CListContainerElementUI@DuiLib@@UAEX_N@Z 0044c38c     DuiLib_ud:DuiLib_ud.dll
 0002:00000390       __imp_?SetAttribute@CListContainerElementUI@DuiLib@@UAEXPB_W0@Z 0044c390     DuiLib_ud:DuiLib_ud.dll
 0002:00000394       __imp_?DoPostPaint@CControlUI@DuiLib@@UAEXPAUHDC__@@ABUtagRECT@@@Z 0044c394     DuiLib_ud:DuiLib_ud.dll
 0002:00000398       __imp_?GetChildPadding@CContainerUI@DuiLib@@UBEHXZ 0044c398     DuiLib_ud:DuiLib_ud.dll
 0002:0000039c       __imp_?SetChildPadding@CContainerUI@DuiLib@@UAEXH@Z 0044c39c     DuiLib_ud:DuiLib_ud.dll
 0002:000003a0       __imp_?GetScrollPos@CContainerUI@DuiLib@@UBE?AUtagSIZE@@XZ 0044c3a0     DuiLib_ud:DuiLib_ud.dll
 0002:000003a4       __imp_?GetScrollRange@CContainerUI@DuiLib@@UBE?AUtagSIZE@@XZ 0044c3a4     DuiLib_ud:DuiLib_ud.dll
 0002:000003a8       __imp_?SetScrollPos@CContainerUI@DuiLib@@UAEXUtagSIZE@@@Z 0044c3a8     DuiLib_ud:DuiLib_ud.dll
 0002:000003ac       __imp_?LineUp@CContainerUI@DuiLib@@UAEXXZ 0044c3ac     DuiLib_ud:DuiLib_ud.dll
 0002:000003b0       __imp_?LineDown@CContainerUI@DuiLib@@UAEXXZ 0044c3b0     DuiLib_ud:DuiLib_ud.dll
 0002:000003b4       __imp_?PageUp@CContainerUI@DuiLib@@UAEXXZ 0044c3b4     DuiLib_ud:DuiLib_ud.dll
 0002:000003b8       __imp_?PageDown@CContainerUI@DuiLib@@UAEXXZ 0044c3b8     DuiLib_ud:DuiLib_ud.dll
 0002:000003bc       __imp_?HomeUp@CContainerUI@DuiLib@@UAEXXZ 0044c3bc     DuiLib_ud:DuiLib_ud.dll
 0002:000003c0       __imp_?EndDown@CContainerUI@DuiLib@@UAEXXZ 0044c3c0     DuiLib_ud:DuiLib_ud.dll
 0002:000003c4       __imp_?LineLeft@CContainerUI@DuiLib@@UAEXXZ 0044c3c4     DuiLib_ud:DuiLib_ud.dll
 0002:000003c8       __imp_?LineRight@CContainerUI@DuiLib@@UAEXXZ 0044c3c8     DuiLib_ud:DuiLib_ud.dll
 0002:000003cc       __imp_?PageLeft@CContainerUI@DuiLib@@UAEXXZ 0044c3cc     DuiLib_ud:DuiLib_ud.dll
 0002:000003d0       __imp_?PageRight@CContainerUI@DuiLib@@UAEXXZ 0044c3d0     DuiLib_ud:DuiLib_ud.dll
 0002:000003d4       __imp_?HomeLeft@CContainerUI@DuiLib@@UAEXXZ 0044c3d4     DuiLib_ud:DuiLib_ud.dll
 0002:000003d8       __imp_?EndRight@CContainerUI@DuiLib@@UAEXXZ 0044c3d8     DuiLib_ud:DuiLib_ud.dll
 0002:000003dc       __imp_?EnableScrollBar@CContainerUI@DuiLib@@UAEX_N0@Z 0044c3dc     DuiLib_ud:DuiLib_ud.dll
 0002:000003e0       __imp_?GetVerticalScrollBar@CContainerUI@DuiLib@@UBEPAVCScrollBarUI@2@XZ 0044c3e0     DuiLib_ud:DuiLib_ud.dll
 0002:000003e4       __imp_?GetHorizontalScrollBar@CContainerUI@DuiLib@@UBEPAVCScrollBarUI@2@XZ 0044c3e4     DuiLib_ud:DuiLib_ud.dll
 0002:000003e8       __imp_?GetItemAt@CContainerUI@DuiLib@@UBEPAVCControlUI@2@H@Z 0044c3e8     DuiLib_ud:DuiLib_ud.dll
 0002:000003ec       __imp_?GetItemIndex@CContainerUI@DuiLib@@UBEHPAVCControlUI@2@@Z 0044c3ec     DuiLib_ud:DuiLib_ud.dll
 0002:000003f0       \177DuiLib_ud_NULL_THUNK_DATA 0044c3f0     DuiLib_ud:DuiLib_ud.dll
 0002:000003f4       __imp__GetEnvironmentStringsW@0 0044c3f4     kernel32:KERNEL32.dll
 0002:000003f8       __imp__HeapCreate@12       0044c3f8     kernel32:KERNEL32.dll
 0002:000003fc       __imp__HeapDestroy@4       0044c3fc     kernel32:KERNEL32.dll
 0002:00000400       __imp__HeapFree@12         0044c400     kernel32:KERNEL32.dll
 0002:00000404       __imp__HeapAlloc@12        0044c404     kernel32:KERNEL32.dll
 0002:00000408       __imp__GetProcessHeap@0    0044c408     kernel32:KERNEL32.dll
 0002:0000040c       __imp__VirtualQuery@12     0044c40c     kernel32:KERNEL32.dll
 0002:00000410       __imp__FreeLibrary@4       0044c410     kernel32:KERNEL32.dll
 0002:00000414       __imp__HeapReAlloc@16      0044c414     kernel32:KERNEL32.dll
 0002:00000418       __imp__HeapSize@12         0044c418     kernel32:KERNEL32.dll
 0002:0000041c       __imp__HeapQueryInformation@20 0044c41c     kernel32:KERNEL32.dll
 0002:00000420       __imp__SetStdHandle@8      0044c420     kernel32:KERNEL32.dll
 0002:00000424       __imp__CreateFileW@28      0044c424     kernel32:KERNEL32.dll
 0002:00000428       __imp__LCMapStringW@24     0044c428     kernel32:KERNEL32.dll
 0002:0000042c       __imp__GetStringTypeW@16   0044c42c     kernel32:KERNEL32.dll
 0002:00000430       __imp__GetLocaleInfoA@16   0044c430     kernel32:KERNEL32.dll
 0002:00000434       __imp__IsValidLocale@8     0044c434     kernel32:KERNEL32.dll
 0002:00000438       __imp__EnumSystemLocalesA@8 0044c438     kernel32:KERNEL32.dll
 0002:0000043c       __imp__GetUserDefaultLCID@0 0044c43c     kernel32:KERNEL32.dll
 0002:00000440       __imp__SetEndOfFile@4      0044c440     kernel32:KERNEL32.dll
 0002:00000444       __imp__GetLocalTime@4      0044c444     kernel32:KERNEL32.dll
 0002:00000448       __imp__GetTickCount@0      0044c448     kernel32:KERNEL32.dll
 0002:0000044c       __imp__OutputDebugStringW@4 0044c44c     kernel32:KERNEL32.dll
 0002:00000450       __imp__LeaveCriticalSection@4 0044c450     kernel32:KERNEL32.dll
 0002:00000454       __imp__EnterCriticalSection@4 0044c454     kernel32:KERNEL32.dll
 0002:00000458       __imp__DeleteCriticalSection@4 0044c458     kernel32:KERNEL32.dll
 0002:0000045c       __imp__GetVersionExW@4     0044c45c     kernel32:KERNEL32.dll
 0002:00000460       __imp__InitializeCriticalSection@4 0044c460     kernel32:KERNEL32.dll
 0002:00000464       __imp__InterlockedIncrement@4 0044c464     kernel32:KERNEL32.dll
 0002:00000468       __imp__InterlockedDecrement@4 0044c468     kernel32:KERNEL32.dll
 0002:0000046c       __imp__Sleep@4             0044c46c     kernel32:KERNEL32.dll
 0002:00000470       __imp__InterlockedExchange@8 0044c470     kernel32:KERNEL32.dll
 0002:00000474       __imp__RtlUnwind@16        0044c474     kernel32:KERNEL32.dll
 0002:00000478       __imp__EncodePointer@4     0044c478     kernel32:KERNEL32.dll
 0002:0000047c       __imp__DecodePointer@4     0044c47c     kernel32:KERNEL32.dll
 0002:00000480       __imp__GetModuleFileNameW@12 0044c480     kernel32:KERNEL32.dll
 0002:00000484       __imp__TerminateProcess@8  0044c484     kernel32:KERNEL32.dll
 0002:00000488       __imp__GetCurrentProcess@0 0044c488     kernel32:KERNEL32.dll
 0002:0000048c       __imp__UnhandledExceptionFilter@4 0044c48c     kernel32:KERNEL32.dll
 0002:00000490       __imp__SetUnhandledExceptionFilter@4 0044c490     kernel32:KERNEL32.dll
 0002:00000494       __imp__IsDebuggerPresent@0 0044c494     kernel32:KERNEL32.dll
 0002:00000498       __imp__RaiseException@16   0044c498     kernel32:KERNEL32.dll
 0002:0000049c       __imp__GetCommandLineA@0   0044c49c     kernel32:KERNEL32.dll
 0002:000004a0       __imp__HeapSetInformation@16 0044c4a0     kernel32:KERNEL32.dll
 0002:000004a4       __imp__GetStartupInfoW@4   0044c4a4     kernel32:KERNEL32.dll
 0002:000004a8       __imp__WideCharToMultiByte@32 0044c4a8     kernel32:KERNEL32.dll
 0002:000004ac       __imp__MultiByteToWideChar@24 0044c4ac     kernel32:KERNEL32.dll
 0002:000004b0       __imp__lstrlenA@4          0044c4b0     kernel32:KERNEL32.dll
 0002:000004b4       __imp__GetProcAddress@8    0044c4b4     kernel32:KERNEL32.dll
 0002:000004b8       __imp__LoadLibraryW@4      0044c4b8     kernel32:KERNEL32.dll
 0002:000004bc       __imp__IsProcessorFeaturePresent@4 0044c4bc     kernel32:KERNEL32.dll
 0002:000004c0       __imp__HeapValidate@12     0044c4c0     kernel32:KERNEL32.dll
 0002:000004c4       __imp__IsBadReadPtr@8      0044c4c4     kernel32:KERNEL32.dll
 0002:000004c8       __imp__GetLastError@0      0044c4c8     kernel32:KERNEL32.dll
 0002:000004cc       __imp__FlushFileBuffers@4  0044c4cc     kernel32:KERNEL32.dll
 0002:000004d0       __imp__WriteFile@20        0044c4d0     kernel32:KERNEL32.dll
 0002:000004d4       __imp__GetConsoleCP@0      0044c4d4     kernel32:KERNEL32.dll
 0002:000004d8       __imp__GetConsoleMode@8    0044c4d8     kernel32:KERNEL32.dll
 0002:000004dc       __imp__InitializeCriticalSectionAndSpinCount@8 0044c4dc     kernel32:KERNEL32.dll
 0002:000004e0       __imp__FatalAppExitA@8     0044c4e0     kernel32:KERNEL32.dll
 0002:000004e4       __imp__CloseHandle@4       0044c4e4     kernel32:KERNEL32.dll
 0002:000004e8       __imp__SetHandleCount@4    0044c4e8     kernel32:KERNEL32.dll
 0002:000004ec       __imp__GetStdHandle@4      0044c4ec     kernel32:KERNEL32.dll
 0002:000004f0       __imp__GetFileType@4       0044c4f0     kernel32:KERNEL32.dll
 0002:000004f4       __imp__SetFilePointer@16   0044c4f4     kernel32:KERNEL32.dll
 0002:000004f8       __imp__TlsAlloc@0          0044c4f8     kernel32:KERNEL32.dll
 0002:000004fc       __imp__TlsGetValue@4       0044c4fc     kernel32:KERNEL32.dll
 0002:00000500       __imp__TlsSetValue@8       0044c500     kernel32:KERNEL32.dll
 0002:00000504       __imp__GetCurrentThreadId@0 0044c504     kernel32:KERNEL32.dll
 0002:00000508       __imp__TlsFree@4           0044c508     kernel32:KERNEL32.dll
 0002:0000050c       __imp__GetModuleHandleW@4  0044c50c     kernel32:KERNEL32.dll
 0002:00000510       __imp__SetLastError@4      0044c510     kernel32:KERNEL32.dll
 0002:00000514       __imp__GetCurrentThread@0  0044c514     kernel32:KERNEL32.dll
 0002:00000518       __imp__ExitProcess@4       0044c518     kernel32:KERNEL32.dll
 0002:0000051c       __imp__GetACP@0            0044c51c     kernel32:KERNEL32.dll
 0002:00000520       __imp__GetOEMCP@0          0044c520     kernel32:KERNEL32.dll
 0002:00000524       __imp__GetCPInfo@8         0044c524     kernel32:KERNEL32.dll
 0002:00000528       __imp__IsValidCodePage@4   0044c528     kernel32:KERNEL32.dll
 0002:0000052c       __imp__GetLocaleInfoW@16   0044c52c     kernel32:KERNEL32.dll
 0002:00000530       __imp__OutputDebugStringA@4 0044c530     kernel32:KERNEL32.dll
 0002:00000534       __imp__WriteConsoleW@20    0044c534     kernel32:KERNEL32.dll
 0002:00000538       __imp__SetConsoleCtrlHandler@8 0044c538     kernel32:KERNEL32.dll
 0002:0000053c       __imp__QueryPerformanceCounter@4 0044c53c     kernel32:KERNEL32.dll
 0002:00000540       __imp__GetCurrentProcessId@0 0044c540     kernel32:KERNEL32.dll
 0002:00000544       __imp__GetSystemTimeAsFileTime@4 0044c544     kernel32:KERNEL32.dll
 0002:00000548       __imp__GetModuleFileNameA@12 0044c548     kernel32:KERNEL32.dll
 0002:0000054c       __imp__FreeEnvironmentStringsW@4 0044c54c     kernel32:KERNEL32.dll
 0002:00000550       __imp__ReadFile@20         0044c550     kernel32:KERNEL32.dll
 0002:00000554       \177KERNEL32_NULL_THUNK_DATA 0044c554     kernel32:KERNEL32.dll
 0002:00000558       __imp__PostQuitMessage@4   0044c558     user32:USER32.dll
 0002:0000055c       __imp__IntersectRect@12    0044c55c     user32:USER32.dll
 0002:00000560       __imp__GetWindowLongW@8    0044c560     user32:USER32.dll
 0002:00000564       __imp__SetWindowLongW@12   0044c564     user32:USER32.dll
 0002:00000568       __imp__GetClientRect@8     0044c568     user32:USER32.dll
 0002:0000056c       __imp__SetWindowPos@28     0044c56c     user32:USER32.dll
 0002:00000570       __imp__MonitorFromWindow@8 0044c570     user32:USER32.dll
 0002:00000574       __imp__GetMonitorInfoW@8   0044c574     user32:USER32.dll
 0002:00000578       __imp__GetWindowRect@8     0044c578     user32:USER32.dll
 0002:0000057c       __imp__MapWindowPoints@16  0044c57c     user32:USER32.dll
 0002:00000580       __imp__MoveWindow@24       0044c580     user32:USER32.dll
 0002:00000584       __imp__SetForegroundWindow@4 0044c584     user32:USER32.dll
 0002:00000588       __imp__ShowWindow@8        0044c588     user32:USER32.dll
 0002:0000058c       __imp__SendMessageW@16     0044c58c     user32:USER32.dll
 0002:00000590       __imp__GetParent@4         0044c590     user32:USER32.dll
 0002:00000594       __imp__ClientToScreen@8    0044c594     user32:USER32.dll
 0002:00000598       __imp__IsZoomed@4          0044c598     user32:USER32.dll
 0002:0000059c       \177USER32_NULL_THUNK_DATA 0044c59c     user32:USER32.dll
 0002:000005a0       __imp__CoInitialize@4      0044c5a0     ole32:ole32.dll
 0002:000005a4       \177ole32_NULL_THUNK_DATA  0044c5a4     ole32:ole32.dll
 0002:000005a8       ___xc_a                    0044c5a8     LIBCMTD:crt0init.obj
 0002:000005b8       ___xc_z                    0044c5b8     LIBCMTD:crt0init.obj
 0002:000005bc       ___xi_a                    0044c5bc     LIBCMTD:crt0init.obj
 0002:000005d4       ___xi_z                    0044c5d4     LIBCMTD:crt0init.obj
 0002:000005d8       ___xp_a                    0044c5d8     LIBCMTD:crt0init.obj
 0002:000005e8       ___xp_z                    0044c5e8     LIBCMTD:crt0init.obj
 0002:000005ec       ___xt_a                    0044c5ec     LIBCMTD:crt0init.obj
 0002:000005f0       ___xt_z                    0044c5f0     LIBCMTD:crt0init.obj
 0002:0000061c       ?has_denorm@_Num_base@std@@2W4float_denorm_style@2@B 0044c61c     debug.obj
 0002:00000620       ?has_denorm_loss@_Num_base@std@@2_NB 0044c620     debug.obj
 0002:00000621       ?has_infinity@_Num_base@std@@2_NB 0044c621     debug.obj
 0002:00000622       ?has_quiet_NaN@_Num_base@std@@2_NB 0044c622     debug.obj
 0002:00000623       ?has_signaling_NaN@_Num_base@std@@2_NB 0044c623     debug.obj
 0002:00000624       ?is_bounded@_Num_base@std@@2_NB 0044c624     debug.obj
 0002:00000625       ?is_exact@_Num_base@std@@2_NB 0044c625     debug.obj
 0002:00000626       ?is_iec559@_Num_base@std@@2_NB 0044c626     debug.obj
 0002:00000627       ?is_integer@_Num_base@std@@2_NB 0044c627     debug.obj
 0002:00000628       ?is_modulo@_Num_base@std@@2_NB 0044c628     debug.obj
 0002:00000629       ?is_signed@_Num_base@std@@2_NB 0044c629     debug.obj
 0002:0000062a       ?is_specialized@_Num_base@std@@2_NB 0044c62a     debug.obj
 0002:0000062b       ?tinyness_before@_Num_base@std@@2_NB 0044c62b     debug.obj
 0002:0000062c       ?traps@_Num_base@std@@2_NB 0044c62c     debug.obj
 0002:00000630       ?round_style@_Num_base@std@@2W4float_round_style@2@B 0044c630     debug.obj
 0002:00000634       ?digits@_Num_base@std@@2HB 0044c634     debug.obj
 0002:00000638       ?digits10@_Num_base@std@@2HB 0044c638     debug.obj
 0002:0000063c       ?max_digits10@_Num_base@std@@2HB 0044c63c     debug.obj
 0002:00000640       ?max_exponent@_Num_base@std@@2HB 0044c640     debug.obj
 0002:00000644       ?max_exponent10@_Num_base@std@@2HB 0044c644     debug.obj
 0002:00000648       ?min_exponent@_Num_base@std@@2HB 0044c648     debug.obj
 0002:0000064c       ?min_exponent10@_Num_base@std@@2HB 0044c64c     debug.obj
 0002:00000650       ?radix@_Num_base@std@@2HB  0044c650     debug.obj
 0002:00000654       ?is_bounded@_Num_int_base@std@@2_NB 0044c654     debug.obj
 0002:00000655       ?is_exact@_Num_int_base@std@@2_NB 0044c655     debug.obj
 0002:00000656       ?is_integer@_Num_int_base@std@@2_NB 0044c656     debug.obj
 0002:00000657       ?is_modulo@_Num_int_base@std@@2_NB 0044c657     debug.obj
 0002:00000658       ?is_specialized@_Num_int_base@std@@2_NB 0044c658     debug.obj
 0002:0000065c       ?radix@_Num_int_base@std@@2HB 0044c65c     debug.obj
 0002:00000660       ?has_denorm@_Num_float_base@std@@2W4float_denorm_style@2@B 0044c660     debug.obj
 0002:00000664       ?has_denorm_loss@_Num_float_base@std@@2_NB 0044c664     debug.obj
 0002:00000665       ?has_infinity@_Num_float_base@std@@2_NB 0044c665     debug.obj
 0002:00000666       ?has_quiet_NaN@_Num_float_base@std@@2_NB 0044c666     debug.obj
 0002:00000667       ?has_signaling_NaN@_Num_float_base@std@@2_NB 0044c667     debug.obj
 0002:00000668       ?is_bounded@_Num_float_base@std@@2_NB 0044c668     debug.obj
 0002:00000669       ?is_exact@_Num_float_base@std@@2_NB 0044c669     debug.obj
 0002:0000066a       ?is_iec559@_Num_float_base@std@@2_NB 0044c66a     debug.obj
 0002:0000066b       ?is_integer@_Num_float_base@std@@2_NB 0044c66b     debug.obj
 0002:0000066c       ?is_modulo@_Num_float_base@std@@2_NB 0044c66c     debug.obj
 0002:0000066d       ?is_signed@_Num_float_base@std@@2_NB 0044c66d     debug.obj
 0002:0000066e       ?is_specialized@_Num_float_base@std@@2_NB 0044c66e     debug.obj
 0002:0000066f       ?tinyness_before@_Num_float_base@std@@2_NB 0044c66f     debug.obj
 0002:00000670       ?traps@_Num_float_base@std@@2_NB 0044c670     debug.obj
 0002:00000674       ?round_style@_Num_float_base@std@@2W4float_round_style@2@B 0044c674     debug.obj
 0002:00000678       ?radix@_Num_float_base@std@@2HB 0044c678     debug.obj
 0002:0000067c       ?is_signed@?$numeric_limits@D@std@@2_NB 0044c67c     debug.obj
 0002:00000680       ?digits@?$numeric_limits@D@std@@2HB 0044c680     debug.obj
 0002:00000684       ?digits10@?$numeric_limits@D@std@@2HB 0044c684     debug.obj
 0002:00000688       ?max_digits10@?$numeric_limits@D@std@@2HB 0044c688     debug.obj
 0002:0000068c       ?is_signed@?$numeric_limits@_W@std@@2_NB 0044c68c     debug.obj
 0002:00000690       ?digits@?$numeric_limits@_W@std@@2HB 0044c690     debug.obj
 0002:00000694       ?digits10@?$numeric_limits@_W@std@@2HB 0044c694     debug.obj
 0002:00000698       ?max_digits10@?$numeric_limits@_W@std@@2HB 0044c698     debug.obj
 0002:0000069c       ?is_modulo@?$numeric_limits@_N@std@@2_NB 0044c69c     debug.obj
 0002:0000069d       ?is_signed@?$numeric_limits@_N@std@@2_NB 0044c69d     debug.obj
 0002:000006a0       ?digits@?$numeric_limits@_N@std@@2HB 0044c6a0     debug.obj
 0002:000006a4       ?digits10@?$numeric_limits@_N@std@@2HB 0044c6a4     debug.obj
 0002:000006a8       ?max_digits10@?$numeric_limits@_N@std@@2HB 0044c6a8     debug.obj
 0002:000006ac       ?is_signed@?$numeric_limits@C@std@@2_NB 0044c6ac     debug.obj
 0002:000006b0       ?digits@?$numeric_limits@C@std@@2HB 0044c6b0     debug.obj
 0002:000006b4       ?digits10@?$numeric_limits@C@std@@2HB 0044c6b4     debug.obj
 0002:000006b8       ?max_digits10@?$numeric_limits@C@std@@2HB 0044c6b8     debug.obj
 0002:000006bc       ?is_signed@?$numeric_limits@E@std@@2_NB 0044c6bc     debug.obj
 0002:000006c0       ?digits@?$numeric_limits@E@std@@2HB 0044c6c0     debug.obj
 0002:000006c4       ?digits10@?$numeric_limits@E@std@@2HB 0044c6c4     debug.obj
 0002:000006c8       ?max_digits10@?$numeric_limits@E@std@@2HB 0044c6c8     debug.obj
 0002:000006cc       ?is_signed@?$numeric_limits@F@std@@2_NB 0044c6cc     debug.obj
 0002:000006d0       ?digits@?$numeric_limits@F@std@@2HB 0044c6d0     debug.obj
 0002:000006d4       ?digits10@?$numeric_limits@F@std@@2HB 0044c6d4     debug.obj
 0002:000006d8       ?max_digits10@?$numeric_limits@F@std@@2HB 0044c6d8     debug.obj
 0002:000006dc       ?is_signed@?$numeric_limits@G@std@@2_NB 0044c6dc     debug.obj
 0002:000006e0       ?digits@?$numeric_limits@G@std@@2HB 0044c6e0     debug.obj
 0002:000006e4       ?digits10@?$numeric_limits@G@std@@2HB 0044c6e4     debug.obj
 0002:000006e8       ?max_digits10@?$numeric_limits@G@std@@2HB 0044c6e8     debug.obj
 0002:000006ec       ?is_signed@?$numeric_limits@H@std@@2_NB 0044c6ec     debug.obj
 0002:000006f0       ?digits@?$numeric_limits@H@std@@2HB 0044c6f0     debug.obj
 0002:000006f4       ?digits10@?$numeric_limits@H@std@@2HB 0044c6f4     debug.obj
 0002:000006f8       ?max_digits10@?$numeric_limits@H@std@@2HB 0044c6f8     debug.obj
 0002:000006fc       ?is_signed@?$numeric_limits@I@std@@2_NB 0044c6fc     debug.obj
 0002:00000700       ?digits@?$numeric_limits@I@std@@2HB 0044c700     debug.obj
 0002:00000704       ?digits10@?$numeric_limits@I@std@@2HB 0044c704     debug.obj
 0002:00000708       ?max_digits10@?$numeric_limits@I@std@@2HB 0044c708     debug.obj
 0002:0000070c       ?is_signed@?$numeric_limits@J@std@@2_NB 0044c70c     debug.obj
 0002:00000710       ?digits@?$numeric_limits@J@std@@2HB 0044c710     debug.obj
 0002:00000714       ?digits10@?$numeric_limits@J@std@@2HB 0044c714     debug.obj
 0002:00000718       ?max_digits10@?$numeric_limits@J@std@@2HB 0044c718     debug.obj
 0002:0000071c       ?is_signed@?$numeric_limits@K@std@@2_NB 0044c71c     debug.obj
 0002:00000720       ?digits@?$numeric_limits@K@std@@2HB 0044c720     debug.obj
 0002:00000724       ?digits10@?$numeric_limits@K@std@@2HB 0044c724     debug.obj
 0002:00000728       ?max_digits10@?$numeric_limits@K@std@@2HB 0044c728     debug.obj
 0002:0000072c       ?is_signed@?$numeric_limits@_J@std@@2_NB 0044c72c     debug.obj
 0002:00000730       ?digits@?$numeric_limits@_J@std@@2HB 0044c730     debug.obj
 0002:00000734       ?digits10@?$numeric_limits@_J@std@@2HB 0044c734     debug.obj
 0002:00000738       ?max_digits10@?$numeric_limits@_J@std@@2HB 0044c738     debug.obj
 0002:0000073c       ?is_signed@?$numeric_limits@_K@std@@2_NB 0044c73c     debug.obj
 0002:00000740       ?digits@?$numeric_limits@_K@std@@2HB 0044c740     debug.obj
 0002:00000744       ?digits10@?$numeric_limits@_K@std@@2HB 0044c744     debug.obj
 0002:00000748       ?max_digits10@?$numeric_limits@_K@std@@2HB 0044c748     debug.obj
 0002:0000074c       ?digits@?$numeric_limits@M@std@@2HB 0044c74c     debug.obj
 0002:00000750       ?digits10@?$numeric_limits@M@std@@2HB 0044c750     debug.obj
 0002:00000754       ?max_digits10@?$numeric_limits@M@std@@2HB 0044c754     debug.obj
 0002:00000758       ?max_exponent@?$numeric_limits@M@std@@2HB 0044c758     debug.obj
 0002:0000075c       ?max_exponent10@?$numeric_limits@M@std@@2HB 0044c75c     debug.obj
 0002:00000760       ?min_exponent@?$numeric_limits@M@std@@2HB 0044c760     debug.obj
 0002:00000764       ?min_exponent10@?$numeric_limits@M@std@@2HB 0044c764     debug.obj
 0002:00000768       ?digits@?$numeric_limits@N@std@@2HB 0044c768     debug.obj
 0002:0000076c       ?digits10@?$numeric_limits@N@std@@2HB 0044c76c     debug.obj
 0002:00000770       ?max_digits10@?$numeric_limits@N@std@@2HB 0044c770     debug.obj
 0002:00000774       ?max_exponent@?$numeric_limits@N@std@@2HB 0044c774     debug.obj
 0002:00000778       ?max_exponent10@?$numeric_limits@N@std@@2HB 0044c778     debug.obj
 0002:0000077c       ?min_exponent@?$numeric_limits@N@std@@2HB 0044c77c     debug.obj
 0002:00000780       ?min_exponent10@?$numeric_limits@N@std@@2HB 0044c780     debug.obj
 0002:00000784       ?digits@?$numeric_limits@O@std@@2HB 0044c784     debug.obj
 0002:00000788       ?digits10@?$numeric_limits@O@std@@2HB 0044c788     debug.obj
 0002:0000078c       ?max_digits10@?$numeric_limits@O@std@@2HB 0044c78c     debug.obj
 0002:00000790       ?max_exponent@?$numeric_limits@O@std@@2HB 0044c790     debug.obj
 0002:00000794       ?max_exponent10@?$numeric_limits@O@std@@2HB 0044c794     debug.obj
 0002:00000798       ?min_exponent@?$numeric_limits@O@std@@2HB 0044c798     debug.obj
 0002:0000079c       ?min_exponent10@?$numeric_limits@O@std@@2HB 0044c79c     debug.obj
 0002:000007a0       ?value@?$integral_constant@_N$0A@@tr1@std@@2_NB 0044c7a0     debug.obj
 0002:000007a1       ?value@?$integral_constant@_N$00@tr1@std@@2_NB 0044c7a1     debug.obj
 0002:000007a4       ?value@?$integral_constant@I$0A@@tr1@std@@2IB 0044c7a4     debug.obj
 0002:000007a8       ?_Rank@?$_Arithmetic_traits@_N@std@@2HB 0044c7a8     debug.obj
 0002:000007ac       ?_Rank@?$_Arithmetic_traits@D@std@@2HB 0044c7ac     debug.obj
 0002:000007b0       ?_Rank@?$_Arithmetic_traits@C@std@@2HB 0044c7b0     debug.obj
 0002:000007b4       ?_Rank@?$_Arithmetic_traits@E@std@@2HB 0044c7b4     debug.obj
 0002:000007b8       ?_Rank@?$_Arithmetic_traits@F@std@@2HB 0044c7b8     debug.obj
 0002:000007bc       ?_Rank@?$_Arithmetic_traits@G@std@@2HB 0044c7bc     debug.obj
 0002:000007c0       ?_Rank@?$_Arithmetic_traits@H@std@@2HB 0044c7c0     debug.obj
 0002:000007c4       ?_Rank@?$_Arithmetic_traits@I@std@@2HB 0044c7c4     debug.obj
 0002:000007c8       ?_Rank@?$_Arithmetic_traits@J@std@@2HB 0044c7c8     debug.obj
 0002:000007cc       ?_Rank@?$_Arithmetic_traits@K@std@@2HB 0044c7cc     debug.obj
 0002:000007d0       ?_Rank@?$_Arithmetic_traits@_J@std@@2HB 0044c7d0     debug.obj
 0002:000007d4       ?_Rank@?$_Arithmetic_traits@_K@std@@2HB 0044c7d4     debug.obj
 0002:000007d8       ?_Rank@?$_Arithmetic_traits@M@std@@2HB 0044c7d8     debug.obj
 0002:000007dc       ?_Rank@?$_Arithmetic_traits@N@std@@2HB 0044c7dc     debug.obj
 0002:000007e0       ?_Rank@?$_Arithmetic_traits@O@std@@2HB 0044c7e0     debug.obj
 0002:000007e4       ?collate@?$_Locbase@H@std@@2HB 0044c7e4     debug.obj
 0002:000007e8       ?ctype@?$_Locbase@H@std@@2HB 0044c7e8     debug.obj
 0002:000007ec       ?monetary@?$_Locbase@H@std@@2HB 0044c7ec     debug.obj
 0002:000007f0       ?numeric@?$_Locbase@H@std@@2HB 0044c7f0     debug.obj
 0002:000007f4       ?time@?$_Locbase@H@std@@2HB 0044c7f4     debug.obj
 0002:000007f8       ?messages@?$_Locbase@H@std@@2HB 0044c7f8     debug.obj
 0002:000007fc       ?all@?$_Locbase@H@std@@2HB 0044c7fc     debug.obj
 0002:00000800       ?none@?$_Locbase@H@std@@2HB 0044c800     debug.obj
 0002:00000804       ?table_size@?$ctype@D@std@@2IB 0044c804     debug.obj
 0002:00000808       ?skipws@?$_Iosb@H@std@@2W4_Fmtflags@12@B 0044c808     debug.obj
 0002:0000080c       ?unitbuf@?$_Iosb@H@std@@2W4_Fmtflags@12@B 0044c80c     debug.obj
 0002:00000810       ?uppercase@?$_Iosb@H@std@@2W4_Fmtflags@12@B 0044c810     debug.obj
 0002:00000814       ?showbase@?$_Iosb@H@std@@2W4_Fmtflags@12@B 0044c814     debug.obj
 0002:00000818       ?showpoint@?$_Iosb@H@std@@2W4_Fmtflags@12@B 0044c818     debug.obj
 0002:0000081c       ?showpos@?$_Iosb@H@std@@2W4_Fmtflags@12@B 0044c81c     debug.obj
 0002:00000820       ?left@?$_Iosb@H@std@@2W4_Fmtflags@12@B 0044c820     debug.obj
 0002:00000824       ?right@?$_Iosb@H@std@@2W4_Fmtflags@12@B 0044c824     debug.obj
 0002:00000828       ?internal@?$_Iosb@H@std@@2W4_Fmtflags@12@B 0044c828     debug.obj
 0002:0000082c       ?dec@?$_Iosb@H@std@@2W4_Fmtflags@12@B 0044c82c     debug.obj
 0002:00000830       ?oct@?$_Iosb@H@std@@2W4_Fmtflags@12@B 0044c830     debug.obj
 0002:00000834       ?hex@?$_Iosb@H@std@@2W4_Fmtflags@12@B 0044c834     debug.obj
 0002:00000838       ?scientific@?$_Iosb@H@std@@2W4_Fmtflags@12@B 0044c838     debug.obj
 0002:0000083c       ?fixed@?$_Iosb@H@std@@2W4_Fmtflags@12@B 0044c83c     debug.obj
 0002:00000840       ?hexfloat@?$_Iosb@H@std@@2W4_Fmtflags@12@B 0044c840     debug.obj
 0002:00000844       ?boolalpha@?$_Iosb@H@std@@2W4_Fmtflags@12@B 0044c844     debug.obj
 0002:00000848       ?_Stdio@?$_Iosb@H@std@@2W4_Fmtflags@12@B 0044c848     debug.obj
 0002:0000084c       ?adjustfield@?$_Iosb@H@std@@2W4_Fmtflags@12@B 0044c84c     debug.obj
 0002:00000850       ?basefield@?$_Iosb@H@std@@2W4_Fmtflags@12@B 0044c850     debug.obj
 0002:00000854       ?floatfield@?$_Iosb@H@std@@2W4_Fmtflags@12@B 0044c854     debug.obj
 0002:00000858       ?goodbit@?$_Iosb@H@std@@2W4_Iostate@12@B 0044c858     debug.obj
 0002:0000085c       ?eofbit@?$_Iosb@H@std@@2W4_Iostate@12@B 0044c85c     debug.obj
 0002:00000860       ?failbit@?$_Iosb@H@std@@2W4_Iostate@12@B 0044c860     debug.obj
 0002:00000864       ?badbit@?$_Iosb@H@std@@2W4_Iostate@12@B 0044c864     debug.obj
 0002:00000868       ?_Hardfail@?$_Iosb@H@std@@2W4_Iostate@12@B 0044c868     debug.obj
 0002:0000086c       ?in@?$_Iosb@H@std@@2W4_Openmode@12@B 0044c86c     debug.obj
 0002:00000870       ?out@?$_Iosb@H@std@@2W4_Openmode@12@B 0044c870     debug.obj
 0002:00000874       ?ate@?$_Iosb@H@std@@2W4_Openmode@12@B 0044c874     debug.obj
 0002:00000878       ?app@?$_Iosb@H@std@@2W4_Openmode@12@B 0044c878     debug.obj
 0002:0000087c       ?trunc@?$_Iosb@H@std@@2W4_Openmode@12@B 0044c87c     debug.obj
 0002:00000880       ?_Nocreate@?$_Iosb@H@std@@2W4_Openmode@12@B 0044c880     debug.obj
 0002:00000884       ?_Noreplace@?$_Iosb@H@std@@2W4_Openmode@12@B 0044c884     debug.obj
 0002:00000888       ?binary@?$_Iosb@H@std@@2W4_Openmode@12@B 0044c888     debug.obj
 0002:0000088c       ?beg@?$_Iosb@H@std@@2W4_Seekdir@12@B 0044c88c     debug.obj
 0002:00000890       ?cur@?$_Iosb@H@std@@2W4_Seekdir@12@B 0044c890     debug.obj
 0002:00000894       ?end@?$_Iosb@H@std@@2W4_Seekdir@12@B 0044c894     debug.obj
 0002:000009cc       ??_7MainFrame@@6BIDialogBuilderCallback@DuiLib@@@ 0044c9cc     main_frame.obj
 0002:000009d4       ??_7MainFrame@@6BIMessageFilterUI@DuiLib@@@ 0044c9d4     main_frame.obj
 0002:000009dc       ??_7MainFrame@@6BINotifyUI@DuiLib@@@ 0044c9dc     main_frame.obj
 0002:000009e4       ??_7MainFrame@@6BCNotifyPump@DuiLib@@@ 0044c9e4     main_frame.obj
 0002:000009ec       ??_7MainFrame@@6BCWindowWnd@DuiLib@@@ 0044c9ec     main_frame.obj
 0002:00000a8c       ?kUIActiveXClassName@DuiLib@@3QB_WB 0044ca8c     UICrack.obj
 0002:00000aa0       ?kUIActiveXInterfaceName@DuiLib@@3QB_WB 0044caa0     UICrack.obj
 0002:00000ab4       ?kComboUIClassName@DuiLib@@3QB_WB 0044cab4     UICrack.obj
 0002:00000ac4       ?kComboUIInterfaceName@DuiLib@@3QB_WB 0044cac4     UICrack.obj
 0002:00000ad8       ?kLabelUIClassName@DuiLib@@3QB_WB 0044cad8     UICrack.obj
 0002:00000ae8       ?kLabelUIInterfaceName@DuiLib@@3QB_WB 0044cae8     UICrack.obj
 0002:00000b00       ?kButtonUIClassName@DuiLib@@3QB_WB 0044cb00     UICrack.obj
 0002:00000b14       ?kButtonUIInterfaceName@DuiLib@@3QB_WB 0044cb14     UICrack.obj
 0002:00000b2c       ?kOptionUIClassName@DuiLib@@3QB_WB 0044cb2c     UICrack.obj
 0002:00000b40       ?kOptionUIInterfaceName@DuiLib@@3QB_WB 0044cb40     UICrack.obj
 0002:00000b54       ?kTextUIClassName@DuiLib@@3QB_WB 0044cb54     UICrack.obj
 0002:00000b64       ?kTextUIInterfaceName@DuiLib@@3QB_WB 0044cb64     UICrack.obj
 0002:00000b80       ?kProgressUIClassName@DuiLib@@3QB_WB 0044cb80     UICrack.obj
 0002:00000b98       ?kProgressUIInterfaceName@DuiLib@@3QB_WB 0044cb98     UICrack.obj
 0002:00000bb0       ?kSliderUIClassName@DuiLib@@3QB_WB 0044cbb0     UICrack.obj
 0002:00000bc4       ?kSliderUIInterfaceName@DuiLib@@3QB_WB 0044cbc4     UICrack.obj
 0002:00000bd8       ?kEditUIClassName@DuiLib@@3QB_WB 0044cbd8     UICrack.obj
 0002:00000be8       ?kEditUIInterfaceName@DuiLib@@3QB_WB 0044cbe8     UICrack.obj
 0002:00000bf8       ?kIEditUIInterfaceName@DuiLib@@3QB_WB 0044cbf8     UICrack.obj
 0002:00000c14       ?kScrollBarUIClassName@DuiLib@@3QB_WB 0044cc14     UICrack.obj
 0002:00000c2c       ?kScrollBarUIInterfaceName@DuiLib@@3QB_WB 0044cc2c     UICrack.obj
 0002:00000c48       ?kContainerUIClassName@DuiLib@@3QB_WB 0044cc48     UICrack.obj
 0002:00000c60       ?kContainerUIInterfaceName@DuiLib@@3QB_WB 0044cc60     UICrack.obj
 0002:00000c7c       ?kIContainerUIInterfaceName@DuiLib@@3QB_WB 0044cc7c     UICrack.obj
 0002:00000ca4       ?kVerticalLayoutUIClassName@DuiLib@@3QB_WB 0044cca4     UICrack.obj
 0002:00000cc8       ?kVerticalLayoutUIInterfaceName@DuiLib@@3QB_WB 0044ccc8     UICrack.obj
 0002:00000cf4       ?kHorizontalLayoutUIClassName@DuiLib@@3QB_WB 0044ccf4     UICrack.obj
 0002:00000d1c       ?kHorizontalLayoutUIInterfaceName@DuiLib@@3QB_WB 0044cd1c     UICrack.obj
 0002:00000d3c       ?kTileLayoutUIClassName@DuiLib@@3QB_WB 0044cd3c     UICrack.obj
 0002:00000d58       ?kTileLayoutUIInterfaceName@DuiLib@@3QB_WB 0044cd58     UICrack.obj
 0002:00000d7c       ?kDialogLayoutUIClassName@DuiLib@@3QB_WB 0044cd7c     UICrack.obj
 0002:00000d9c       ?kDialogLayoutUIInterfaceName@DuiLib@@3QB_WB 0044cd9c     UICrack.obj
 0002:00000db8       ?kTabLayoutUIClassName@DuiLib@@3QB_WB 0044cdb8     UICrack.obj
 0002:00000dd0       ?kTabLayoutUIInterfaceName@DuiLib@@3QB_WB 0044cdd0     UICrack.obj
 0002:00000de8       ?kControlUIClassName@DuiLib@@3QB_WB 0044cde8     UICrack.obj
 0002:00000dfc       ?kControlUIInterfaceName@DuiLib@@3QB_WB 0044cdfc     UICrack.obj
 0002:00000e10       ?kListUIClassName@DuiLib@@3QB_WB 0044ce10     UICrack.obj
 0002:00000e20       ?kListUIInterfaceName@DuiLib@@3QB_WB 0044ce20     UICrack.obj
 0002:00000e30       ?kIListUIInterfaceName@DuiLib@@3QB_WB 0044ce30     UICrack.obj
 0002:00000e4c       ?kIListOwnerUIInterfaceName@DuiLib@@3QB_WB 0044ce4c     UICrack.obj
 0002:00000e6c       ?kListHeaderUIClassName@DuiLib@@3QB_WB 0044ce6c     UICrack.obj
 0002:00000e88       ?kListHeaderUIInterfaceName@DuiLib@@3QB_WB 0044ce88     UICrack.obj
 0002:00000eb0       ?kListHeaderItemUIClassName@DuiLib@@3QB_WB 0044ceb0     UICrack.obj
 0002:00000ed4       ?kListHeaderItemUIInterfaceName@DuiLib@@3QB_WB 0044ced4     UICrack.obj
 0002:00000ef4       ?kListElementUIClassName@DuiLib@@3QB_WB 0044cef4     UICrack.obj
 0002:00000f10       ?kListElementUIInterfaceName@DuiLib@@3QB_WB 0044cf10     UICrack.obj
 0002:00000f28       ?kIListItemUIInterfaceName@DuiLib@@3QB_WB 0044cf28     UICrack.obj
 0002:00000f54       ?kListLabelElementUIClassName@DuiLib@@3QB_WB 0044cf54     UICrack.obj
 0002:00000f7c       ?kListLabelElementUIInterfaceName@DuiLib@@3QB_WB 0044cf7c     UICrack.obj
 0002:00000fa4       ?kListTextElementUIClassName@DuiLib@@3QB_WB 0044cfa4     UICrack.obj
 0002:00000fc8       ?kListTextElementUIInterfaceName@DuiLib@@3QB_WB 0044cfc8     UICrack.obj
 0002:00000ffc       ?kListContainerElementUIClassName@DuiLib@@3QB_WB 0044cffc     UICrack.obj
 0002:0000102c       ?kListContainerElementUIInterfaceName@DuiLib@@3QB_WB 0044d02c     UICrack.obj
 0002:00001048       ?kRichEditUIClassName@DuiLib@@3QB_WB 0044d048     UICrack.obj
 0002:00001060       ?kRichEditUIInterfaceName@DuiLib@@3QB_WB 0044d060     UICrack.obj
 0002:0000107c       ?kWindowInit@DuiLib@@3QB_WB 0044d07c     UICrack.obj
 0002:0000108c       ?kClick@DuiLib@@3QB_WB     0044d08c     UICrack.obj
 0002:000010ac       ?kSelectChanged@DuiLib@@3QB_WB 0044d0ac     UICrack.obj
 0002:000010c8       ?kItemSelect@DuiLib@@3QB_WB 0044d0c8     UICrack.obj
 0002:000010e8       ?kItemActivate@DuiLib@@3QB_WB 0044d0e8     UICrack.obj
 0002:00001100       ?kItemClick@DuiLib@@3QB_WB 0044d100     UICrack.obj
 0002:00001118       ?kDropDown@DuiLib@@3QB_WB  0044d118     UICrack.obj
 0002:00001128       ?kTimer@DuiLib@@3QB_WB     0044d128     UICrack.obj
 0002:00001138       ?kMenu@DuiLib@@3QB_WB      0044d138     UICrack.obj
 0002:0000114c       ?kReturn@DuiLib@@3QB_WB    0044d14c     UICrack.obj
 0002:00001168       ?kTextChanged@DuiLib@@3QB_WB 0044d168     UICrack.obj
 0002:00001180       ?kKillFocus@DuiLib@@3QB_WB 0044d180     UICrack.obj
 0002:00001198       ?kSetFocus@DuiLib@@3QB_WB  0044d198     UICrack.obj
 0002:000011b8       ?kValueChanged@DuiLib@@3QB_WB 0044d1b8     UICrack.obj
 0002:000011cc       ?kMenuUIClassName@DuiLib@@3QB_WB 0044d1cc     UIMenu.obj
 0002:000011dc       ?kMenuUIInterfaceName@DuiLib@@3QB_WB 0044d1dc     UIMenu.obj
 0002:00001210       ?kMenuElementUIClassName@DuiLib@@3QB_WB 0044d210     UIMenu.obj
 0002:0000122c       ?kMenuElementUIInterfaceName@DuiLib@@3QB_WB 0044d22c     UIMenu.obj
 0002:00001268       ??_7CMenuUI@DuiLib@@6B@    0044d268     UIMenu.obj
 0002:00001294       ??_7CMenuUI@DuiLib@@6BIContainerUI@1@@ 0044d294     UIMenu.obj
 0002:000012bc       ??_7CMenuUI@DuiLib@@6BCControlUI@1@@ 0044d2bc     UIMenu.obj
 0002:00001470       ??_7CMenuWnd@DuiLib@@6B?$ReceiverImpl@HUContextMenuParam@DuiLib@@@@@ 0044d470     UIMenu.obj
 0002:00001488       ??_7CMenuWnd@DuiLib@@6BCWindowWnd@1@@ 0044d488     UIMenu.obj
 0002:000014a0       ??_7CMenuBuilderCallback@DuiLib@@6B@ 0044d4a0     UIMenu.obj
 0002:000014a8       ??_7IDialogBuilderCallback@DuiLib@@6B@ 0044d4a8     UIMenu.obj
 0002:000014b0       ??_7CMenuElementUI@DuiLib@@6B@ 0044d4b0     UIMenu.obj
 0002:000014d8       ??_7CMenuElementUI@DuiLib@@6BIContainerUI@1@@ 0044d4d8     UIMenu.obj
 0002:00001504       ??_7CMenuElementUI@DuiLib@@6BCControlUI@1@@ 0044d504     UIMenu.obj
 0002:000016b8       ??_7?$ReceiverImpl@HUContextMenuParam@DuiLib@@@@6B@ 0044d6b8     UIMenu.obj
 0002:000016d0       ??_7?$ReceiverImplBase@HUContextMenuParam@DuiLib@@@@6B@ 0044d6d0     UIMenu.obj
 0002:000016e0       ??_C@_1DC@POOIKBAO@?$AAI?$AAT?$AAE?$AAR?$AAA?$AAT?$AAO?$AAR?$AA?5?$AAL?$AAI?$AAS?$AAT?$AA?5?$AAC?$AAO?$AAR?$AAR?$AAU?$AAP?$AAT?$AAE?$AAD?$AA?$CB?$AA?$AA@ 0044d6e0     UIMenu.obj
 0002:00001718       ??_C@_1JA@HPGAGILB@?$AAC?$AA?3?$AA?2?$AAP?$AAr?$AAo?$AAg?$AAr?$AAa?$AAm?$AA?5?$AAF?$AAi?$AAl?$AAe?$AAs?$AA?5?$AA?$CI?$AAx?$AA8?$AA6?$AA?$CJ?$AA?2?$AAM?$AAi?$AAc?$AAr?$AAo?$AAs?$AAo?$AAf?$AAt@ 0044d718     UIMenu.obj
 0002:000017a8       ??_C@_1BO@MEPPHOO@?$AA?$CC?$AAo?$AAu?$AAt?$AA?5?$AAo?$AAf?$AA?5?$AAr?$AAa?$AAn?$AAg?$AAe?$AA?$CC?$AA?$AA@ 0044d7a8     UIMenu.obj
 0002:000017c8       ??_C@_1BFK@DOOBKMGL@?$AAs?$AAt?$AAd?$AA?3?$AA?3?$AAv?$AAe?$AAc?$AAt?$AAo?$AAr?$AA?$DM?$AAc?$AAl?$AAa?$AAs?$AAs?$AA?5?$AAR?$AAe?$AAc?$AAe?$AAi?$AAv?$AAe?$AAr?$AAI?$AAm?$AAp?$AAl?$AAB?$AAa@ 0044d7c8     UIMenu.obj
 0002:00001928       ??_C@_1FG@IBPIFFN@?$AA?$CC?$AAS?$AAt?$AAa?$AAn?$AAd?$AAa?$AAr?$AAd?$AA?5?$AAC?$AA?$CL?$AA?$CL?$AA?5?$AAL?$AAi?$AAb?$AAr?$AAa?$AAr?$AAi?$AAe?$AAs?$AA?5?$AAO?$AAu?$AAt?$AA?5?$AAo?$AAf?$AA?5?$AAR@ 0044d928     UIMenu.obj
 0002:00001980       ??_C@_0CE@OFMIGAMM@Standard?5C?$CL?$CL?5Libraries?5Out?5of?5Ra@ 0044d980     UIMenu.obj
 0002:000019a4       ??_C@_1DM@LHGCHCBA@?$AAv?$AAe?$AAc?$AAt?$AAo?$AAr?$AA?5?$AAs?$AAu?$AAb?$AAs?$AAc?$AAr?$AAi?$AAp?$AAt?$AA?5?$AAo?$AAu?$AAt?$AA?5?$AAo?$AAf?$AA?5?$AAr?$AAa?$AAn?$AAg?$AAe?$AA?$AA@ 0044d9a4     UIMenu.obj
 0002:000019e0       ??_C@_1IM@BMIEAPLA@?$AAC?$AA?3?$AA?2?$AAP?$AAr?$AAo?$AAg?$AAr?$AAa?$AAm?$AA?5?$AAF?$AAi?$AAl?$AAe?$AAs?$AA?5?$AA?$CI?$AAx?$AA8?$AA6?$AA?$CJ?$AA?2?$AAM?$AAi?$AAc?$AAr?$AAo?$AAs?$AAo?$AAf?$AAt@ 0044d9e0     UIMenu.obj
 0002:00001a70       ??_C@_1BKK@HHPCJMNH@?$AAs?$AAt?$AAd?$AA?3?$AA?3?$AA_?$AAV?$AAe?$AAc?$AAt?$AAo?$AAr?$AA_?$AAc?$AAo?$AAn?$AAs?$AAt?$AA_?$AAi?$AAt?$AAe?$AAr?$AAa?$AAt?$AAo?$AAr?$AA?$DM?$AAc?$AAl?$AAa?$AAs@ 0044da70     UIMenu.obj
 0002:00001c20       ??_C@_1EG@FOHJJHAC@?$AAv?$AAe?$AAc?$AAt?$AAo?$AAr?$AA?5?$AAi?$AAt?$AAe?$AAr?$AAa?$AAt?$AAo?$AAr?$AA?5?$AAn?$AAo?$AAt?$AA?5?$AAd?$AAe?$AAr?$AAe?$AAf?$AAe?$AAr?$AAe?$AAn?$AAc?$AAa?$AAb@ 0044dc20     UIMenu.obj
 0002:00001c68       ??_C@_1BKK@OKDEEEGA@?$AAs?$AAt?$AAd?$AA?3?$AA?3?$AA_?$AAV?$AAe?$AAc?$AAt?$AAo?$AAr?$AA_?$AAc?$AAo?$AAn?$AAs?$AAt?$AA_?$AAi?$AAt?$AAe?$AAr?$AAa?$AAt?$AAo?$AAr?$AA?$DM?$AAc?$AAl?$AAa?$AAs@ 0044dc68     UIMenu.obj
 0002:00001e18       ??_C@_1BKM@KICDPPIA@?$AAs?$AAt?$AAd?$AA?3?$AA?3?$AA_?$AAV?$AAe?$AAc?$AAt?$AAo?$AAr?$AA_?$AAc?$AAo?$AAn?$AAs?$AAt?$AA_?$AAi?$AAt?$AAe?$AAr?$AAa?$AAt?$AAo?$AAr?$AA?$DM?$AAc?$AAl?$AAa?$AAs@ 0044de18     UIMenu.obj
 0002:00001fc8       ??_C@_1EE@EJDKCLKB@?$AAv?$AAe?$AAc?$AAt?$AAo?$AAr?$AA?5?$AAi?$AAt?$AAe?$AAr?$AAa?$AAt?$AAo?$AAr?$AA?5?$AAn?$AAo?$AAt?$AA?5?$AAi?$AAn?$AAc?$AAr?$AAe?$AAm?$AAe?$AAn?$AAt?$AAa?$AAb?$AAl@ 0044dfc8     UIMenu.obj
 0002:0000200c       ??_C@_0BD@OLBABOEK@vector?$DMT?$DO?5too?5long?$AA@ 0044e00c     UIMenu.obj
 0002:00002020       ??_C@_1BKM@HIJNLMBO@?$AAs?$AAt?$AAd?$AA?3?$AA?3?$AA_?$AAV?$AAe?$AAc?$AAt?$AAo?$AAr?$AA_?$AAc?$AAo?$AAn?$AAs?$AAt?$AA_?$AAi?$AAt?$AAe?$AAr?$AAa?$AAt?$AAo?$AAr?$AA?$DM?$AAc?$AAl?$AAa?$AAs@ 0044e020     UIMenu.obj
 0002:000021d0       ??_C@_1EE@OEIJAKGE@?$AAv?$AAe?$AAc?$AAt?$AAo?$AAr?$AA?5?$AAi?$AAt?$AAe?$AAr?$AAa?$AAt?$AAo?$AAr?$AA?5?$AAn?$AAo?$AAt?$AA?5?$AAd?$AAe?$AAc?$AAr?$AAe?$AAm?$AAe?$AAn?$AAt?$AAa?$AAb?$AAl@ 0044e1d0     UIMenu.obj
 0002:00002214       ??_C@_1CG@JNLFBNGN@?$AA?$CC?$AAi?$AAn?$AAv?$AAa?$AAl?$AAi?$AAd?$AA?5?$AAa?$AAr?$AAg?$AAu?$AAm?$AAe?$AAn?$AAt?$AA?$CC?$AA?$AA@ 0044e214     UIMenu.obj
 0002:00002240       ??_C@_1BKE@LPPFCLCN@?$AAs?$AAt?$AAd?$AA?3?$AA?3?$AA_?$AAV?$AAe?$AAc?$AAt?$AAo?$AAr?$AA_?$AAc?$AAo?$AAn?$AAs?$AAt?$AA_?$AAi?$AAt?$AAe?$AAr?$AAa?$AAt?$AAo?$AAr?$AA?$DM?$AAc?$AAl?$AAa?$AAs@ 0044e240     UIMenu.obj
 0002:000023e8       ??_C@_1FO@GJIHNDLM@?$AA?$CC?$AAS?$AAt?$AAa?$AAn?$AAd?$AAa?$AAr?$AAd?$AA?5?$AAC?$AA?$CL?$AA?$CL?$AA?5?$AAL?$AAi?$AAb?$AAr?$AAa?$AAr?$AAi?$AAe?$AAs?$AA?5?$AAI?$AAn?$AAv?$AAa?$AAl?$AAi?$AAd?$AA?5@ 0044e3e8     UIMenu.obj
 0002:00002448       ??_C@_0CI@FNPHFCCM@Standard?5C?$CL?$CL?5Libraries?5Invalid?5A@ 0044e448     UIMenu.obj
 0002:00002470       ??_C@_1DM@HINDPMBP@?$AAv?$AAe?$AAc?$AAt?$AAo?$AAr?$AA?5?$AAi?$AAt?$AAe?$AAr?$AAa?$AAt?$AAo?$AAr?$AAs?$AA?5?$AAi?$AAn?$AAc?$AAo?$AAm?$AAp?$AAa?$AAt?$AAi?$AAb?$AAl?$AAe?$AA?$AA@ 0044e470     UIMenu.obj
 0002:000024b0       ??_7bad_alloc@std@@6B@     0044e4b0     UIMenu.obj
 0002:000024b8       ??_C@_1BKE@FKIKEKBH@?$AAs?$AAt?$AAd?$AA?3?$AA?3?$AA_?$AAV?$AAe?$AAc?$AAt?$AAo?$AAr?$AA_?$AAc?$AAo?$AAn?$AAs?$AAt?$AA_?$AAi?$AAt?$AAe?$AAr?$AAa?$AAt?$AAo?$AAr?$AA?$DM?$AAc?$AAl?$AAa?$AAs@ 0044e4b8     UIMenu.obj
 0002:00002660       ??_C@_1IM@GCFPIDLL@?$AAC?$AA?3?$AA?2?$AAP?$AAr?$AAo?$AAg?$AAr?$AAa?$AAm?$AA?5?$AAF?$AAi?$AAl?$AAe?$AAs?$AA?5?$AA?$CI?$AAx?$AA8?$AA6?$AA?$CJ?$AA?2?$AAM?$AAi?$AAc?$AAr?$AAo?$AAs?$AAo?$AAf?$AAt@ 0044e660     UIMenu.obj
 0002:000026ec       ??_C@_1CK@EOPGIILJ@?$AAi?$AAn?$AAv?$AAa?$AAl?$AAi?$AAd?$AA?5?$AAn?$AAu?$AAl?$AAl?$AA?5?$AAp?$AAo?$AAi?$AAn?$AAt?$AAe?$AAr?$AA?$AA@ 0044e6ec     UIMenu.obj
 0002:00002718       ??_C@_1CO@DGLIKNHI@?$AAi?$AAn?$AAv?$AAa?$AAl?$AAi?$AAd?$AA?5?$AAi?$AAt?$AAe?$AAr?$AAa?$AAt?$AAo?$AAr?$AA?5?$AAr?$AAa?$AAn?$AAg?$AAe?$AA?$AA@ 0044e718     UIMenu.obj
 0002:0000274c       ??_7?$ObserverImpl@HUContextMenuParam@DuiLib@@@@6B@ 0044e74c     UIMenu.obj
 0002:00002768       ??_7?$ObserverImplBase@HUContextMenuParam@DuiLib@@@@6B@ 0044e768     UIMenu.obj
 0002:00002780       ??_C@_1EI@HGIDLLCM@?$AAv?$AAe?$AAc?$AAt?$AAo?$AAr?$AA?5?$AAe?$AAr?$AAa?$AAs?$AAe?$AA?5?$AAi?$AAt?$AAe?$AAr?$AAa?$AAt?$AAo?$AAr?$AA?5?$AAo?$AAu?$AAt?$AAs?$AAi?$AAd?$AAe?$AA?5?$AAr?$AAa@ 0044e780     UIMenu.obj
 0002:000027c8       ??_C@_1BKM@ILKPAANP@?$AAs?$AAt?$AAd?$AA?3?$AA?3?$AA_?$AAV?$AAe?$AAc?$AAt?$AAo?$AAr?$AA_?$AAc?$AAo?$AAn?$AAs?$AAt?$AA_?$AAi?$AAt?$AAe?$AAr?$AAa?$AAt?$AAo?$AAr?$AA?$DM?$AAc?$AAl?$AAa?$AAs@ 0044e7c8     UIMenu.obj
 0002:0000298c       ??_7invalid_argument@std@@6B@ 0044e98c     libcpmtd:xthrow.obj
 0002:00002998       ??_7logic_error@std@@6B@   0044e998     libcpmtd:xthrow.obj
 0002:000029a4       ??_7length_error@std@@6B@  0044e9a4     libcpmtd:xthrow.obj
 0002:000029b0       ??_7out_of_range@std@@6B@  0044e9b0     libcpmtd:xthrow.obj
 0002:000029bc       ??_7overflow_error@std@@6B@ 0044e9bc     libcpmtd:xthrow.obj
 0002:000029c8       ??_7runtime_error@std@@6B@ 0044e9c8     libcpmtd:xthrow.obj
 0002:000029d0       ??_C@_1EC@FABAOFFO@?$AA?$CI?$AAc?$AAo?$AAu?$AAn?$AAt?$AA?5?$AA?$DN?$AA?$DN?$AA?5?$AA0?$AA?$CJ?$AA?5?$AA?$HM?$AA?$HM?$AA?5?$AA?$CI?$AAs?$AAt?$AAr?$AAi?$AAn?$AAg?$AA?5?$AA?$CB?$AA?$DN?$AA?5?$AAN?$AAU?$AAL?$AAL?$AA?$CJ@ 0044e9d0     LIBCMTD:vswprnc.obj
 0002:00002a14       ??_C@_1CE@IGKFIJFD@?$AA_?$AAv?$AAs?$AAw?$AAp?$AAr?$AAi?$AAn?$AAt?$AAf?$AA_?$AAh?$AAe?$AAl?$AAp?$AAe?$AAr?$AA?$AA@ 0044ea14     LIBCMTD:vswprnc.obj
 0002:00002a38       ??_C@_1GE@KINELFI@?$AAf?$AA?3?$AA?2?$AAd?$AAd?$AA?2?$AAv?$AAc?$AAt?$AAo?$AAo?$AAl?$AAs?$AA?2?$AAc?$AAr?$AAt?$AA_?$AAb?$AAl?$AAd?$AA?2?$AAs?$AAe?$AAl?$AAf?$AA_?$AAx?$AA8?$AA6?$AA?2?$AAc@ 0044ea38     LIBCMTD:vswprnc.obj
 0002:00002a9c       ??_C@_1CC@MGIEJOME@?$AA?$CI?$AAf?$AAo?$AAr?$AAm?$AAa?$AAt?$AA?5?$AA?$CB?$AA?$DN?$AA?5?$AAN?$AAU?$AAL?$AAL?$AA?$CJ?$AA?$AA@ 0044ea9c     LIBCMTD:vswprnc.obj
 0002:00002ac0       ??_C@_1DA@HPBFKMEB@?$AA?$CI?$AA?$CC?$AAB?$AAu?$AAf?$AAf?$AAe?$AAr?$AA?5?$AAt?$AAo?$AAo?$AA?5?$AAs?$AAm?$AAa?$AAl?$AAl?$AA?$CC?$AA?0?$AA?5?$AA0?$AA?$CJ?$AA?$AA@ 0044eac0     LIBCMTD:vswprnc.obj
 0002:00002af0       ??_C@_1EE@MPCHJFGP@?$AAs?$AAt?$AAr?$AAi?$AAn?$AAg?$AA?5?$AA?$CB?$AA?$DN?$AA?5?$AAN?$AAU?$AAL?$AAL?$AA?5?$AA?$CG?$AA?$CG?$AA?5?$AAs?$AAi?$AAz?$AAe?$AAI?$AAn?$AAW?$AAo?$AAr?$AAd?$AAs?$AA?5?$AA?$DO?$AA?5@ 0044eaf0     LIBCMTD:vswprnc.obj
 0002:00002b34       ??_C@_1BO@OALHJLCI@?$AA_?$AAv?$AAs?$AAw?$AAp?$AAr?$AAi?$AAn?$AAt?$AAf?$AA_?$AAs?$AA_?$AAl?$AA?$AA@ 0044eb34     LIBCMTD:vswprnc.obj
 0002:00002b54       ??_C@_1BO@MLMCMBKN@?$AAf?$AAo?$AAr?$AAm?$AAa?$AAt?$AA?5?$AA?$CB?$AA?$DN?$AA?5?$AAN?$AAU?$AAL?$AAL?$AA?$AA@ 0044eb54     LIBCMTD:vswprnc.obj
 0002:00002b74       ??_C@_1CA@BKFKMJFF@?$AA_?$AAv?$AAs?$AAn?$AAw?$AAp?$AAr?$AAi?$AAn?$AAt?$AAf?$AA_?$AAs?$AA_?$AAl?$AA?$AA@ 0044eb74     LIBCMTD:vswprnc.obj
 0002:00002b94       ??_C@_1CC@MONNFDCM@?$AAv?$AAf?$AAw?$AAp?$AAr?$AAi?$AAn?$AAt?$AAf?$AA_?$AAh?$AAe?$AAl?$AAp?$AAe?$AAr?$AA?$AA@ 0044eb94     LIBCMTD:vfwprint.obj
 0002:00002bb8       ??_C@_1GE@MBMBDAGC@?$AAf?$AA?3?$AA?2?$AAd?$AAd?$AA?2?$AAv?$AAc?$AAt?$AAo?$AAo?$AAl?$AAs?$AA?2?$AAc?$AAr?$AAt?$AA_?$AAb?$AAl?$AAd?$AA?2?$AAs?$AAe?$AAl?$AAf?$AA_?$AAx?$AA8?$AA6?$AA?2?$AAc@ 0044ebb8     LIBCMTD:vfwprint.obj
 0002:00002c1c       ??_C@_1BM@JMKHIAHP@?$AA?$CI?$AAs?$AAt?$AAr?$AA?5?$AA?$CB?$AA?$DN?$AA?5?$AAN?$AAU?$AAL?$AAL?$AA?$CJ?$AA?$AA@ 0044ec1c     LIBCMTD:vfwprint.obj
 0002:00002c38       ??_C@_1O@EGMJNCOI@?$AAf?$AAc?$AAl?$AAo?$AAs?$AAe?$AA?$AA@ 0044ec38     LIBCMTD:fclose.obj
 0002:00002c48       ??_C@_1GA@KMIDAPAP@?$AAf?$AA?3?$AA?2?$AAd?$AAd?$AA?2?$AAv?$AAc?$AAt?$AAo?$AAo?$AAl?$AAs?$AA?2?$AAc?$AAr?$AAt?$AA_?$AAb?$AAl?$AAd?$AA?2?$AAs?$AAe?$AAl?$AAf?$AA_?$AAx?$AA8?$AA6?$AA?2?$AAc@ 0044ec48     LIBCMTD:fclose.obj
 0002:00002ca8       ??_C@_1CC@FADMNIL@?$AA?$CI?$AAs?$AAt?$AAr?$AAe?$AAa?$AAm?$AA?5?$AA?$CB?$AA?$DN?$AA?5?$AAN?$AAU?$AAL?$AAL?$AA?$CJ?$AA?$AA@ 0044eca8     LIBCMTD:fclose.obj
 0002:00002ccc       ??_C@_1BO@JINCABEC@?$AA_?$AAf?$AAc?$AAl?$AAo?$AAs?$AAe?$AA_?$AAn?$AAo?$AAl?$AAo?$AAc?$AAk?$AA?$AA@ 0044eccc     LIBCMTD:fclose.obj
 0002:00002cec       ??_C@_1M@CKCKPMNP@?$AAf?$AAt?$AAe?$AAl?$AAl?$AA?$AA@ 0044ecec     LIBCMTD:ftell.obj
 0002:00002cf8       ??_C@_1FO@NBACIADE@?$AAf?$AA?3?$AA?2?$AAd?$AAd?$AA?2?$AAv?$AAc?$AAt?$AAo?$AAo?$AAl?$AAs?$AA?2?$AAc?$AAr?$AAt?$AA_?$AAb?$AAl?$AAd?$AA?2?$AAs?$AAe?$AAl?$AAf?$AA_?$AAx?$AA8?$AA6?$AA?2?$AAc@ 0044ecf8     LIBCMTD:ftell.obj
 0002:00002d58       ??_C@_1BM@EPIDANEK@?$AA_?$AAf?$AAt?$AAe?$AAl?$AAl?$AA_?$AAn?$AAo?$AAl?$AAo?$AAc?$AAk?$AA?$AA@ 0044ed58     LIBCMTD:ftell.obj
 0002:00002d78       ??_C@_1IO@PMHBOLJK@?$AA?$CI?$AA?$CI?$AAw?$AAh?$AAe?$AAn?$AAc?$AAe?$AA?5?$AA?$DN?$AA?$DN?$AA?5?$AAS?$AAE?$AAE?$AAK?$AA_?$AAS?$AAE?$AAT?$AA?$CJ?$AA?5?$AA?$HM?$AA?$HM?$AA?5?$AA?$CI?$AAw?$AAh?$AAe?$AAn?$AAc?$AAe@ 0044ed78     LIBCMTD:fseek.obj
 0002:00002e08       ??_C@_1M@HCCOIONH@?$AAf?$AAs?$AAe?$AAe?$AAk?$AA?$AA@ 0044ee08     LIBCMTD:fseek.obj
 0002:00002e18       ??_C@_1FO@ECBPAICH@?$AAf?$AA?3?$AA?2?$AAd?$AAd?$AA?2?$AAv?$AAc?$AAt?$AAo?$AAo?$AAl?$AAs?$AA?2?$AAc?$AAr?$AAt?$AA_?$AAb?$AAl?$AAd?$AA?2?$AAs?$AAe?$AAl?$AAf?$AA_?$AAx?$AA8?$AA6?$AA?2?$AAc@ 0044ee18     LIBCMTD:fseek.obj
 0002:00002e78       ??_C@_1CI@HBNALCBB@?$AA?$CI?$AA?$CK?$AAm?$AAo?$AAd?$AAe?$AA?5?$AA?$CB?$AA?$DN?$AA?5?$AA_?$AAT?$AA?$CI?$AA?8?$AA?2?$AA0?$AA?8?$AA?$CJ?$AA?$CJ?$AA?$AA@ 0044ee78     LIBCMTD:wfopen.obj
 0002:00002ea0       ??_C@_1BO@MJMKAKCJ@?$AA?$CI?$AAm?$AAo?$AAd?$AAe?$AA?5?$AA?$CB?$AA?$DN?$AA?5?$AAN?$AAU?$AAL?$AAL?$AA?$CJ?$AA?$AA@ 0044eea0     LIBCMTD:wfopen.obj
 0002:00002ec0       ??_C@_1BC@PAJNLEOB@?$AA_?$AAw?$AAf?$AAs?$AAo?$AAp?$AAe?$AAn?$AA?$AA@ 0044eec0     LIBCMTD:wfopen.obj
 0002:00002ed8       ??_C@_1FO@NCADDBOO@?$AAf?$AA?3?$AA?2?$AAd?$AAd?$AA?2?$AAv?$AAc?$AAt?$AAo?$AAo?$AAl?$AAs?$AA?2?$AAc?$AAr?$AAt?$AA_?$AAb?$AAl?$AAd?$AA?2?$AAs?$AAe?$AAl?$AAf?$AA_?$AAx?$AA8?$AA6?$AA?2?$AAc@ 0044eed8     LIBCMTD:wfopen.obj
 0002:00002f38       ??_C@_1BO@CLGIAEOJ@?$AA?$CI?$AAf?$AAi?$AAl?$AAe?$AA?5?$AA?$CB?$AA?$DN?$AA?5?$AAN?$AAU?$AAL?$AAL?$AA?$CJ?$AA?$AA@ 0044ef38     LIBCMTD:wfopen.obj
 0002:00002f58       ??_C@_1BE@JDODBHOJ@?$AA_?$AAw?$AAf?$AAo?$AAp?$AAe?$AAn?$AA_?$AAs?$AA?$AA@ 0044ef58     LIBCMTD:wfopen.obj
 0002:00002f6c       ??_C@_1CA@LLJLFCDN@?$AA?$CI?$AAp?$AAf?$AAi?$AAl?$AAe?$AA?5?$AA?$CB?$AA?$DN?$AA?5?$AAN?$AAU?$AAL?$AAL?$AA?$CJ?$AA?$AA@ 0044ef6c     LIBCMTD:wfopen.obj
 0002:00002f8c       ??_C@_1CC@OLIJCKA@?$AA?$CI?$AAs?$AAt?$AAr?$AAi?$AAn?$AAg?$AA?5?$AA?$CB?$AA?$DN?$AA?5?$AAN?$AAU?$AAL?$AAL?$AA?$CJ?$AA?$AA@ 0044ef8c     LIBCMTD:swprintf.obj
 0002:00002fb0       ??_C@_1BE@BMIJMLDD@?$AA_?$AAs?$AAw?$AAp?$AAr?$AAi?$AAn?$AAt?$AAf?$AA?$AA@ 0044efb0     LIBCMTD:swprintf.obj
 0002:00002fc8       ??_C@_1GE@DKGHLBLP@?$AAf?$AA?3?$AA?2?$AAd?$AAd?$AA?2?$AAv?$AAc?$AAt?$AAo?$AAo?$AAl?$AAs?$AA?2?$AAc?$AAr?$AAt?$AA_?$AAb?$AAl?$AAd?$AA?2?$AAs?$AAe?$AAl?$AAf?$AA_?$AAx?$AA8?$AA6?$AA?2?$AAc@ 0044efc8     LIBCMTD:swprintf.obj
 0002:0000302c       ?ProcessDetach@NativeDll@<CrtImplementationDetails>@@0IB 0044f02c     LIBCMTD:_trnsctrl_.obj
 0002:00003030       ?ProcessAttach@NativeDll@<CrtImplementationDetails>@@0IB 0044f030     LIBCMTD:_trnsctrl_.obj
 0002:00003034       ?ThreadAttach@NativeDll@<CrtImplementationDetails>@@0IB 0044f034     LIBCMTD:_trnsctrl_.obj
 0002:00003038       ?ThreadDetach@NativeDll@<CrtImplementationDetails>@@0IB 0044f038     LIBCMTD:_trnsctrl_.obj
 0002:0000303c       ?ProcessVerifier@NativeDll@<CrtImplementationDetails>@@0IB 0044f03c     LIBCMTD:_trnsctrl_.obj
 0002:00003040       ??_C@_0DA@HMCPFNKN@f?3?2dd?2vctools?2crt_bld?2self_x86?2c@ 0044f040     LIBCMTD:onexit.obj
 0002:00003074       ??_7type_info@@6B@         0044f074     LIBCMTD:typinfo.obj
 0002:00003078       ??_C@_1GE@BDAODJCD@?$AAf?$AA?3?$AA?2?$AAd?$AAd?$AA?2?$AAv?$AAc?$AAt?$AAo?$AAo?$AAl?$AAs?$AA?2?$AAc?$AAr?$AAt?$AA_?$AAb?$AAl?$AAd?$AA?2?$AAs?$AAe?$AAl?$AAf?$AA_?$AAx?$AA8?$AA6?$AA?2?$AAc@ 0044f078     LIBCMTD:dbgdel.obj
 0002:000030e0       ??_C@_1EO@LHDAJOCM@?$AA_?$AAB?$AAL?$AAO?$AAC?$AAK?$AA_?$AAT?$AAY?$AAP?$AAE?$AA_?$AAI?$AAS?$AA_?$AAV?$AAA?$AAL?$AAI?$AAD?$AA?$CI?$AAp?$AAH?$AAe?$AAa?$AAd?$AA?9?$AA?$DO?$AAn?$AAB?$AAl?$AAo@ 0044f0e0     LIBCMTD:dbgdel.obj
 0002:00003130       ??_C@_0P@GHFPNOJB@bad?5allocation?$AA@ 0044f130     LIBCMTD:new.obj
 0002:00003140       ??_C@_1BI@DCHLDCPP@?$AAs?$AAr?$AAc?$AA?5?$AA?$CB?$AA?$DN?$AA?5?$AAN?$AAU?$AAL?$AAL?$AA?$AA@ 0044f140     LIBCMTD:wcsicmp.obj
 0002:00003158       ??_C@_1BG@EELGPCPD@?$AA_?$AAw?$AAc?$AAs?$AAi?$AAc?$AAm?$AAp?$AA_?$AAl?$AA?$AA@ 0044f158     LIBCMTD:wcsicmp.obj
 0002:00003170       ??_C@_1GC@MHLPCCAP@?$AAf?$AA?3?$AA?2?$AAd?$AAd?$AA?2?$AAv?$AAc?$AAt?$AAo?$AAo?$AAl?$AAs?$AA?2?$AAc?$AAr?$AAt?$AA_?$AAb?$AAl?$AAd?$AA?2?$AAs?$AAe?$AAl?$AAf?$AA_?$AAx?$AA8?$AA6?$AA?2?$AAc@ 0044f170     LIBCMTD:wcsicmp.obj
 0002:000031d4       ??_C@_1BI@GKKCBDMD@?$AAd?$AAs?$AAt?$AA?5?$AA?$CB?$AA?$DN?$AA?5?$AAN?$AAU?$AAL?$AAL?$AA?$AA@ 0044f1d4     LIBCMTD:wcsicmp.obj
 0002:000031ec       ??_C@_1BC@NHIBDOMC@?$AA_?$AAw?$AAc?$AAs?$AAi?$AAc?$AAm?$AAp?$AA?$AA@ 0044f1ec     LIBCMTD:wcsicmp.obj
 0002:00003200       ??_C@_0CB@CGKGGDFI@Access?5violation?5?9?5no?5RTTI?5data?$CB@ 0044f200     LIBCMTD:rtti.obj
 0002:00003224       ??_C@_0CB@EEENAAHH@Bad?5read?5pointer?5?9?5no?5RTTI?5data?$CB@ 0044f224     LIBCMTD:rtti.obj
 0002:00003248       ??_C@_0CE@FFJAJLDK@Attempted?5a?5typeid?5of?5NULL?5point@ 0044f248     LIBCMTD:rtti.obj
 0002:0000326c       ??_C@_0BC@JNJNLHBP@Bad?5dynamic_cast?$CB?$AA@ 0044f26c     LIBCMTD:rtti.obj
 0002:00003280       ??_C@_17LGKOMLJ@?$AA?4?$AA?4?$AA?4?$AA?$AA@ 0044f280     LIBCMTD:dbgrptw.obj
 0002:00003288       ??_C@_1CC@CGHMNGDG@?$AAA?$AAs?$AAs?$AAe?$AAr?$AAt?$AAi?$AAo?$AAn?$AA?5?$AAF?$AAa?$AAi?$AAl?$AAe?$AAd?$AA?$AA@ 0044f288     LIBCMTD:dbgrptw.obj
 0002:000032ac       ??_C@_1M@ILHOPKA@?$AAE?$AAr?$AAr?$AAo?$AAr?$AA?$AA@ 0044f2ac     LIBCMTD:dbgrptw.obj
 0002:000032b8       ??_C@_1BA@GLMCNLEM@?$AAW?$AAa?$AAr?$AAn?$AAi?$AAn?$AAg?$AA?$AA@ 0044f2b8     LIBCMTD:dbgrptw.obj
 0002:000032d4       ??_C@_0DA@PCCBBBID@f?3?2dd?2vctools?2crt_bld?2self_x86?2c@ 0044f2d4     LIBCMTD:dbgrptw.obj
 0002:00003308       ??_C@_1FI@PHIAFFHM@?$AA?$CI?$AA?$CC?$AAT?$AAh?$AAe?$AA?5?$AAh?$AAo?$AAo?$AAk?$AA?5?$AAf?$AAu?$AAn?$AAc?$AAt?$AAi?$AAo?$AAn?$AA?5?$AAi?$AAs?$AA?5?$AAn?$AAo?$AAt?$AA?5?$AAi?$AAn?$AA?5?$AAt?$AAh@ 0044f308     LIBCMTD:dbgrptw.obj
 0002:00003360       ??_C@_1CG@JBJEFOCM@?$AAp?$AAf?$AAn?$AAN?$AAe?$AAw?$AAH?$AAo?$AAo?$AAk?$AA?5?$AA?$CB?$AA?$DN?$AA?5?$AAN?$AAU?$AAL?$AAL?$AA?$AA@ 0044f360     LIBCMTD:dbgrptw.obj
 0002:00003388       ??_C@_1CI@IIHEAKEI@?$AA_?$AAC?$AAr?$AAt?$AAS?$AAe?$AAt?$AAR?$AAe?$AAp?$AAo?$AAr?$AAt?$AAH?$AAo?$AAo?$AAk?$AAW?$AA2?$AA?$AA@ 0044f388     LIBCMTD:dbgrptw.obj
 0002:000033b0       ??_C@_1GA@IBJGKIFE@?$AAf?$AA?3?$AA?2?$AAd?$AAd?$AA?2?$AAv?$AAc?$AAt?$AAo?$AAo?$AAl?$AAs?$AA?2?$AAc?$AAr?$AAt?$AA_?$AAb?$AAl?$AAd?$AA?2?$AAs?$AAe?$AAl?$AAf?$AA_?$AAx?$AA8?$AA6?$AA?2?$AAc@ 0044f3b0     LIBCMTD:dbgrptw.obj
 0002:00003410       ??_C@_1HI@OFEHGPPC@?$AAm?$AAo?$AAd?$AAe?$AA?5?$AA?$DN?$AA?$DN?$AA?5?$AA_?$AAC?$AAR?$AAT?$AA_?$AAR?$AAP?$AAT?$AAH?$AAO?$AAO?$AAK?$AA_?$AAI?$AAN?$AAS?$AAT?$AAA?$AAL?$AAL?$AA?5?$AA?$HM?$AA?$HM?$AA?5@ 0044f410     LIBCMTD:dbgrptw.obj
 0002:00003488       ??_C@_1EG@PEOEAKBB@?$AAM?$AAi?$AAc?$AAr?$AAo?$AAs?$AAo?$AAf?$AAt?$AA?5?$AAV?$AAi?$AAs?$AAu?$AAa?$AAl?$AA?5?$AAC?$AA?$CL?$AA?$CL?$AA?5?$AAD?$AAe?$AAb?$AAu?$AAg?$AA?5?$AAL?$AAi?$AAb?$AAr?$AAa@ 0044f488     LIBCMTD:dbgrptw.obj
 0002:000034d0       ??_C@_1FG@BBOLDHGF@?$AA_?$AAC?$AAr?$AAt?$AAD?$AAb?$AAg?$AAR?$AAe?$AAp?$AAo?$AAr?$AAt?$AA?3?$AA?5?$AAS?$AAt?$AAr?$AAi?$AAn?$AAg?$AA?5?$AAt?$AAo?$AAo?$AA?5?$AAl?$AAo?$AAn?$AAg?$AA?5?$AAo@ 0044f4d0     LIBCMTD:dbgrptw.obj
 0002:00003528       ??_C@_1JI@EACPGHID@?$AAw?$AAc?$AAs?$AAc?$AAp?$AAy?$AA_?$AAs?$AA?$CI?$AAs?$AAz?$AAO?$AAu?$AAt?$AAM?$AAe?$AAs?$AAs?$AAa?$AAg?$AAe?$AA?0?$AA?5?$AA4?$AA0?$AA9?$AA6?$AA?0?$AA?5?$AAL?$AA?$CC?$AA_@ 0044f528     LIBCMTD:dbgrptw.obj
 0002:000035c0       ??_C@_1BI@KALLJECN@?$AA?$CI?$AA?$CK?$AA_?$AAe?$AAr?$AAr?$AAn?$AAo?$AA?$CI?$AA?$CJ?$AA?$CJ?$AA?$AA@ 0044f5c0     LIBCMTD:dbgrptw.obj
 0002:000035d8       ??_C@_1KK@MEFMPOLM@?$AAD?$AAe?$AAb?$AAu?$AAg?$AA?5?$AA?$CF?$AAs?$AA?$CB?$AA?6?$AA?6?$AAP?$AAr?$AAo?$AAg?$AAr?$AAa?$AAm?$AA?3?$AA?5?$AA?$CF?$AAs?$AA?$CF?$AAs?$AA?$CF?$AAs?$AA?$CF?$AAs?$AA?$CF?$AAs?$AA?$CF?$AAs@ 0044f5d8     LIBCMTD:dbgrptw.obj
 0002:00003684       ??_C@_1BE@CGCJKGHI@?$AA?6?$AAM?$AAo?$AAd?$AAu?$AAl?$AAe?$AA?3?$AA?5?$AA?$AA@ 0044f684     LIBCMTD:dbgrptw.obj
 0002:00003698       ??_C@_1BA@LNHECFIM@?$AA?6?$AAF?$AAi?$AAl?$AAe?$AA?3?$AA?5?$AA?$AA@ 0044f698     LIBCMTD:dbgrptw.obj
 0002:000036a8       ??_C@_1BA@GLLGCPCK@?$AA?6?$AAL?$AAi?$AAn?$AAe?$AA?3?$AA?5?$AA?$AA@ 0044f6a8     LIBCMTD:dbgrptw.obj
 0002:000036b8       ??_C@_15IABLJNFO@?$AA?6?$AA?6?$AA?$AA@ 0044f6b8     LIBCMTD:dbgrptw.obj
 0002:000036c0       ??_C@_1BK@PEDCIPMA@?$AAE?$AAx?$AAp?$AAr?$AAe?$AAs?$AAs?$AAi?$AAo?$AAn?$AA?3?$AA?5?$AA?$AA@ 0044f6c0     LIBCMTD:dbgrptw.obj
 0002:000036dc       ??_C@_11LOCGONAA@?$AA?$AA@ 0044f6dc     LIBCMTD:dbgrptw.obj
 0002:000036e0       ??_C@_1OG@PMPPFHAF@?$AA?6?$AA?6?$AAF?$AAo?$AAr?$AA?5?$AAi?$AAn?$AAf?$AAo?$AAr?$AAm?$AAa?$AAt?$AAi?$AAo?$AAn?$AA?5?$AAo?$AAn?$AA?5?$AAh?$AAo?$AAw?$AA?5?$AAy?$AAo?$AAu?$AAr?$AA?5?$AAp?$AAr@ 0044f6e0     LIBCMTD:dbgrptw.obj
 0002:000037c8       ??_C@_1NO@LECLLHOL@?$AAm?$AAe?$AAm?$AAc?$AAp?$AAy?$AA_?$AAs?$AA?$CI?$AAs?$AAz?$AAS?$AAh?$AAo?$AAr?$AAt?$AAP?$AAr?$AAo?$AAg?$AAN?$AAa?$AAm?$AAe?$AA?0?$AA?5?$AAs?$AAi?$AAz?$AAe?$AAo?$AAf@ 0044f7c8     LIBCMTD:dbgrptw.obj
 0002:000038a8       ??_C@_1CO@EAEJAADC@?$AA?$DM?$AAp?$AAr?$AAo?$AAg?$AAr?$AAa?$AAm?$AA?5?$AAn?$AAa?$AAm?$AAe?$AA?5?$AAu?$AAn?$AAk?$AAn?$AAo?$AAw?$AAn?$AA?$DO?$AA?$AA@ 0044f8a8     LIBCMTD:dbgrptw.obj
 0002:000038d8       ??_C@_1GI@DEDNNLCI@?$AAw?$AAc?$AAs?$AAc?$AAp?$AAy?$AA_?$AAs?$AA?$CI?$AAs?$AAz?$AAE?$AAx?$AAe?$AAN?$AAa?$AAm?$AAe?$AA?0?$AA?5?$AA2?$AA6?$AA0?$AA?0?$AA?5?$AAL?$AA?$CC?$AA?$DM?$AAp?$AAr?$AAo?$AAg@ 0044f8d8     LIBCMTD:dbgrptw.obj
 0002:00003940       ??_C@_1CI@PGJIFDEK@?$AA_?$AA_?$AAc?$AAr?$AAt?$AAM?$AAe?$AAs?$AAs?$AAa?$AAg?$AAe?$AAW?$AAi?$AAn?$AAd?$AAo?$AAw?$AAW?$AA?$AA@ 0044f940     LIBCMTD:dbgrptw.obj
 0002:0000398c       ??_7exception@std@@6B@     0044f98c     LIBCMTD:stdexcpt.obj
 0002:00003994       ??_C@_0BC@EOODALEL@Unknown?5exception?$AA@ 0044f994     LIBCMTD:stdexcpt.obj
 0002:000039ac       ??_7bad_cast@std@@6B@      0044f9ac     LIBCMTD:stdexcpt.obj
 0002:000039b8       ??_7bad_typeid@std@@6B@    0044f9b8     LIBCMTD:stdexcpt.obj
 0002:000039c4       ??_7__non_rtti_object@std@@6B@ 0044f9c4     LIBCMTD:stdexcpt.obj
 0002:000039cc       ??_C@_0BO@GNIAFIKK@Unknown?5Runtime?5Check?5Error?6?$AN?$AA@ 0044f9cc     LIBCMTD:_error_.obj
 0002:000039ec       ??_C@_0CM@NGINOKPC@Stack?5memory?5around?5_alloca?5was?5@ 0044f9ec     LIBCMTD:_error_.obj
 0002:00003a18       ??_C@_0DG@HKJMLLLP@A?5local?5variable?5was?5used?5before@ 0044fa18     LIBCMTD:_error_.obj
 0002:00003a50       ??_C@_0BN@FFOINMNJ@Stack?5memory?5was?5corrupted?6?$AN?$AA@ 0044fa50     LIBCMTD:_error_.obj
 0002:00003a70       ??_C@_0BBN@GPMLNJCF@A?5cast?5to?5a?5smaller?5data?5type?5ha@ 0044fa70     LIBCMTD:_error_.obj
 0002:00003b90       ??_C@_0NN@NGPKDKPD@The?5value?5of?5ESP?5was?5not?5properl@ 0044fb90     LIBCMTD:_error_.obj
 0002:00003d0c       ??_C@_0CA@IODNCDPG@Run?9Time?5Check?5Failure?5?$CD?$CFd?5?9?5?$CFs?$AA@ 0044fd0c     LIBCMTD:_error_.obj
 0002:00003d2c       ??_C@_0BE@GNBOBNCK@Unknown?5Module?5Name?$AA@ 0044fd2c     LIBCMTD:_error_.obj
 0002:00003d40       ??_C@_0BB@PFFGGCJP@Unknown?5Filename?$AA@ 0044fd40     LIBCMTD:_error_.obj
 0002:00003d58       ??_C@_1EA@NFKNIFJP@?$AAR?$AAu?$AAn?$AA?9?$AAT?$AAi?$AAm?$AAe?$AA?5?$AAC?$AAh?$AAe?$AAc?$AAk?$AA?5?$AAF?$AAa?$AAi?$AAl?$AAu?$AAr?$AAe?$AA?5?$AA?$CD?$AA?$CF?$AAd?$AA?5?$AA?9?$AA?5?$AA?$CF?$AAs?$AA?$AA@ 0044fd58     LIBCMTD:_error_.obj
 0002:00003d98       ??_C@_1GM@OLMCBDMB@?$AAR?$AAu?$AAn?$AAt?$AAi?$AAm?$AAe?$AA?5?$AAC?$AAh?$AAe?$AAc?$AAk?$AA?5?$AAE?$AAr?$AAr?$AAo?$AAr?$AA?4?$AA?6?$AA?$AN?$AA?5?$AAU?$AAn?$AAa?$AAb?$AAl?$AAe?$AA?5?$AAt?$AAo@ 0044fd98     LIBCMTD:_error_.obj
 0002:00003e04       ??_C@_0CG@IAFNJNEE@Stack?5corrupted?5near?5unknown?5var@ 0044fe04     LIBCMTD:_error_.obj
 0002:00003e30       ??_C@_0EJ@LJKNEOLN@Stack?5area?5around?5_alloca?5memory@ 0044fe30     LIBCMTD:_error_.obj
 0002:00003e7c       ??_C@_08KJEDNCKC@?$CFs?$CFs?$CFs?$CFs?$AA@ 0044fe7c     LIBCMTD:_error_.obj
 0002:00003e88       ??_C@_02LLMPMKNF@?$DO?5?$AA@ 0044fe88     LIBCMTD:_error_.obj
 0002:00003e8c       ??_C@_01EEMJAFIK@?6?$AA@   0044fe8c     LIBCMTD:_error_.obj
 0002:00003e90       ??_C@_0BC@KIBAILCI@?$CFs?$CFs?$CFp?$CFs?$CFld?$CFs?$CFd?$CFs?$AA@ 0044fe90     LIBCMTD:_error_.obj
 0002:00003ea8       ??_C@_0EI@CLEPFNGI@Stack?5area?5around?5_alloca?5memory@ 0044fea8     LIBCMTD:_error_.obj
 0002:00003ef0       ??_C@_0N@MHFFIMFG@?6Address?3?50x?$AA@ 0044fef0     LIBCMTD:_error_.obj
 0002:00003f00       ??_C@_07DFDJCKFN@?6Size?3?5?$AA@ 0044ff00     LIBCMTD:_error_.obj
 0002:00003f08       ??_C@_0CK@DKGBICFE@?6Allocation?5number?5within?5this?5f@ 0044ff08     LIBCMTD:_error_.obj
 0002:00003f34       ??_C@_08OMAHNMHJ@?6Data?3?5?$DM?$AA@ 0044ff34     LIBCMTD:_error_.obj
 0002:00003f40       ??_C@_09FOPFMPEJ@wsprintfA?$AA@ 0044ff40     LIBCMTD:_error_.obj
 0002:00003f4c       ??_C@_1BG@OILDLIOJ@?$AAu?$AAs?$AAe?$AAr?$AA3?$AA2?$AA?4?$AAd?$AAl?$AAl?$AA?$AA@ 0044ff4c     LIBCMTD:_error_.obj
 0002:00003f64       ??_C@_05MKKEDADM@?$CF?42X?5?$AA@ 0044ff64     LIBCMTD:_error_.obj
 0002:00003f6c       ??_C@_0DE@OHJBPMBP@A?5variable?5is?5being?5used?5without@ 0044ff6c     LIBCMTD:_error_.obj
 0002:00003fa0       ??_C@_0BP@OGBCLIBO@Stack?5around?5_alloca?5corrupted?$AA@ 0044ffa0     LIBCMTD:_userapi_.obj
 0002:00003fc0       ??_C@_0CK@CNLNOEPB@Local?5variable?5used?5before?5initi@ 0044ffc0     LIBCMTD:_userapi_.obj
 0002:00003fec       ??_C@_0BI@CIGMDCBH@Stack?5memory?5corruption?$AA@ 0044ffec     LIBCMTD:_userapi_.obj
 0002:00004004       ??_C@_0CK@FEGOIOPB@Cast?5to?5smaller?5type?5causing?5los@ 00450004     LIBCMTD:_userapi_.obj
 0002:00004030       ??_C@_0BJ@HEGAHDFO@Stack?5pointer?5corruption?$AA@ 00450030     LIBCMTD:_userapi_.obj
 0002:00004060       ??_C@_0DP@CBBAPGOP@f?3?2dd?2vctools?2crt_bld?2self_x86?2c@ 00450060     LIBCMTD:chkesp.obj
 0002:0000409f       ??_C@_00CNPNBAHC@?$AA@     0045009f     LIBCMTD:chkesp.obj
 0002:000040a0       ??_C@_0NM@DNEDKLDF@The?5value?5of?5ESP?5was?5not?5properl@ 004500a0     LIBCMTD:chkesp.obj
 0002:00004188       ??_C@_1HO@MLMGPAFH@?$AA?$CI?$AA?$CC?$AAi?$AAn?$AAc?$AAo?$AAn?$AAs?$AAi?$AAs?$AAt?$AAe?$AAn?$AAt?$AA?5?$AAI?$AAO?$AAB?$AA?5?$AAf?$AAi?$AAe?$AAl?$AAd?$AAs?$AA?$CC?$AA?0?$AA?5?$AAs?$AAt?$AAr?$AAe@ 00450188     LIBCMTD:_flsbuf.obj
 0002:00004208       ??_C@_1GC@GNCCMPNN@?$AAf?$AA?3?$AA?2?$AAd?$AAd?$AA?2?$AAv?$AAc?$AAt?$AAo?$AAo?$AAl?$AAs?$AA?2?$AAc?$AAr?$AAt?$AA_?$AAb?$AAl?$AAd?$AA?2?$AAs?$AAe?$AAl?$AAf?$AA_?$AAx?$AA8?$AA6?$AA?2?$AAc@ 00450208     LIBCMTD:_flsbuf.obj
 0002:0000426c       ??_C@_1BI@MFCLPIBM@?$AAs?$AAt?$AAr?$AA?5?$AA?$CB?$AA?$DN?$AA?5?$AAN?$AAU?$AAL?$AAL?$AA?$AA@ 0045026c     LIBCMTD:_flsbuf.obj
 0002:00004284       ??_C@_1BG@KCMPBBDK@?$AA_?$AAg?$AAe?$AAt?$AA_?$AAe?$AAr?$AAr?$AAn?$AAo?$AA?$AA@ 00450284     LIBCMTD:dosmap.obj
 0002:000042a0       ??_C@_1GA@MFGIMPNL@?$AAf?$AA?3?$AA?2?$AAd?$AAd?$AA?2?$AAv?$AAc?$AAt?$AAo?$AAo?$AAl?$AAs?$AA?2?$AAc?$AAr?$AAt?$AA_?$AAb?$AAl?$AAd?$AA?2?$AAs?$AAe?$AAl?$AAf?$AA_?$AAx?$AA8?$AA6?$AA?2?$AAc@ 004502a0     LIBCMTD:dosmap.obj
 0002:00004300       ??_C@_1BO@LKEBEKJP@?$AAp?$AAV?$AAa?$AAl?$AAu?$AAe?$AA?5?$AA?$CB?$AA?$DN?$AA?5?$AAN?$AAU?$AAL?$AAL?$AA?$AA@ 00450300     LIBCMTD:dosmap.obj
 0002:00004320       ??_C@_1BM@INIPHHDD@?$AA_?$AAg?$AAe?$AAt?$AA_?$AAd?$AAo?$AAs?$AAe?$AAr?$AAr?$AAn?$AAo?$AA?$AA@ 00450320     LIBCMTD:dosmap.obj
 0002:0000433c       ??_C@_0DA@NFBEBPEE@f?3?2dd?2vctools?2crt_bld?2self_x86?2c@ 0045033c     LIBCMTD:woutput.obj
 0002:00004370       ??_C@_1EK@PNGFDECN@?$AA?$CI?$AA?$CC?$AA?8?$AAn?$AA?8?$AA?5?$AAf?$AAo?$AAr?$AAm?$AAa?$AAt?$AA?5?$AAs?$AAp?$AAe?$AAc?$AAi?$AAf?$AAi?$AAe?$AAr?$AA?5?$AAd?$AAi?$AAs?$AAa?$AAb?$AAl?$AAe?$AAd?$AA?$CC@ 00450370     LIBCMTD:woutput.obj
 0002:000043bc       ??_C@_1BG@BBCDFOMA@?$AA_?$AAw?$AAo?$AAu?$AAt?$AAp?$AAu?$AAt?$AA_?$AAl?$AA?$AA@ 004503bc     LIBCMTD:woutput.obj
 0002:000043d8       ??_C@_1GA@HHFOFBLN@?$AAf?$AA?3?$AA?2?$AAd?$AAd?$AA?2?$AAv?$AAc?$AAt?$AAo?$AAo?$AAl?$AAs?$AA?2?$AAc?$AAr?$AAt?$AA_?$AAb?$AAl?$AAd?$AA?2?$AAs?$AAe?$AAl?$AAf?$AA_?$AAx?$AA8?$AA6?$AA?2?$AAc@ 004503d8     LIBCMTD:woutput.obj
 0002:00004438       ??_C@_06PJIGMIJB@Client?$AA@ 00450438     LIBCMTD:dbgheap.obj
 0002:00004440       ??_C@_06KMEJCCGM@Ignore?$AA@ 00450440     LIBCMTD:dbgheap.obj
 0002:00004448       ??_C@_03OGPFLFLO@CRT?$AA@  00450448     LIBCMTD:dbgheap.obj
 0002:0000444c       ??_C@_06EFAGIKOH@Normal?$AA@ 0045044c     LIBCMTD:dbgheap.obj
 0002:00004454       ??_C@_04HJMOFLDF@Free?$AA@ 00450454     LIBCMTD:dbgheap.obj
 0002:00004470       ??_C@_0DC@JEMAGEKG@Error?3?5memory?5allocation?3?5bad?5me@ 00450470     LIBCMTD:dbgheap.obj
 0002:000044a4       ??_C@_0CF@BICKFLAF@Invalid?5allocation?5size?3?5?$CFIu?5byt@ 004504a4     LIBCMTD:dbgheap.obj
 0002:000044cc       ??_C@_02DKCKIIND@?$CFs?$AA@ 004504cc     LIBCMTD:dbgheap.obj
 0002:000044d0       ??_C@_0CB@CCLOLAHO@Client?5hook?5allocation?5failure?4?6@ 004504d0     LIBCMTD:dbgheap.obj
 0002:000044f4       ??_C@_0DF@BBEGIFEK@Client?5hook?5allocation?5failure?5a@ 004504f4     LIBCMTD:dbgheap.obj
 0002:00004530       ??_C@_1GC@DNJKKEAA@?$AAf?$AA?3?$AA?2?$AAd?$AAd?$AA?2?$AAv?$AAc?$AAt?$AAo?$AAo?$AAl?$AAs?$AA?2?$AAc?$AAr?$AAt?$AA_?$AAb?$AAl?$AAd?$AA?2?$AAs?$AAe?$AAl?$AAf?$AA_?$AAx?$AA8?$AA6?$AA?2?$AAc@ 00450530     LIBCMTD:dbgheap.obj
 0002:00004594       ??_C@_1CE@LJFEPPMP@?$AA_?$AAC?$AAr?$AAt?$AAC?$AAh?$AAe?$AAc?$AAk?$AAM?$AAe?$AAm?$AAo?$AAr?$AAy?$AA?$CI?$AA?$CJ?$AA?$AA@ 00450594     LIBCMTD:dbgheap.obj
 0002:000045b8       ??_C@_1DE@KOOKLFBB@?$AA_?$AAp?$AAF?$AAi?$AAr?$AAs?$AAt?$AAB?$AAl?$AAo?$AAc?$AAk?$AA?5?$AA?$DN?$AA?$DN?$AA?5?$AAp?$AAO?$AAl?$AAd?$AAB?$AAl?$AAo?$AAc?$AAk?$AA?$AA@ 004505b8     LIBCMTD:dbgheap.obj
 0002:000045ec       ??_C@_1DC@GEFKNOOL@?$AA_?$AAp?$AAL?$AAa?$AAs?$AAt?$AAB?$AAl?$AAo?$AAc?$AAk?$AA?5?$AA?$DN?$AA?$DN?$AA?5?$AAp?$AAO?$AAl?$AAd?$AAB?$AAl?$AAo?$AAc?$AAk?$AA?$AA@ 004505ec     LIBCMTD:dbgheap.obj
 0002:00004620       ??_C@_1GE@PCKLOLAO@?$AAf?$AAR?$AAe?$AAa?$AAl?$AAl?$AAo?$AAc?$AA?5?$AA?$HM?$AA?$HM?$AA?5?$AA?$CI?$AA?$CB?$AAf?$AAR?$AAe?$AAa?$AAl?$AAl?$AAo?$AAc?$AA?5?$AA?$CG?$AA?$CG?$AA?5?$AAp?$AAN?$AAe?$AAw?$AAB?$AAl@ 00450620     LIBCMTD:dbgheap.obj
 0002:00004684       ??_C@_0DA@HFBKENN@Error?3?5possible?5heap?5corruption?5@ 00450684     LIBCMTD:dbgheap.obj
 0002:000046b8       ??_C@_1IK@DCPKDGNH@?$AAp?$AAO?$AAl?$AAd?$AAB?$AAl?$AAo?$AAc?$AAk?$AA?9?$AA?$DO?$AAn?$AAL?$AAi?$AAn?$AAe?$AA?5?$AA?$DN?$AA?$DN?$AA?5?$AAI?$AAG?$AAN?$AAO?$AAR?$AAE?$AA_?$AAL?$AAI?$AAN?$AAE?$AA?5@ 004506b8     LIBCMTD:dbgheap.obj
 0002:00004748       ??_C@_1EE@GFOPCECE@?$AA_?$AAC?$AAr?$AAt?$AAI?$AAs?$AAV?$AAa?$AAl?$AAi?$AAd?$AAH?$AAe?$AAa?$AAp?$AAP?$AAo?$AAi?$AAn?$AAt?$AAe?$AAr?$AA?$CI?$AAp?$AAU?$AAs?$AAe?$AAr?$AAD?$AAa?$AAt?$AAa@ 00450748     LIBCMTD:dbgheap.obj
 0002:00004790       ??_C@_0EM@LGFLMAGJ@The?5Block?5at?50x?$CFp?5was?5allocated?5@ 00450790     LIBCMTD:dbgheap.obj
 0002:000047e0       ??_C@_0FA@EFEIGJKG@Error?3?5memory?5allocation?3?5bad?5me@ 004507e0     LIBCMTD:dbgheap.obj
 0002:00004830       ??_C@_0ED@GPCPBAGP@Invalid?5allocation?5size?3?5?$CFIu?5byt@ 00450830     LIBCMTD:dbgheap.obj
 0002:00004874       ??_C@_0CE@DOFMDOL@Client?5hook?5re?9allocation?5failur@ 00450874     LIBCMTD:dbgheap.obj
 0002:00004898       ??_C@_0DI@KKJPDPGM@Client?5hook?5re?9allocation?5failur@ 00450898     LIBCMTD:dbgheap.obj
 0002:000048d0       ??_C@_1BI@HAPNGHDP@?$AA_?$AAe?$AAx?$AAp?$AAa?$AAn?$AAd?$AA_?$AAd?$AAb?$AAg?$AA?$AA@ 004508d0     LIBCMTD:dbgheap.obj
 0002:000048e8       ??_C@_1CE@CJACEFBA@?$AAp?$AAU?$AAs?$AAe?$AAr?$AAD?$AAa?$AAt?$AAa?$AA?5?$AA?$CB?$AA?$DN?$AA?5?$AAN?$AAU?$AAL?$AAL?$AA?$AA@ 004508e8     LIBCMTD:dbgheap.obj
 0002:0000490c       ??_C@_1CM@MMAADDMD@?$AA_?$AAp?$AAF?$AAi?$AAr?$AAs?$AAt?$AAB?$AAl?$AAo?$AAc?$AAk?$AA?5?$AA?$DN?$AA?$DN?$AA?5?$AAp?$AAH?$AAe?$AAa?$AAd?$AA?$AA@ 0045090c     LIBCMTD:dbgheap.obj
 0002:00004938       ??_C@_1CK@DMAGEMBG@?$AA_?$AAp?$AAL?$AAa?$AAs?$AAt?$AAB?$AAl?$AAo?$AAc?$AAk?$AA?5?$AA?$DN?$AA?$DN?$AA?5?$AAp?$AAH?$AAe?$AAa?$AAd?$AA?$AA@ 00450938     LIBCMTD:dbgheap.obj
 0002:00004964       ??_C@_1DM@ODCJIDCP@?$AAp?$AAH?$AAe?$AAa?$AAd?$AA?9?$AA?$DO?$AAn?$AAB?$AAl?$AAo?$AAc?$AAk?$AAU?$AAs?$AAe?$AA?5?$AA?$DN?$AA?$DN?$AA?5?$AAn?$AAB?$AAl?$AAo?$AAc?$AAk?$AAU?$AAs?$AAe?$AA?$AA@ 00450964     LIBCMTD:dbgheap.obj
 0002:000049a0       ??_C@_1HK@HPCBMDFG@?$AAp?$AAH?$AAe?$AAa?$AAd?$AA?9?$AA?$DO?$AAn?$AAL?$AAi?$AAn?$AAe?$AA?5?$AA?$DN?$AA?$DN?$AA?5?$AAI?$AAG?$AAN?$AAO?$AAR?$AAE?$AA_?$AAL?$AAI?$AAN?$AAE?$AA?5?$AA?$CG?$AA?$CG?$AA?5?$AAp@ 004509a0     LIBCMTD:dbgheap.obj
 0002:00004a20       ??_C@_0IG@LEMBDCJK@HEAP?5CORRUPTION?5DETECTED?3?5after?5@ 00450a20     LIBCMTD:dbgheap.obj
 0002:00004aa8       ??_C@_0KE@MBMNHHHN@HEAP?5CORRUPTION?5DETECTED?3?5after?5@ 00450aa8     LIBCMTD:dbgheap.obj
 0002:00004b50       ??_C@_0IK@PJCGLBOB@HEAP?5CORRUPTION?5DETECTED?3?5before@ 00450b50     LIBCMTD:dbgheap.obj
 0002:00004be0       ??_C@_0KI@JGFOHMEB@HEAP?5CORRUPTION?5DETECTED?3?5before@ 00450be0     LIBCMTD:dbgheap.obj
 0002:00004c88       ??_C@_0BL@KEIPLFAC@Client?5hook?5free?5failure?4?6?$AA@ 00450c88     LIBCMTD:dbgheap.obj
 0002:00004ca8       ??_C@_0EJ@HEIBCIMJ@The?5Block?5at?50x?$CFp?5was?5allocated?5@ 00450ca8     LIBCMTD:dbgheap.obj
 0002:00004cf4       ??_C@_1BG@MBKOGDLD@?$AA_?$AAm?$AAs?$AAi?$AAz?$AAe?$AA_?$AAd?$AAb?$AAg?$AA?$AA@ 00450cf4     LIBCMTD:dbgheap.obj
 0002:00004d0c       ??_C@_0CI@JMLBEDHJ@?$CFhs?5located?5at?50x?$CFp?5is?5?$CFIu?5bytes@ 00450d0c     LIBCMTD:dbgheap.obj
 0002:00004d38       ??_C@_0EG@DGJMPDBH@?$CFhs?5located?5at?50x?$CFp?5is?5?$CFIu?5bytes@ 00450d38     LIBCMTD:dbgheap.obj
 0002:00004d80       ??_C@_0IC@BBJIOOJH@HEAP?5CORRUPTION?5DETECTED?3?5on?5top@ 00450d80     LIBCMTD:dbgheap.obj
 0002:00004e08       ??_C@_0KA@IHNJJKPL@HEAP?5CORRUPTION?5DETECTED?3?5on?5top@ 00450e08     LIBCMTD:dbgheap.obj
 0002:00004ea8       ??_C@_07OHKEFPKJ@DAMAGED?$AA@ 00450ea8     LIBCMTD:dbgheap.obj
 0002:00004eb0       ??_C@_0CL@HNNNMKMJ@_heapchk?5fails?5with?5unknown?5retu@ 00450eb0     LIBCMTD:dbgheap.obj
 0002:00004edc       ??_C@_0CC@MFFCHFHO@_heapchk?5fails?5with?5_HEAPBADPTR?4@ 00450edc     LIBCMTD:dbgheap.obj
 0002:00004f00       ??_C@_0CC@MJGLGBDG@_heapchk?5fails?5with?5_HEAPBADEND?4@ 00450f00     LIBCMTD:dbgheap.obj
 0002:00004f24       ??_C@_0CD@CPKEAPBD@_heapchk?5fails?5with?5_HEAPBADNODE@ 00450f24     LIBCMTD:dbgheap.obj
 0002:00004f48       ??_C@_0CE@MKKHMBMK@_heapchk?5fails?5with?5_HEAPBADBEGI@ 00450f48     LIBCMTD:dbgheap.obj
 0002:00004f6c       ??_C@_1BO@GJFDNMNF@?$AA_?$AAC?$AAr?$AAt?$AAS?$AAe?$AAt?$AAD?$AAb?$AAg?$AAF?$AAl?$AAa?$AAg?$AA?$AA@ 00450f6c     LIBCMTD:dbgheap.obj
 0002:00004f90       ??_C@_1BHO@NNANJNF@?$AA?$CI?$AAf?$AAN?$AAe?$AAw?$AAB?$AAi?$AAt?$AAs?$AA?$DN?$AA?$DN?$AA_?$AAC?$AAR?$AAT?$AAD?$AAB?$AAG?$AA_?$AAR?$AAE?$AAP?$AAO?$AAR?$AAT?$AA_?$AAF?$AAL?$AAA?$AAG?$AA?$CJ?$AA?5@ 00450f90     LIBCMTD:dbgheap.obj
 0002:00005110       ??_C@_1DE@GJCKCKEC@?$AA_?$AAC?$AAr?$AAt?$AAD?$AAo?$AAF?$AAo?$AAr?$AAA?$AAl?$AAl?$AAC?$AAl?$AAi?$AAe?$AAn?$AAt?$AAO?$AAb?$AAj?$AAe?$AAc?$AAt?$AAs?$AA?$AA@ 00451110     LIBCMTD:dbgheap.obj
 0002:00005144       ??_C@_1BI@CJGCEEDL@?$AAp?$AAf?$AAn?$AA?5?$AA?$CB?$AA?$DN?$AA?5?$AAN?$AAU?$AAL?$AAL?$AA?$AA@ 00451144     LIBCMTD:dbgheap.obj
 0002:0000515c       ??_C@_0CB@EAAIGELO@Bad?5memory?5block?5found?5at?50x?$CFp?4?6@ 0045115c     LIBCMTD:dbgheap.obj
 0002:00005180       ??_C@_0DP@LEFMFBOD@Bad?5memory?5block?5found?5at?50x?$CFp?4?6@ 00451180     LIBCMTD:dbgheap.obj
 0002:000051c0       ??_C@_1CE@NJJKELF@?$AA_?$AAC?$AAr?$AAt?$AAM?$AAe?$AAm?$AAC?$AAh?$AAe?$AAc?$AAk?$AAp?$AAo?$AAi?$AAn?$AAt?$AA?$AA@ 004511c0     LIBCMTD:dbgheap.obj
 0002:000051e4       ??_C@_1BM@MIMANDHC@?$AAs?$AAt?$AAa?$AAt?$AAe?$AA?5?$AA?$CB?$AA?$DN?$AA?5?$AAN?$AAU?$AAL?$AAL?$AA?$AA@ 004511e4     LIBCMTD:dbgheap.obj
 0002:00005200       ??_C@_1CC@DFPEDFBP@?$AAn?$AAe?$AAw?$AAS?$AAt?$AAa?$AAt?$AAe?$AA?5?$AA?$CB?$AA?$DN?$AA?5?$AAN?$AAU?$AAL?$AAL?$AA?$AA@ 00451200     LIBCMTD:dbgheap.obj
 0002:00005224       ??_C@_1CC@DHPFEMMN@?$AAo?$AAl?$AAd?$AAS?$AAt?$AAa?$AAt?$AAe?$AA?5?$AA?$CB?$AA?$DN?$AA?5?$AAN?$AAU?$AAL?$AAL?$AA?$AA@ 00451224     LIBCMTD:dbgheap.obj
 0002:00005248       ??_C@_1CE@PDIENACM@?$AA_?$AAC?$AAr?$AAt?$AAM?$AAe?$AAm?$AAD?$AAi?$AAf?$AAf?$AAe?$AAr?$AAe?$AAn?$AAc?$AAe?$AA?$AA@ 00451248     LIBCMTD:dbgheap.obj
 0002:0000526c       ??_C@_0BH@GFGKJDCO@Object?5dump?5complete?4?6?$AA@ 0045126c     LIBCMTD:dbgheap.obj
 0002:00005284       ??_C@_0DA@MDLBNIBM@crt?5block?5at?50x?$CFp?0?5subtype?5?$CFx?0?5?$CF@ 00451284     LIBCMTD:dbgheap.obj
 0002:000052b4       ??_C@_0CH@FAGDDGPN@normal?5block?5at?50x?$CFp?0?5?$CFIu?5bytes?5@ 004512b4     LIBCMTD:dbgheap.obj
 0002:000052dc       ??_C@_0DD@GHNAAKBB@client?5block?5at?50x?$CFp?0?5subtype?5?$CFx@ 004512dc     LIBCMTD:dbgheap.obj
 0002:00005310       ??_C@_06PKLGBFGM@?$HL?$CFld?$HN?5?$AA@ 00451310     LIBCMTD:dbgheap.obj
 0002:00005318       ??_C@_0L@JMEFFCCJ@?$CFhs?$CI?$CFd?$CJ?5?3?5?$AA@ 00451318     LIBCMTD:dbgheap.obj
 0002:00005324       ??_C@_0BE@OIEFNFL@?$CDFile?5Error?$CD?$CI?$CFd?$CJ?5?3?5?$AA@ 00451324     LIBCMTD:dbgheap.obj
 0002:00005338       ??_C@_0BE@KCIPKCIA@Dumping?5objects?5?9?$DO?6?$AA@ 00451338     LIBCMTD:dbgheap.obj
 0002:0000534c       ??_C@_0BA@HJBKCELP@?5Data?3?5?$DM?$CFs?$DO?5?$CFs?6?$AA@ 0045134c     LIBCMTD:dbgheap.obj
 0002:0000535c       ??_C@_1CG@LPFIACGM@?$AA_?$AAp?$AAr?$AAi?$AAn?$AAt?$AAM?$AAe?$AAm?$AAB?$AAl?$AAo?$AAc?$AAk?$AAD?$AAa?$AAt?$AAa?$AA?$AA@ 0045135c     LIBCMTD:dbgheap.obj
 0002:00005384       ??_C@_0BI@JBFPOEJA@Detected?5memory?5leaks?$CB?6?$AA@ 00451384     LIBCMTD:dbgheap.obj
 0002:0000539c       ??_C@_0BP@DEDHGGGI@Total?5allocations?3?5?$CFId?5bytes?4?6?$AA@ 0045139c     LIBCMTD:dbgheap.obj
 0002:000053bc       ??_C@_0CB@BLHDAFNE@Largest?5number?5used?3?5?$CFId?5bytes?4?6@ 004513bc     LIBCMTD:dbgheap.obj
 0002:000053e0       ??_C@_0BO@DACNIABB@?$CFId?5bytes?5in?5?$CFId?5?$CFhs?5Blocks?4?6?$AA@ 004513e0     LIBCMTD:dbgheap.obj
 0002:00005400       ??_C@_1CM@MPNIBKGK@?$AA_?$AAC?$AAr?$AAt?$AAM?$AAe?$AAm?$AAD?$AAu?$AAm?$AAp?$AAS?$AAt?$AAa?$AAt?$AAi?$AAs?$AAt?$AAi?$AAc?$AAs?$AA?$AA@ 00451400     LIBCMTD:dbgheap.obj
 0002:0000542c       ??_C@_1DK@LFLKFPDA@?$AAo?$AAf?$AAf?$AAs?$AAe?$AAt?$AA?5?$AA?$DN?$AA?$DN?$AA?5?$AA0?$AA?5?$AA?$HM?$AA?$HM?$AA?5?$AAo?$AAf?$AAf?$AAs?$AAe?$AAt?$AA?5?$AA?$DM?$AA?5?$AAs?$AAi?$AAz?$AAe?$AA?$AA@ 0045142c     LIBCMTD:dbgheap.obj
 0002:00005468       ??_C@_1DG@DONCJBBJ@?$AA_?$AAa?$AAl?$AAi?$AAg?$AAn?$AAe?$AAd?$AA_?$AAo?$AAf?$AAf?$AAs?$AAe?$AAt?$AA_?$AAm?$AAa?$AAl?$AAl?$AAo?$AAc?$AA_?$AAd?$AAb?$AAg?$AA?$AA@ 00451468     LIBCMTD:dbgheap.obj
 0002:000054a0       ??_C@_1CE@NPMGPNNP@?$AAI?$AAS?$AA_?$AA2?$AA_?$AAP?$AAO?$AAW?$AA_?$AAN?$AA?$CI?$AAa?$AAl?$AAi?$AAg?$AAn?$AA?$CJ?$AA?$AA@ 004514a0     LIBCMTD:dbgheap.obj
 0002:000054c4       ??_C@_1DI@NINIKFFK@?$AA_?$AAa?$AAl?$AAi?$AAg?$AAn?$AAe?$AAd?$AA_?$AAo?$AAf?$AAf?$AAs?$AAe?$AAt?$AA_?$AAr?$AAe?$AAa?$AAl?$AAl?$AAo?$AAc?$AA_?$AAd?$AAb?$AAg?$AA?$AA@ 004514c4     LIBCMTD:dbgheap.obj
 0002:000054fc       ??_C@_0DL@PGHMMKNE@Damage?5before?50x?$CFp?5which?5was?5all@ 004514fc     LIBCMTD:dbgheap.obj
 0002:00005538       ??_C@_0EI@NDNJMAJK@The?5block?5at?50x?$CFp?5was?5not?5alloca@ 00451538     LIBCMTD:dbgheap.obj
 0002:00005580       ??_C@_0EF@PGELACII@The?5block?5at?50x?$CFp?5was?5not?5alloca@ 00451580     LIBCMTD:dbgheap.obj
 0002:000055c8       ??_C@_1CG@CEGMHIMN@?$AA_?$AAa?$AAl?$AAi?$AAg?$AAn?$AAe?$AAd?$AA_?$AAm?$AAs?$AAi?$AAz?$AAe?$AA_?$AAd?$AAb?$AAg?$AA?$AA@ 004515c8     LIBCMTD:dbgheap.obj
 0002:000055f0       ??_C@_1CC@MOBIKHH@?$AAm?$AAe?$AAm?$AAb?$AAl?$AAo?$AAc?$AAk?$AA?5?$AA?$CB?$AA?$DN?$AA?5?$AAN?$AAU?$AAL?$AAL?$AA?$AA@ 004515f0     LIBCMTD:dbgheap.obj
 0002:00005618       ??_C@_1FK@LNCFKALM@?$AA?$CI?$AA?$CI?$AAs?$AAt?$AAa?$AAt?$AAe?$AA?5?$AA?$DN?$AA?$DN?$AA?5?$AAS?$AAT?$AA_?$AAN?$AAO?$AAR?$AAM?$AAA?$AAL?$AA?$CJ?$AA?5?$AA?$HM?$AA?$HM?$AA?5?$AA?$CI?$AAs?$AAt?$AAa?$AAt?$AAe?$AA?5@ 00451618     LIBCMTD:woutputs.obj
 0002:00005678       ??_C@_1EE@DMAIGNBG@?$AA?$CI?$AA?$CC?$AAI?$AAn?$AAc?$AAo?$AAr?$AAr?$AAe?$AAc?$AAt?$AA?5?$AAf?$AAo?$AAr?$AAm?$AAa?$AAt?$AA?5?$AAs?$AAp?$AAe?$AAc?$AAi?$AAf?$AAi?$AAe?$AAr?$AA?$CC?$AA?0?$AA?5?$AA0@ 00451678     LIBCMTD:woutputs.obj
 0002:000056bc       ??_C@_1BK@ONMFGLDB@?$AA_?$AAw?$AAo?$AAu?$AAt?$AAp?$AAu?$AAt?$AA_?$AAs?$AA_?$AAl?$AA?$AA@ 004516bc     LIBCMTD:woutputs.obj
 0002:000056d8       ??_C@_1FK@BCPANIEK@?$AA?$CI?$AA?$CC?$AAM?$AAi?$AAs?$AAs?$AAi?$AAn?$AAg?$AA?5?$AAp?$AAo?$AAs?$AAi?$AAt?$AAi?$AAo?$AAn?$AA?5?$AAi?$AAn?$AA?5?$AAt?$AAh?$AAe?$AA?5?$AAf?$AAo?$AAr?$AAm?$AAa?$AAt@ 004516d8     LIBCMTD:woutputp.obj
 0002:00005738       ??_C@_1JC@OACKELNN@?$AA_?$AAt?$AAv?$AAa?$AAl?$AAi?$AAd?$AAa?$AAt?$AAe?$AA_?$AAp?$AAa?$AAr?$AAa?$AAm?$AA_?$AAr?$AAe?$AAu?$AAs?$AAe?$AA?$CI?$AA?$CG?$AAp?$AAo?$AAs?$AA_?$AAv?$AAa?$AAl?$AAu@ 00451738     LIBCMTD:woutputp.obj
 0002:000057d0       ??_C@_1IK@NBGDDCBN@?$AA_?$AAt?$AAv?$AAa?$AAl?$AAi?$AAd?$AAa?$AAt?$AAe?$AA_?$AAp?$AAa?$AAr?$AAa?$AAm?$AA_?$AAr?$AAe?$AAu?$AAs?$AAe?$AA?$CI?$AA?$CG?$AAp?$AAo?$AAs?$AA_?$AAv?$AAa?$AAl?$AAu@ 004517d0     LIBCMTD:woutputp.obj
 0002:0000585c       ??_C@_1DG@GOHGNKHE@?$AAp?$AAa?$AAs?$AAs?$AA?5?$AA?$DN?$AA?$DN?$AA?5?$AAF?$AAO?$AAR?$AAM?$AAA?$AAT?$AA_?$AAO?$AAU?$AAT?$AAP?$AAU?$AAT?$AA_?$AAP?$AAA?$AAS?$AAS?$AA?$AA@ 0045185c     LIBCMTD:woutputp.obj
 0002:00005898       ??_C@_1IM@DNGHAPLB@?$AA_?$AAt?$AAv?$AAa?$AAl?$AAi?$AAd?$AAa?$AAt?$AAe?$AA_?$AAp?$AAa?$AAr?$AAa?$AAm?$AA_?$AAr?$AAe?$AAu?$AAs?$AAe?$AA?$CI?$AA?$CG?$AAp?$AAo?$AAs?$AA_?$AAv?$AAa?$AAl?$AAu@ 00451898     LIBCMTD:woutputp.obj
 0002:00005928       ??_C@_1IG@HJIMKDHC@?$AA_?$AAt?$AAv?$AAa?$AAl?$AAi?$AAd?$AAa?$AAt?$AAe?$AA_?$AAp?$AAa?$AAr?$AAa?$AAm?$AA_?$AAr?$AAe?$AAu?$AAs?$AAe?$AA?$CI?$AA?$CG?$AAp?$AAo?$AAs?$AA_?$AAv?$AAa?$AAl?$AAu@ 00451928     LIBCMTD:woutputp.obj
 0002:000059b0       ??_C@_1IG@FDCPLALG@?$AA_?$AAt?$AAv?$AAa?$AAl?$AAi?$AAd?$AAa?$AAt?$AAe?$AA_?$AAp?$AAa?$AAr?$AAa?$AAm?$AA_?$AAr?$AAe?$AAu?$AAs?$AAe?$AA?$CI?$AA?$CG?$AAp?$AAo?$AAs?$AA_?$AAv?$AAa?$AAl?$AAu@ 004519b0     LIBCMTD:woutputp.obj
 0002:00005a38       ??_C@_1EM@BNPHBBIA@?$AA?$CI?$AA?$CI?$AAt?$AAy?$AAp?$AAe?$AA_?$AAp?$AAo?$AAs?$AA?$DO?$AA?$DN?$AA0?$AA?$CJ?$AA?5?$AA?$CG?$AA?$CG?$AA?5?$AA?$CI?$AAt?$AAy?$AAp?$AAe?$AA_?$AAp?$AAo?$AAs?$AA?$DM?$AA_?$AAA?$AAR?$AAG@ 00451a38     LIBCMTD:woutputp.obj
 0002:00005a88       ??_C@_1IK@EIEPDKHJ@?$AA_?$AAt?$AAv?$AAa?$AAl?$AAi?$AAd?$AAa?$AAt?$AAe?$AA_?$AAp?$AAa?$AAr?$AAa?$AAm?$AA_?$AAr?$AAe?$AAu?$AAs?$AAe?$AA?$CI?$AA?$CG?$AAp?$AAo?$AAs?$AA_?$AAv?$AAa?$AAl?$AAu@ 00451a88     LIBCMTD:woutputp.obj
 0002:00005b18       ??_C@_1JG@JBJBOCFB@?$AA?$CI?$AA?$CI?$AAp?$AAr?$AAe?$AAc?$AAi?$AAs?$AA_?$AAp?$AAo?$AAs?$AA?5?$AA?$DO?$AA?$DN?$AA?5?$AA0?$AA?$CJ?$AA?5?$AA?$CG?$AA?$CG?$AA?5?$AA?$CI?$AA?$CK?$AAe?$AAn?$AAd?$AA_?$AAp?$AAo?$AAs?$AA?5@ 00451b18     LIBCMTD:woutputp.obj
 0002:00005bb0       ??_C@_1II@PIPIMLPF@?$AA_?$AAt?$AAv?$AAa?$AAl?$AAi?$AAd?$AAa?$AAt?$AAe?$AA_?$AAp?$AAa?$AAr?$AAa?$AAm?$AA_?$AAr?$AAe?$AAu?$AAs?$AAe?$AA?$CI?$AA?$CG?$AAp?$AAo?$AAs?$AA_?$AAv?$AAa?$AAl?$AAu@ 00451bb0     LIBCMTD:woutputp.obj
 0002:00005c38       ??_C@_1JE@NMBHOLFI@?$AA?$CI?$AA?$CI?$AAw?$AAi?$AAd?$AAt?$AAh?$AA_?$AAp?$AAo?$AAs?$AA?5?$AA?$DO?$AA?$DN?$AA?5?$AA0?$AA?$CJ?$AA?5?$AA?$CG?$AA?$CG?$AA?5?$AA?$CI?$AA?$CK?$AAe?$AAn?$AAd?$AA_?$AAp?$AAo?$AAs?$AA?5?$AA?$DN@ 00451c38     LIBCMTD:woutputp.obj
 0002:00005cd0       ??_C@_1JC@PFJNKEIO@?$AA?$CI?$AA?$CI?$AAt?$AAy?$AAp?$AAe?$AA_?$AAp?$AAo?$AAs?$AA?5?$AA?$DO?$AA?$DN?$AA?5?$AA0?$AA?$CJ?$AA?5?$AA?$CG?$AA?$CG?$AA?5?$AA?$CI?$AA?$CK?$AAe?$AAn?$AAd?$AA_?$AAp?$AAo?$AAs?$AA?5?$AA?$DN?$AA?$DN@ 00451cd0     LIBCMTD:woutputp.obj
 0002:00005d64       ??_C@_1BK@GDEKGMNC@?$AA_?$AAw?$AAo?$AAu?$AAt?$AAp?$AAu?$AAt?$AA_?$AAp?$AA_?$AAl?$AA?$AA@ 00451d64     LIBCMTD:woutputp.obj
 0002:00005d80       ??_C@_0CP@BNKDODJJ@f?3?2dd?2vctools?2crt_bld?2self_x86?2c@ 00451d80     LIBCMTD:_file.obj
 0002:00005db0       ??_C@_1JE@ECKHFIFP@?$AA?$CI?$AA?$CC?$AAI?$AAn?$AAv?$AAa?$AAl?$AAi?$AAd?$AA?5?$AAf?$AAi?$AAl?$AAe?$AA?5?$AAd?$AAe?$AAs?$AAc?$AAr?$AAi?$AAp?$AAt?$AAo?$AAr?$AA?4?$AA?5?$AAF?$AAi?$AAl?$AAe?$AA?5@ 00451db0     LIBCMTD:commit.obj
 0002:00005e44       ??_C@_1DG@LNNHNFHJ@?$AA?$CI?$AA_?$AAo?$AAs?$AAf?$AAi?$AAl?$AAe?$AA?$CI?$AAf?$AAi?$AAl?$AAe?$AAd?$AAe?$AAs?$AA?$CJ?$AA?5?$AA?$CG?$AA?5?$AAF?$AAO?$AAP?$AAE?$AAN?$AA?$CJ?$AA?$AA@ 00451e44     LIBCMTD:commit.obj
 0002:00005e7c       ??_C@_1BA@FLNMBBIM@?$AA_?$AAc?$AAo?$AAm?$AAm?$AAi?$AAt?$AA?$AA@ 00451e7c     LIBCMTD:commit.obj
 0002:00005e90       ??_C@_1GA@BOPCOCFN@?$AAf?$AA?3?$AA?2?$AAd?$AAd?$AA?2?$AAv?$AAc?$AAt?$AAo?$AAo?$AAl?$AAs?$AA?2?$AAc?$AAr?$AAt?$AA_?$AAb?$AAl?$AAd?$AA?2?$AAs?$AAe?$AAl?$AAf?$AA_?$AAx?$AA8?$AA6?$AA?2?$AAc@ 00451e90     LIBCMTD:commit.obj
 0002:00005ef0       ??_C@_1HC@KFLBHHBC@?$AA?$CI?$AAf?$AAi?$AAl?$AAe?$AAd?$AAe?$AAs?$AA?5?$AA?$DO?$AA?$DN?$AA?5?$AA0?$AA?5?$AA?$CG?$AA?$CG?$AA?5?$AA?$CI?$AAu?$AAn?$AAs?$AAi?$AAg?$AAn?$AAe?$AAd?$AA?$CJ?$AAf?$AAi?$AAl?$AAe?$AAd@ 00451ef0     LIBCMTD:commit.obj
 0002:00005f64       ??_C@_1BA@JGHIEKKM@?$AA_?$AAf?$AAi?$AAl?$AAe?$AAn?$AAo?$AA?$AA@ 00451f64     LIBCMTD:fileno.obj
 0002:00005f78       ??_C@_1GA@PBJHELNC@?$AAf?$AA?3?$AA?2?$AAd?$AAd?$AA?2?$AAv?$AAc?$AAt?$AAo?$AAo?$AAl?$AAs?$AA?2?$AAc?$AAr?$AAt?$AA_?$AAb?$AAl?$AAd?$AA?2?$AAs?$AAe?$AAl?$AAf?$AA_?$AAx?$AA8?$AA6?$AA?2?$AAc@ 00451f78     LIBCMTD:fileno.obj
 0002:00005fd8       ??_C@_1CM@OKGMMMDH@?$AA?$CI?$AA_?$AAo?$AAs?$AAf?$AAi?$AAl?$AAe?$AA?$CI?$AAf?$AAh?$AA?$CJ?$AA?5?$AA?$CG?$AA?5?$AAF?$AAO?$AAP?$AAE?$AAN?$AA?$CJ?$AA?$AA@ 00451fd8     LIBCMTD:write.obj
 0002:00006004       ??_C@_1O@KOFKDHPL@?$AA_?$AAw?$AAr?$AAi?$AAt?$AAe?$AA?$AA@ 00452004     LIBCMTD:write.obj
 0002:00006018       ??_C@_1FO@EPLDPDDL@?$AAf?$AA?3?$AA?2?$AAd?$AAd?$AA?2?$AAv?$AAc?$AAt?$AAo?$AAo?$AAl?$AAs?$AA?2?$AAc?$AAr?$AAt?$AA_?$AAb?$AAl?$AAd?$AA?2?$AAs?$AAe?$AAl?$AAf?$AA_?$AAx?$AA8?$AA6?$AA?2?$AAc@ 00452018     LIBCMTD:write.obj
 0002:00006078       ??_C@_1FO@LPCLHKGE@?$AA?$CI?$AAf?$AAh?$AA?5?$AA?$DO?$AA?$DN?$AA?5?$AA0?$AA?5?$AA?$CG?$AA?$CG?$AA?5?$AA?$CI?$AAu?$AAn?$AAs?$AAi?$AAg?$AAn?$AAe?$AAd?$AA?$CJ?$AAf?$AAh?$AA?5?$AA?$DM?$AA?5?$AA?$CI?$AAu?$AAn?$AAs?$AAi@ 00452078     LIBCMTD:write.obj
 0002:000060d8       ??_C@_1DI@CNMHHHLG@?$AAi?$AAs?$AAl?$AAe?$AAa?$AAd?$AAb?$AAy?$AAt?$AAe?$AA?$CI?$AA_?$AAd?$AAb?$AAc?$AAs?$AAB?$AAu?$AAf?$AAf?$AAe?$AAr?$AA?$CI?$AAf?$AAh?$AA?$CJ?$AA?$CJ?$AA?$AA@ 004520d8     LIBCMTD:write.obj
 0002:00006110       ??_C@_1CC@EEOLPHGO@?$AA?$CI?$AA?$CI?$AAc?$AAn?$AAt?$AA?5?$AA?$CG?$AA?5?$AA1?$AA?$CJ?$AA?5?$AA?$DN?$AA?$DN?$AA?5?$AA0?$AA?$CJ?$AA?$AA@ 00452110     LIBCMTD:write.obj
 0002:00006134       ??_C@_1BM@NCANHCIP@?$AA_?$AAw?$AAr?$AAi?$AAt?$AAe?$AA_?$AAn?$AAo?$AAl?$AAo?$AAc?$AAk?$AA?$AA@ 00452134     LIBCMTD:write.obj
 0002:00006150       ??_C@_1BM@KFJLMBPG@?$AA?$CI?$AAb?$AAu?$AAf?$AA?5?$AA?$CB?$AA?$DN?$AA?5?$AAN?$AAU?$AAL?$AAL?$AA?$CJ?$AA?$AA@ 00452150     LIBCMTD:write.obj
 0002:0000616c       ??_C@_0CP@MKONOLCI@f?3?2dd?2vctools?2crt_bld?2self_x86?2c@ 0045216c     LIBCMTD:mlock.obj
 0002:0000619c       ??_C@_0DB@OLNNDFNH@f?3?2dd?2vctools?2crt_bld?2self_x86?2c@ 0045219c     LIBCMTD:_sftbuf.obj
 0002:000061d0       ??_C@_1GC@DGAFOCMO@?$AAf?$AA?3?$AA?2?$AAd?$AAd?$AA?2?$AAv?$AAc?$AAt?$AAo?$AAo?$AAl?$AAs?$AA?2?$AAc?$AAr?$AAt?$AA_?$AAb?$AAl?$AAd?$AA?2?$AAs?$AAe?$AAl?$AAf?$AA_?$AAx?$AA8?$AA6?$AA?2?$AAc@ 004521d0     LIBCMTD:_sftbuf.obj
 0002:00006234       ??_C@_1CO@KCKAACMI@?$AAf?$AAl?$AAa?$AAg?$AA?5?$AA?$DN?$AA?$DN?$AA?5?$AA0?$AA?5?$AA?$HM?$AA?$HM?$AA?5?$AAf?$AAl?$AAa?$AAg?$AA?5?$AA?$DN?$AA?$DN?$AA?5?$AA1?$AA?$AA@ 00452234     LIBCMTD:_sftbuf.obj
 0002:00006264       ??_C@_1O@EDEJGJBM@?$AA_?$AAc?$AAl?$AAo?$AAs?$AAe?$AA?$AA@ 00452264     LIBCMTD:close.obj
 0002:00006278       ??_C@_1FO@NNGNFGFH@?$AAf?$AA?3?$AA?2?$AAd?$AAd?$AA?2?$AAv?$AAc?$AAt?$AAo?$AAo?$AAl?$AAs?$AA?2?$AAc?$AAr?$AAt?$AA_?$AAb?$AAl?$AAd?$AA?2?$AAs?$AAe?$AAl?$AAf?$AA_?$AAx?$AA8?$AA6?$AA?2?$AAc@ 00452278     LIBCMTD:close.obj
 0002:000062d8       ??_C@_1GE@MIMBMOF@?$AAf?$AA?3?$AA?2?$AAd?$AAd?$AA?2?$AAv?$AAc?$AAt?$AAo?$AAo?$AAl?$AAs?$AA?2?$AAc?$AAr?$AAt?$AA_?$AAb?$AAl?$AAd?$AA?2?$AAs?$AAe?$AAl?$AAf?$AA_?$AAx?$AA8?$AA6?$AA?2?$AAc@ 004522d8     LIBCMTD:_freebuf.obj
 0002:0000633c       ??_C@_1BO@KIJENGPH@?$AAs?$AAt?$AAr?$AAe?$AAa?$AAm?$AA?5?$AA?$CB?$AA?$DN?$AA?5?$AAN?$AAU?$AAL?$AAL?$AA?$AA@ 0045233c     LIBCMTD:_freebuf.obj
 0002:0000635c       ??_C@_0DA@NBLAKPEL@f?3?2dd?2vctools?2crt_bld?2self_x86?2c@ 0045235c     LIBCMTD:ioinit.obj
 0002:0000638c       ??_C@_1O@EDOIKGHF@?$AA_?$AAl?$AAs?$AAe?$AAe?$AAk?$AA?$AA@ 0045238c     LIBCMTD:lseek.obj
 0002:000063a0       ??_C@_1FO@LGKMLCAL@?$AAf?$AA?3?$AA?2?$AAd?$AAd?$AA?2?$AAv?$AAc?$AAt?$AAo?$AAo?$AAl?$AAs?$AA?2?$AAc?$AAr?$AAt?$AA_?$AAb?$AAl?$AAd?$AA?2?$AAs?$AAe?$AAl?$AAf?$AA_?$AAx?$AA8?$AA6?$AA?2?$AAc@ 004523a0     LIBCMTD:lseek.obj
 0002:00006400       ??_C@_1DM@LMLOLGJ@?$AA?$CI?$AA?$CC?$AAI?$AAn?$AAv?$AAa?$AAl?$AAi?$AAd?$AA?5?$AAf?$AAi?$AAl?$AAe?$AA?5?$AAd?$AAe?$AAs?$AAc?$AAr?$AAi?$AAp?$AAt?$AAo?$AAr?$AA?$CC?$AA?0?$AA0?$AA?$CJ?$AA?$AA@ 00452400     LIBCMTD:lseek.obj
 0002:00006474       ??_C@_1CI@KEDPFCAL@?$AA?$CI?$AA?$CK?$AAm?$AAo?$AAd?$AAe?$AA?5?$AA?$DN?$AA?$DN?$AA?5?$AA_?$AAT?$AA?$CI?$AA?8?$AA?2?$AA0?$AA?8?$AA?$CJ?$AA?$CJ?$AA?$AA@ 00452474     LIBCMTD:_wopen.obj
 0002:0000649c       ??_C@_1BG@KBCPEELG@?$AA_?$AAw?$AAo?$AAp?$AAe?$AAn?$AAf?$AAi?$AAl?$AAe?$AA?$AA@ 0045249c     LIBCMTD:_wopen.obj
 0002:000064b4       ??_C@_1DK@PKMJBLLN@?$AA?$CI?$AA?$CC?$AAI?$AAn?$AAv?$AAa?$AAl?$AAi?$AAd?$AA?5?$AAf?$AAi?$AAl?$AAe?$AA?5?$AAo?$AAp?$AAe?$AAn?$AA?5?$AAm?$AAo?$AAd?$AAe?$AA?$CC?$AA?0?$AA0?$AA?$CJ?$AA?$AA@ 004524b4     LIBCMTD:_wopen.obj
 0002:000064f0       ??_C@_1BK@HGLMNMEC@?$AAm?$AAo?$AAd?$AAe?$AA?5?$AA?$CB?$AA?$DN?$AA?5?$AAN?$AAU?$AAL?$AAL?$AA?$AA@ 004524f0     LIBCMTD:_wopen.obj
 0002:00006510       ??_C@_1FO@POGAHKND@?$AAf?$AA?3?$AA?2?$AAd?$AAd?$AA?2?$AAv?$AAc?$AAt?$AAo?$AAo?$AAl?$AAs?$AA?2?$AAc?$AAr?$AAt?$AA_?$AAb?$AAl?$AAd?$AA?2?$AAs?$AAe?$AAl?$AAf?$AA_?$AAx?$AA8?$AA6?$AA?2?$AAc@ 00452510     LIBCMTD:_wopen.obj
 0002:00006570       ??_C@_1CC@JBMDNKJP@?$AAf?$AAi?$AAl?$AAe?$AAn?$AAa?$AAm?$AAe?$AA?5?$AA?$CB?$AA?$DN?$AA?5?$AAN?$AAU?$AAL?$AAL?$AA?$AA@ 00452570     LIBCMTD:_wopen.obj
 0002:00006594       ??_C@_0DA@NLPACBPK@f?3?2dd?2vctools?2crt_bld?2self_x86?2c@ 00452594     LIBCMTD:stream.obj
 0002:000065c4       ??_C@_1BK@EPLNBKAK@?$AA_?$AAv?$AAs?$AAw?$AAp?$AAr?$AAi?$AAn?$AAt?$AAf?$AA_?$AAl?$AA?$AA@ 004525c4     LIBCMTD:vswprint.obj
 0002:000065e0       ??_C@_1CG@IMMIEPNA@?$AA_?$AAv?$AAs?$AAc?$AAw?$AAp?$AAr?$AAi?$AAn?$AAt?$AAf?$AA_?$AAh?$AAe?$AAl?$AAp?$AAe?$AAr?$AA?$AA@ 004525e0     LIBCMTD:vswprint.obj
 0002:00006608       __pDestructExceptionObject 00452608     LIBCMTD:frame.obj
 0002:0000660c       ??_C@_0O@DPKOEFFH@bad?5exception?$AA@ 0045260c     LIBCMTD:frame.obj
 0002:00006620       ??_7bad_exception@std@@6B@ 00452620     LIBCMTD:frame.obj
 0002:00006628       ??_C@_0DC@LMJHGCKC@f?3?2dd?2vctools?2crt_bld?2self_x86?2c@ 00452628     LIBCMTD:tidtable.obj
 0002:0000665c       ??_C@_07PEJMOBNF@FlsFree?$AA@ 0045265c     LIBCMTD:tidtable.obj
 0002:00006664       ??_C@_0M@JCPCPOEF@FlsSetValue?$AA@ 00452664     LIBCMTD:tidtable.obj
 0002:00006670       ??_C@_0M@GDNOONDI@FlsGetValue?$AA@ 00452670     LIBCMTD:tidtable.obj
 0002:0000667c       ??_C@_08KNHFBNJ@FlsAlloc?$AA@ 0045267c     LIBCMTD:tidtable.obj
 0002:00006688       ??_C@_1BK@DBDEIDLH@?$AAK?$AAE?$AAR?$AAN?$AAE?$AAL?$AA3?$AA2?$AA?4?$AAD?$AAL?$AAL?$AA?$AA@ 00452688     LIBCMTD:tidtable.obj
 0002:000066a4       ??_C@_0P@MIGLKIOC@CorExitProcess?$AA@ 004526a4     LIBCMTD:crt0dat.obj
 0002:000066b4       ??_C@_1BI@BGOHAHKC@?$AAm?$AAs?$AAc?$AAo?$AAr?$AAe?$AAe?$AA?4?$AAd?$AAl?$AAl?$AA?$AA@ 004526b4     LIBCMTD:crt0dat.obj
 0002:000066cc       ??_C@_1CC@CDIPMFPD@?$AA_?$AAw?$AAp?$AAg?$AAm?$AAp?$AAt?$AAr?$AA?5?$AA?$CB?$AA?$DN?$AA?5?$AAN?$AAU?$AAL?$AAL?$AA?$AA@ 004526cc     LIBCMTD:crt0dat.obj
 0002:000066f0       ??_C@_1BK@PNLDCCDP@?$AA_?$AAg?$AAe?$AAt?$AA_?$AAw?$AAp?$AAg?$AAm?$AAp?$AAt?$AAr?$AA?$AA@ 004526f0     LIBCMTD:crt0dat.obj
 0002:00006710       ??_C@_1GC@DGCPEDNJ@?$AAf?$AA?3?$AA?2?$AAd?$AAd?$AA?2?$AAv?$AAc?$AAt?$AAo?$AAo?$AAl?$AAs?$AA?2?$AAc?$AAr?$AAt?$AA_?$AAb?$AAl?$AAd?$AA?2?$AAs?$AAe?$AAl?$AAf?$AA_?$AAx?$AA8?$AA6?$AA?2?$AAc@ 00452710     LIBCMTD:crt0dat.obj
 0002:00006774       ??_C@_1CA@BBNAFCKO@?$AA_?$AAp?$AAg?$AAm?$AAp?$AAt?$AAr?$AA?5?$AA?$CB?$AA?$DN?$AA?5?$AAN?$AAU?$AAL?$AAL?$AA?$AA@ 00452774     LIBCMTD:crt0dat.obj
 0002:00006794       ??_C@_1BI@COAAPHJK@?$AA_?$AAg?$AAe?$AAt?$AA_?$AAp?$AAg?$AAm?$AAp?$AAt?$AAr?$AA?$AA@ 00452794     LIBCMTD:crt0dat.obj
 0002:000067b0       ??_C@_1HG@KNCBMCDD@?$AAf?$AA?3?$AA?2?$AAd?$AAd?$AA?2?$AAv?$AAc?$AAt?$AAo?$AAo?$AAl?$AAs?$AA?2?$AAc?$AAr?$AAt?$AA_?$AAb?$AAl?$AAd?$AA?2?$AAs?$AAe?$AAl?$AAf?$AA_?$AAx?$AA8?$AA6?$AA?2?$AAc@ 004527b0     LIBCMTD:typname.obj
 0002:00006828       ??_C@_1CK@GELGGBDK@?$AAp?$AAN?$AAo?$AAd?$AAe?$AA?9?$AA?$DO?$AA_?$AAN?$AAe?$AAx?$AAt?$AA?5?$AA?$CB?$AA?$DN?$AA?5?$AAN?$AAU?$AAL?$AAL?$AA?$AA@ 00452828     LIBCMTD:typname.obj
 0002:00006858       ??_C@_1JK@NAFNEPGC@?$AAs?$AAt?$AAr?$AAc?$AAp?$AAy?$AA_?$AAs?$AA?5?$AA?$CI?$AA?$CI?$AAc?$AAh?$AAa?$AAr?$AA?5?$AA?$CK?$AA?$CJ?$AA?$CI?$AA?$CI?$AAt?$AAy?$AAp?$AAe?$AA_?$AAi?$AAn?$AAf?$AAo?$AA?5?$AA?$CK?$AA?$CJ@ 00452858     LIBCMTD:typname.obj
 0002:000068f4       ??_C@_1CM@OOICDMK@?$AAt?$AAy?$AAp?$AAe?$AA_?$AAi?$AAn?$AAf?$AAo?$AA?3?$AA?3?$AA_?$AAN?$AAa?$AAm?$AAe?$AA_?$AAb?$AAa?$AAs?$AAe?$AA?$AA@ 004528f4     LIBCMTD:typname.obj
 0002:00006920       ??_C@_1GI@EAJKJPED@?$AAs?$AAt?$AAr?$AAc?$AAp?$AAy?$AA_?$AAs?$AA?5?$AA?$CI?$AAp?$AAT?$AAm?$AAp?$AAT?$AAy?$AAp?$AAe?$AAN?$AAa?$AAm?$AAe?$AA?0?$AA?5?$AAl?$AAe?$AAn?$AA?$CL?$AA2?$AA?0?$AA?5?$AA?$CI@ 00452920     LIBCMTD:typname.obj
 0002:00006988       ??_C@_1DO@OJJLFJPE@?$AAt?$AAy?$AAp?$AAe?$AA_?$AAi?$AAn?$AAf?$AAo?$AA?3?$AA?3?$AA_?$AAN?$AAa?$AAm?$AAe?$AA_?$AAb?$AAa?$AAs?$AAe?$AA_?$AAi?$AAn?$AAt?$AAe?$AAr?$AAn?$AAa?$AAl?$AA?$AA@ 00452988     LIBCMTD:typname.obj
 0002:000069c8       ??_C@_1GG@CDHAPCGF@?$AAf?$AA?3?$AA?2?$AAd?$AAd?$AA?2?$AAv?$AAc?$AAt?$AAo?$AAo?$AAl?$AAs?$AA?2?$AAc?$AAr?$AAt?$AA_?$AAb?$AAl?$AAd?$AA?2?$AAs?$AAe?$AAl?$AAf?$AA_?$AAx?$AA8?$AA6?$AA?2?$AAc@ 004529c8     LIBCMTD:handler.obj
 0002:00006a30       ??_C@_1BC@JLLICHIC@?$AAp?$AAn?$AAh?$AA?5?$AA?$DN?$AA?$DN?$AA?5?$AA0?$AA?$AA@ 00452a30     LIBCMTD:handler.obj
 0002:00006a44       ??_C@_0DB@MHMEONEC@f?3?2dd?2vctools?2crt_bld?2self_x86?2c@ 00452a44     LIBCMTD:mbctype.obj
 0002:00006a78       ??_C@_1GE@HMAALBPJ@?$AAf?$AA?3?$AA?2?$AAd?$AAd?$AA?2?$AAv?$AAc?$AAt?$AAo?$AAo?$AAl?$AAs?$AA?2?$AAc?$AAr?$AAt?$AA_?$AAb?$AAl?$AAd?$AA?2?$AAs?$AAe?$AAl?$AAf?$AA_?$AAx?$AA8?$AA6?$AA?2?$AAc@ 00452a78     LIBCMTD:localref.obj
 0002:00006ae0       ??_C@_1BKC@GGIENNAK@?$AA?$CI?$AA?$CI?$AAp?$AAt?$AAl?$AAo?$AAc?$AAi?$AA?9?$AA?$DO?$AAl?$AAc?$AA_?$AAc?$AAa?$AAt?$AAe?$AAg?$AAo?$AAr?$AAy?$AA?$FL?$AAc?$AAa?$AAt?$AAe?$AAg?$AAo?$AAr?$AAy?$AA?$FN?$AA?4@ 00452ae0     LIBCMTD:localref.obj
 0002:00006c84       ??_C@_1BC@GDGBMEMK@?$AAH?$AAH?$AA?3?$AAm?$AAm?$AA?3?$AAs?$AAs?$AA?$AA@ 00452c84     LIBCMTD:nlsdata2.obj
 0002:00006c98       ??_C@_1CI@KNAKOEBC@?$AAd?$AAd?$AAd?$AAd?$AA?0?$AA?5?$AAM?$AAM?$AAM?$AAM?$AA?5?$AAd?$AAd?$AA?0?$AA?5?$AAy?$AAy?$AAy?$AAy?$AA?$AA@ 00452c98     LIBCMTD:nlsdata2.obj
 0002:00006cc0       ??_C@_1BC@IEBCMHCM@?$AAM?$AAM?$AA?1?$AAd?$AAd?$AA?1?$AAy?$AAy?$AA?$AA@ 00452cc0     LIBCMTD:nlsdata2.obj
 0002:00006cd4       ??_C@_15CLMNNGEL@?$AAP?$AAM?$AA?$AA@ 00452cd4     LIBCMTD:nlsdata2.obj
 0002:00006cdc       ??_C@_15ODEHAHHF@?$AAA?$AAM?$AA?$AA@ 00452cdc     LIBCMTD:nlsdata2.obj
 0002:00006ce4       ??_C@_1BC@FEMKIFH@?$AAD?$AAe?$AAc?$AAe?$AAm?$AAb?$AAe?$AAr?$AA?$AA@ 00452ce4     LIBCMTD:nlsdata2.obj
 0002:00006cf8       ??_C@_1BC@BGLIFPF@?$AAN?$AAo?$AAv?$AAe?$AAm?$AAb?$AAe?$AAr?$AA?$AA@ 00452cf8     LIBCMTD:nlsdata2.obj
 0002:00006d0c       ??_C@_1BA@EPANDLNG@?$AAO?$AAc?$AAt?$AAo?$AAb?$AAe?$AAr?$AA?$AA@ 00452d0c     LIBCMTD:nlsdata2.obj
 0002:00006d1c       ??_C@_1BE@DKAAMBJL@?$AAS?$AAe?$AAp?$AAt?$AAe?$AAm?$AAb?$AAe?$AAr?$AA?$AA@ 00452d1c     LIBCMTD:nlsdata2.obj
 0002:00006d30       ??_C@_1O@PAHLKOAC@?$AAA?$AAu?$AAg?$AAu?$AAs?$AAt?$AA?$AA@ 00452d30     LIBCMTD:nlsdata2.obj
 0002:00006d40       ??_C@_19BIFMLPCD@?$AAJ?$AAu?$AAl?$AAy?$AA?$AA@ 00452d40     LIBCMTD:nlsdata2.obj
 0002:00006d4c       ??_C@_19EPFLPGAP@?$AAJ?$AAu?$AAn?$AAe?$AA?$AA@ 00452d4c     LIBCMTD:nlsdata2.obj
 0002:00006d58       ??_C@_1M@GJNLMHFD@?$AAA?$AAp?$AAr?$AAi?$AAl?$AA?$AA@ 00452d58     LIBCMTD:nlsdata2.obj
 0002:00006d64       ??_C@_1M@IKEENEDF@?$AAM?$AAa?$AAr?$AAc?$AAh?$AA?$AA@ 00452d64     LIBCMTD:nlsdata2.obj
 0002:00006d70       ??_C@_1BC@JGDDFFAM@?$AAF?$AAe?$AAb?$AAr?$AAu?$AAa?$AAr?$AAy?$AA?$AA@ 00452d70     LIBCMTD:nlsdata2.obj
 0002:00006d84       ??_C@_1BA@EFMEIEBA@?$AAJ?$AAa?$AAn?$AAu?$AAa?$AAr?$AAy?$AA?$AA@ 00452d84     LIBCMTD:nlsdata2.obj
 0002:00006d94       ??_C@_17EGKACKIF@?$AAD?$AAe?$AAc?$AA?$AA@ 00452d94     LIBCMTD:nlsdata2.obj
 0002:00006d9c       ??_C@_17BBDMLCIG@?$AAN?$AAo?$AAv?$AA?$AA@ 00452d9c     LIBCMTD:nlsdata2.obj
 0002:00006da4       ??_C@_17FNLKOI@?$AAO?$AAc?$AAt?$AA?$AA@ 00452da4     LIBCMTD:nlsdata2.obj
 0002:00006dac       ??_C@_17HCHCOKMG@?$AAS?$AAe?$AAp?$AA?$AA@ 00452dac     LIBCMTD:nlsdata2.obj
 0002:00006db4       ??_C@_17ICPELBCN@?$AAA?$AAu?$AAg?$AA?$AA@ 00452db4     LIBCMTD:nlsdata2.obj
 0002:00006dbc       ??_C@_17IJPCKHK@?$AAJ?$AAu?$AAl?$AA?$AA@ 00452dbc     LIBCMTD:nlsdata2.obj
 0002:00006dc4       ??_C@_17KCJGOCPB@?$AAJ?$AAu?$AAn?$AA?$AA@ 00452dc4     LIBCMTD:nlsdata2.obj
 0002:00006dcc       ??_C@_17PNNKMEED@?$AAM?$AAa?$AAy?$AA?$AA@ 00452dcc     LIBCMTD:nlsdata2.obj
 0002:00006dd4       ??_C@_17LFPOIHDD@?$AAA?$AAp?$AAr?$AA?$AA@ 00452dd4     LIBCMTD:nlsdata2.obj
 0002:00006ddc       ??_C@_17CKNLEDEC@?$AAM?$AAa?$AAr?$AA?$AA@ 00452ddc     LIBCMTD:nlsdata2.obj
 0002:00006de4       ??_C@_17LMDJEKJN@?$AAF?$AAe?$AAb?$AA?$AA@ 00452de4     LIBCMTD:nlsdata2.obj
 0002:00006dec       ??_C@_17DKNBKCHM@?$AAJ?$AAa?$AAn?$AA?$AA@ 00452dec     LIBCMTD:nlsdata2.obj
 0002:00006df4       ??_C@_1BC@ENMNNPAJ@?$AAS?$AAa?$AAt?$AAu?$AAr?$AAd?$AAa?$AAy?$AA?$AA@ 00452df4     LIBCMTD:nlsdata2.obj
 0002:00006e08       ??_C@_1O@PDICJHAG@?$AAF?$AAr?$AAi?$AAd?$AAa?$AAy?$AA?$AA@ 00452e08     LIBCMTD:nlsdata2.obj
 0002:00006e18       ??_C@_1BC@HHMNLIHE@?$AAT?$AAh?$AAu?$AAr?$AAs?$AAd?$AAa?$AAy?$AA?$AA@ 00452e18     LIBCMTD:nlsdata2.obj
 0002:00006e2c       ??_C@_1BE@EBOGMDOH@?$AAW?$AAe?$AAd?$AAn?$AAe?$AAs?$AAd?$AAa?$AAy?$AA?$AA@ 00452e2c     LIBCMTD:nlsdata2.obj
 0002:00006e40       ??_C@_1BA@ENFBFFEK@?$AAT?$AAu?$AAe?$AAs?$AAd?$AAa?$AAy?$AA?$AA@ 00452e40     LIBCMTD:nlsdata2.obj
 0002:00006e50       ??_C@_1O@MMNBFLIA@?$AAM?$AAo?$AAn?$AAd?$AAa?$AAy?$AA?$AA@ 00452e50     LIBCMTD:nlsdata2.obj
 0002:00006e60       ??_C@_1O@IHNHDHPB@?$AAS?$AAu?$AAn?$AAd?$AAa?$AAy?$AA?$AA@ 00452e60     LIBCMTD:nlsdata2.obj
 0002:00006e70       ??_C@_17GGIBDPIH@?$AAS?$AAa?$AAt?$AA?$AA@ 00452e70     LIBCMTD:nlsdata2.obj
 0002:00006e78       ??_C@_17HFOLPPLP@?$AAF?$AAr?$AAi?$AA?$AA@ 00452e78     LIBCMTD:nlsdata2.obj
 0002:00006e80       ??_C@_17PDPHAADD@?$AAT?$AAh?$AAu?$AA?$AA@ 00452e80     LIBCMTD:nlsdata2.obj
 0002:00006e88       ??_C@_17CJEDCEPE@?$AAW?$AAe?$AAd?$AA?$AA@ 00452e88     LIBCMTD:nlsdata2.obj
 0002:00006e90       ??_C@_17BMKGEGOJ@?$AAT?$AAu?$AAe?$AA?$AA@ 00452e90     LIBCMTD:nlsdata2.obj
 0002:00006e98       ??_C@_17KBOMKBF@?$AAM?$AAo?$AAn?$AA?$AA@ 00452e98     LIBCMTD:nlsdata2.obj
 0002:00006ea0       ??_C@_17MBGCMIPB@?$AAS?$AAu?$AAn?$AA?$AA@ 00452ea0     LIBCMTD:nlsdata2.obj
 0002:00006ea8       ??_C@_08JCCMCCIL@HH?3mm?3ss?$AA@ 00452ea8     LIBCMTD:nlsdata2.obj
 0002:00006eb4       ??_C@_0BE@CKGJFCPC@dddd?0?5MMMM?5dd?0?5yyyy?$AA@ 00452eb4     LIBCMTD:nlsdata2.obj
 0002:00006ec8       ??_C@_08BPBNCDIB@MM?1dd?1yy?$AA@ 00452ec8     LIBCMTD:nlsdata2.obj
 0002:00006ed4       ??_C@_02CJNFDJBF@PM?$AA@   00452ed4     LIBCMTD:nlsdata2.obj
 0002:00006ed8       ??_C@_02DEDBPAFC@AM?$AA@   00452ed8     LIBCMTD:nlsdata2.obj
 0002:00006edc       ??_C@_08EDHMEBNP@December?$AA@ 00452edc     LIBCMTD:nlsdata2.obj
 0002:00006ee8       ??_C@_08HCHEGEOA@November?$AA@ 00452ee8     LIBCMTD:nlsdata2.obj
 0002:00006ef4       ??_C@_07JJNFCEND@October?$AA@ 00452ef4     LIBCMTD:nlsdata2.obj
 0002:00006efc       ??_C@_09BHHEALKD@September?$AA@ 00452efc     LIBCMTD:nlsdata2.obj
 0002:00006f08       ??_C@_06LBBHFDDG@August?$AA@ 00452f08     LIBCMTD:nlsdata2.obj
 0002:00006f10       ??_C@_04MIEPOIFP@July?$AA@ 00452f10     LIBCMTD:nlsdata2.obj
 0002:00006f18       ??_C@_04CNLMGBGM@June?$AA@ 00452f18     LIBCMTD:nlsdata2.obj
 0002:00006f20       ??_C@_05DMJDNLEJ@April?$AA@ 00452f20     LIBCMTD:nlsdata2.obj
 0002:00006f28       ??_C@_05HPCKOFNC@March?$AA@ 00452f28     LIBCMTD:nlsdata2.obj
 0002:00006f30       ??_C@_08GNJGEPFN@February?$AA@ 00452f30     LIBCMTD:nlsdata2.obj
 0002:00006f3c       ??_C@_07CGJPFGJA@January?$AA@ 00452f3c     LIBCMTD:nlsdata2.obj
 0002:00006f44       ??_C@_03MKABNOCG@Dec?$AA@  00452f44     LIBCMTD:nlsdata2.obj
 0002:00006f48       ??_C@_03JPJOFNIA@Nov?$AA@  00452f48     LIBCMTD:nlsdata2.obj
 0002:00006f4c       ??_C@_03BMAOKBAD@Oct?$AA@  00452f4c     LIBCMTD:nlsdata2.obj
 0002:00006f50       ??_C@_03GGCAPAJC@Sep?$AA@  00452f50     LIBCMTD:nlsdata2.obj
 0002:00006f54       ??_C@_03IFJFEIGA@Aug?$AA@  00452f54     LIBCMTD:nlsdata2.obj
 0002:00006f58       ??_C@_03LBGABGKK@Jul?$AA@  00452f58     LIBCMTD:nlsdata2.obj
 0002:00006f5c       ??_C@_03IDFGHECI@Jun?$AA@  00452f5c     LIBCMTD:nlsdata2.obj
 0002:00006f60       ??_C@_03CNMDKL@May?$AA@    00452f60     LIBCMTD:nlsdata2.obj
 0002:00006f64       ??_C@_03LEOLGMJP@Apr?$AA@  00452f64     LIBCMTD:nlsdata2.obj
 0002:00006f68       ??_C@_03ODNJBKGA@Mar?$AA@  00452f68     LIBCMTD:nlsdata2.obj
 0002:00006f6c       ??_C@_03HJBDCHOM@Feb?$AA@  00452f6c     LIBCMTD:nlsdata2.obj
 0002:00006f70       ??_C@_03JIHJHPIE@Jan?$AA@  00452f70     LIBCMTD:nlsdata2.obj
 0002:00006f74       ??_C@_08INBOOONO@Saturday?$AA@ 00452f74     LIBCMTD:nlsdata2.obj
 0002:00006f80       ??_C@_06JECMNKMI@Friday?$AA@ 00452f80     LIBCMTD:nlsdata2.obj
 0002:00006f88       ??_C@_08HACCIKIA@Thursday?$AA@ 00452f88     LIBCMTD:nlsdata2.obj
 0002:00006f94       ??_C@_09DLIGFAKA@Wednesday?$AA@ 00452f94     LIBCMTD:nlsdata2.obj
 0002:00006fa0       ??_C@_07BAAGCFCM@Tuesday?$AA@ 00452fa0     LIBCMTD:nlsdata2.obj
 0002:00006fa8       ??_C@_06JLEDEDGH@Monday?$AA@ 00452fa8     LIBCMTD:nlsdata2.obj
 0002:00006fb0       ??_C@_06OOPIFAJ@Sunday?$AA@ 00452fb0     LIBCMTD:nlsdata2.obj
 0002:00006fb8       ??_C@_03FEFJNEK@Sat?$AA@   00452fb8     LIBCMTD:nlsdata2.obj
 0002:00006fbc       ??_C@_03IDIOELNC@Fri?$AA@  00452fbc     LIBCMTD:nlsdata2.obj
 0002:00006fc0       ??_C@_03IOFIKPDN@Thu?$AA@  00452fc0     LIBCMTD:nlsdata2.obj
 0002:00006fc4       ??_C@_03MHOMLAJA@Wed?$AA@  00452fc4     LIBCMTD:nlsdata2.obj
 0002:00006fc8       ??_C@_03NAGEINEP@Tue?$AA@  00452fc8     LIBCMTD:nlsdata2.obj
 0002:00006fcc       ??_C@_03PDAGKDH@Mon?$AA@   00452fcc     LIBCMTD:nlsdata2.obj
 0002:00006fd0       ??_C@_03KOEHGMDN@Sun?$AA@  00452fd0     LIBCMTD:nlsdata2.obj
 0002:00006fd4       ??_C@_07LCBHPJJN@LC_TIME?$AA@ 00452fd4     LIBCMTD:setlocal.obj
 0002:00006fdc       ??_C@_0L@DLHIECNL@LC_NUMERIC?$AA@ 00452fdc     LIBCMTD:setlocal.obj
 0002:00006fe8       ??_C@_0M@MIENIKLA@LC_MONETARY?$AA@ 00452fe8     LIBCMTD:setlocal.obj
 0002:00006ff4       ??_C@_08EADHIDAD@LC_CTYPE?$AA@ 00452ff4     LIBCMTD:setlocal.obj
 0002:00007000       ??_C@_0L@KFJHEKIK@LC_COLLATE?$AA@ 00453000     LIBCMTD:setlocal.obj
 0002:0000700c       ??_C@_06NEFDFEKB@LC_ALL?$AA@ 0045300c     LIBCMTD:setlocal.obj
 0002:00007018       ___lc_category             00453018     LIBCMTD:setlocal.obj
 0002:000070e0       ??_C@_1CI@FGIONOJM@?$AA_?$AAc?$AAo?$AAn?$AAf?$AAi?$AAg?$AAt?$AAh?$AAr?$AAe?$AAa?$AAd?$AAl?$AAo?$AAc?$AAa?$AAl?$AAe?$AA?$AA@ 004530e0     LIBCMTD:setlocal.obj
 0002:00007108       ??_C@_1GE@OLEIGPBJ@?$AAf?$AA?3?$AA?2?$AAd?$AAd?$AA?2?$AAv?$AAc?$AAt?$AAo?$AAo?$AAl?$AAs?$AA?2?$AAc?$AAr?$AAt?$AA_?$AAb?$AAl?$AAd?$AA?2?$AAs?$AAe?$AAl?$AAf?$AA_?$AAx?$AA8?$AA6?$AA?2?$AAc@ 00453108     LIBCMTD:setlocal.obj
 0002:00007170       ??_C@_1GA@LDEGDKD@?$AA?$CI?$AA?$CC?$AAI?$AAn?$AAv?$AAa?$AAl?$AAi?$AAd?$AA?5?$AAp?$AAa?$AAr?$AAa?$AAm?$AAe?$AAt?$AAe?$AAr?$AA?5?$AAf?$AAo?$AAr?$AA?5?$AA_?$AAc?$AAo?$AAn?$AAf?$AAi?$AAg?$AAt@ 00453170     LIBCMTD:setlocal.obj
 0002:000071d0       ??_C@_0DC@JCPFNMID@f?3?2dd?2vctools?2crt_bld?2self_x86?2c@ 004531d0     LIBCMTD:setlocal.obj
 0002:00007204       ??_C@_1BE@DBJGBOJC@?$AAs?$AAe?$AAt?$AAl?$AAo?$AAc?$AAa?$AAl?$AAe?$AA?$AA@ 00453204     LIBCMTD:setlocal.obj
 0002:00007218       ??_C@_1FG@OHLFEKMC@?$AAL?$AAC?$AA_?$AAM?$AAI?$AAN?$AA?5?$AA?$DM?$AA?$DN?$AA?5?$AA_?$AAc?$AAa?$AAt?$AAe?$AAg?$AAo?$AAr?$AAy?$AA?5?$AA?$CG?$AA?$CG?$AA?5?$AA_?$AAc?$AAa?$AAt?$AAe?$AAg?$AAo?$AAr?$AAy@ 00453218     LIBCMTD:setlocal.obj
 0002:00007270       ??_C@_1IA@PFIKKKFB@?$AAs?$AAt?$AAr?$AAn?$AAc?$AAp?$AAy?$AA_?$AAs?$AA?$CI?$AAl?$AAc?$AAt?$AAe?$AAm?$AAp?$AA?0?$AA?5?$AA?$CI?$AAs?$AAi?$AAz?$AAe?$AAo?$AAf?$AA?$CI?$AAl?$AAc?$AAt?$AAe?$AAm?$AAp@ 00453270     LIBCMTD:setlocal.obj
 0002:000072f0       ??_C@_1CE@OFNHIOO@?$AA_?$AAs?$AAe?$AAt?$AAl?$AAo?$AAc?$AAa?$AAl?$AAe?$AA_?$AAn?$AAo?$AAl?$AAo?$AAc?$AAk?$AA?$AA@ 004532f0     LIBCMTD:setlocal.obj
 0002:00007314       ??_C@_01ICJEACDI@?$DL?$AA@ 00453314     LIBCMTD:setlocal.obj
 0002:00007318       ??_C@_02BALPLPBG@?$DN?$DL?$AA@ 00453318     LIBCMTD:setlocal.obj
 0002:00007320       ??_C@_1GO@JALHLJEH@?$AAs?$AAt?$AAr?$AAc?$AAp?$AAy?$AA_?$AAs?$AA?$CI?$AAp?$AAc?$AAh?$AA?5?$AA?$CL?$AA?5?$AAs?$AAi?$AAz?$AAe?$AAo?$AAf?$AA?$CI?$AAi?$AAn?$AAt?$AA?$CJ?$AA?0?$AA?5?$AAc?$AAc?$AAh?$AA?5@ 00453320     LIBCMTD:setlocal.obj
 0002:00007390       ??_C@_1CG@IEFIICPK@?$AA_?$AAs?$AAe?$AAt?$AAl?$AAo?$AAc?$AAa?$AAl?$AAe?$AA_?$AAs?$AAe?$AAt?$AA_?$AAc?$AAa?$AAt?$AA?$AA@ 00453390     LIBCMTD:setlocal.obj
 0002:000073b8       ??_C@_1DA@GDKKLCLM@?$AAs?$AAt?$AAr?$AAc?$AAa?$AAt?$AA_?$AAs?$AA?$CI?$AAp?$AAc?$AAh?$AA?0?$AA?5?$AAc?$AAc?$AAh?$AA?0?$AA?5?$AA?$CC?$AA?$DL?$AA?$CC?$AA?$CJ?$AA?$AA@ 004533b8     LIBCMTD:setlocal.obj
 0002:000073e8       ??_C@_1CG@NNFIJLDA@?$AA_?$AAs?$AAe?$AAt?$AAl?$AAo?$AAc?$AAa?$AAl?$AAe?$AA_?$AAg?$AAe?$AAt?$AA_?$AAa?$AAl?$AAl?$AA?$AA@ 004533e8     LIBCMTD:setlocal.obj
 0002:00007410       ??_C@_01NEMOKFLO@?$DN?$AA@ 00453410     LIBCMTD:setlocal.obj
 0002:00007418       ??_C@_1FA@MHAOOIBO@?$AAs?$AAt?$AAr?$AAc?$AAp?$AAy?$AA_?$AAs?$AA?$CI?$AAo?$AAu?$AAt?$AAp?$AAu?$AAt?$AA?0?$AA?5?$AAs?$AAi?$AAz?$AAe?$AAI?$AAn?$AAC?$AAh?$AAa?$AAr?$AAs?$AA?0?$AA?5?$AAc?$AAa@ 00453418     LIBCMTD:setlocal.obj
 0002:00007468       ??_C@_1IA@ONNFOEDA@?$AAs?$AAt?$AAr?$AAn?$AAc?$AAp?$AAy?$AA_?$AAs?$AA?$CI?$AAc?$AAa?$AAc?$AAh?$AAe?$AAi?$AAn?$AA?0?$AA?5?$AAc?$AAa?$AAc?$AAh?$AAe?$AAi?$AAn?$AAS?$AAi?$AAz?$AAe?$AA?0?$AA?5@ 00453468     LIBCMTD:setlocal.obj
 0002:000074e8       ??_C@_01GFHCPBMG@C?$AA@    004534e8     LIBCMTD:setlocal.obj
 0002:000074f0       ??_C@_1EG@MOMHKOD@?$AAs?$AAt?$AAr?$AAc?$AAp?$AAy?$AA_?$AAs?$AA?$CI?$AAo?$AAu?$AAt?$AAp?$AAu?$AAt?$AA?0?$AA?5?$AAs?$AAi?$AAz?$AAe?$AAI?$AAn?$AAC?$AAh?$AAa?$AAr?$AAs?$AA?0?$AA?5?$AA?$CC?$AAC@ 004534f0     LIBCMTD:setlocal.obj
 0002:00007538       ??_C@_1BM@OIIBLEFG@?$AA_?$AAe?$AAx?$AAp?$AAa?$AAn?$AAd?$AAl?$AAo?$AAc?$AAa?$AAl?$AAe?$AA?$AA@ 00453538     LIBCMTD:setlocal.obj
 0002:00007558       ??_C@_1BGM@IJDLABMC@?$AAs?$AAt?$AAr?$AAc?$AAa?$AAt?$AA_?$AAs?$AA?$CI?$AAo?$AAu?$AAt?$AAs?$AAt?$AAr?$AA?0?$AA?5?$AAs?$AAi?$AAz?$AAe?$AAI?$AAn?$AAB?$AAy?$AAt?$AAe?$AAs?$AA?0?$AA?5?$AA?$CI?$AA?5@ 00453558     LIBCMTD:setlocal.obj
 0002:000076c4       ??_C@_1BC@PIABMDIP@?$AA_?$AAs?$AAt?$AAr?$AAc?$AAa?$AAt?$AAs?$AA?$AA@ 004536c4     LIBCMTD:setlocal.obj
 0002:000076d8       ??_C@_1MM@NOPMGFHF@?$AAs?$AAt?$AAr?$AAn?$AAc?$AAp?$AAy?$AA_?$AAs?$AA?$CI?$AAn?$AAa?$AAm?$AAe?$AAs?$AA?9?$AA?$DO?$AAs?$AAz?$AAC?$AAo?$AAd?$AAe?$AAP?$AAa?$AAg?$AAe?$AA?0?$AA?5?$AA?$CI?$AAs?$AAi@ 004536d8     LIBCMTD:setlocal.obj
 0002:000077a8       ??_C@_1MG@PHNILIAG@?$AAs?$AAt?$AAr?$AAn?$AAc?$AAp?$AAy?$AA_?$AAs?$AA?$CI?$AAn?$AAa?$AAm?$AAe?$AAs?$AA?9?$AA?$DO?$AAs?$AAz?$AAC?$AAo?$AAu?$AAn?$AAt?$AAr?$AAy?$AA?0?$AA?5?$AA?$CI?$AAs?$AAi?$AAz@ 004537a8     LIBCMTD:setlocal.obj
 0002:00007870       ??_C@_1MM@BFEECMAF@?$AAs?$AAt?$AAr?$AAn?$AAc?$AAp?$AAy?$AA_?$AAs?$AA?$CI?$AAn?$AAa?$AAm?$AAe?$AAs?$AA?9?$AA?$DO?$AAs?$AAz?$AAL?$AAa?$AAn?$AAg?$AAu?$AAa?$AAg?$AAe?$AA?0?$AA?5?$AA?$CI?$AAs?$AAi@ 00453870     LIBCMTD:setlocal.obj
 0002:0000793c       ??_C@_03EGDHDPFD@_?4?0?$AA@ 0045393c     LIBCMTD:setlocal.obj
 0002:00007940       ??_C@_1NG@FMOPGKGG@?$AAs?$AAt?$AAr?$AAn?$AAc?$AAp?$AAy?$AA_?$AAs?$AA?$CI?$AAn?$AAa?$AAm?$AAe?$AAs?$AA?9?$AA?$DO?$AAs?$AAz?$AAC?$AAo?$AAd?$AAe?$AAP?$AAa?$AAg?$AAe?$AA?0?$AA?5?$AA?$CI?$AAs?$AAi@ 00453940     LIBCMTD:setlocal.obj
 0002:00007a18       ??_C@_1BK@CBMMLAGJ@?$AA_?$AA_?$AAl?$AAc?$AA_?$AAs?$AAt?$AAr?$AAt?$AAo?$AAl?$AAc?$AA?$AA@ 00453a18     LIBCMTD:setlocal.obj
 0002:00007a34       ??_C@_01LFCBOECM@?4?$AA@   00453a34     LIBCMTD:setlocal.obj
 0002:00007a38       ??_C@_01IDAFKMJL@_?$AA@    00453a38     LIBCMTD:setlocal.obj
 0002:00007a40       ??_C@_1HC@IBDBLKCB@?$AAs?$AAt?$AAr?$AAc?$AAp?$AAy?$AA_?$AAs?$AA?$CI?$AAl?$AAo?$AAc?$AAa?$AAl?$AAe?$AA?0?$AA?5?$AAs?$AAi?$AAz?$AAe?$AAI?$AAn?$AAB?$AAy?$AAt?$AAe?$AAs?$AA?0?$AA?5?$AA?$CI?$AAc@ 00453a40     LIBCMTD:setlocal.obj
 0002:00007ab4       ??_C@_1BK@FGDJDEPG@?$AA_?$AA_?$AAl?$AAc?$AA_?$AAl?$AAc?$AAt?$AAo?$AAs?$AAt?$AAr?$AA?$AA@ 00453ab4     LIBCMTD:setlocal.obj
 0002:00007ad0       ??_C@_1BO@BKOMIGKJ@?$AAr?$AAu?$AAn?$AAt?$AAi?$AAm?$AAe?$AA?5?$AAe?$AAr?$AAr?$AAo?$AAr?$AA?5?$AA?$AA@ 00453ad0     LIBCMTD:crt0msg.obj
 0002:00007af0       ??_C@_15JNBOKNOG@?$AA?$AN?$AA?6?$AA?$AA@ 00453af0     LIBCMTD:crt0msg.obj
 0002:00007af8       ??_C@_1BM@JBBEPPHI@?$AAT?$AAL?$AAO?$AAS?$AAS?$AA?5?$AAe?$AAr?$AAr?$AAo?$AAr?$AA?$AN?$AA?6?$AA?$AA@ 00453af8     LIBCMTD:crt0msg.obj
 0002:00007b14       ??_C@_1BK@KMOMNAAI@?$AAS?$AAI?$AAN?$AAG?$AA?5?$AAe?$AAr?$AAr?$AAo?$AAr?$AA?$AN?$AA?6?$AA?$AA@ 00453b14     LIBCMTD:crt0msg.obj
 0002:00007b30       ??_C@_1BO@BFCDCGC@?$AAD?$AAO?$AAM?$AAA?$AAI?$AAN?$AA?5?$AAe?$AAr?$AAr?$AAo?$AAr?$AA?$AN?$AA?6?$AA?$AA@ 00453b30     LIBCMTD:crt0msg.obj
 0002:00007b50       ??_C@_1BOO@KGEDBGAJ@?$AAR?$AA6?$AA0?$AA3?$AA3?$AA?$AN?$AA?6?$AA?9?$AA?5?$AAA?$AAt?$AAt?$AAe?$AAm?$AAp?$AAt?$AA?5?$AAt?$AAo?$AA?5?$AAu?$AAs?$AAe?$AA?5?$AAM?$AAS?$AAI?$AAL?$AA?5?$AAc?$AAo?$AAd@ 00453b50     LIBCMTD:crt0msg.obj
 0002:00007d40       ??_C@_1GG@GOPILAJP@?$AAR?$AA6?$AA0?$AA3?$AA2?$AA?$AN?$AA?6?$AA?9?$AA?5?$AAn?$AAo?$AAt?$AA?5?$AAe?$AAn?$AAo?$AAu?$AAg?$AAh?$AA?5?$AAs?$AAp?$AAa?$AAc?$AAe?$AA?5?$AAf?$AAo?$AAr?$AA?5?$AAl?$AAo@ 00453d40     LIBCMTD:crt0msg.obj
 0002:00007da8       ??_C@_1MG@ENCOOIDF@?$AAR?$AA6?$AA0?$AA3?$AA1?$AA?$AN?$AA?6?$AA?9?$AA?5?$AAA?$AAt?$AAt?$AAe?$AAm?$AAp?$AAt?$AA?5?$AAt?$AAo?$AA?5?$AAi?$AAn?$AAi?$AAt?$AAi?$AAa?$AAl?$AAi?$AAz?$AAe?$AA?5?$AAt@ 00453da8     LIBCMTD:crt0msg.obj
 0002:00007e70       ??_C@_1DO@BMFCDCD@?$AAR?$AA6?$AA0?$AA3?$AA0?$AA?$AN?$AA?6?$AA?9?$AA?5?$AAC?$AAR?$AAT?$AA?5?$AAn?$AAo?$AAt?$AA?5?$AAi?$AAn?$AAi?$AAt?$AAi?$AAa?$AAl?$AAi?$AAz?$AAe?$AAd?$AA?$AN?$AA?6?$AA?$AA@ 00453e70     LIBCMTD:crt0msg.obj
 0002:00007eb0       ??_C@_1EK@HHFLMAOL@?$AAR?$AA6?$AA0?$AA2?$AA8?$AA?$AN?$AA?6?$AA?9?$AA?5?$AAu?$AAn?$AAa?$AAb?$AAl?$AAe?$AA?5?$AAt?$AAo?$AA?5?$AAi?$AAn?$AAi?$AAt?$AAi?$AAa?$AAl?$AAi?$AAz?$AAe?$AA?5?$AAh?$AAe@ 00453eb0     LIBCMTD:crt0msg.obj
 0002:00007f00       ??_C@_1GK@MFGOKLAG@?$AAR?$AA6?$AA0?$AA2?$AA7?$AA?$AN?$AA?6?$AA?9?$AA?5?$AAn?$AAo?$AAt?$AA?5?$AAe?$AAn?$AAo?$AAu?$AAg?$AAh?$AA?5?$AAs?$AAp?$AAa?$AAc?$AAe?$AA?5?$AAf?$AAo?$AAr?$AA?5?$AAl?$AAo@ 00453f00     LIBCMTD:crt0msg.obj
 0002:00007f70       ??_C@_1GK@MCAAGJMO@?$AAR?$AA6?$AA0?$AA2?$AA6?$AA?$AN?$AA?6?$AA?9?$AA?5?$AAn?$AAo?$AAt?$AA?5?$AAe?$AAn?$AAo?$AAu?$AAg?$AAh?$AA?5?$AAs?$AAp?$AAa?$AAc?$AAe?$AA?5?$AAf?$AAo?$AAr?$AA?5?$AAs?$AAt@ 00453f70     LIBCMTD:crt0msg.obj
 0002:00007fe0       ??_C@_1EM@MAADIHMB@?$AAR?$AA6?$AA0?$AA2?$AA5?$AA?$AN?$AA?6?$AA?9?$AA?5?$AAp?$AAu?$AAr?$AAe?$AA?5?$AAv?$AAi?$AAr?$AAt?$AAu?$AAa?$AAl?$AA?5?$AAf?$AAu?$AAn?$AAc?$AAt?$AAi?$AAo?$AAn?$AA?5?$AAc@ 00453fe0     LIBCMTD:crt0msg.obj
 0002:00008030       ??_C@_1GK@FHCKBEFA@?$AAR?$AA6?$AA0?$AA2?$AA4?$AA?$AN?$AA?6?$AA?9?$AA?5?$AAn?$AAo?$AAt?$AA?5?$AAe?$AAn?$AAo?$AAu?$AAg?$AAh?$AA?5?$AAs?$AAp?$AAa?$AAc?$AAe?$AA?5?$AAf?$AAo?$AAr?$AA?5?$AA_?$AAo@ 00454030     LIBCMTD:crt0msg.obj
 0002:000080a0       ??_C@_1FC@ECHBIFBC@?$AAR?$AA6?$AA0?$AA1?$AA9?$AA?$AN?$AA?6?$AA?9?$AA?5?$AAu?$AAn?$AAa?$AAb?$AAl?$AAe?$AA?5?$AAt?$AAo?$AA?5?$AAo?$AAp?$AAe?$AAn?$AA?5?$AAc?$AAo?$AAn?$AAs?$AAo?$AAl?$AAe?$AA?5@ 004540a0     LIBCMTD:crt0msg.obj
 0002:000080f8       ??_C@_1EC@JIBHAOPH@?$AAR?$AA6?$AA0?$AA1?$AA8?$AA?$AN?$AA?6?$AA?9?$AA?5?$AAu?$AAn?$AAe?$AAx?$AAp?$AAe?$AAc?$AAt?$AAe?$AAd?$AA?5?$AAh?$AAe?$AAa?$AAp?$AA?5?$AAe?$AAr?$AAr?$AAo?$AAr?$AA?$AN?$AA?6@ 004540f8     LIBCMTD:crt0msg.obj
 0002:00008140       ??_C@_1FK@BEOGODMC@?$AAR?$AA6?$AA0?$AA1?$AA7?$AA?$AN?$AA?6?$AA?9?$AA?5?$AAu?$AAn?$AAe?$AAx?$AAp?$AAe?$AAc?$AAt?$AAe?$AAd?$AA?5?$AAm?$AAu?$AAl?$AAt?$AAi?$AAt?$AAh?$AAr?$AAe?$AAa?$AAd?$AA?5@ 00454140     LIBCMTD:crt0msg.obj
 0002:000081a0       ??_C@_1FI@LOGNIKDM@?$AAR?$AA6?$AA0?$AA1?$AA6?$AA?$AN?$AA?6?$AA?9?$AA?5?$AAn?$AAo?$AAt?$AA?5?$AAe?$AAn?$AAo?$AAu?$AAg?$AAh?$AA?5?$AAs?$AAp?$AAa?$AAc?$AAe?$AA?5?$AAf?$AAo?$AAr?$AA?5?$AAt?$AAh@ 004541a0     LIBCMTD:crt0msg.obj
 0002:000081f8       ??_C@_1EG@BEHAGFJD@?$AAR?$AA6?$AA0?$AA1?$AA0?$AA?$AN?$AA?6?$AA?9?$AA?5?$AAa?$AAb?$AAo?$AAr?$AAt?$AA?$CI?$AA?$CJ?$AA?5?$AAh?$AAa?$AAs?$AA?5?$AAb?$AAe?$AAe?$AAn?$AA?5?$AAc?$AAa?$AAl?$AAl?$AAe?$AAd@ 004541f8     LIBCMTD:crt0msg.obj
 0002:00008240       ??_C@_1FI@HONFMGBI@?$AAR?$AA6?$AA0?$AA0?$AA9?$AA?$AN?$AA?6?$AA?9?$AA?5?$AAn?$AAo?$AAt?$AA?5?$AAe?$AAn?$AAo?$AAu?$AAg?$AAh?$AA?5?$AAs?$AAp?$AAa?$AAc?$AAe?$AA?5?$AAf?$AAo?$AAr?$AA?5?$AAe?$AAn@ 00454240     LIBCMTD:crt0msg.obj
 0002:00008298       ??_C@_1FE@LLNEDJMD@?$AAR?$AA6?$AA0?$AA0?$AA8?$AA?$AN?$AA?6?$AA?9?$AA?5?$AAn?$AAo?$AAt?$AA?5?$AAe?$AAn?$AAo?$AAu?$AAg?$AAh?$AA?5?$AAs?$AAp?$AAa?$AAc?$AAe?$AA?5?$AAf?$AAo?$AAr?$AA?5?$AAa?$AAr@ 00454298     LIBCMTD:crt0msg.obj
 0002:000082f0       ??_C@_1FK@PGACCAFB@?$AAR?$AA6?$AA0?$AA0?$AA2?$AA?$AN?$AA?6?$AA?9?$AA?5?$AAf?$AAl?$AAo?$AAa?$AAt?$AAi?$AAn?$AAg?$AA?5?$AAp?$AAo?$AAi?$AAn?$AAt?$AA?5?$AAs?$AAu?$AAp?$AAp?$AAo?$AAr?$AAt?$AA?5@ 004542f0     LIBCMTD:crt0msg.obj
 0002:00008400       ??_C@_1EK@MBDPDCGA@?$AAM?$AAi?$AAc?$AAr?$AAo?$AAs?$AAo?$AAf?$AAt?$AA?5?$AAV?$AAi?$AAs?$AAu?$AAa?$AAl?$AA?5?$AAC?$AA?$CL?$AA?$CL?$AA?5?$AAR?$AAu?$AAn?$AAt?$AAi?$AAm?$AAe?$AA?5?$AAL?$AAi?$AAb@ 00454400     LIBCMTD:crt0msg.obj
 0002:00008450       ??_C@_1IG@NMONDPP@?$AAw?$AAc?$AAs?$AAc?$AAa?$AAt?$AA_?$AAs?$AA?$CI?$AAo?$AAu?$AAt?$AAm?$AAs?$AAg?$AA?0?$AA?5?$AA?$CI?$AAs?$AAi?$AAz?$AAe?$AAo?$AAf?$AA?$CI?$AAo?$AAu?$AAt?$AAm?$AAs?$AAg?$AA?$CJ@ 00454450     LIBCMTD:crt0msg.obj
 0002:000084d8       ??_C@_1IA@DCJGKHFO@?$AAw?$AAc?$AAs?$AAc?$AAa?$AAt?$AA_?$AAs?$AA?$CI?$AAo?$AAu?$AAt?$AAm?$AAs?$AAg?$AA?0?$AA?5?$AA?$CI?$AAs?$AAi?$AAz?$AAe?$AAo?$AAf?$AA?$CI?$AAo?$AAu?$AAt?$AAm?$AAs?$AAg?$AA?$CJ@ 004544d8     LIBCMTD:crt0msg.obj
 0002:00008558       ??_C@_1HI@FLHKGEBE@?$AAw?$AAc?$AAs?$AAn?$AAc?$AAp?$AAy?$AA_?$AAs?$AA?$CI?$AAp?$AAc?$AAh?$AA?0?$AA?5?$AAp?$AAr?$AAo?$AAg?$AAn?$AAa?$AAm?$AAe?$AA_?$AAs?$AAi?$AAz?$AAe?$AA?5?$AA?9?$AA?5?$AA?$CI@ 00454558     LIBCMTD:crt0msg.obj
 0002:000085d0       ??_C@_1HK@FJJNAABO@?$AAw?$AAc?$AAs?$AAc?$AAp?$AAy?$AA_?$AAs?$AA?$CI?$AAp?$AAr?$AAo?$AAg?$AAn?$AAa?$AAm?$AAe?$AA?0?$AA?5?$AAp?$AAr?$AAo?$AAg?$AAn?$AAa?$AAm?$AAe?$AA_?$AAs?$AAi?$AAz?$AAe@ 004545d0     LIBCMTD:crt0msg.obj
 0002:0000864c       ??_C@_1DE@JNGNBFGO@?$AAR?$AAu?$AAn?$AAt?$AAi?$AAm?$AAe?$AA?5?$AAE?$AAr?$AAr?$AAo?$AAr?$AA?$CB?$AA?6?$AA?6?$AAP?$AAr?$AAo?$AAg?$AAr?$AAa?$AAm?$AA?3?$AA?5?$AA?$AA@ 0045464c     LIBCMTD:crt0msg.obj
 0002:00008680       ??_C@_1KO@BKLCKNFL@?$AAw?$AAc?$AAs?$AAc?$AAp?$AAy?$AA_?$AAs?$AA?$CI?$AAo?$AAu?$AAt?$AAm?$AAs?$AAg?$AA?0?$AA?5?$AA?$CI?$AAs?$AAi?$AAz?$AAe?$AAo?$AAf?$AA?$CI?$AAo?$AAu?$AAt?$AAm?$AAs?$AAg?$AA?$CJ@ 00454680     LIBCMTD:crt0msg.obj
 0002:00008730       ??_C@_1BI@EAHMBMEC@?$AA_?$AAN?$AAM?$AAS?$AAG?$AA_?$AAW?$AAR?$AAI?$AAT?$AAE?$AA?$AA@ 00454730     LIBCMTD:crt0msg.obj
 0002:00008748       ??_C@_1GC@HKOJBOFF@?$AAf?$AA?3?$AA?2?$AAd?$AAd?$AA?2?$AAv?$AAc?$AAt?$AAo?$AAo?$AAl?$AAs?$AA?2?$AAc?$AAr?$AAt?$AA_?$AAb?$AAl?$AAd?$AA?2?$AAs?$AAe?$AAl?$AAf?$AA_?$AAx?$AA8?$AA6?$AA?2?$AAc@ 00454748     LIBCMTD:crt0msg.obj
 0002:000087b0       ??_C@_1GO@NGIGJNHH@?$AAs?$AAt?$AAr?$AAn?$AAc?$AAp?$AAy?$AA_?$AAs?$AA?$CI?$AA?$CK?$AAs?$AAt?$AAr?$AAa?$AAd?$AAd?$AAr?$AAe?$AAs?$AAs?$AA?0?$AA?5?$AAo?$AAu?$AAt?$AAs?$AAi?$AAz?$AAe?$AA?0?$AA?5@ 004547b0     LIBCMTD:inithelp.obj
 0002:00008820       ??_C@_1CA@KHHCPEI@?$AA_?$AA_?$AAg?$AAe?$AAt?$AAl?$AAo?$AAc?$AAa?$AAl?$AAe?$AAi?$AAn?$AAf?$AAo?$AA?$AA@ 00454820     LIBCMTD:inithelp.obj
 0002:00008840       ??_C@_1GE@PLPIMDHG@?$AAf?$AA?3?$AA?2?$AAd?$AAd?$AA?2?$AAv?$AAc?$AAt?$AAo?$AAo?$AAl?$AAs?$AA?2?$AAc?$AAr?$AAt?$AA_?$AAb?$AAl?$AAd?$AA?2?$AAs?$AAe?$AAl?$AAf?$AA_?$AAx?$AA8?$AA6?$AA?2?$AAc@ 00454840     LIBCMTD:inithelp.obj
 0002:000088a4       ??_C@_0DC@CFDMMFIG@f?3?2dd?2vctools?2crt_bld?2self_x86?2c@ 004548a4     LIBCMTD:inithelp.obj
 0002:000088d8       ??_C@_1NK@LOFHIHFC@?$AAf?$AAM?$AAo?$AAd?$AAe?$AA?5?$AA?$DN?$AA?$DN?$AA?5?$AA_?$AAC?$AAR?$AAT?$AAD?$AAB?$AAG?$AA_?$AAR?$AAE?$AAP?$AAO?$AAR?$AAT?$AA_?$AAM?$AAO?$AAD?$AAE?$AA?5?$AA?$HM?$AA?$HM?$AA?5@ 004548d8     LIBCMTD:dbgrptt.obj
 0002:000089b4       ??_C@_1CE@FIHIECNJ@?$AA_?$AAC?$AAr?$AAt?$AAS?$AAe?$AAt?$AAR?$AAe?$AAp?$AAo?$AAr?$AAt?$AAM?$AAo?$AAd?$AAe?$AA?$AA@ 004549b4     LIBCMTD:dbgrptt.obj
 0002:000089d8       ??_C@_1GC@FIGJJMEN@?$AAf?$AA?3?$AA?2?$AAd?$AAd?$AA?2?$AAv?$AAc?$AAt?$AAo?$AAo?$AAl?$AAs?$AA?2?$AAc?$AAr?$AAt?$AA_?$AAb?$AAl?$AAd?$AA?2?$AAs?$AAe?$AAl?$AAf?$AA_?$AAx?$AA8?$AA6?$AA?2?$AAc@ 004549d8     LIBCMTD:dbgrptt.obj
 0002:00008a40       ??_C@_1FA@IFFFOLDJ@?$AAn?$AAR?$AAp?$AAt?$AAT?$AAy?$AAp?$AAe?$AA?5?$AA?$DO?$AA?$DN?$AA?5?$AA0?$AA?5?$AA?$CG?$AA?$CG?$AA?5?$AAn?$AAR?$AAp?$AAt?$AAT?$AAy?$AAp?$AAe?$AA?5?$AA?$DM?$AA?5?$AA_?$AAC?$AAR?$AAT@ 00454a40     LIBCMTD:dbgrptt.obj
 0002:00008a90       ??_C@_1CE@IKKEDCME@?$AA_?$AAC?$AAr?$AAt?$AAS?$AAe?$AAt?$AAR?$AAe?$AAp?$AAo?$AAr?$AAt?$AAF?$AAi?$AAl?$AAe?$AA?$AA@ 00454a90     LIBCMTD:dbgrptt.obj
 0002:00008ab8       ??_C@_1HO@PJOFIKFE@?$AA_?$AAC?$AAr?$AAt?$AAD?$AAb?$AAg?$AAR?$AAe?$AAp?$AAo?$AAr?$AAt?$AA?3?$AA?5?$AAS?$AAt?$AAr?$AAi?$AAn?$AAg?$AA?5?$AAt?$AAo?$AAo?$AA?5?$AAl?$AAo?$AAn?$AAg?$AA?5?$AAo@ 00454ab8     LIBCMTD:dbgrptt.obj
 0002:00008b38       ??_C@_1MC@IGEECMDB@?$AAw?$AAc?$AAs?$AAc?$AAp?$AAy?$AA_?$AAs?$AA?$CI?$AAs?$AAz?$AAO?$AAu?$AAt?$AAM?$AAe?$AAs?$AAs?$AAa?$AAg?$AAe?$AA2?$AA?0?$AA?5?$AA4?$AA0?$AA9?$AA6?$AA?0?$AA?5?$AAL?$AA?$CC@ 00454b38     LIBCMTD:dbgrptt.obj
 0002:00008c00       ??_C@_1IM@OOKIFKOH@?$AAe?$AA?5?$AA?$DN?$AA?5?$AAm?$AAb?$AAs?$AAt?$AAo?$AAw?$AAc?$AAs?$AA_?$AAs?$AA?$CI?$AA?$CG?$AAr?$AAe?$AAt?$AA?0?$AA?5?$AAs?$AAz?$AAO?$AAu?$AAt?$AAM?$AAe?$AAs?$AAs?$AAa?$AAg@ 00454c00     LIBCMTD:dbgrptt.obj
 0002:00008c90       ??_C@_1FI@IBIOIHEG@?$AAs?$AAt?$AAr?$AAc?$AAp?$AAy?$AA_?$AAs?$AA?$CI?$AAs?$AAz?$AAO?$AAu?$AAt?$AAM?$AAe?$AAs?$AAs?$AAa?$AAg?$AAe?$AA?0?$AA?5?$AA4?$AA0?$AA9?$AA6?$AA?0?$AA?5?$AAs?$AAz?$AAL@ 00454c90     LIBCMTD:dbgrptt.obj
 0002:00008ce8       ??_C@_1JG@CPKCIOEE@?$AAs?$AAt?$AAr?$AAc?$AAp?$AAy?$AA_?$AAs?$AA?$CI?$AAs?$AAz?$AAO?$AAu?$AAt?$AAM?$AAe?$AAs?$AAs?$AAa?$AAg?$AAe?$AA?0?$AA?5?$AA4?$AA0?$AA9?$AA6?$AA?0?$AA?5?$AA?$CC?$AA_?$AAC@ 00454ce8     LIBCMTD:dbgrptt.obj
 0002:00008d80       ??_C@_0M@IPILFDFN@?$CFs?$CI?$CFd?$CJ?5?3?5?$CFs?$AA@ 00454d80     LIBCMTD:dbgrptt.obj
 0002:00008d90       ??_C@_1EI@LDHJEDO@?$AAs?$AAt?$AAr?$AAc?$AAa?$AAt?$AA_?$AAs?$AA?$CI?$AAs?$AAz?$AAL?$AAi?$AAn?$AAe?$AAM?$AAe?$AAs?$AAs?$AAa?$AAg?$AAe?$AA?0?$AA?5?$AA4?$AA0?$AA9?$AA6?$AA?0?$AA?5?$AA?$CC?$AA?2@ 00454d90     LIBCMTD:dbgrptt.obj
 0002:00008dd8       ??_C@_01LIIJDEN@?$AN?$AA@  00454dd8     LIBCMTD:dbgrptt.obj
 0002:00008de0       ??_C@_1EI@CACDLAFK@?$AAs?$AAt?$AAr?$AAc?$AAa?$AAt?$AA_?$AAs?$AA?$CI?$AAs?$AAz?$AAL?$AAi?$AAn?$AAe?$AAM?$AAe?$AAs?$AAs?$AAa?$AAg?$AAe?$AA?0?$AA?5?$AA4?$AA0?$AA9?$AA6?$AA?0?$AA?5?$AA?$CC?$AA?2@ 00454de0     LIBCMTD:dbgrptt.obj
 0002:00008e28       ??_C@_1FK@NPGBPOFO@?$AAs?$AAt?$AAr?$AAc?$AAa?$AAt?$AA_?$AAs?$AA?$CI?$AAs?$AAz?$AAL?$AAi?$AAn?$AAe?$AAM?$AAe?$AAs?$AAs?$AAa?$AAg?$AAe?$AA?0?$AA?5?$AA4?$AA0?$AA9?$AA6?$AA?0?$AA?5?$AAs?$AAz@ 00454e28     LIBCMTD:dbgrptt.obj
 0002:00008e88       ??_C@_1KK@GIGAEDMO@?$AAs?$AAt?$AAr?$AAc?$AAp?$AAy?$AA_?$AAs?$AA?$CI?$AAs?$AAz?$AAL?$AAi?$AAn?$AAe?$AAM?$AAe?$AAs?$AAs?$AAa?$AAg?$AAe?$AA?0?$AA?5?$AA4?$AA0?$AA9?$AA6?$AA?0?$AA?5?$AAs?$AAz@ 00454e88     LIBCMTD:dbgrptt.obj
 0002:00008f34       ??_C@_0BC@LAIDCHCH@Assertion?5failed?$CB?$AA@ 00454f34     LIBCMTD:dbgrptt.obj
 0002:00008f48       ??_C@_0BD@CAENFOHP@Assertion?5failed?3?5?$AA@ 00454f48     LIBCMTD:dbgrptt.obj
 0002:00008f5c       ??_C@_0CL@EACFGMNB@_CrtDbgReport?3?5String?5too?5long?5o@ 00454f5c     LIBCMTD:dbgrptt.obj
 0002:00008f88       ??_C@_1JI@GAALPGBM@?$AAs?$AAt?$AAr?$AAc?$AAp?$AAy?$AA_?$AAs?$AA?$CI?$AAs?$AAz?$AAU?$AAs?$AAe?$AAr?$AAM?$AAe?$AAs?$AAs?$AAa?$AAg?$AAe?$AA?0?$AA?5?$AA4?$AA0?$AA9?$AA6?$AA?0?$AA?5?$AA?$CC?$AA_@ 00454f88     LIBCMTD:dbgrptt.obj
 0002:00009020       ??_C@_07BHGABMGB@?0?5Line?5?$AA@ 00455020     LIBCMTD:dbgrptt.obj
 0002:00009028       ??_C@_0P@DFJNDPOP@?$DMfile?5unknown?$DO?$AA@ 00455028     LIBCMTD:dbgrptt.obj
 0002:00009038       ??_C@_0CG@BNGLOCEO@Second?5Chance?5Assertion?5Failed?3?5@ 00455038     LIBCMTD:dbgrptt.obj
 0002:00009060       ??_C@_1FA@JPHJBHEM@?$AA_?$AAi?$AAt?$AAo?$AAa?$AA_?$AAs?$AA?$CI?$AAn?$AAL?$AAi?$AAn?$AAe?$AA?0?$AA?5?$AAs?$AAz?$AAL?$AAi?$AAn?$AAe?$AAM?$AAe?$AAs?$AAs?$AAa?$AAg?$AAe?$AA?0?$AA?5?$AA4?$AA0@ 00455060     LIBCMTD:dbgrptt.obj
 0002:000090b0       ??_C@_1CA@KHJHLKA@?$AA_?$AAV?$AAC?$AAr?$AAt?$AAD?$AAb?$AAg?$AAR?$AAe?$AAp?$AAo?$AAr?$AAt?$AAA?$AA?$AA@ 004550b0     LIBCMTD:dbgrptt.obj
 0002:000090d0       ??_C@_1IE@CPGKIAGP@?$AAw?$AAc?$AAs?$AAt?$AAo?$AAm?$AAb?$AAs?$AA_?$AAs?$AA?$CI?$AA?$CG?$AAr?$AAe?$AAt?$AA?0?$AA?5?$AAs?$AAz?$AAa?$AAO?$AAu?$AAt?$AAM?$AAe?$AAs?$AAs?$AAa?$AAg?$AAe?$AA?0?$AA?5@ 004550d0     LIBCMTD:dbgrptt.obj
 0002:00009154       ??_C@_0DP@GNPEPHJD@_CrtDbgReport?3?5String?5too?5long?5o@ 00455154     LIBCMTD:dbgrptt.obj
 0002:00009198       ??_C@_1MA@LBAMNNOB@?$AAs?$AAt?$AAr?$AAc?$AAp?$AAy?$AA_?$AAs?$AA?$CI?$AAs?$AAz?$AAO?$AAu?$AAt?$AAM?$AAe?$AAs?$AAs?$AAa?$AAg?$AAe?$AA2?$AA?0?$AA?5?$AA4?$AA0?$AA9?$AA6?$AA?0?$AA?5?$AA?$CC?$AA_@ 00455198     LIBCMTD:dbgrptt.obj
 0002:00009258       ??_C@_1JC@EOAPFDLN@?$AAw?$AAc?$AAs?$AAt?$AAo?$AAm?$AAb?$AAs?$AA_?$AAs?$AA?$CI?$AA?$CI?$AA?$CI?$AAv?$AAo?$AAi?$AAd?$AA?5?$AA?$CK?$AA?$CJ?$AA0?$AA?$CJ?$AA?0?$AA?5?$AAs?$AAz?$AAO?$AAu?$AAt?$AAM?$AAe?$AAs@ 00455258     LIBCMTD:dbgrptt.obj
 0002:000092f0       ??_C@_1FI@DBAIJPJE@?$AAw?$AAc?$AAs?$AAc?$AAp?$AAy?$AA_?$AAs?$AA?$CI?$AAs?$AAz?$AAO?$AAu?$AAt?$AAM?$AAe?$AAs?$AAs?$AAa?$AAg?$AAe?$AA?0?$AA?5?$AA4?$AA0?$AA9?$AA6?$AA?0?$AA?5?$AAs?$AAz?$AAL@ 004552f0     LIBCMTD:dbgrptt.obj
 0002:00009348       ??_C@_1BI@JIDBEPIG@?$AA?$CF?$AAs?$AA?$CI?$AA?$CF?$AAd?$AA?$CJ?$AA?5?$AA?3?$AA?5?$AA?$CF?$AAs?$AA?$AA@ 00455348     LIBCMTD:dbgrptt.obj
 0002:00009360       ??_C@_1EK@PHCBEDKB@?$AAw?$AAc?$AAs?$AAc?$AAa?$AAt?$AA_?$AAs?$AA?$CI?$AAs?$AAz?$AAL?$AAi?$AAn?$AAe?$AAM?$AAe?$AAs?$AAs?$AAa?$AAg?$AAe?$AA?0?$AA?5?$AA4?$AA0?$AA9?$AA6?$AA?0?$AA?5?$AAL?$AA?$CC@ 00455360     LIBCMTD:dbgrptt.obj
 0002:000093ac       ??_C@_13CMNBPIDO@?$AA?$AN?$AA?$AA@ 004553ac     LIBCMTD:dbgrptt.obj
 0002:000093b0       ??_C@_1EK@NMDFGHMF@?$AAw?$AAc?$AAs?$AAc?$AAa?$AAt?$AA_?$AAs?$AA?$CI?$AAs?$AAz?$AAL?$AAi?$AAn?$AAe?$AAM?$AAe?$AAs?$AAs?$AAa?$AAg?$AAe?$AA?0?$AA?5?$AA4?$AA0?$AA9?$AA6?$AA?0?$AA?5?$AAL?$AA?$CC@ 004553b0     LIBCMTD:dbgrptt.obj
 0002:00009400       ??_C@_1FK@HPADHBBD@?$AAw?$AAc?$AAs?$AAc?$AAa?$AAt?$AA_?$AAs?$AA?$CI?$AAs?$AAz?$AAL?$AAi?$AAn?$AAe?$AAM?$AAe?$AAs?$AAs?$AAa?$AAg?$AAe?$AA?0?$AA?5?$AA4?$AA0?$AA9?$AA6?$AA?0?$AA?5?$AAs?$AAz@ 00455400     LIBCMTD:dbgrptt.obj
 0002:00009460       ??_C@_1KO@DGAHENCH@?$AAw?$AAc?$AAs?$AAc?$AAp?$AAy?$AA_?$AAs?$AA?$CI?$AAs?$AAz?$AAL?$AAi?$AAn?$AAe?$AAM?$AAe?$AAs?$AAs?$AAa?$AAg?$AAe?$AA?0?$AA?5?$AA4?$AA0?$AA9?$AA6?$AA?0?$AA?5?$AAs?$AAz@ 00455460     LIBCMTD:dbgrptt.obj
 0002:00009510       ??_C@_1CE@OJBNHDMO@?$AAA?$AAs?$AAs?$AAe?$AAr?$AAt?$AAi?$AAo?$AAn?$AA?5?$AAf?$AAa?$AAi?$AAl?$AAe?$AAd?$AA?$CB?$AA?$AA@ 00455510     LIBCMTD:dbgrptt.obj
 0002:00009534       ??_C@_1CG@FFFGGODN@?$AAA?$AAs?$AAs?$AAe?$AAr?$AAt?$AAi?$AAo?$AAn?$AA?5?$AAf?$AAa?$AAi?$AAl?$AAe?$AAd?$AA?3?$AA?5?$AA?$AA@ 00455534     LIBCMTD:dbgrptt.obj
 0002:00009560       ??_C@_1JK@KHFABAEO@?$AAw?$AAc?$AAs?$AAc?$AAp?$AAy?$AA_?$AAs?$AA?$CI?$AAs?$AAz?$AAU?$AAs?$AAe?$AAr?$AAM?$AAe?$AAs?$AAs?$AAa?$AAg?$AAe?$AA?0?$AA?5?$AA4?$AA0?$AA9?$AA6?$AA?0?$AA?5?$AAL?$AA?$CC@ 00455560     LIBCMTD:dbgrptt.obj
 0002:000095fc       ??_C@_13LBAGMAIH@?$AA?6?$AA?$AA@ 004555fc     LIBCMTD:dbgrptt.obj
 0002:00009600       ??_C@_1BA@ELMMDCFC@?$AA?0?$AA?5?$AAL?$AAi?$AAn?$AAe?$AA?5?$AA?$AA@ 00455600     LIBCMTD:dbgrptt.obj
 0002:00009610       ??_C@_1BO@OCHMLCAG@?$AA?$DM?$AAf?$AAi?$AAl?$AAe?$AA?5?$AAu?$AAn?$AAk?$AAn?$AAo?$AAw?$AAn?$AA?$DO?$AA?$AA@ 00455610     LIBCMTD:dbgrptt.obj
 0002:00009630       ??_C@_1EM@MJFLEDMB@?$AAS?$AAe?$AAc?$AAo?$AAn?$AAd?$AA?5?$AAC?$AAh?$AAa?$AAn?$AAc?$AAe?$AA?5?$AAA?$AAs?$AAs?$AAe?$AAr?$AAt?$AAi?$AAo?$AAn?$AA?5?$AAF?$AAa?$AAi?$AAl?$AAe?$AAd?$AA?3?$AA?5@ 00455630     LIBCMTD:dbgrptt.obj
 0002:00009680       ??_C@_1FA@CNLLOMHI@?$AA_?$AAi?$AAt?$AAo?$AAw?$AA_?$AAs?$AA?$CI?$AAn?$AAL?$AAi?$AAn?$AAe?$AA?0?$AA?5?$AAs?$AAz?$AAL?$AAi?$AAn?$AAe?$AAM?$AAe?$AAs?$AAs?$AAa?$AAg?$AAe?$AA?0?$AA?5?$AA4?$AA0@ 00455680     LIBCMTD:dbgrptt.obj
 0002:000096d0       ??_C@_1CA@HPALHDOD@?$AA_?$AAV?$AAC?$AAr?$AAt?$AAD?$AAb?$AAg?$AAR?$AAe?$AAp?$AAo?$AAr?$AAt?$AAW?$AA?$AA@ 004556d0     LIBCMTD:dbgrptt.obj
 0002:000096f0       ??_C@_1O@EJLDHPPL@?$AAs?$AAi?$AAg?$AAn?$AAa?$AAl?$AA?$AA@ 004556f0     LIBCMTD:winsig.obj
 0002:00009700       ??_C@_1GA@DBECNFG@?$AAf?$AA?3?$AA?2?$AAd?$AAd?$AA?2?$AAv?$AAc?$AAt?$AAo?$AAo?$AAl?$AAs?$AA?2?$AAc?$AAr?$AAt?$AA_?$AAb?$AAl?$AAd?$AA?2?$AAs?$AAe?$AAl?$AAf?$AA_?$AAx?$AA8?$AA6?$AA?2?$AAc@ 00455700     LIBCMTD:winsig.obj
 0002:00009760       ??_C@_1DO@MLNEDKGB@?$AA?$CI?$AA?$CC?$AAI?$AAn?$AAv?$AAa?$AAl?$AAi?$AAd?$AA?5?$AAs?$AAi?$AAg?$AAn?$AAa?$AAl?$AA?5?$AAo?$AAr?$AA?5?$AAe?$AAr?$AAr?$AAo?$AAr?$AA?$CC?$AA?0?$AA?5?$AA0?$AA?$CJ?$AA?$AA@ 00455760     LIBCMTD:winsig.obj
 0002:000097a0       ??_C@_0DA@ELJOOIJF@f?3?2dd?2vctools?2crt_bld?2self_x86?2c@ 004557a0     LIBCMTD:winsig.obj
 0002:000097d0       ??_C@_1M@DMJEIKHL@?$AAr?$AAa?$AAi?$AAs?$AAe?$AA?$AA@ 004557d0     LIBCMTD:winsig.obj
 0002:000097dc       ??_C@_0BI@DFKBFLJE@GetProcessWindowStation?$AA@ 004557dc     LIBCMTD:crtmboxw.obj
 0002:000097f4       ??_C@_0BK@DEKFELLI@GetUserObjectInformationW?$AA@ 004557f4     LIBCMTD:crtmboxw.obj
 0002:00009810       ??_C@_0BD@HHGDFDBJ@GetLastActivePopup?$AA@ 00455810     LIBCMTD:crtmboxw.obj
 0002:00009824       ??_C@_0BA@HNOPNCHB@GetActiveWindow?$AA@ 00455824     LIBCMTD:crtmboxw.obj
 0002:00009834       ??_C@_0M@DLDCCGNP@MessageBoxW?$AA@ 00455834     LIBCMTD:crtmboxw.obj
 0002:00009840       ??_C@_1BG@GOEBHBDC@?$AAU?$AAS?$AAE?$AAR?$AA3?$AA2?$AA?4?$AAD?$AAL?$AAL?$AA?$AA@ 00455840     LIBCMTD:crtmboxw.obj
 0002:00009858       ??_C@_1CK@DDKKOLAN@?$AAs?$AAi?$AAz?$AAe?$AAI?$AAn?$AAB?$AAy?$AAt?$AAe?$AAs?$AA?5?$AA?$DO?$AA?$DN?$AA?5?$AAc?$AAo?$AAu?$AAn?$AAt?$AA?$AA@ 00455858     LIBCMTD:memcpy_s.obj
 0002:00009884       ??_C@_1BC@GKHDJMGB@?$AAm?$AAe?$AAm?$AAc?$AAp?$AAy?$AA_?$AAs?$AA?$AA@ 00455884     LIBCMTD:memcpy_s.obj
 0002:00009898       ??_C@_1GE@NEOPGGBM@?$AAf?$AA?3?$AA?2?$AAd?$AAd?$AA?2?$AAv?$AAc?$AAt?$AAo?$AAo?$AAl?$AAs?$AA?2?$AAc?$AAr?$AAt?$AA_?$AAb?$AAl?$AAd?$AA?2?$AAs?$AAe?$AAl?$AAf?$AA_?$AAx?$AA8?$AA6?$AA?2?$AAc@ 00455898     LIBCMTD:memcpy_s.obj
 0002:000098fc       ??_C@_1DM@MADKGDLO@?$AA?$CI?$AAL?$AA?$CC?$AAB?$AAu?$AAf?$AAf?$AAe?$AAr?$AA?5?$AAi?$AAs?$AA?5?$AAt?$AAo?$AAo?$AA?5?$AAs?$AAm?$AAa?$AAl?$AAl?$AA?$CC?$AA?5?$AA?$CG?$AA?$CG?$AA?5?$AA0?$AA?$CJ?$AA?$AA@ 004558fc     LIBCMTD:wcscpy_s.obj
 0002:00009938       ??_C@_1CI@HCPHDDLE@?$AAB?$AAu?$AAf?$AAf?$AAe?$AAr?$AA?5?$AAi?$AAs?$AA?5?$AAt?$AAo?$AAo?$AA?5?$AAs?$AAm?$AAa?$AAl?$AAl?$AA?$AA@ 00455938     LIBCMTD:wcscpy_s.obj
 0002:00009960       ??_C@_1CG@OFBJMIGJ@?$AA?$CI?$AA?$CI?$AA?$CI?$AA_?$AAS?$AAr?$AAc?$AA?$CJ?$AA?$CJ?$AA?$CJ?$AA?5?$AA?$CB?$AA?$DN?$AA?5?$AAN?$AAU?$AAL?$AAL?$AA?$AA@ 00455960     LIBCMTD:wcscpy_s.obj
 0002:00009988       ??_C@_1BC@KIONAFPO@?$AAw?$AAc?$AAs?$AAc?$AAp?$AAy?$AA_?$AAs?$AA?$AA@ 00455988     LIBCMTD:wcscpy_s.obj
 0002:000099a0       ??_C@_1GI@BGBNCIMA@?$AAf?$AA?3?$AA?2?$AAd?$AAd?$AA?2?$AAv?$AAc?$AAt?$AAo?$AAo?$AAl?$AAs?$AA?2?$AAc?$AAr?$AAt?$AA_?$AAb?$AAl?$AAd?$AA?2?$AAs?$AAe?$AAl?$AAf?$AA_?$AAx?$AA8?$AA6?$AA?2?$AAc@ 004559a0     LIBCMTD:wcscpy_s.obj
 0002:00009a08       ??_C@_1FC@PFMLEHKI@?$AA?$CI?$AA?$CI?$AA_?$AAD?$AAs?$AAt?$AA?$CJ?$AA?$CJ?$AA?5?$AA?$CB?$AA?$DN?$AA?5?$AAN?$AAU?$AAL?$AAL?$AA?5?$AA?$CG?$AA?$CG?$AA?5?$AA?$CI?$AA?$CI?$AA_?$AAS?$AAi?$AAz?$AAe?$AAI?$AAn?$AAW?$AAo?$AAr@ 00455a08     LIBCMTD:wcscpy_s.obj
 0002:00009a5c       ??_C@_1BC@CFJEPFGF@?$AAs?$AAt?$AAr?$AAc?$AAp?$AAy?$AA_?$AAs?$AA?$AA@ 00455a5c     LIBCMTD:strcpy_s.obj
 0002:00009a70       ??_C@_1FC@NCPEPIBI@?$AA?$CI?$AA?$CI?$AA_?$AAD?$AAs?$AAt?$AA?$CJ?$AA?$CJ?$AA?5?$AA?$CB?$AA?$DN?$AA?5?$AAN?$AAU?$AAL?$AAL?$AA?5?$AA?$CG?$AA?$CG?$AA?5?$AA?$CI?$AA?$CI?$AA_?$AAS?$AAi?$AAz?$AAe?$AAI?$AAn?$AAB?$AAy?$AAt@ 00455a70     LIBCMTD:strcpy_s.obj
 0002:00009ac8       __XcptActTab               00455ac8     LIBCMTD:winxfltr.obj
 0002:00009b58       __First_FPE_Indx           00455b58     LIBCMTD:winxfltr.obj
 0002:00009b5c       __Num_FPE                  00455b5c     LIBCMTD:winxfltr.obj
 0002:00009b60       __XcptActTabSize           00455b60     LIBCMTD:winxfltr.obj
 0002:00009b64       __XcptActTabCount          00455b64     LIBCMTD:winxfltr.obj
 0002:00009b68       ??_C@_1DE@MMOGFGHF@?$AAs?$AAt?$AAr?$AAc?$AAp?$AAy?$AA_?$AAs?$AA?$CI?$AA?$CK?$AAe?$AAn?$AAv?$AA?0?$AA?5?$AAc?$AAc?$AAh?$AAa?$AAr?$AAs?$AA?0?$AA?5?$AAp?$AA?$CJ?$AA?$AA@ 00455b68     LIBCMTD:stdenvp.obj
 0002:00009b9c       ??_C@_1BC@GHMCNHHL@?$AA_?$AAs?$AAe?$AAt?$AAe?$AAn?$AAv?$AAp?$AA?$AA@ 00455b9c     LIBCMTD:stdenvp.obj
 0002:00009bb0       ??_C@_1GC@DGBFLDBN@?$AAf?$AA?3?$AA?2?$AAd?$AAd?$AA?2?$AAv?$AAc?$AAt?$AAo?$AAo?$AAl?$AAs?$AA?2?$AAc?$AAr?$AAt?$AA_?$AAb?$AAl?$AAd?$AA?2?$AAs?$AAe?$AAl?$AAf?$AA_?$AAx?$AA8?$AA6?$AA?2?$AAc@ 00455bb0     LIBCMTD:stdenvp.obj
 0002:00009c14       ??_C@_0DB@BMEBJJKP@f?3?2dd?2vctools?2crt_bld?2self_x86?2c@ 00455c14     LIBCMTD:stdenvp.obj
 0002:00009c48       ??_C@_0DB@OEPBJOLC@f?3?2dd?2vctools?2crt_bld?2self_x86?2c@ 00455c48     LIBCMTD:stdargv.obj
 0002:00009c7c       ??_C@_0CP@PPLBCJDN@f?3?2dd?2vctools?2crt_bld?2self_x86?2c@ 00455c7c     LIBCMTD:a_env.obj
 0002:00009cb0       ??_C@_1GE@JDDMFOID@?$AAf?$AA?3?$AA?2?$AAd?$AAd?$AA?2?$AAv?$AAc?$AAt?$AAo?$AAo?$AAl?$AAs?$AA?2?$AAc?$AAr?$AAt?$AA_?$AAb?$AAl?$AAd?$AA?2?$AAs?$AAe?$AAl?$AAf?$AA_?$AAx?$AA8?$AA6?$AA?2?$AAc@ 00455cb0     LIBCMTD:heapinit.obj
 0002:00009d14       ??_C@_1BC@DENNNKIM@?$AA_?$AAc?$AAr?$AAt?$AAh?$AAe?$AAa?$AAp?$AA?$AA@ 00455d14     LIBCMTD:heapinit.obj
 0002:00009d60       ??_C@_01KDCPPGHE@r?$AA@    00455d60     LIBCMTD:_pdblkup_.obj
 0002:00009d64       ??_C@_0BB@KCIACLNC@PDBOpenValidate5?$AA@ 00455d64     LIBCMTD:_pdblkup_.obj
 0002:00009d78       ??_C@_1CK@HHHCOJPD@?$AAE?$AAn?$AAv?$AAi?$AAr?$AAo?$AAn?$AAm?$AAe?$AAn?$AAt?$AAD?$AAi?$AAr?$AAe?$AAc?$AAt?$AAo?$AAr?$AAy?$AA?$AA@ 00455d78     LIBCMTD:_pdblkup_.obj
 0002:00009da8       ??_C@_1FM@DNCABAP@?$AAS?$AAO?$AAF?$AAT?$AAW?$AAA?$AAR?$AAE?$AA?2?$AAM?$AAi?$AAc?$AAr?$AAo?$AAs?$AAo?$AAf?$AAt?$AA?2?$AAV?$AAi?$AAs?$AAu?$AAa?$AAl?$AAS?$AAt?$AAu?$AAd?$AAi?$AAo?$AA?2@ 00455da8     LIBCMTD:_pdblkup_.obj
 0002:00009e04       ??_C@_0M@HLOHPNFA@RegCloseKey?$AA@ 00455e04     LIBCMTD:_pdblkup_.obj
 0002:00009e10       ??_C@_0BB@GLNAEDBD@RegQueryValueExW?$AA@ 00455e10     LIBCMTD:_pdblkup_.obj
 0002:00009e24       ??_C@_0O@COHOBMLB@RegOpenKeyExW?$AA@ 00455e24     LIBCMTD:_pdblkup_.obj
 0002:00009e34       ??_C@_1BK@GAEMIDIL@?$AAA?$AAD?$AAV?$AAA?$AAP?$AAI?$AA3?$AA2?$AA?4?$AAD?$AAL?$AAL?$AA?$AA@ 00455e34     LIBCMTD:_pdblkup_.obj
 0002:00009e6c       ??_C@_03KHICJKCI@?4?4?4?$AA@ 00455e6c     LIBCMTD:dbgrpt.obj
 0002:00009e70       ??_C@_0BB@NAGLCMLI@Assertion?5Failed?$AA@ 00455e70     LIBCMTD:dbgrpt.obj
 0002:00009e84       ??_C@_05NAOIJFC@Error?$AA@ 00455e84     LIBCMTD:dbgrpt.obj
 0002:00009e8c       ??_C@_07KGMMFLDN@Warning?$AA@ 00455e8c     LIBCMTD:dbgrpt.obj
 0002:00009ea0       ??_C@_1CG@GNMJDMIO@?$AA_?$AAC?$AAr?$AAt?$AAS?$AAe?$AAt?$AAR?$AAe?$AAp?$AAo?$AAr?$AAt?$AAH?$AAo?$AAo?$AAk?$AA2?$AA?$AA@ 00455ea0     LIBCMTD:dbgrpt.obj
 0002:00009ec8       ??_C@_0CD@EBCGLDDL@Microsoft?5Visual?5C?$CL?$CL?5Debug?5Libra@ 00455ec8     LIBCMTD:dbgrpt.obj
 0002:00009ef0       ??_C@_0FF@CCONDJCB@Debug?5?$CFs?$CB?6?6Program?3?5?$CFs?$CFs?$CFs?$CFs?$CFs?$CFs@ 00455ef0     LIBCMTD:dbgrpt.obj
 0002:00009f48       ??_C@_09OFBFHMBK@?6Module?3?5?$AA@ 00455f48     LIBCMTD:dbgrpt.obj
 0002:00009f54       ??_C@_07OPHPPLBG@?6File?3?5?$AA@ 00455f54     LIBCMTD:dbgrpt.obj
 0002:00009f5c       ??_C@_07DBMPPHDI@?6Line?3?5?$AA@ 00455f5c     LIBCMTD:dbgrpt.obj
 0002:00009f64       ??_C@_02PHMGELLB@?6?6?$AA@ 00455f64     LIBCMTD:dbgrpt.obj
 0002:00009f68       ??_C@_0N@MEECIJGN@Expression?3?5?$AA@ 00455f68     LIBCMTD:dbgrpt.obj
 0002:00009f78       ??_C@_0HD@GNBNFCCL@?6?6For?5information?5on?5how?5your?5pr@ 00455f78     LIBCMTD:dbgrpt.obj
 0002:00009fec       ??_C@_0BH@DNAGHKFM@?$DMprogram?5name?5unknown?$DO?$AA@ 00455fec     LIBCMTD:dbgrpt.obj
 0002:0000a008       ??_C@_1GG@DLDHOIGE@?$AAs?$AAt?$AAr?$AAc?$AAp?$AAy?$AA_?$AAs?$AA?$CI?$AAs?$AAz?$AAE?$AAx?$AAe?$AAN?$AAa?$AAm?$AAe?$AA?0?$AA?5?$AA2?$AA6?$AA0?$AA?0?$AA?5?$AA?$CC?$AA?$DM?$AAp?$AAr?$AAo?$AAg?$AAr@ 00456008     LIBCMTD:dbgrpt.obj
 0002:0000a070       ??_C@_1CI@IDOKFLAJ@?$AA_?$AA_?$AAc?$AAr?$AAt?$AAM?$AAe?$AAs?$AAs?$AAa?$AAg?$AAe?$AAW?$AAi?$AAn?$AAd?$AAo?$AAw?$AAA?$AA?$AA@ 00456070     LIBCMTD:dbgrpt.obj
 0002:0000a098       ??_C@_1BE@KHFBJMNM@?$AA_?$AAl?$AAs?$AAe?$AAe?$AAk?$AAi?$AA6?$AA4?$AA?$AA@ 00456098     LIBCMTD:lseeki64.obj
 0002:0000a0b0       ??_C@_1GE@MINKPNPH@?$AAf?$AA?3?$AA?2?$AAd?$AAd?$AA?2?$AAv?$AAc?$AAt?$AAo?$AAo?$AAl?$AAs?$AA?2?$AAc?$AAr?$AAt?$AA_?$AAb?$AAl?$AAd?$AA?2?$AAs?$AAe?$AAl?$AAf?$AA_?$AAx?$AA8?$AA6?$AA?2?$AAc@ 004560b0     LIBCMTD:lseeki64.obj
 0002:0000a114       ??_C@_0DB@JEHOCBEJ@f?3?2dd?2vctools?2crt_bld?2self_x86?2c@ 00456114     LIBCMTD:_getbuf.obj
 0002:0000a148       ??_C@_1GC@DKMGNNCC@?$AAf?$AA?3?$AA?2?$AAd?$AAd?$AA?2?$AAv?$AAc?$AAt?$AAo?$AAo?$AAl?$AAs?$AA?2?$AAc?$AAr?$AAt?$AA_?$AAb?$AAl?$AAd?$AA?2?$AAs?$AAe?$AAl?$AAf?$AA_?$AAx?$AA8?$AA6?$AA?2?$AAc@ 00456148     LIBCMTD:_getbuf.obj
 0002:0000a1ac       ??_C@_1BA@LEBDGIHM@?$AA_?$AAi?$AAs?$AAa?$AAt?$AAt?$AAy?$AA?$AA@ 004561ac     LIBCMTD:isatty.obj
 0002:0000a1c0       ??_C@_1GA@LPGDJDEN@?$AAf?$AA?3?$AA?2?$AAd?$AAd?$AA?2?$AAv?$AAc?$AAt?$AAo?$AAo?$AAl?$AAs?$AA?2?$AAc?$AAr?$AAt?$AA_?$AAb?$AAl?$AAd?$AA?2?$AAs?$AAe?$AAl?$AAf?$AA_?$AAx?$AA8?$AA6?$AA?2?$AAc@ 004561c0     LIBCMTD:isatty.obj
 0002:0000a220       ??_C@_1O@GKDHFACN@?$AAp?$AAr?$AAi?$AAn?$AAt?$AAf?$AA?$AA@ 00456220     LIBCMTD:printf.obj
 0002:0000a230       ??_C@_1GA@LHEGHOAF@?$AAf?$AA?3?$AA?2?$AAd?$AAd?$AA?2?$AAv?$AAc?$AAt?$AAo?$AAo?$AAl?$AAs?$AA?2?$AAc?$AAr?$AAt?$AA_?$AAb?$AAl?$AAd?$AA?2?$AAs?$AAe?$AAl?$AAf?$AA_?$AAx?$AA8?$AA6?$AA?2?$AAc@ 00456230     LIBCMTD:printf.obj
 0002:0000a290       ??_C@_1O@CEDCILHN@?$AA?$CI?$AAn?$AAu?$AAl?$AAl?$AA?$CJ?$AA?$AA@ 00456290     LIBCMTD:output.obj
 0002:0000a2a0       ??_C@_06OJHGLDPL@?$CInull?$CJ?$AA@ 004562a0     LIBCMTD:output.obj
 0002:0000a2a8       ___lookuptable             004562a8     LIBCMTD:output.obj
 0002:0000a304       ??_C@_1CC@IFFHEMNF@?$AA?$CI?$AAc?$AAh?$AA?5?$AA?$CB?$AA?$DN?$AA?5?$AA_?$AAT?$AA?$CI?$AA?8?$AA?2?$AA0?$AA?8?$AA?$CJ?$AA?$CJ?$AA?$AA@ 00456304     LIBCMTD:output.obj
 0002:0000a328       ??_C@_1BAA@ODEGEDCK@?$AA?$CI?$AA?5?$AA?$CI?$AA_?$AAS?$AAt?$AAr?$AAe?$AAa?$AAm?$AA?9?$AA?$DO?$AA_?$AAf?$AAl?$AAa?$AAg?$AA?5?$AA?$CG?$AA?5?$AA_?$AAI?$AAO?$AAS?$AAT?$AAR?$AAG?$AA?$CJ?$AA?5?$AA?$HM?$AA?$HM?$AA?5@ 00456328     LIBCMTD:output.obj
 0002:0000a428       ??_C@_1BE@IONLIDNC@?$AA_?$AAo?$AAu?$AAt?$AAp?$AAu?$AAt?$AA_?$AAl?$AA?$AA@ 00456428     LIBCMTD:output.obj
 0002:0000a440       ??_C@_1GA@GFFDGGFH@?$AAf?$AA?3?$AA?2?$AAd?$AAd?$AA?2?$AAv?$AAc?$AAt?$AAo?$AAo?$AAl?$AAs?$AA?2?$AAc?$AAr?$AAt?$AA_?$AAb?$AAl?$AAd?$AA?2?$AAs?$AAe?$AAl?$AAf?$AA_?$AAx?$AA8?$AA6?$AA?2?$AAc@ 00456440     LIBCMTD:mbtowc.obj
 0002:0000a4a0       ??_C@_1NC@EINCOKCO@?$AA_?$AAl?$AAo?$AAc?$AA_?$AAu?$AAp?$AAd?$AAa?$AAt?$AAe?$AA?4?$AAG?$AAe?$AAt?$AAL?$AAo?$AAc?$AAa?$AAl?$AAe?$AAT?$AA?$CI?$AA?$CJ?$AA?9?$AA?$DO?$AAl?$AAo?$AAc?$AAi?$AAn?$AAf@ 004564a0     LIBCMTD:mbtowc.obj
 0002:0000a574       ??_C@_1O@HJNPHHHB@?$AAf?$AAp?$AAu?$AAt?$AAw?$AAc?$AA?$AA@ 00456574     LIBCMTD:fputwc.obj
 0002:0000a588       ??_C@_1GA@BJIGKGEA@?$AAf?$AA?3?$AA?2?$AAd?$AAd?$AA?2?$AAv?$AAc?$AAt?$AAo?$AAo?$AAl?$AAs?$AA?2?$AAc?$AAr?$AAt?$AA_?$AAb?$AAl?$AAd?$AA?2?$AAs?$AAe?$AAl?$AAf?$AA_?$AAx?$AA8?$AA6?$AA?2?$AAc@ 00456588     LIBCMTD:fputwc.obj
 0002:0000a5e8       ??_C@_1BK@JMCGJOCC@?$AA_?$AAe?$AAx?$AAp?$AAa?$AAn?$AAd?$AA_?$AAb?$AAa?$AAs?$AAe?$AA?$AA@ 004565e8     LIBCMTD:expand.obj
 0002:0000a608       ??_C@_1GA@EBHFLDNH@?$AAf?$AA?3?$AA?2?$AAd?$AAd?$AA?2?$AAv?$AAc?$AAt?$AAo?$AAo?$AAl?$AAs?$AA?2?$AAc?$AAr?$AAt?$AA_?$AAb?$AAl?$AAd?$AA?2?$AAs?$AAe?$AAl?$AAf?$AA_?$AAx?$AA8?$AA6?$AA?2?$AAc@ 00456608     LIBCMTD:expand.obj
 0002:0000a668       ??_C@_1BO@KFIJIAEA@?$AAp?$AAB?$AAl?$AAo?$AAc?$AAk?$AA?5?$AA?$CB?$AA?$DN?$AA?5?$AAN?$AAU?$AAL?$AAL?$AA?$AA@ 00456668     LIBCMTD:expand.obj
 0002:0000a688       ??_C@_1BA@KBJJGFFE@?$AAs?$AAp?$AAr?$AAi?$AAn?$AAt?$AAf?$AA?$AA@ 00456688     LIBCMTD:sprintf.obj
 0002:0000a698       ??_C@_1GC@BMNPEKNN@?$AAf?$AA?3?$AA?2?$AAd?$AAd?$AA?2?$AAv?$AAc?$AAt?$AAo?$AAo?$AAl?$AAs?$AA?2?$AAc?$AAr?$AAt?$AA_?$AAb?$AAl?$AAd?$AA?2?$AAs?$AAe?$AAl?$AAf?$AA_?$AAx?$AA8?$AA6?$AA?2?$AAc@ 00456698     LIBCMTD:sprintf.obj
 0002:0000a700       ??_C@_1GC@CHGJNMHG@?$AAf?$AA?3?$AA?2?$AAd?$AAd?$AA?2?$AAv?$AAc?$AAt?$AAo?$AAo?$AAl?$AAs?$AA?2?$AAc?$AAr?$AAt?$AA_?$AAb?$AAl?$AAd?$AA?2?$AAs?$AAe?$AAl?$AAf?$AA_?$AAx?$AA8?$AA6?$AA?2?$AAc@ 00456700     LIBCMTD:isctype.obj
 0002:0000a764       ??_C@_1DC@BPLPALML@?$AA?$CI?$AAu?$AAn?$AAs?$AAi?$AAg?$AAn?$AAe?$AAd?$AA?$CJ?$AA?$CI?$AAc?$AA?5?$AA?$CL?$AA?5?$AA1?$AA?$CJ?$AA?5?$AA?$DM?$AA?$DN?$AA?5?$AA2?$AA5?$AA6?$AA?$AA@ 00456764     LIBCMTD:isctype.obj
 0002:0000a798       ___lookuptable_s           00456798     LIBCMTD:outputs.obj
 0002:0000a7f4       ??_C@_1BI@COFBLHCG@?$AA_?$AAo?$AAu?$AAt?$AAp?$AAu?$AAt?$AA_?$AAs?$AA_?$AAl?$AA?$AA@ 004567f4     LIBCMTD:outputs.obj
 0002:0000a810       ??_C@_1IK@MHEDJAMK@?$AA_?$AAt?$AAv?$AAa?$AAl?$AAi?$AAd?$AAa?$AAt?$AAe?$AA_?$AAp?$AAa?$AAr?$AAa?$AAm?$AA_?$AAr?$AAe?$AAu?$AAs?$AAe?$AA?$CI?$AA?$CG?$AAp?$AAo?$AAs?$AA_?$AAv?$AAa?$AAl?$AAu@ 00456810     LIBCMTD:outputp.obj
 0002:0000a89c       ??_C@_1BI@KANOLAMF@?$AA_?$AAo?$AAu?$AAt?$AAp?$AAu?$AAt?$AA_?$AAp?$AA_?$AAl?$AA?$AA@ 0045689c     LIBCMTD:outputp.obj
 0002:0000a8b8       ??_C@_1FE@CEHLKAHD@?$AAi?$AAb?$AAa?$AAs?$AAe?$AA?5?$AA?$DN?$AA?$DN?$AA?5?$AA0?$AA?5?$AA?$HM?$AA?$HM?$AA?5?$AA?$CI?$AA2?$AA?5?$AA?$DM?$AA?$DN?$AA?5?$AAi?$AAb?$AAa?$AAs?$AAe?$AA?5?$AA?$CG?$AA?$CG?$AA?5?$AAi?$AAb?$AAa@ 004568b8     LIBCMTD:wcstol.obj
 0002:0000a90c       ??_C@_1BA@PCFLFGNC@?$AAw?$AAc?$AAs?$AAt?$AAo?$AAx?$AAl?$AA?$AA@ 0045690c     LIBCMTD:wcstol.obj
 0002:0000a920       ??_C@_1GA@CADFOND@?$AAf?$AA?3?$AA?2?$AAd?$AAd?$AA?2?$AAv?$AAc?$AAt?$AAo?$AAo?$AAl?$AAs?$AA?2?$AAc?$AAr?$AAt?$AA_?$AAb?$AAl?$AAd?$AA?2?$AAs?$AAe?$AAl?$AAf?$AA_?$AAx?$AA8?$AA6?$AA?2?$AAc@ 00456920     LIBCMTD:wcstol.obj
 0002:0000a980       ??_C@_1BK@LAOAACLJ@?$AAn?$AAp?$AAt?$AAr?$AA?5?$AA?$CB?$AA?$DN?$AA?5?$AAN?$AAU?$AAL?$AAL?$AA?$AA@ 00456980     LIBCMTD:wcstol.obj
 0002:0000a99c       ??_C@_0DB@KIKNCIEC@f?3?2dd?2vctools?2crt_bld?2self_x86?2c@ 0045699c     LIBCMTD:osfinfo.obj
 0002:0000a9d0       ??_C@_1BO@EMBOBGKE@?$AA_?$AAg?$AAe?$AAt?$AA_?$AAo?$AAs?$AAf?$AAh?$AAa?$AAn?$AAd?$AAl?$AAe?$AA?$AA@ 004569d0     LIBCMTD:osfinfo.obj
 0002:0000a9f0       ??_C@_1GC@MLKLDJJG@?$AAf?$AA?3?$AA?2?$AAd?$AAd?$AA?2?$AAv?$AAc?$AAt?$AAo?$AAo?$AAl?$AAs?$AA?2?$AAc?$AAr?$AAt?$AA_?$AAb?$AAl?$AAd?$AA?2?$AAs?$AAe?$AAl?$AAf?$AA_?$AAx?$AA8?$AA6?$AA?2?$AAc@ 004569f0     LIBCMTD:osfinfo.obj
 0002:0000aa54       ??_C@_1O@HFEBJM@?$AA_?$AAw?$AAo?$AAp?$AAe?$AAn?$AA?$AA@ 00456a54     LIBCMTD:wopen.obj
 0002:0000aa68       ??_C@_1FM@LFKHNNH@?$AAf?$AA?3?$AA?2?$AAd?$AAd?$AA?2?$AAv?$AAc?$AAt?$AAo?$AAo?$AAl?$AAs?$AA?2?$AAc?$AAr?$AAt?$AA_?$AAb?$AAl?$AAd?$AA?2?$AAs?$AAe?$AAl?$AAf?$AA_?$AAx?$AA8?$AA6?$AA?2?$AAc@ 00456a68     LIBCMTD:wopen.obj
 0002:0000aac4       ??_C@_1BO@DPAOGEII@?$AA?$CI?$AAp?$AAa?$AAt?$AAh?$AA?5?$AA?$CB?$AA?$DN?$AA?5?$AAN?$AAU?$AAL?$AAL?$AA?$CJ?$AA?$AA@ 00456ac4     LIBCMTD:wopen.obj
 0002:0000aae8       ??_C@_1FG@NFINBJCM@?$AA?$CI?$AA?$CI?$AAp?$AAm?$AAo?$AAd?$AAe?$AA?5?$AA?$CG?$AA?5?$AA?$CI?$AA?$HO?$AA?$CI?$AA_?$AAS?$AA_?$AAI?$AAR?$AAE?$AAA?$AAD?$AA?5?$AA?$HM?$AA?5?$AA_?$AAS?$AA_?$AAI?$AAW?$AAR?$AAI?$AAT@ 00456ae8     LIBCMTD:wopen.obj
 0002:0000ab40       ??_C@_1BO@NAANLDBI@?$AA_?$AAw?$AAs?$AAo?$AAp?$AAe?$AAn?$AA_?$AAh?$AAe?$AAl?$AAp?$AAe?$AAr?$AA?$AA@ 00456b40     LIBCMTD:wopen.obj
 0002:0000ab60       ??_C@_1BM@PGEEHLHE@?$AA?$CI?$AAp?$AAf?$AAh?$AA?5?$AA?$CB?$AA?$DN?$AA?5?$AAN?$AAU?$AAL?$AAL?$AA?$CJ?$AA?$AA@ 00456b60     LIBCMTD:wopen.obj
 0002:0000ab80       ??_C@_1IA@IENOJNJF@?$AA0?$AA?5?$AA?$CG?$AA?$CG?$AA?5?$AA?$CC?$AAO?$AAn?$AAl?$AAy?$AA?5?$AAU?$AAT?$AAF?$AA?9?$AA1?$AA6?$AA?5?$AAl?$AAi?$AAt?$AAt?$AAl?$AAe?$AA?5?$AAe?$AAn?$AAd?$AAi?$AAa?$AAn?$AA?5@ 00456b80     LIBCMTD:wopen.obj
 0002:0000ac00       ??_C@_1CM@IDLMKMPG@?$AA0?$AA?5?$AA?$CG?$AA?$CG?$AA?5?$AA?$CC?$AAI?$AAn?$AAt?$AAe?$AAr?$AAn?$AAa?$AAl?$AA?5?$AAE?$AAr?$AAr?$AAo?$AAr?$AA?$CC?$AA?$AA@ 00456c00     LIBCMTD:wopen.obj
 0002:0000ac30       ??_C@_1HM@GJANBLHJ@?$AA?$CI?$AAo?$AAf?$AAl?$AAa?$AAg?$AA?5?$AA?$CG?$AA?5?$AA?$CI?$AA_?$AAO?$AA_?$AAT?$AAE?$AAX?$AAT?$AA?5?$AA?$HM?$AA?5?$AA_?$AAO?$AA_?$AAW?$AAT?$AAE?$AAX?$AAT?$AA?5?$AA?$HM?$AA?5?$AA_@ 00456c30     LIBCMTD:wopen.obj
 0002:0000acac       ??_C@_1DO@PJLMOANO@?$AA?$CI?$AA?5?$AA?$CC?$AAI?$AAn?$AAv?$AAa?$AAl?$AAi?$AAd?$AA?5?$AAs?$AAh?$AAa?$AAr?$AAi?$AAn?$AAg?$AA?5?$AAf?$AAl?$AAa?$AAg?$AA?$CC?$AA?5?$AA?0?$AA?5?$AA0?$AA?5?$AA?$CJ?$AA?$AA@ 00456cac     LIBCMTD:wopen.obj
 0002:0000acec       ??_C@_1DI@DGKIFCCE@?$AA?$CI?$AA?5?$AA?$CC?$AAI?$AAn?$AAv?$AAa?$AAl?$AAi?$AAd?$AA?5?$AAo?$AAp?$AAe?$AAn?$AA?5?$AAf?$AAl?$AAa?$AAg?$AA?$CC?$AA?5?$AA?0?$AA?5?$AA0?$AA?5?$AA?$CJ?$AA?$AA@ 00456cec     LIBCMTD:wopen.obj
 0002:0000ad24       ??_C@_1CG@ICBEBDJJ@?$AA_?$AAg?$AAe?$AAt?$AA_?$AAf?$AAm?$AAo?$AAd?$AAe?$AA?$CI?$AA?$CG?$AAf?$AAm?$AAo?$AAd?$AAe?$AA?$CJ?$AA?$AA@ 00456d24     LIBCMTD:wopen.obj
 0002:0000ad4c       ??_C@_1BO@JOPFMPGH@?$AA_?$AAt?$AAs?$AAo?$AAp?$AAe?$AAn?$AA_?$AAn?$AAo?$AAl?$AAo?$AAc?$AAk?$AA?$AA@ 00456d4c     LIBCMTD:wopen.obj
 0002:0000ad6c       ??_C@_1BK@LKBOPAFJ@?$AAl?$AAa?$AAs?$AAt?$AA?5?$AA?$CB?$AA?$DN?$AA?5?$AAN?$AAU?$AAL?$AAL?$AA?$AA@ 00456d6c     LIBCMTD:wcsnicmp.obj
 0002:0000ad88       ??_C@_1BI@KLMFNDBC@?$AA_?$AAw?$AAc?$AAs?$AAn?$AAi?$AAc?$AAm?$AAp?$AA_?$AAl?$AA?$AA@ 00456d88     LIBCMTD:wcsnicmp.obj
 0002:0000ada0       ??_C@_1GE@JMKOMBJH@?$AAf?$AA?3?$AA?2?$AAd?$AAd?$AA?2?$AAv?$AAc?$AAt?$AAo?$AAo?$AAl?$AAs?$AA?2?$AAc?$AAr?$AAt?$AA_?$AAb?$AAl?$AAd?$AA?2?$AAs?$AAe?$AAl?$AAf?$AA_?$AAx?$AA8?$AA6?$AA?2?$AAc@ 00456da0     LIBCMTD:wcsnicmp.obj
 0002:0000ae04       ??_C@_1BM@CBACDFHA@?$AAf?$AAi?$AAr?$AAs?$AAt?$AA?5?$AA?$CB?$AA?$DN?$AA?5?$AAN?$AAU?$AAL?$AAL?$AA?$AA@ 00456e04     LIBCMTD:wcsnicmp.obj
 0002:0000ae20       ??_C@_1BE@JKOKKFEL@?$AA_?$AAw?$AAc?$AAs?$AAn?$AAi?$AAc?$AAm?$AAp?$AA?$AA@ 00456e20     LIBCMTD:wcsnicmp.obj
 0002:0000ae34       ??_C@_0BC@JEAENNKH@SystemFunction036?$AA@ 00456e34     LIBCMTD:rand_s.obj
 0002:0000ae48       ??_C@_1GA@EBEDGGGB@?$AA?$CI?$AA?$CC?$AAr?$AAa?$AAn?$AAd?$AA_?$AAs?$AA?5?$AAi?$AAs?$AA?5?$AAn?$AAo?$AAt?$AA?5?$AAa?$AAv?$AAa?$AAi?$AAl?$AAa?$AAb?$AAl?$AAe?$AA?5?$AAo?$AAn?$AA?5?$AAt?$AAh?$AAi@ 00456e48     LIBCMTD:rand_s.obj
 0002:0000aea8       ??_C@_1O@IJGPPOGF@?$AAr?$AAa?$AAn?$AAd?$AA_?$AAs?$AA?$AA@ 00456ea8     LIBCMTD:rand_s.obj
 0002:0000aeb8       ??_C@_1GA@HBGBBKCD@?$AAf?$AA?3?$AA?2?$AAd?$AAd?$AA?2?$AAv?$AAc?$AAt?$AAo?$AAo?$AAl?$AAs?$AA?2?$AAc?$AAr?$AAt?$AA_?$AAb?$AAl?$AAd?$AA?2?$AAs?$AAe?$AAl?$AAf?$AA_?$AAx?$AA8?$AA6?$AA?2?$AAc@ 00456eb8     LIBCMTD:rand_s.obj
 0002:0000af18       ??_C@_1CK@GFDNDKK@?$AA_?$AAR?$AAa?$AAn?$AAd?$AAo?$AAm?$AAV?$AAa?$AAl?$AAu?$AAe?$AA?5?$AA?$CB?$AA?$DN?$AA?5?$AAN?$AAU?$AAL?$AAL?$AA?$AA@ 00456f18     LIBCMTD:rand_s.obj
 0002:0000af44       ??_C@_0BK@CFCOFLF@?5Complete?5Object?5Locator?8?$AA@ 00456f44     LIBCMTD:undname.obj
 0002:0000af60       ??_C@_0BN@MECKDCOJ@?5Class?5Hierarchy?5Descriptor?8?$AA@ 00456f60     LIBCMTD:undname.obj
 0002:0000af80       ??_C@_0BD@LGICGFMM@?5Base?5Class?5Array?8?$AA@ 00456f80     LIBCMTD:undname.obj
 0002:0000af94       ??_C@_0BM@LDKODKLH@?5Base?5Class?5Descriptor?5at?5?$CI?$AA@ 00456f94     LIBCMTD:undname.obj
 0002:0000afb0       ??_C@_0BC@DAFEJGAK@?5Type?5Descriptor?8?$AA@ 00456fb0     LIBCMTD:undname.obj
 0002:0000afc4       ??_C@_0BM@PMGGMLDN@?$GAlocal?5static?5thread?5guard?8?$AA@ 00456fc4     LIBCMTD:undname.obj
 0002:0000afe0       ??_C@_0CL@FGIJHLCE@?$GAmanaged?5vector?5copy?5constructor@ 00456fe0     LIBCMTD:undname.obj
 0002:0000b00c       ??_C@_0CJ@GJELGAMM@?$GAvector?5vbase?5copy?5constructor?5i@ 0045700c     LIBCMTD:undname.obj
 0002:0000b038       ??_C@_0CD@CGAJBKEJ@?$GAvector?5copy?5constructor?5iterato@ 00457038     LIBCMTD:undname.obj
 0002:0000b05c       ??_C@_0CB@PDBIFEP@?$GAdynamic?5atexit?5destructor?5for?5?8@ 0045705c     LIBCMTD:undname.obj
 0002:0000b080       ??_C@_0BL@CLIPGLGB@?$GAdynamic?5initializer?5for?5?8?$AA@ 00457080     LIBCMTD:undname.obj
 0002:0000b09c       ??_C@_0CM@FCBBDIGB@?$GAeh?5vector?5vbase?5copy?5constructo@ 0045709c     LIBCMTD:undname.obj
 0002:0000b0c8       ??_C@_0CG@HLDDJMAG@?$GAeh?5vector?5copy?5constructor?5iter@ 004570c8     LIBCMTD:undname.obj
 0002:0000b0f0       ??_C@_0CF@IMGKMJNO@?$GAmanaged?5vector?5destructor?5itera@ 004570f0     LIBCMTD:undname.obj
 0002:0000b118       ??_C@_0CG@CFDHKGGD@?$GAmanaged?5vector?5constructor?5iter@ 00457118     LIBCMTD:undname.obj
 0002:0000b140       ??_C@_0BN@CKNJLHMB@?$GAplacement?5delete?$FL?$FN?5closure?8?$AA@ 00457140     LIBCMTD:undname.obj
 0002:0000b160       ??_C@_0BL@CNOONJFP@?$GAplacement?5delete?5closure?8?$AA@ 00457160     LIBCMTD:undname.obj
 0002:0000b17c       ??_C@_0P@HJKNJFNN@?$GAomni?5callsig?8?$AA@ 0045717c     LIBCMTD:undname.obj
 0002:0000b18c       ??_C@_09LBNFPBCA@?5delete?$FL?$FN?$AA@ 0045718c     LIBCMTD:undname.obj
 0002:0000b198       ??_C@_06FHBGPFGH@?5new?$FL?$FN?$AA@ 00457198     LIBCMTD:undname.obj
 0002:0000b1a0       ??_C@_0CE@IIHCMGGL@?$GAlocal?5vftable?5constructor?5closu@ 004571a0     LIBCMTD:undname.obj
 0002:0000b1c4       ??_C@_0BA@KKLDJDLB@?$GAlocal?5vftable?8?$AA@ 004571c4     LIBCMTD:undname.obj
 0002:0000b1d4       ??_C@_05KHLCHHI@?$GARTTI?$AA@ 004571d4     LIBCMTD:undname.obj
 0002:0000b1dc       ??_C@_03KLGMFNMG@?$GAEH?$AA@ 004571dc     LIBCMTD:undname.obj
 0002:0000b1e0       ??_C@_0BA@KBCDOMBN@?$GAudt?5returning?8?$AA@ 004571e0     LIBCMTD:undname.obj
 0002:0000b1f0       ??_C@_0BL@LLKPOHJI@?$GAcopy?5constructor?5closure?8?$AA@ 004571f0     LIBCMTD:undname.obj
 0002:0000b20c       ??_C@_0CH@OOJPLCPH@?$GAeh?5vector?5vbase?5constructor?5ite@ 0045720c     LIBCMTD:undname.obj
 0002:0000b234       ??_C@_0CA@GCEOPDGL@?$GAeh?5vector?5destructor?5iterator?8?$AA@ 00457234     LIBCMTD:undname.obj
 0002:0000b254       ??_C@_0CB@JONCMFFK@?$GAeh?5vector?5constructor?5iterator?8@ 00457254     LIBCMTD:undname.obj
 0002:0000b278       ??_C@_0BL@NILFHHPC@?$GAvirtual?5displacement?5map?8?$AA@ 00457278     LIBCMTD:undname.obj
 0002:0000b294       ??_C@_0CE@IKBNEHA@?$GAvector?5vbase?5constructor?5iterat@ 00457294     LIBCMTD:undname.obj
 0002:0000b2b8       ??_C@_0BN@LFPFMEDL@?$GAvector?5destructor?5iterator?8?$AA@ 004572b8     LIBCMTD:undname.obj
 0002:0000b2d8       ??_C@_0BO@PFGOCPJJ@?$GAvector?5constructor?5iterator?8?$AA@ 004572d8     LIBCMTD:undname.obj
 0002:0000b2f8       ??_C@_0BN@IMDCHIKM@?$GAscalar?5deleting?5destructor?8?$AA@ 004572f8     LIBCMTD:undname.obj
 0002:0000b318       ??_C@_0BO@OBMKPJIG@?$GAdefault?5constructor?5closure?8?$AA@ 00457318     LIBCMTD:undname.obj
 0002:0000b338       ??_C@_0BN@DEGPLNFK@?$GAvector?5deleting?5destructor?8?$AA@ 00457338     LIBCMTD:undname.obj
 0002:0000b358       ??_C@_0BD@JDLKDPAB@?$GAvbase?5destructor?8?$AA@ 00457358     LIBCMTD:undname.obj
 0002:0000b36c       ??_C@_08OBABFOLI@?$GAstring?8?$AA@ 0045736c     LIBCMTD:undname.obj
 0002:0000b378       ??_C@_0BF@KDPPACIK@?$GAlocal?5static?5guard?8?$AA@ 00457378     LIBCMTD:undname.obj
 0002:0000b390       ??_C@_08LLFFHHDJ@?$GAtypeof?8?$AA@ 00457390     LIBCMTD:undname.obj
 0002:0000b39c       ??_C@_07FEEIOKP@?$GAvcall?8?$AA@ 0045739c     LIBCMTD:undname.obj
 0002:0000b3a4       ??_C@_09BLBHBJP@?$GAvbtable?8?$AA@ 004573a4     LIBCMTD:undname.obj
 0002:0000b3b0       ??_C@_09IFPLHPGF@?$GAvftable?8?$AA@ 004573b0     LIBCMTD:undname.obj
 0002:0000b3bc       ??_C@_02MHEGNOJ@?$FO?$DN?$AA@ 004573bc     LIBCMTD:undname.obj
 0002:0000b3c0       ??_C@_02DHLNPPGH@?$HM?$DN?$AA@ 004573c0     LIBCMTD:undname.obj
 0002:0000b3c4       ??_C@_02FGJGFEAB@?$CG?$DN?$AA@ 004573c4     LIBCMTD:undname.obj
 0002:0000b3c8       ??_C@_03CDNPDDLA@?$DM?$DM?$DN?$AA@ 004573c8     LIBCMTD:undname.obj
 0002:0000b3cc       ??_C@_03IKFCCPFF@?$DO?$DO?$DN?$AA@ 004573cc     LIBCMTD:undname.obj
 0002:0000b3d0       ??_C@_02FENAOKFI@?$CF?$DN?$AA@ 004573d0     LIBCMTD:undname.obj
 0002:0000b3d4       ??_C@_02FJEHGPIO@?1?$DN?$AA@ 004573d4     LIBCMTD:undname.obj
 0002:0000b3d8       ??_C@_02FKMDLLOA@?9?$DN?$AA@ 004573d8     LIBCMTD:undname.obj
 0002:0000b3dc       ??_C@_02FOEOMHFC@?$CL?$DN?$AA@ 004573dc     LIBCMTD:undname.obj
 0002:0000b3e0       ??_C@_02FPIMKNGF@?$CK?$DN?$AA@ 004573e0     LIBCMTD:undname.obj
 0002:0000b3e4       ??_C@_02NONPIBCD@?$HM?$HM?$AA@ 004573e4     LIBCMTD:undname.obj
 0002:0000b3e8       ??_C@_02PPKAJPJL@?$CG?$CG?$AA@ 004573e8     LIBCMTD:undname.obj
 0002:0000b3ec       ??_C@_01DNKMNLPK@?$HM?$AA@ 004573ec     LIBCMTD:undname.obj
 0002:0000b3f0       ??_C@_01JKBOJNNK@?$FO?$AA@ 004573f0     LIBCMTD:undname.obj
 0002:0000b3f4       ??_C@_01PJKLJHI@?$HO?$AA@  004573f4     LIBCMTD:undname.obj
 0002:0000b3f8       ??_C@_02HCKGKOFO@?$CI?$CJ?$AA@ 004573f8     LIBCMTD:undname.obj
 0002:0000b3fc       ??_C@_01IHBHIGKO@?0?$AA@   004573fc     LIBCMTD:undname.obj
 0002:0000b400       ??_C@_02EEKDKGMJ@?$DO?$DN?$AA@ 00457400     LIBCMTD:undname.obj
 0002:0000b404       ??_C@_01PPODPGHN@?$DO?$AA@ 00457404     LIBCMTD:undname.obj
 0002:0000b408       ??_C@_02EHCHHCKH@?$DM?$DN?$AA@ 00457408     LIBCMTD:undname.obj
 0002:0000b40c       ??_C@_01MNNFJEPP@?$DM?$AA@ 0045740c     LIBCMTD:undname.obj
 0002:0000b410       ??_C@_01FGNFDNOH@?$CF?$AA@ 00457410     LIBCMTD:undname.obj
 0002:0000b414       ??_C@_01KMDKNFGN@?1?$AA@   00457414     LIBCMTD:undname.obj
 0002:0000b418       ??_C@_03MNHNFDLC@?9?$DO?$CK?$AA@ 00457418     LIBCMTD:undname.obj
 0002:0000b41c       ??_C@_01HNPIGOCE@?$CG?$AA@ 0045741c     LIBCMTD:undname.obj
 0002:0000b420       ??_C@_01MIFGBAGJ@?$CL?$AA@ 00457420     LIBCMTD:undname.obj
 0002:0000b424       ??_C@_01JOAMLHOP@?9?$AA@   00457424     LIBCMTD:undname.obj
 0002:0000b428       ??_C@_02BAABKJLB@?9?9?$AA@ 00457428     LIBCMTD:undname.obj
 0002:0000b42c       ??_C@_02ECNGHCIF@?$CL?$CL?$AA@ 0045742c     LIBCMTD:undname.obj
 0002:0000b430       ??_C@_01NBENCBCI@?$CK?$AA@ 00457430     LIBCMTD:undname.obj
 0002:0000b434       ??_C@_02HBOOOICD@?9?$DO?$AA@ 00457434     LIBCMTD:undname.obj
 0002:0000b438       ??_C@_08LHJFAFGD@operator?$AA@ 00457438     LIBCMTD:undname.obj
 0002:0000b444       ??_C@_02GPECMEKF@?$FL?$FN?$AA@ 00457444     LIBCMTD:undname.obj
 0002:0000b448       ??_C@_02FDNJECIE@?$CB?$DN?$AA@ 00457448     LIBCMTD:undname.obj
 0002:0000b44c       ??_C@_02EGOFBIJA@?$DN?$DN?$AA@ 0045744c     LIBCMTD:undname.obj
 0002:0000b450       ??_C@_01DCLJPIOD@?$CB?$AA@ 00457450     LIBCMTD:undname.obj
 0002:0000b454       ??_C@_02FODMEDOG@?$DM?$DM?$AA@ 00457454     LIBCMTD:undname.obj
 0002:0000b458       ??_C@_02GPIOPFAK@?$DO?$DO?$AA@ 00457458     LIBCMTD:undname.obj
 0002:0000b45c       ??_C@_07FPCDHGMM@?5delete?$AA@ 0045745c     LIBCMTD:undname.obj
 0002:0000b464       ??_C@_04NIHEBCM@?5new?$AA@ 00457464     LIBCMTD:undname.obj
 0002:0000b46c       ??_C@_0M@GFIIJFMG@__unaligned?$AA@ 0045746c     LIBCMTD:undname.obj
 0002:0000b478       ??_C@_0L@PILCLIHE@__restrict?$AA@ 00457478     LIBCMTD:undname.obj
 0002:0000b484       ??_C@_07JOMMBBKO@__ptr64?$AA@ 00457484     LIBCMTD:undname.obj
 0002:0000b48c       ??_C@_06GHPCKEAG@__eabi?$AA@ 0045748c     LIBCMTD:undname.obj
 0002:0000b494       ??_C@_09HIJEGCPM@__clrcall?$AA@ 00457494     LIBCMTD:undname.obj
 0002:0000b4a0       ??_C@_0L@JMKHOMEK@__fastcall?$AA@ 004574a0     LIBCMTD:undname.obj
 0002:0000b4ac       ??_C@_0L@NPHFGOKO@__thiscall?$AA@ 004574ac     LIBCMTD:undname.obj
 0002:0000b4b8       ??_C@_09IFJBGAPI@__stdcall?$AA@ 004574b8     LIBCMTD:undname.obj
 0002:0000b4c4       ??_C@_08GHMPAG@__pascal?$AA@ 004574c4     LIBCMTD:undname.obj
 0002:0000b4d0       ??_C@_07KOLFKCDI@__cdecl?$AA@ 004574d0     LIBCMTD:undname.obj
 0002:0000b4d8       ??_C@_08EHJDFFNH@__based?$CI?$AA@ 004574d8     LIBCMTD:undname.obj
 0002:0000b66c       ??_C@_04HEJADOOB@CV?3?5?$AA@ 0045766c     LIBCMTD:undname.obj
 0002:0000b674       ??_C@_02MOLJINC@?3?3?$AA@  00457674     LIBCMTD:undname.obj
 0002:0000b678       ??_C@_01GEODFPGF@?8?$AA@   00457678     LIBCMTD:undname.obj
 0002:0000b67c       ??_C@_01NLNLIGKH@?$GA?$AA@ 0045767c     LIBCMTD:undname.obj
 0002:0000b680       ??_C@_0O@KHGCOMHP@generic?9type?9?$AA@ 00457680     LIBCMTD:undname.obj
 0002:0000b690       ??_C@_0BE@JAEOCHPE@template?9parameter?9?$AA@ 00457690     LIBCMTD:undname.obj
 0002:0000b6a4       ??_C@_02OHHJMEON@?8?8?$AA@ 004576a4     LIBCMTD:undname.obj
 0002:0000b6a8       ??_C@_0BG@JNJLAMPM@?$GAanonymous?5namespace?8?$AA@ 004576a8     LIBCMTD:undname.obj
 0002:0000b6c0       ??_C@_0BN@IBLMMFAP@?$GAnon?9type?9template?9parameter?$AA@ 004576c0     LIBCMTD:undname.obj
 0002:0000b6e0       ??_C@_0BE@EODMJLIF@?$GAtemplate?9parameter?$AA@ 004576e0     LIBCMTD:undname.obj
 0002:0000b6f4       ??_C@_04GKJNKENE@void?$AA@ 004576f4     LIBCMTD:undname.obj
 0002:0000b6fc       ??_C@_04HIBGFPH@NULL?$AA@  004576fc     LIBCMTD:undname.obj
 0002:0000b704       ??_C@_0M@DHNBOJMP@extern?5?$CCC?$CC?5?$AA@ 00457704     LIBCMTD:undname.obj
 0002:0000b710       ??_C@_08KJLFOPNE@?$FLthunk?$FN?3?$AA@ 00457710     LIBCMTD:undname.obj
 0002:0000b71c       ??_C@_08GPDDCMKI@public?3?5?$AA@ 0045771c     LIBCMTD:undname.obj
 0002:0000b728       ??_C@_0M@GAIFPFIP@protected?3?5?$AA@ 00457728     LIBCMTD:undname.obj
 0002:0000b734       ??_C@_09LAPHOOG@private?3?5?$AA@ 00457734     LIBCMTD:undname.obj
 0002:0000b740       ??_C@_08NIEOINHE@virtual?5?$AA@ 00457740     LIBCMTD:undname.obj
 0002:0000b74c       ??_C@_07PGOEDBHP@static?5?$AA@ 0045774c     LIBCMTD:undname.obj
 0002:0000b754       ??_C@_0DA@HGFJFBBE@?$GAtemplate?5static?5data?5member?5des@ 00457754     LIBCMTD:undname.obj
 0002:0000b784       ??_C@_0DB@ILEFOCIJ@?$GAtemplate?5static?5data?5member?5con@ 00457784     LIBCMTD:undname.obj
 0002:0000b7b8       ??_C@_0CB@KJDOOODE@?$GAlocal?5static?5destructor?5helper?8@ 004577b8     LIBCMTD:undname.obj
 0002:0000b7dc       ??_C@_0L@HNGCOGAE@?$GAadjustor?$HL?$AA@ 004577dc     LIBCMTD:undname.obj
 0002:0000b7e8       ??_C@_0L@GHPFDFH@?$GAvtordisp?$HL?$AA@ 004577e8     LIBCMTD:undname.obj
 0002:0000b7f4       ??_C@_0N@CBHHHENL@?$GAvtordispex?$HL?$AA@ 004577f4     LIBCMTD:undname.obj
 0002:0000b804       ??_C@_01CLKCMJKC@?5?$AA@   00457804     LIBCMTD:undname.obj
 0002:0000b808       ??_C@_02IGFCGPIL@?$HN?8?$AA@ 00457808     LIBCMTD:undname.obj
 0002:0000b80c       ??_C@_03OPGICMGF@?$HN?8?5?$AA@ 0045780c     LIBCMTD:undname.obj
 0002:0000b810       ??_C@_02KCKGHPCA@?$CJ?5?$AA@ 00457810     LIBCMTD:undname.obj
 0002:0000b814       ??_C@_05BEFAKPML@void?5?$AA@ 00457814     LIBCMTD:undname.obj
 0002:0000b81c       ??_C@_0P@GCOCNKDM@std?3?3nullptr_t?$AA@ 0045781c     LIBCMTD:undname.obj
 0002:0000b82c       ??_C@_08PABEKFH@volatile?$AA@ 0045782c     LIBCMTD:undname.obj
 0002:0000b838       ??_C@_0M@ELJOJFFH@?0?$DMellipsis?$DO?$AA@ 00457838     LIBCMTD:undname.obj
 0002:0000b844       ??_C@_04EENFHACM@?0?4?4?4?$AA@ 00457844     LIBCMTD:undname.obj
 0002:0000b84c       ??_C@_0L@EGPHHEKN@?$DMellipsis?$DO?$AA@ 0045784c     LIBCMTD:undname.obj
 0002:0000b858       ??_C@_07HDJPLPEK@?5throw?$CI?$AA@ 00457858     LIBCMTD:undname.obj
 0002:0000b860       ??_C@_09EFNPDFFP@?5volatile?$AA@ 00457860     LIBCMTD:undname.obj
 0002:0000b86c       ??_C@_05BNCCCJPP@const?$AA@ 0045786c     LIBCMTD:undname.obj
 0002:0000b874       ??_C@_07EDHNAJHC@signed?5?$AA@ 00457874     LIBCMTD:undname.obj
 0002:0000b87c       ??_C@_09EBBEKKIH@unsigned?5?$AA@ 0045787c     LIBCMTD:undname.obj
 0002:0000b888       ??_C@_07NFANNNEC@UNKNOWN?$AA@ 00457888     LIBCMTD:undname.obj
 0002:0000b890       ??_C@_06GCICPBLB@__w64?5?$AA@ 00457890     LIBCMTD:undname.obj
 0002:0000b898       ??_C@_07CLGGIAMF@wchar_t?$AA@ 00457898     LIBCMTD:undname.obj
 0002:0000b8a0       ??_C@_09EEKGDCPH@?$DMunknown?$DO?$AA@ 004578a0     LIBCMTD:undname.obj
 0002:0000b8ac       ??_C@_08GAHOLHEO@__int128?$AA@ 004578ac     LIBCMTD:undname.obj
 0002:0000b8b8       ??_C@_07LFCOJCAC@__int64?$AA@ 004578b8     LIBCMTD:undname.obj
 0002:0000b8c0       ??_C@_07OFLPPHGP@__int32?$AA@ 004578c0     LIBCMTD:undname.obj
 0002:0000b8c8       ??_C@_07ICFHOGAF@__int16?$AA@ 004578c8     LIBCMTD:undname.obj
 0002:0000b8d0       ??_C@_06EBGKOKIG@__int8?$AA@ 004578d0     LIBCMTD:undname.obj
 0002:0000b8d8       ??_C@_04DDKJGDCM@bool?$AA@ 004578d8     LIBCMTD:undname.obj
 0002:0000b8e0       ??_C@_06BNJCAIGJ@double?$AA@ 004578e0     LIBCMTD:undname.obj
 0002:0000b8e8       ??_C@_05CJIMAING@long?5?$AA@ 004578e8     LIBCMTD:undname.obj
 0002:0000b8f0       ??_C@_05KNFBNCOH@float?$AA@ 004578f0     LIBCMTD:undname.obj
 0002:0000b8f8       ??_C@_04GOKPGOLB@long?$AA@ 004578f8     LIBCMTD:undname.obj
 0002:0000b900       ??_C@_03JBIPMCLC@int?$AA@  00457900     LIBCMTD:undname.obj
 0002:0000b904       ??_C@_05BFKKPKCG@short?$AA@ 00457904     LIBCMTD:undname.obj
 0002:0000b90c       ??_C@_04ENMBGAPA@char?$AA@ 0045790c     LIBCMTD:undname.obj
 0002:0000b914       ??_C@_05LJGMCFOG@enum?5?$AA@ 00457914     LIBCMTD:undname.obj
 0002:0000b91c       ??_C@_0N@DLIEFKNA@cointerface?5?$AA@ 0045791c     LIBCMTD:undname.obj
 0002:0000b92c       ??_C@_08KOFANOFK@coclass?5?$AA@ 0045792c     LIBCMTD:undname.obj
 0002:0000b938       ??_C@_06LJBABKPM@class?5?$AA@ 00457938     LIBCMTD:undname.obj
 0002:0000b940       ??_C@_07DIBCDNGL@struct?5?$AA@ 00457940     LIBCMTD:undname.obj
 0002:0000b948       ??_C@_06MOJHIBMG@union?5?$AA@ 00457948     LIBCMTD:undname.obj
 0002:0000b950       ??_C@_0P@GCIFDJCJ@?$GAunknown?5ecsu?8?$AA@ 00457950     LIBCMTD:undname.obj
 0002:0000b960       ??_C@_04LAHKHJMA@int?5?$AA@ 00457960     LIBCMTD:undname.obj
 0002:0000b968       ??_C@_06EHJMALKF@short?5?$AA@ 00457968     LIBCMTD:undname.obj
 0002:0000b970       ??_C@_05CIHEBHNO@char?5?$AA@ 00457970     LIBCMTD:undname.obj
 0002:0000b978       ??_C@_06LIJLOJAG@const?5?$AA@ 00457978     LIBCMTD:undname.obj
 0002:0000b980       ??_C@_09GAIEOBLP@volatile?5?$AA@ 00457980     LIBCMTD:undname.obj
 0002:0000b98c       ??_C@_0O@GKABPPIF@cli?3?3pin_ptr?$DM?$AA@ 0045798c     LIBCMTD:undname.obj
 0002:0000b99c       ??_C@_0M@EALIELKG@cli?3?3array?$DM?$AA@ 0045799c     LIBCMTD:undname.obj
 0002:0000b9a8       ??_C@_02GOGNNPBN@?$CJ?$FL?$AA@ 004579a8     LIBCMTD:undname.obj
 0002:0000b9ac       ??_C@_06EEGAIFAK@?$HLflat?$HN?$AA@ 004579ac     LIBCMTD:undname.obj
 0002:0000b9b4       ??_C@_02MDINNEEG@s?5?$AA@  004579b4     LIBCMTD:undname.obj
 0002:0000b9b8       ??_C@_05JIBOFOHK@?$HLfor?5?$AA@ 004579b8     LIBCMTD:undname.obj
 0002:0000b9c0       ??_7DNameNode@@6B@         004579c0     LIBCMTD:undname.obj
 0002:0000b9cc       ??_7charNode@@6B@          004579cc     LIBCMTD:undname.obj
 0002:0000b9d8       ??_7pcharNode@@6B@         004579d8     LIBCMTD:undname.obj
 0002:0000b9e4       ??_7pDNameNode@@6B@        004579e4     LIBCMTD:undname.obj
 0002:0000b9f0       ??_7DNameStatusNode@@6B@   004579f0     LIBCMTD:undname.obj
 0002:0000b9fc       ??_C@_04OKOHEJBO@?5?$DP?$DP?5?$AA@ 004579fc     LIBCMTD:undname.obj
 0002:0000ba04       ??_7pairNode@@6B@          00457a04     LIBCMTD:undname.obj
 0002:0000ba10       ??_C@_1GA@INJGGEBC@?$AAf?$AA?3?$AA?2?$AAd?$AAd?$AA?2?$AAv?$AAc?$AAt?$AAo?$AAo?$AAl?$AAs?$AA?2?$AAc?$AAr?$AAt?$AA_?$AAb?$AAl?$AAd?$AA?2?$AAs?$AAe?$AAl?$AAf?$AA_?$AAx?$AA8?$AA6?$AA?2?$AAc@ 00457a10     LIBCMTD:a_map.obj
 0002:0000ba70       ??_C@_1FE@KNPCCODH@?$AA?$CI?$AA?$CC?$AAC?$AAo?$AAr?$AAr?$AAu?$AAp?$AAt?$AAe?$AAd?$AA?5?$AAp?$AAo?$AAi?$AAn?$AAt?$AAe?$AAr?$AA?5?$AAp?$AAa?$AAs?$AAs?$AAe?$AAd?$AA?5?$AAt?$AAo?$AA?5?$AA_?$AAf@ 00457a70     LIBCMTD:a_map.obj
 0002:0000bac8       ??_C@_1GE@GJCMHHMH@?$AAf?$AA?3?$AA?2?$AAd?$AAd?$AA?2?$AAv?$AAc?$AAt?$AAo?$AAo?$AAl?$AAs?$AA?2?$AAc?$AAr?$AAt?$AA_?$AAb?$AAl?$AAd?$AA?2?$AAs?$AAe?$AAl?$AAf?$AA_?$AAx?$AA8?$AA6?$AA?2?$AAc@ 00457ac8     LIBCMTD:inittime.obj
 0002:0000bb30       ??_C@_1EE@FDHCFDHN@?$AAp?$AAl?$AAo?$AAc?$AAi?$AA?9?$AA?$DO?$AAl?$AAc?$AA_?$AAt?$AAi?$AAm?$AAe?$AA_?$AAc?$AAu?$AAr?$AAr?$AA?9?$AA?$DO?$AAr?$AAe?$AAf?$AAc?$AAo?$AAu?$AAn?$AAt?$AA?5?$AA?$DO?$AA?5@ 00457b30     LIBCMTD:inittime.obj
 0002:0000bb74       ??_C@_0DC@KICHHNFK@f?3?2dd?2vctools?2crt_bld?2self_x86?2c@ 00457b74     LIBCMTD:inittime.obj
 0002:0000bba8       ??_C@_1GC@EDJOCBCL@?$AAf?$AA?3?$AA?2?$AAd?$AAd?$AA?2?$AAv?$AAc?$AAt?$AAo?$AAo?$AAl?$AAs?$AA?2?$AAc?$AAr?$AAt?$AA_?$AAb?$AAl?$AAd?$AA?2?$AAs?$AAe?$AAl?$AAf?$AA_?$AAx?$AA8?$AA6?$AA?2?$AAc@ 00457ba8     LIBCMTD:initnum.obj
 0002:0000bc0c       ??_C@_1DM@IFKAINNE@?$AAp?$AAl?$AAo?$AAc?$AAi?$AA?9?$AA?$DO?$AAl?$AAc?$AAo?$AAn?$AAv?$AA_?$AAn?$AAu?$AAm?$AA_?$AAr?$AAe?$AAf?$AAc?$AAo?$AAu?$AAn?$AAt?$AA?5?$AA?$DO?$AA?5?$AA0?$AA?$AA@ 00457c0c     LIBCMTD:initnum.obj
 0002:0000bc48       ??_C@_0DB@KKFMDHFI@f?3?2dd?2vctools?2crt_bld?2self_x86?2c@ 00457c48     LIBCMTD:initnum.obj
 0002:0000bc80       ??_C@_1GC@IKADOFBJ@?$AAf?$AA?3?$AA?2?$AAd?$AAd?$AA?2?$AAv?$AAc?$AAt?$AAo?$AAo?$AAl?$AAs?$AA?2?$AAc?$AAr?$AAt?$AA_?$AAb?$AAl?$AAd?$AA?2?$AAs?$AAe?$AAl?$AAf?$AA_?$AAx?$AA8?$AA6?$AA?2?$AAc@ 00457c80     LIBCMTD:initmon.obj
 0002:0000bce4       ??_C@_1DM@GKAPAMDO@?$AAp?$AAl?$AAo?$AAc?$AAi?$AA?9?$AA?$DO?$AAl?$AAc?$AAo?$AAn?$AAv?$AA_?$AAm?$AAo?$AAn?$AA_?$AAr?$AAe?$AAf?$AAc?$AAo?$AAu?$AAn?$AAt?$AA?5?$AA?$DO?$AA?5?$AA0?$AA?$AA@ 00457ce4     LIBCMTD:initmon.obj
 0002:0000bd20       ??_C@_0DB@BECNGFDL@f?3?2dd?2vctools?2crt_bld?2self_x86?2c@ 00457d20     LIBCMTD:initmon.obj
 0002:0000bd58       ___newctype                00457d58     LIBCMTD:ctype.obj
 0002:0000c058       __wctype                   00458058     LIBCMTD:ctype.obj
 0002:0000c260       ___newclmap                00458260     LIBCMTD:ctype.obj
 0002:0000c3e0       ___newcumap                004583e0     LIBCMTD:ctype.obj
 0002:0000c560       ??_C@_1DG@NMBGBDM@?$AAp?$AAl?$AAo?$AAc?$AAi?$AA?9?$AA?$DO?$AAc?$AAt?$AAy?$AAp?$AAe?$AA1?$AA_?$AAr?$AAe?$AAf?$AAc?$AAo?$AAu?$AAn?$AAt?$AA?5?$AA?$DO?$AA?5?$AA0?$AA?$AA@ 00458560     LIBCMTD:initctyp.obj
 0002:0000c598       ??_C@_1GE@OCPKBDKE@?$AAf?$AA?3?$AA?2?$AAd?$AAd?$AA?2?$AAv?$AAc?$AAt?$AAo?$AAo?$AAl?$AAs?$AA?2?$AAc?$AAr?$AAt?$AA_?$AAb?$AAl?$AAd?$AA?2?$AAs?$AAe?$AAl?$AAf?$AA_?$AAx?$AA8?$AA6?$AA?2?$AAc@ 00458598     LIBCMTD:initctyp.obj
 0002:0000c5fc       ??_C@_0DC@EHLBFILA@f?3?2dd?2vctools?2crt_bld?2self_x86?2c@ 004585fc     LIBCMTD:initctyp.obj
 0002:0000c630       ??_C@_1BE@NDMJHJJG@?$AAs?$AAt?$AAr?$AAn?$AAc?$AAp?$AAy?$AA_?$AAs?$AA?$AA@ 00458630     LIBCMTD:strncpy_s.obj
 0002:0000c648       ??_C@_1GK@PAJJBKJF@?$AAf?$AA?3?$AA?2?$AAd?$AAd?$AA?2?$AAv?$AAc?$AAt?$AAo?$AAo?$AAl?$AAs?$AA?2?$AAc?$AAr?$AAt?$AA_?$AAb?$AAl?$AAd?$AA?2?$AAs?$AAe?$AAl?$AAf?$AA_?$AAx?$AA8?$AA6?$AA?2?$AAc@ 00458648     LIBCMTD:strncpy_s.obj
 0002:0000c6b8       ??_C@_1FA@MJKDNFFB@?$AA?$CI?$AAL?$AA?$CC?$AAS?$AAt?$AAr?$AAi?$AAn?$AAg?$AA?5?$AAi?$AAs?$AA?5?$AAn?$AAo?$AAt?$AA?5?$AAn?$AAu?$AAl?$AAl?$AA?5?$AAt?$AAe?$AAr?$AAm?$AAi?$AAn?$AAa?$AAt?$AAe?$AAd@ 004586b8     LIBCMTD:strcat_s.obj
 0002:0000c708       ??_C@_1DM@FHLMIEG@?$AAS?$AAt?$AAr?$AAi?$AAn?$AAg?$AA?5?$AAi?$AAs?$AA?5?$AAn?$AAo?$AAt?$AA?5?$AAn?$AAu?$AAl?$AAl?$AA?5?$AAt?$AAe?$AAr?$AAm?$AAi?$AAn?$AAa?$AAt?$AAe?$AAd?$AA?$AA@ 00458708     LIBCMTD:strcat_s.obj
 0002:0000c744       ??_C@_1BC@HGPNAKGC@?$AAs?$AAt?$AAr?$AAc?$AAa?$AAt?$AA_?$AAs?$AA?$AA@ 00458744     LIBCMTD:strcat_s.obj
 0002:0000c758       ??_C@_1GI@NOKGIAGA@?$AAf?$AA?3?$AA?2?$AAd?$AAd?$AA?2?$AAv?$AAc?$AAt?$AAo?$AAo?$AAl?$AAs?$AA?2?$AAc?$AAr?$AAt?$AA_?$AAb?$AAl?$AAd?$AA?2?$AAs?$AAe?$AAl?$AAf?$AA_?$AAx?$AA8?$AA6?$AA?2?$AAc@ 00458758     LIBCMTD:strcat_s.obj
 0002:0000c7c0       ??_C@_0O@FMJNFNKE@united?9states?$AA@ 004587c0     LIBCMTD:getqloc.obj
 0002:0000c7d0       ??_C@_0P@NDHFFKCA@united?9kingdom?$AA@ 004587d0     LIBCMTD:getqloc.obj
 0002:0000c7e0       ??_C@_0BC@HHDADLGF@trinidad?5?$CG?5tobago?$AA@ 004587e0     LIBCMTD:getqloc.obj
 0002:0000c7f4       ??_C@_0M@IOAEBDAC@south?9korea?$AA@ 004587f4     LIBCMTD:getqloc.obj
 0002:0000c800       ??_C@_0N@FIELFKIJ@south?9africa?$AA@ 00458800     LIBCMTD:getqloc.obj
 0002:0000c810       ??_C@_0M@OPNDHCMC@south?5korea?$AA@ 00458810     LIBCMTD:getqloc.obj
 0002:0000c81c       ??_C@_0N@MDEOEPFI@south?5africa?$AA@ 0045881c     LIBCMTD:getqloc.obj
 0002:0000c82c       ??_C@_06FKAPCJLB@slovak?$AA@ 0045882c     LIBCMTD:getqloc.obj
 0002:0000c834       ??_C@_0M@EFJANOAL@puerto?9rico?$AA@ 00458834     LIBCMTD:getqloc.obj
 0002:0000c840       ??_C@_08PGOJKDAI@pr?9china?$AA@ 00458840     LIBCMTD:getqloc.obj
 0002:0000c84c       ??_C@_08JHDOMCMI@pr?5china?$AA@ 0045884c     LIBCMTD:getqloc.obj
 0002:0000c858       ??_C@_02JHCHFBLL@nz?$AA@   00458858     LIBCMTD:getqloc.obj
 0002:0000c85c       ??_C@_0M@LINHDHKP@new?9zealand?$AA@ 0045885c     LIBCMTD:getqloc.obj
 0002:0000c868       ??_C@_09IIIPPBDB@hong?9kong?$AA@ 00458868     LIBCMTD:getqloc.obj
 0002:0000c874       ??_C@_07HJLCKBG@holland?$AA@ 00458874     LIBCMTD:getqloc.obj
 0002:0000c87c       ??_C@_0O@LEHGMHAG@great?5britain?$AA@ 0045887c     LIBCMTD:getqloc.obj
 0002:0000c88c       ??_C@_07FACOMELA@england?$AA@ 0045888c     LIBCMTD:getqloc.obj
 0002:0000c894       ??_C@_05JIHCEICB@czech?$AA@ 00458894     LIBCMTD:getqloc.obj
 0002:0000c89c       ??_C@_05BBJOBLGB@china?$AA@ 0045889c     LIBCMTD:getqloc.obj
 0002:0000c8a4       ??_C@_07GPKPHICP@britain?$AA@ 004588a4     LIBCMTD:getqloc.obj
 0002:0000c8ac       ??_C@_07MHIPBHMG@america?$AA@ 004588ac     LIBCMTD:getqloc.obj
 0002:0000c8b4       ??_C@_03KIALPMKC@usa?$AA@  004588b4     LIBCMTD:getqloc.obj
 0002:0000c8b8       ??_C@_02FGJGKGGD@us?$AA@   004588b8     LIBCMTD:getqloc.obj
 0002:0000c8bc       ??_C@_02NEINDODK@uk?$AA@   004588bc     LIBCMTD:getqloc.obj
 0002:0000c8c0       ??_C@_05JMPCFJFJ@swiss?$AA@ 004588c0     LIBCMTD:getqloc.obj
 0002:0000c8c8       ??_C@_0BA@HLOCPIOD@swedish?9finland?$AA@ 004588c8     LIBCMTD:getqloc.obj
 0002:0000c8d8       ??_C@_0BC@PKCNIABK@spanish?9venezuela?$AA@ 004588d8     LIBCMTD:getqloc.obj
 0002:0000c8ec       ??_C@_0BA@GBHHMIJI@spanish?9uruguay?$AA@ 004588ec     LIBCMTD:getqloc.obj
 0002:0000c8fc       ??_C@_0BE@BHDOHPMC@spanish?9puerto?5rico?$AA@ 004588fc     LIBCMTD:getqloc.obj
 0002:0000c910       ??_C@_0N@KMOIDGGN@spanish?9peru?$AA@ 00458910     LIBCMTD:getqloc.obj
 0002:0000c920       ??_C@_0BB@HMHLPGPH@spanish?9paraguay?$AA@ 00458920     LIBCMTD:getqloc.obj
 0002:0000c934       ??_C@_0P@MCPKNGFD@spanish?9panama?$AA@ 00458934     LIBCMTD:getqloc.obj
 0002:0000c944       ??_C@_0BC@IHOHGAIL@spanish?9nicaragua?$AA@ 00458944     LIBCMTD:getqloc.obj
 0002:0000c958       ??_C@_0P@KLMJDNFJ@spanish?9modern?$AA@ 00458958     LIBCMTD:getqloc.obj
 0002:0000c968       ??_C@_0BA@BPAPGBCM@spanish?9mexican?$AA@ 00458968     LIBCMTD:getqloc.obj
 0002:0000c978       ??_C@_0BB@PDECHHHE@spanish?9honduras?$AA@ 00458978     LIBCMTD:getqloc.obj
 0002:0000c98c       ??_C@_0BC@KLHKFGDB@spanish?9guatemala?$AA@ 0045898c     LIBCMTD:getqloc.obj
 0002:0000c9a0       ??_C@_0BE@MFOOKJAI@spanish?9el?5salvador?$AA@ 004589a0     LIBCMTD:getqloc.obj
 0002:0000c9b4       ??_C@_0BA@FCOKFPFC@spanish?9ecuador?$AA@ 004589b4     LIBCMTD:getqloc.obj
 0002:0000c9c4       ??_C@_0BL@PLMGIMOO@spanish?9dominican?5republic?$AA@ 004589c4     LIBCMTD:getqloc.obj
 0002:0000c9e0       ??_C@_0BD@HLGDNMHB@spanish?9costa?5rica?$AA@ 004589e0     LIBCMTD:getqloc.obj
 0002:0000c9f4       ??_C@_0BB@PKCBKCPE@spanish?9colombia?$AA@ 004589f4     LIBCMTD:getqloc.obj
 0002:0000ca08       ??_C@_0O@MCBIJGNE@spanish?9chile?$AA@ 00458a08     LIBCMTD:getqloc.obj
 0002:0000ca18       ??_C@_0BA@BEFEIGJJ@spanish?9bolivia?$AA@ 00458a18     LIBCMTD:getqloc.obj
 0002:0000ca28       ??_C@_0BC@EMECMPD@spanish?9argentina?$AA@ 00458a28     LIBCMTD:getqloc.obj
 0002:0000ca3c       ??_C@_0BF@EALFLENP@portuguese?9brazilian?$AA@ 00458a3c     LIBCMTD:getqloc.obj
 0002:0000ca54       ??_C@_0BC@HBLEBLNN@norwegian?9nynorsk?$AA@ 00458a54     LIBCMTD:getqloc.obj
 0002:0000ca68       ??_C@_0BB@HMACDDCK@norwegian?9bokmal?$AA@ 00458a68     LIBCMTD:getqloc.obj
 0002:0000ca7c       ??_C@_09BAFFPPHE@norwegian?$AA@ 00458a7c     LIBCMTD:getqloc.obj
 0002:0000ca88       ??_C@_0O@EAJFJDFG@italian?9swiss?$AA@ 00458a88     LIBCMTD:getqloc.obj
 0002:0000ca98       ??_C@_0O@CNOMPGD@irish?9english?$AA@ 00458a98     LIBCMTD:getqloc.obj
 0002:0000caa8       ??_C@_0N@EDHBGCKG@german?9swiss?$AA@ 00458aa8     LIBCMTD:getqloc.obj
 0002:0000cab8       ??_C@_0BC@JACMHNBP@german?9luxembourg?$AA@ 00458ab8     LIBCMTD:getqloc.obj
 0002:0000cacc       ??_C@_0BE@HBGMGFEG@german?9lichtenstein?$AA@ 00458acc     LIBCMTD:getqloc.obj
 0002:0000cae0       ??_C@_0BA@HKKBIBKL@german?9austrian?$AA@ 00458ae0     LIBCMTD:getqloc.obj
 0002:0000caf0       ??_C@_0N@GCAEPEBK@french?9swiss?$AA@ 00458af0     LIBCMTD:getqloc.obj
 0002:0000cb00       ??_C@_0BC@DJFJJCK@french?9luxembourg?$AA@ 00458b00     LIBCMTD:getqloc.obj
 0002:0000cb14       ??_C@_0BA@NNCEDFIC@french?9canadian?$AA@ 00458b14     LIBCMTD:getqloc.obj
 0002:0000cb24       ??_C@_0P@CMPOCLM@french?9belgian?$AA@ 00458b24     LIBCMTD:getqloc.obj
 0002:0000cb34       ??_C@_0M@GHHDJOK@english?9usa?$AA@ 00458b34     LIBCMTD:getqloc.obj
 0002:0000cb40       ??_C@_0L@PLDJKEIL@english?9us?$AA@ 00458b40     LIBCMTD:getqloc.obj
 0002:0000cb4c       ??_C@_0L@HJCCDMNC@english?9uk?$AA@ 00458b4c     LIBCMTD:getqloc.obj
 0002:0000cb58       ??_C@_0BK@CKLIAGJB@english?9trinidad?5y?5tobago?$AA@ 00458b58     LIBCMTD:getqloc.obj
 0002:0000cb74       ??_C@_0BF@JMJMGNNF@english?9south?5africa?$AA@ 00458b74     LIBCMTD:getqloc.obj
 0002:0000cb8c       ??_C@_0L@DKIIFDFD@english?9nz?$AA@ 00458b8c     LIBCMTD:getqloc.obj
 0002:0000cb98       ??_C@_0BA@ONHGJCLH@english?9jamaica?$AA@ 00458b98     LIBCMTD:getqloc.obj
 0002:0000cba8       ??_C@_0M@HJBGHOPO@english?9ire?$AA@ 00458ba8     LIBCMTD:getqloc.obj
 0002:0000cbb4       ??_C@_0BC@LFEKMIFB@english?9caribbean?$AA@ 00458bb4     LIBCMTD:getqloc.obj
 0002:0000cbc8       ??_C@_0M@OLDPFKHI@english?9can?$AA@ 00458bc8     LIBCMTD:getqloc.obj
 0002:0000cbd4       ??_C@_0P@OMDEHBMP@english?9belize?$AA@ 00458bd4     LIBCMTD:getqloc.obj
 0002:0000cbe4       ??_C@_0M@KFHFPFED@english?9aus?$AA@ 00458be4     LIBCMTD:getqloc.obj
 0002:0000cbf0       ??_C@_0BB@MNMBKDFE@english?9american?$AA@ 00458bf0     LIBCMTD:getqloc.obj
 0002:0000cc04       ??_C@_0O@KIDLNNBA@dutch?9belgian?$AA@ 00458c04     LIBCMTD:getqloc.obj
 0002:0000cc14       ??_C@_0BE@JBKABBMH@chinese?9traditional?$AA@ 00458c14     LIBCMTD:getqloc.obj
 0002:0000cc28       ??_C@_0BC@MJJMPKCG@chinese?9singapore?$AA@ 00458c28     LIBCMTD:getqloc.obj
 0002:0000cc3c       ??_C@_0BD@FDKADDCP@chinese?9simplified?$AA@ 00458c3c     LIBCMTD:getqloc.obj
 0002:0000cc50       ??_C@_0BB@DBEFDDME@chinese?9hongkong?$AA@ 00458c50     LIBCMTD:getqloc.obj
 0002:0000cc64       ??_C@_07DHNMFMCI@chinese?$AA@ 00458c64     LIBCMTD:getqloc.obj
 0002:0000cc6c       ??_C@_03FNDDCHI@chi?$AA@   00458c6c     LIBCMTD:getqloc.obj
 0002:0000cc70       ??_C@_03BMMIADDJ@chh?$AA@  00458c70     LIBCMTD:getqloc.obj
 0002:0000cc74       ??_C@_08OAIPJDGI@canadian?$AA@ 00458c74     LIBCMTD:getqloc.obj
 0002:0000cc80       ??_C@_07HBPMNPNJ@belgian?$AA@ 00458c80     LIBCMTD:getqloc.obj
 0002:0000cc88       ??_C@_0L@OEKOPBEL@australian?$AA@ 00458c88     LIBCMTD:getqloc.obj
 0002:0000cc94       ??_C@_0BB@MEIMBEDG@american?9english?$AA@ 00458c94     LIBCMTD:getqloc.obj
 0002:0000cca8       ??_C@_0BB@DFMDPDGB@american?5english?$AA@ 00458ca8     LIBCMTD:getqloc.obj
 0002:0000ccbc       ??_C@_08IJLOKOLL@american?$AA@ 00458cbc     LIBCMTD:getqloc.obj
 0002:0000ccc8       ___rg_language             00458cc8     LIBCMTD:getqloc.obj
 0002:0000ced0       ___rg_country              00458ed0     LIBCMTD:getqloc.obj
 0002:0000cf88       ___rglangidNotDefault      00458f88     LIBCMTD:getqloc.obj
 0002:0000cf9c       ??_C@_0BC@NFIEMBLL@Norwegian?9Nynorsk?$AA@ 00458f9c     LIBCMTD:getqloc.obj
 0002:0000cfb0       ??_C@_1OM@OECHDGCF@?$AAs?$AAt?$AAr?$AAc?$AAp?$AAy?$AA_?$AAs?$AA?$CI?$AAl?$AAp?$AAO?$AAu?$AAt?$AAS?$AAt?$AAr?$AA?9?$AA?$DO?$AAs?$AAz?$AAL?$AAa?$AAn?$AAg?$AAu?$AAa?$AAg?$AAe?$AA?0?$AA?5?$AA?$CI@ 00458fb0     LIBCMTD:getqloc.obj
 0002:0000d09c       ??_C@_1CO@NJACLALJ@?$AA_?$AA_?$AAg?$AAe?$AAt?$AA_?$AAq?$AAu?$AAa?$AAl?$AAi?$AAf?$AAi?$AAe?$AAd?$AA_?$AAl?$AAo?$AAc?$AAa?$AAl?$AAe?$AA?$AA@ 0045909c     LIBCMTD:getqloc.obj
 0002:0000d0d0       ??_C@_1GC@FECJGAE@?$AAf?$AA?3?$AA?2?$AAd?$AAd?$AA?2?$AAv?$AAc?$AAt?$AAo?$AAo?$AAl?$AAs?$AA?2?$AAc?$AAr?$AAt?$AA_?$AAb?$AAl?$AAd?$AA?2?$AAs?$AAe?$AAl?$AAf?$AA_?$AAx?$AA8?$AA6?$AA?2?$AAc@ 004590d0     LIBCMTD:getqloc.obj
 0002:0000d134       ??_C@_03NFKLAGEF@OCP?$AA@  00459134     LIBCMTD:getqloc.obj
 0002:0000d138       ??_C@_03DFHEHBHG@ACP?$AA@  00459138     LIBCMTD:getqloc.obj
 0002:0000d13c       ??_C@_1CA@LFDHAMEM@?$AA_?$AAs?$AAe?$AAt?$AA_?$AAe?$AAr?$AAr?$AAo?$AAr?$AA_?$AAm?$AAo?$AAd?$AAe?$AA?$AA@ 0045913c     LIBCMTD:errmode.obj
 0002:0000d160       ??_C@_1GC@FGMGFCNB@?$AAf?$AA?3?$AA?2?$AAd?$AAd?$AA?2?$AAv?$AAc?$AAt?$AAo?$AAo?$AAl?$AAs?$AA?2?$AAc?$AAr?$AAt?$AA_?$AAb?$AAl?$AAd?$AA?2?$AAs?$AAe?$AAl?$AAf?$AA_?$AAx?$AA8?$AA6?$AA?2?$AAc@ 00459160     LIBCMTD:errmode.obj
 0002:0000d1c4       ??_C@_1DE@BCNCAIK@?$AA?$CI?$AA?$CC?$AAI?$AAn?$AAv?$AAa?$AAl?$AAi?$AAd?$AA?5?$AAe?$AAr?$AAr?$AAo?$AAr?$AA_?$AAm?$AAo?$AAd?$AAe?$AA?$CC?$AA?0?$AA?5?$AA0?$AA?$CJ?$AA?$AA@ 004591c4     LIBCMTD:errmode.obj
 0002:0000d1f8       ??_C@_1BC@PLIEPKPJ@?$AAw?$AAc?$AAs?$AAc?$AAa?$AAt?$AA_?$AAs?$AA?$AA@ 004591f8     LIBCMTD:wcscat_s.obj
 0002:0000d20c       ??_C@_1BE@PMMBFFCC@?$AAw?$AAc?$AAs?$AAn?$AAc?$AAp?$AAy?$AA_?$AAs?$AA?$AA@ 0045920c     LIBCMTD:wcsncpy_s.obj
 0002:0000d220       ??_C@_1CG@JEHFHLNG@?$AA_?$AAm?$AAb?$AAs?$AAt?$AAo?$AAw?$AAc?$AAs?$AA_?$AAl?$AA_?$AAh?$AAe?$AAl?$AAp?$AAe?$AAr?$AA?$AA@ 00459220     LIBCMTD:mbstowcs.obj
 0002:0000d248       ??_C@_1GE@LCCDHBMH@?$AAf?$AA?3?$AA?2?$AAd?$AAd?$AA?2?$AAv?$AAc?$AAt?$AAo?$AAo?$AAl?$AAs?$AA?2?$AAc?$AAr?$AAt?$AA_?$AAb?$AAl?$AAd?$AA?2?$AAs?$AAe?$AAl?$AAf?$AA_?$AAx?$AA8?$AA6?$AA?2?$AAc@ 00459248     LIBCMTD:mbstowcs.obj
 0002:0000d2ac       ??_C@_1BE@EEKACIGI@?$AAs?$AA?5?$AA?$CB?$AA?$DN?$AA?5?$AAN?$AAU?$AAL?$AAL?$AA?$AA@ 004592ac     LIBCMTD:mbstowcs.obj
 0002:0000d2c0       ??_C@_1CO@JNPEPJAL@?$AAr?$AAe?$AAt?$AAs?$AAi?$AAz?$AAe?$AA?5?$AA?$DM?$AA?$DN?$AA?5?$AAs?$AAi?$AAz?$AAe?$AAI?$AAn?$AAW?$AAo?$AAr?$AAd?$AAs?$AA?$AA@ 004592c0     LIBCMTD:mbstowcs.obj
 0002:0000d2f0       ??_C@_1CM@LLECFMFH@?$AAb?$AAu?$AAf?$AAf?$AAe?$AAr?$AAS?$AAi?$AAz?$AAe?$AA?5?$AA?$DM?$AA?$DN?$AA?5?$AAI?$AAN?$AAT?$AA_?$AAM?$AAA?$AAX?$AA?$AA@ 004592f0     LIBCMTD:mbstowcs.obj
 0002:0000d31c       ??_C@_1BM@PHENIGHD@?$AA_?$AAm?$AAb?$AAs?$AAt?$AAo?$AAw?$AAc?$AAs?$AA_?$AAs?$AA_?$AAl?$AA?$AA@ 0045931c     LIBCMTD:mbstowcs.obj
 0002:0000d338       ??_C@_1JA@JKDFMOPO@?$AA?$CI?$AAp?$AAw?$AAc?$AAs?$AA?5?$AA?$DN?$AA?$DN?$AA?5?$AAN?$AAU?$AAL?$AAL?$AA?5?$AA?$CG?$AA?$CG?$AA?5?$AAs?$AAi?$AAz?$AAe?$AAI?$AAn?$AAW?$AAo?$AAr?$AAd?$AAs?$AA?5?$AA?$DN?$AA?$DN?$AA?5@ 00459338     LIBCMTD:mbstowcs.obj
 0002:0000d3c8       ??_C@_1CE@PCFPEIFI@?$AA_?$AAv?$AAs?$AAn?$AAp?$AAr?$AAi?$AAn?$AAt?$AAf?$AA_?$AAh?$AAe?$AAl?$AAp?$AAe?$AAr?$AA?$AA@ 004593c8     LIBCMTD:vsnprnc.obj
 0002:0000d3f0       ??_C@_1GE@DPADKNCG@?$AAf?$AA?3?$AA?2?$AAd?$AAd?$AA?2?$AAv?$AAc?$AAt?$AAo?$AAo?$AAl?$AAs?$AA?2?$AAc?$AAr?$AAt?$AA_?$AAb?$AAl?$AAd?$AA?2?$AAs?$AAe?$AAl?$AAf?$AA_?$AAx?$AA8?$AA6?$AA?2?$AAc@ 004593f0     LIBCMTD:vsnprnc.obj
 0002:0000d458       ??_C@_1EE@OKCKIGFK@?$AAs?$AAt?$AAr?$AAi?$AAn?$AAg?$AA?5?$AA?$CB?$AA?$DN?$AA?5?$AAN?$AAU?$AAL?$AAL?$AA?5?$AA?$CG?$AA?$CG?$AA?5?$AAs?$AAi?$AAz?$AAe?$AAI?$AAn?$AAB?$AAy?$AAt?$AAe?$AAs?$AA?5?$AA?$DO?$AA?5@ 00459458     LIBCMTD:vsnprnc.obj
 0002:0000d49c       ??_C@_1BM@BLJALHEF@?$AA_?$AAv?$AAs?$AAp?$AAr?$AAi?$AAn?$AAt?$AAf?$AA_?$AAs?$AA_?$AAl?$AA?$AA@ 0045949c     LIBCMTD:vsnprnc.obj
 0002:0000d4b8       ??_C@_1BO@MMPELNIM@?$AA_?$AAv?$AAs?$AAn?$AAp?$AAr?$AAi?$AAn?$AAt?$AAf?$AA_?$AAs?$AA_?$AAl?$AA?$AA@ 004594b8     LIBCMTD:vsnprnc.obj
 0002:0000d4d8       ??_C@_1CM@HABGDNLJ@?$AAl?$AAe?$AAn?$AAg?$AAt?$AAh?$AA?5?$AA?$DM?$AA?5?$AAs?$AAi?$AAz?$AAe?$AAI?$AAn?$AAT?$AAC?$AAh?$AAa?$AAr?$AAs?$AA?$AA@ 004594d8     LIBCMTD:xtoas.obj
 0002:0000d504       ??_C@_1DE@PCJGDBBD@?$AA2?$AA?5?$AA?$DM?$AA?$DN?$AA?5?$AAr?$AAa?$AAd?$AAi?$AAx?$AA?5?$AA?$CG?$AA?$CG?$AA?5?$AAr?$AAa?$AAd?$AAi?$AAx?$AA?5?$AA?$DM?$AA?$DN?$AA?5?$AA3?$AA6?$AA?$AA@ 00459504     LIBCMTD:xtoas.obj
 0002:0000d538       ??_C@_1FA@MKGGAGEI@?$AAs?$AAi?$AAz?$AAe?$AAI?$AAn?$AAT?$AAC?$AAh?$AAa?$AAr?$AAs?$AA?5?$AA?$DO?$AA?5?$AA?$CI?$AAs?$AAi?$AAz?$AAe?$AA_?$AAt?$AA?$CJ?$AA?$CI?$AAi?$AAs?$AA_?$AAn?$AAe?$AAg?$AA?5?$AA?$DP@ 00459538     LIBCMTD:xtoas.obj
 0002:0000d588       ??_C@_1CC@JNJFIMGE@?$AAs?$AAi?$AAz?$AAe?$AAI?$AAn?$AAT?$AAC?$AAh?$AAa?$AAr?$AAs?$AA?5?$AA?$DO?$AA?5?$AA0?$AA?$AA@ 00459588     LIBCMTD:xtoas.obj
 0002:0000d5ac       ??_C@_1O@GIMBNLEI@?$AAx?$AAt?$AAo?$AAa?$AA_?$AAs?$AA?$AA@ 004595ac     LIBCMTD:xtoas.obj
 0002:0000d5c0       ??_C@_1FM@MFCBFCGB@?$AAf?$AA?3?$AA?2?$AAd?$AAd?$AA?2?$AAv?$AAc?$AAt?$AAo?$AAo?$AAl?$AAs?$AA?2?$AAc?$AAr?$AAt?$AA_?$AAb?$AAl?$AAd?$AA?2?$AAs?$AAe?$AAl?$AAf?$AA_?$AAx?$AA8?$AA6?$AA?2?$AAc@ 004595c0     LIBCMTD:xtoas.obj
 0002:0000d61c       ??_C@_1BI@ICGGMGLK@?$AAb?$AAu?$AAf?$AA?5?$AA?$CB?$AA?$DN?$AA?5?$AAN?$AAU?$AAL?$AAL?$AA?$AA@ 0045961c     LIBCMTD:xtoas.obj
 0002:0000d634       ??_C@_1BC@MJJNBNFN@?$AAx?$AA6?$AA4?$AAt?$AAo?$AAa?$AA_?$AAs?$AA?$AA@ 00459634     LIBCMTD:xtoas.obj
 0002:0000d648       ??_C@_1CG@LLJCAOHF@?$AA_?$AAw?$AAc?$AAs?$AAt?$AAo?$AAm?$AAb?$AAs?$AA_?$AAl?$AA_?$AAh?$AAe?$AAl?$AAp?$AAe?$AAr?$AA?$AA@ 00459648     LIBCMTD:wcstombs.obj
 0002:0000d670       ??_C@_1GE@OAENIBOD@?$AAf?$AA?3?$AA?2?$AAd?$AAd?$AA?2?$AAv?$AAc?$AAt?$AAo?$AAo?$AAl?$AAs?$AA?2?$AAc?$AAr?$AAt?$AA_?$AAb?$AAl?$AAd?$AA?2?$AAs?$AAe?$AAl?$AAf?$AA_?$AAx?$AA8?$AA6?$AA?2?$AAc@ 00459670     LIBCMTD:wcstombs.obj
 0002:0000d6d4       ??_C@_1BK@OIBENBPM@?$AAp?$AAw?$AAc?$AAs?$AA?5?$AA?$CB?$AA?$DN?$AA?5?$AAN?$AAU?$AAL?$AAL?$AA?$AA@ 004596d4     LIBCMTD:wcstombs.obj
 0002:0000d6f0       ??_C@_1CM@KEOGBFLI@?$AAs?$AAi?$AAz?$AAe?$AAI?$AAn?$AAB?$AAy?$AAt?$AAe?$AAs?$AA?5?$AA?$DO?$AA?5?$AAr?$AAe?$AAt?$AAs?$AAi?$AAz?$AAe?$AA?$AA@ 004596f0     LIBCMTD:wcstombs.obj
 0002:0000d71c       ??_C@_1BM@BDMCLLDL@?$AA_?$AAw?$AAc?$AAs?$AAt?$AAo?$AAm?$AAb?$AAs?$AA_?$AAs?$AA_?$AAl?$AA?$AA@ 0045971c     LIBCMTD:wcstombs.obj
 0002:0000d738       ??_C@_1IM@MFGKHGBP@?$AA?$CI?$AAd?$AAs?$AAt?$AA?5?$AA?$CB?$AA?$DN?$AA?5?$AAN?$AAU?$AAL?$AAL?$AA?5?$AA?$CG?$AA?$CG?$AA?5?$AAs?$AAi?$AAz?$AAe?$AAI?$AAn?$AAB?$AAy?$AAt?$AAe?$AAs?$AA?5?$AA?$DO?$AA?5?$AA0?$AA?$CJ@ 00459738     LIBCMTD:wcstombs.obj
 0002:0000d7c4       ??_C@_1O@NCBFODOE@?$AAx?$AAt?$AAo?$AAw?$AA_?$AAs?$AA?$AA@ 004597c4     LIBCMTD:xtows.obj
 0002:0000d7d4       ??_C@_1BC@HDEJCFPB@?$AAx?$AA6?$AA4?$AAt?$AAo?$AAw?$AA_?$AAs?$AA?$AA@ 004597d4     LIBCMTD:xtows.obj
 0002:0000d7e8       ??_C@_1BK@KHBCJPCH@?$AA_?$AAw?$AAm?$AAa?$AAk?$AAe?$AAp?$AAa?$AAt?$AAh?$AA_?$AAs?$AA?$AA@ 004597e8     LIBCMTD:wmakepath_s.obj
 0002:0000d808       ??_C@_1GO@DHMODCKM@?$AAf?$AA?3?$AA?2?$AAd?$AAd?$AA?2?$AAv?$AAc?$AAt?$AAo?$AAo?$AAl?$AAs?$AA?2?$AAc?$AAr?$AAt?$AA_?$AAb?$AAl?$AAd?$AA?2?$AAs?$AAe?$AAl?$AAf?$AA_?$AAx?$AA8?$AA6?$AA?2?$AAc@ 00459808     LIBCMTD:wmakepath_s.obj
 0002:0000d878       ??_C@_1DE@MLEJGPLF@?$AA?$CI?$AAL?$AA?$CC?$AAI?$AAn?$AAv?$AAa?$AAl?$AAi?$AAd?$AA?5?$AAp?$AAa?$AAr?$AAa?$AAm?$AAe?$AAt?$AAe?$AAr?$AA?$CC?$AA?0?$AA?5?$AA0?$AA?$CJ?$AA?$AA@ 00459878     LIBCMTD:wsplitpath_s.obj
 0002:0000d8ac       ??_C@_1BM@OEAFIBCF@?$AA_?$AAw?$AAs?$AAp?$AAl?$AAi?$AAt?$AAp?$AAa?$AAt?$AAh?$AA_?$AAs?$AA?$AA@ 004598ac     LIBCMTD:wsplitpath_s.obj
 0002:0000d8c8       ??_C@_1HA@GHKPFCBF@?$AAf?$AA?3?$AA?2?$AAd?$AAd?$AA?2?$AAv?$AAc?$AAt?$AAo?$AAo?$AAl?$AAs?$AA?2?$AAc?$AAr?$AAt?$AA_?$AAb?$AAl?$AAd?$AA?2?$AAs?$AAe?$AAl?$AAf?$AA_?$AAx?$AA8?$AA6?$AA?2?$AAc@ 004598c8     LIBCMTD:wsplitpath_s.obj
 0002:0000d938       ??_C@_1CI@MLPLHPBP@?$AA?$CI?$AA?$CI?$AA?$CI?$AA_?$AAP?$AAa?$AAt?$AAh?$AA?$CJ?$AA?$CJ?$AA?$CJ?$AA?5?$AA?$CB?$AA?$DN?$AA?5?$AAN?$AAU?$AAL?$AAL?$AA?$AA@ 00459938     LIBCMTD:wsplitpath_s.obj
 0002:0000d960       ??_C@_0BK@CIDNPOGP@GetUserObjectInformationA?$AA@ 00459960     LIBCMTD:crtmbox.obj
 0002:0000d97c       ??_C@_0M@CHKKJDAI@MessageBoxA?$AA@ 0045997c     LIBCMTD:crtmbox.obj
 0002:0000d988       ??_C@_1BO@JGFPDJCP@?$AAv?$AAp?$AAr?$AAi?$AAn?$AAt?$AAf?$AA_?$AAh?$AAe?$AAl?$AAp?$AAe?$AAr?$AA?$AA@ 00459988     LIBCMTD:vprintf.obj
 0002:0000d9a8       ??_C@_1GC@DHFFJKMC@?$AAf?$AA?3?$AA?2?$AAd?$AAd?$AA?2?$AAv?$AAc?$AAt?$AAo?$AAo?$AAl?$AAs?$AA?2?$AAc?$AAr?$AAt?$AA_?$AAb?$AAl?$AAd?$AA?2?$AAs?$AAe?$AAl?$AAf?$AA_?$AAx?$AA8?$AA6?$AA?2?$AAc@ 004599a8     LIBCMTD:vprintf.obj
 0002:0000da0c       ??_C@_1CA@CBMNPEO@?$AAs?$AAi?$AAz?$AAe?$AAI?$AAn?$AAB?$AAy?$AAt?$AAe?$AAs?$AA?5?$AA?$DO?$AA?5?$AA0?$AA?$AA@ 00459a0c     LIBCMTD:wctomb.obj
 0002:0000da2c       ??_C@_1BI@IEADNOHF@?$AA_?$AAw?$AAc?$AAt?$AAo?$AAm?$AAb?$AA_?$AAs?$AA_?$AAl?$AA?$AA@ 00459a2c     LIBCMTD:wctomb.obj
 0002:0000da48       ??_C@_1GA@LDLHPOO@?$AAf?$AA?3?$AA?2?$AAd?$AAd?$AA?2?$AAv?$AAc?$AAt?$AAo?$AAo?$AAl?$AAs?$AA?2?$AAc?$AAr?$AAt?$AA_?$AAb?$AAl?$AAd?$AA?2?$AAs?$AAe?$AAl?$AAf?$AA_?$AAx?$AA8?$AA6?$AA?2?$AAc@ 00459a48     LIBCMTD:wctomb.obj
 0002:0000daa8       ??_C@_1CO@HFMIILNF@?$AAs?$AAi?$AAz?$AAe?$AAI?$AAn?$AAB?$AAy?$AAt?$AAe?$AAs?$AA?5?$AA?$DM?$AA?$DN?$AA?5?$AAI?$AAN?$AAT?$AA_?$AAM?$AAA?$AAX?$AA?$AA@ 00459aa8     LIBCMTD:wctomb.obj
 0002:0000dad8       ??_C@_1BI@IGILPKD@?$AA_?$AAv?$AAs?$AAp?$AAr?$AAi?$AAn?$AAt?$AAf?$AA_?$AAl?$AA?$AA@ 00459ad8     LIBCMTD:vsprintf.obj
 0002:0000daf0       ??_C@_1CE@HMKDJHB@?$AA_?$AAv?$AAs?$AAc?$AAp?$AAr?$AAi?$AAn?$AAt?$AAf?$AA_?$AAh?$AAe?$AAl?$AAp?$AAe?$AAr?$AA?$AA@ 00459af0     LIBCMTD:vsprintf.obj
 0002:0000db14       ??_C@_1BA@LOLAMAJG@?$AAs?$AAt?$AAr?$AAt?$AAo?$AAx?$AAl?$AA?$AA@ 00459b14     LIBCMTD:strtol.obj
 0002:0000db28       ??_C@_1GA@IPHKKOEI@?$AAf?$AA?3?$AA?2?$AAd?$AAd?$AA?2?$AAv?$AAc?$AAt?$AAo?$AAo?$AAl?$AAs?$AA?2?$AAc?$AAr?$AAt?$AA_?$AAb?$AAl?$AAd?$AA?2?$AAs?$AAe?$AAl?$AAf?$AA_?$AAx?$AA8?$AA6?$AA?2?$AAc@ 00459b28     LIBCMTD:strtol.obj
 0002:0000db88       ??_C@_1BA@BALFACEM@?$AAC?$AAO?$AAN?$AAO?$AAU?$AAT?$AA$?$AA?$AA@ 00459b88     LIBCMTD:initcon.obj
 0002:0000db98       ??_C@_1BI@GALBKMKE@?$AA?$CI?$AAs?$AAi?$AAz?$AAe?$AA?5?$AA?$DO?$AA?$DN?$AA?5?$AA0?$AA?$CJ?$AA?$AA@ 00459b98     LIBCMTD:chsize.obj
 0002:0000dbb0       ??_C@_1BE@MAFDNGED@?$AA_?$AAc?$AAh?$AAs?$AAi?$AAz?$AAe?$AA_?$AAs?$AA?$AA@ 00459bb0     LIBCMTD:chsize.obj
 0002:0000dbc8       ??_C@_1GA@DBKMEDOF@?$AAf?$AA?3?$AA?2?$AAd?$AAd?$AA?2?$AAv?$AAc?$AAt?$AAo?$AAo?$AAl?$AAs?$AA?2?$AAc?$AAr?$AAt?$AA_?$AAb?$AAl?$AAd?$AA?2?$AAs?$AAe?$AAl?$AAf?$AA_?$AAx?$AA8?$AA6?$AA?2?$AAc@ 00459bc8     LIBCMTD:chsize.obj
 0002:0000dc28       ??_C@_1CC@HBLPFNKH@?$AA?$CI?$AAc?$AAn?$AAt?$AA?5?$AA?$DM?$AA?$DN?$AA?5?$AAI?$AAN?$AAT?$AA_?$AAM?$AAA?$AAX?$AA?$CJ?$AA?$AA@ 00459c28     LIBCMTD:read.obj
 0002:0000dc4c       ??_C@_1M@NHJOLLDM@?$AA_?$AAr?$AAe?$AAa?$AAd?$AA?$AA@ 00459c4c     LIBCMTD:read.obj
 0002:0000dc58       ??_C@_1FM@NGICBHLO@?$AAf?$AA?3?$AA?2?$AAd?$AAd?$AA?2?$AAv?$AAc?$AAt?$AAo?$AAo?$AAl?$AAs?$AA?2?$AAc?$AAr?$AAt?$AA_?$AAb?$AAl?$AAd?$AA?2?$AAs?$AAe?$AAl?$AAf?$AA_?$AAx?$AA8?$AA6?$AA?2?$AAc@ 00459c58     LIBCMTD:read.obj
 0002:0000dcb4       ??_C@_0CO@CEGKNHEH@f?3?2dd?2vctools?2crt_bld?2self_x86?2c@ 00459cb4     LIBCMTD:read.obj
 0002:0000dce4       ??_C@_1CG@OHLJHGGK@?$AA?$CI?$AAi?$AAn?$AAp?$AAu?$AAt?$AAb?$AAu?$AAf?$AA?5?$AA?$CB?$AA?$DN?$AA?5?$AAN?$AAU?$AAL?$AAL?$AA?$CJ?$AA?$AA@ 00459ce4     LIBCMTD:read.obj
 0002:0000dd0c       ??_C@_1BK@JJBHNDKJ@?$AA_?$AAr?$AAe?$AAa?$AAd?$AA_?$AAn?$AAo?$AAl?$AAo?$AAc?$AAk?$AA?$AA@ 00459d0c     LIBCMTD:read.obj
 0002:0000dd28       ??_C@_1BC@JBGGJDCM@?$AA_?$AAs?$AAe?$AAt?$AAm?$AAo?$AAd?$AAe?$AA?$AA@ 00459d28     LIBCMTD:setmode.obj
 0002:0000dd40       ??_C@_1GC@KODPFLLJ@?$AAf?$AA?3?$AA?2?$AAd?$AAd?$AA?2?$AAv?$AAc?$AAt?$AAo?$AAo?$AAl?$AAs?$AA?2?$AAc?$AAr?$AAt?$AA_?$AAb?$AAl?$AAd?$AA?2?$AAs?$AAe?$AAl?$AAf?$AA_?$AAx?$AA8?$AA6?$AA?2?$AAc@ 00459d40     LIBCMTD:setmode.obj
 0002:0000dda8       ??_C@_1OA@HGPJIFPM@?$AA?$CI?$AA?$CI?$AAm?$AAo?$AAd?$AAe?$AA?5?$AA?$DN?$AA?$DN?$AA?5?$AA_?$AAO?$AA_?$AAT?$AAE?$AAX?$AAT?$AA?$CJ?$AA?5?$AA?$HM?$AA?$HM?$AA?5?$AA?$CI?$AAm?$AAo?$AAd?$AAe?$AA?5?$AA?$DN?$AA?$DN?$AA?5?$AA_@ 00459da8     LIBCMTD:setmode.obj
 0002:0000de88       ??_C@_1BG@IEEHLOCL@?$AA_?$AAs?$AAe?$AAt?$AA_?$AAf?$AAm?$AAo?$AAd?$AAe?$AA?$AA@ 00459e88     LIBCMTD:setmode.obj
 0002:0000dea0       ??_C@_1IC@NDCJMLB@?$AA?$CI?$AA?$CI?$AAm?$AAo?$AAd?$AAe?$AA?5?$AA?$DN?$AA?$DN?$AA?5?$AA_?$AAO?$AA_?$AAT?$AAE?$AAX?$AAT?$AA?$CJ?$AA?5?$AA?$HM?$AA?$HM?$AA?5?$AA?$CI?$AAm?$AAo?$AAd?$AAe?$AA?5?$AA?$DN?$AA?$DN?$AA?5?$AA_@ 00459ea0     LIBCMTD:setmode.obj
 0002:0000df24       ??_C@_1BG@CKGMPOFH@?$AA_?$AAg?$AAe?$AAt?$AA_?$AAf?$AAm?$AAo?$AAd?$AAe?$AA?$AA@ 00459f24     LIBCMTD:setmode.obj
 0002:0000df3c       ??_C@_1CA@GPIGPPFN@?$AA?$CI?$AAp?$AAM?$AAo?$AAd?$AAe?$AA?5?$AA?$CB?$AA?$DN?$AA?5?$AAN?$AAU?$AAL?$AAL?$AA?$CJ?$AA?$AA@ 00459f3c     LIBCMTD:setmode.obj
 0002:0000df5c       ??_C@_1BG@GLLONOEH@?$AA_?$AAs?$AAt?$AAr?$AAi?$AAc?$AAm?$AAp?$AA_?$AAl?$AA?$AA@ 00459f5c     LIBCMTD:stricmp.obj
 0002:0000df78       ??_C@_1GC@OILHAOLL@?$AAf?$AA?3?$AA?2?$AAd?$AAd?$AA?2?$AAv?$AAc?$AAt?$AAo?$AAo?$AAl?$AAs?$AA?2?$AAc?$AAr?$AAt?$AA_?$AAb?$AAl?$AAd?$AA?2?$AAs?$AAe?$AAl?$AAf?$AA_?$AAx?$AA8?$AA6?$AA?2?$AAc@ 00459f78     LIBCMTD:stricmp.obj
 0002:0000dfdc       ??_C@_1BC@JLGKKIIG@?$AA_?$AAs?$AAt?$AAr?$AAi?$AAc?$AAm?$AAp?$AA?$AA@ 00459fdc     LIBCMTD:stricmp.obj
 0002:0000dff0       ??_C@_1CC@JLPHKJPH@?$AAc?$AAo?$AAu?$AAn?$AAt?$AA?5?$AA?$DM?$AA?$DN?$AA?5?$AAI?$AAN?$AAT?$AA_?$AAM?$AAA?$AAX?$AA?$AA@ 00459ff0     LIBCMTD:strnicmp.obj
 0002:0000e014       ??_C@_1BI@BJLEPLEF@?$AA_?$AAs?$AAt?$AAr?$AAn?$AAi?$AAc?$AAm?$AAp?$AA_?$AAl?$AA?$AA@ 0045a014     LIBCMTD:strnicmp.obj
 0002:0000e030       ??_C@_1GE@CONPOJMA@?$AAf?$AA?3?$AA?2?$AAd?$AAd?$AA?2?$AAv?$AAc?$AAt?$AAo?$AAo?$AAl?$AAs?$AA?2?$AAc?$AAr?$AAt?$AA_?$AAb?$AAl?$AAd?$AA?2?$AAs?$AAe?$AAl?$AAf?$AA_?$AAx?$AA8?$AA6?$AA?2?$AAc@ 0045a030     LIBCMTD:strnicmp.obj
 0002:0000e094       ??_C@_1BE@BHJDFFNA@?$AA_?$AAs?$AAt?$AAr?$AAn?$AAi?$AAc?$AAm?$AAp?$AA?$AA@ 0045a094     LIBCMTD:strnicmp.obj
 0002:0000e0a8       ??_C@_1BA@BMMDEPNE@?$AAs?$AAt?$AAr?$AAt?$AAo?$AAx?$AAq?$AA?$AA@ 0045a0a8     LIBCMTD:strtoq.obj
 0002:0000e0b8       ??_C@_1GA@GIMEIKLC@?$AAf?$AA?3?$AA?2?$AAd?$AAd?$AA?2?$AAv?$AAc?$AAt?$AAo?$AAo?$AAl?$AAs?$AA?2?$AAc?$AAr?$AAt?$AA_?$AAb?$AAl?$AAd?$AA?2?$AAs?$AAe?$AAl?$AAf?$AA_?$AAx?$AA8?$AA6?$AA?2?$AAc@ 0045a0b8     LIBCMTD:strtoq.obj
 0002:0000e118       __load_config_used         0045a118     LIBCMTD:loadcfg.obj
 0002:0000e1bc       ??_R4MainFrame@@6BCWindowWnd@DuiLib@@@ 0045a1bc     main_frame.obj
 0002:0000e1d0       ??_R3MainFrame@@8          0045a1d0     main_frame.obj
 0002:0000e1e0       ??_R2MainFrame@@8          0045a1e0     main_frame.obj
 0002:0000e200       ??_R1A@?0A@EA@MainFrame@@8 0045a200     main_frame.obj
 0002:0000e21c       ??_R1A@?0A@EA@WindowImplBase@DuiLib@@8 0045a21c     main_frame.obj
 0002:0000e238       ??_R3WindowImplBase@DuiLib@@8 0045a238     main_frame.obj
 0002:0000e248       ??_R2WindowImplBase@DuiLib@@8 0045a248     main_frame.obj
 0002:0000e264       ??_R1A@?0A@EA@CWindowWnd@DuiLib@@8 0045a264     main_frame.obj
 0002:0000e280       ??_R3CWindowWnd@DuiLib@@8  0045a280     main_frame.obj
 0002:0000e290       ??_R2CWindowWnd@DuiLib@@8  0045a290     main_frame.obj
 0002:0000e298       ??_R1BA@?0A@EA@CNotifyPump@DuiLib@@8 0045a298     main_frame.obj
 0002:0000e2b4       ??_R3CNotifyPump@DuiLib@@8 0045a2b4     main_frame.obj
 0002:0000e2c4       ??_R2CNotifyPump@DuiLib@@8 0045a2c4     main_frame.obj
 0002:0000e2cc       ??_R1A@?0A@EA@CNotifyPump@DuiLib@@8 0045a2cc     main_frame.obj
 0002:0000e2e8       ??_R1CA@?0A@EA@INotifyUI@DuiLib@@8 0045a2e8     main_frame.obj
 0002:0000e304       ??_R3INotifyUI@DuiLib@@8   0045a304     main_frame.obj
 0002:0000e314       ??_R2INotifyUI@DuiLib@@8   0045a314     main_frame.obj
 0002:0000e31c       ??_R1A@?0A@EA@INotifyUI@DuiLib@@8 0045a31c     main_frame.obj
 0002:0000e338       ??_R1CE@?0A@EA@IMessageFilterUI@DuiLib@@8 0045a338     main_frame.obj
 0002:0000e354       ??_R3IMessageFilterUI@DuiLib@@8 0045a354     main_frame.obj
 0002:0000e364       ??_R2IMessageFilterUI@DuiLib@@8 0045a364     main_frame.obj
 0002:0000e36c       ??_R1A@?0A@EA@IMessageFilterUI@DuiLib@@8 0045a36c     main_frame.obj
 0002:0000e388       ??_R1CI@?0A@EA@IDialogBuilderCallback@DuiLib@@8 0045a388     main_frame.obj
 0002:0000e3a4       ??_R3IDialogBuilderCallback@DuiLib@@8 0045a3a4     main_frame.obj
 0002:0000e3b4       ??_R2IDialogBuilderCallback@DuiLib@@8 0045a3b4     main_frame.obj
 0002:0000e3bc       ??_R1A@?0A@EA@IDialogBuilderCallback@DuiLib@@8 0045a3bc     main_frame.obj
 0002:0000e3d8       ??_R4MainFrame@@6BCNotifyPump@DuiLib@@@ 0045a3d8     main_frame.obj
 0002:0000e3ec       ??_R4MainFrame@@6BINotifyUI@DuiLib@@@ 0045a3ec     main_frame.obj
 0002:0000e400       ??_R4MainFrame@@6BIMessageFilterUI@DuiLib@@@ 0045a400     main_frame.obj
 0002:0000e414       ??_R4MainFrame@@6BIDialogBuilderCallback@DuiLib@@@ 0045a414     main_frame.obj
 0002:0000e428       ??_R4CMenuUI@DuiLib@@6BCControlUI@1@@ 0045a428     UIMenu.obj
 0002:0000e43c       ??_R3CMenuUI@DuiLib@@8     0045a43c     UIMenu.obj
 0002:0000e44c       ??_R2CMenuUI@DuiLib@@8     0045a44c     UIMenu.obj
 0002:0000e470       ??_R1A@?0A@EA@CMenuUI@DuiLib@@8 0045a470     UIMenu.obj
 0002:0000e48c       ??_R1A@?0A@EA@CListUI@DuiLib@@8 0045a48c     UIMenu.obj
 0002:0000e4a8       ??_R3CListUI@DuiLib@@8     0045a4a8     UIMenu.obj
 0002:0000e4b8       ??_R2CListUI@DuiLib@@8     0045a4b8     UIMenu.obj
 0002:0000e4d8       ??_R1A@?0A@EA@CVerticalLayoutUI@DuiLib@@8 0045a4d8     UIMenu.obj
 0002:0000e4f4       ??_R3CVerticalLayoutUI@DuiLib@@8 0045a4f4     UIMenu.obj
 0002:0000e504       ??_R2CVerticalLayoutUI@DuiLib@@8 0045a504     UIMenu.obj
 0002:0000e518       ??_R1A@?0A@EA@CContainerUI@DuiLib@@8 0045a518     UIMenu.obj
 0002:0000e534       ??_R3CContainerUI@DuiLib@@8 0045a534     UIMenu.obj
 0002:0000e544       ??_R2CContainerUI@DuiLib@@8 0045a544     UIMenu.obj
 0002:0000e554       ??_R1A@?0A@EA@CControlUI@DuiLib@@8 0045a554     UIMenu.obj
 0002:0000e570       ??_R3CControlUI@DuiLib@@8  0045a570     UIMenu.obj
 0002:0000e580       ??_R2CControlUI@DuiLib@@8  0045a580     UIMenu.obj
 0002:0000e588       ??_R1EKA@?0A@EA@IContainerUI@DuiLib@@8 0045a588     UIMenu.obj
 0002:0000e5a4       ??_R3IContainerUI@DuiLib@@8 0045a5a4     UIMenu.obj
 0002:0000e5b4       ??_R2IContainerUI@DuiLib@@8 0045a5b4     UIMenu.obj
 0002:0000e5bc       ??_R1A@?0A@EA@IContainerUI@DuiLib@@8 0045a5bc     UIMenu.obj
 0002:0000e5d8       ??_R1EPE@?0A@EA@IListUI@DuiLib@@8 0045a5d8     UIMenu.obj
 0002:0000e5f4       ??_R3IListUI@DuiLib@@8     0045a5f4     UIMenu.obj
 0002:0000e604       ??_R2IListUI@DuiLib@@8     0045a604     UIMenu.obj
 0002:0000e610       ??_R1A@?0A@EA@IListUI@DuiLib@@8 0045a610     UIMenu.obj
 0002:0000e62c       ??_R1A@?0A@EA@IListOwnerUI@DuiLib@@8 0045a62c     UIMenu.obj
 0002:0000e648       ??_R3IListOwnerUI@DuiLib@@8 0045a648     UIMenu.obj
 0002:0000e658       ??_R2IListOwnerUI@DuiLib@@8 0045a658     UIMenu.obj
 0002:0000e660       ??_R1EPE@?0A@EA@IListOwnerUI@DuiLib@@8 0045a660     UIMenu.obj
 0002:0000e67c       ??_R4CMenuUI@DuiLib@@6BIContainerUI@1@@ 0045a67c     UIMenu.obj
 0002:0000e690       ??_R4CMenuUI@DuiLib@@6B@   0045a690     UIMenu.obj
 0002:0000e6a4       ??_R4CMenuWnd@DuiLib@@6BCWindowWnd@1@@ 0045a6a4     UIMenu.obj
 0002:0000e6b8       ??_R3CMenuWnd@DuiLib@@8    0045a6b8     UIMenu.obj
 0002:0000e6c8       ??_R2CMenuWnd@DuiLib@@8    0045a6c8     UIMenu.obj
 0002:0000e6dc       ??_R1A@?0A@EA@CMenuWnd@DuiLib@@8 0045a6dc     UIMenu.obj
 0002:0000e6f8       ??_R1BA@?0A@EA@?$ReceiverImpl@HUContextMenuParam@DuiLib@@@@8 0045a6f8     UIMenu.obj
 0002:0000e714       ??_R3?$ReceiverImpl@HUContextMenuParam@DuiLib@@@@8 0045a714     UIMenu.obj
 0002:0000e724       ??_R2?$ReceiverImpl@HUContextMenuParam@DuiLib@@@@8 0045a724     UIMenu.obj
 0002:0000e730       ??_R1A@?0A@EA@?$ReceiverImpl@HUContextMenuParam@DuiLib@@@@8 0045a730     UIMenu.obj
 0002:0000e74c       ??_R1A@?0A@EA@?$ReceiverImplBase@HUContextMenuParam@DuiLib@@@@8 0045a74c     UIMenu.obj
 0002:0000e768       ??_R3?$ReceiverImplBase@HUContextMenuParam@DuiLib@@@@8 0045a768     UIMenu.obj
 0002:0000e778       ??_R2?$ReceiverImplBase@HUContextMenuParam@DuiLib@@@@8 0045a778     UIMenu.obj
 0002:0000e780       ??_R1BA@?0A@EA@?$ReceiverImplBase@HUContextMenuParam@DuiLib@@@@8 0045a780     UIMenu.obj
 0002:0000e79c       ??_R4CMenuWnd@DuiLib@@6B?$ReceiverImpl@HUContextMenuParam@DuiLib@@@@@ 0045a79c     UIMenu.obj
 0002:0000e7b0       ??_R4CMenuBuilderCallback@DuiLib@@6B@ 0045a7b0     UIMenu.obj
 0002:0000e7c4       ??_R3CMenuBuilderCallback@DuiLib@@8 0045a7c4     UIMenu.obj
 0002:0000e7d4       ??_R2CMenuBuilderCallback@DuiLib@@8 0045a7d4     UIMenu.obj
 0002:0000e7e0       ??_R1A@?0A@EA@CMenuBuilderCallback@DuiLib@@8 0045a7e0     UIMenu.obj
 0002:0000e7fc       ??_R4IDialogBuilderCallback@DuiLib@@6B@ 0045a7fc     UIMenu.obj
 0002:0000e810       ??_R4CMenuElementUI@DuiLib@@6BCControlUI@1@@ 0045a810     UIMenu.obj
 0002:0000e824       ??_R3CMenuElementUI@DuiLib@@8 0045a824     UIMenu.obj
 0002:0000e834       ??_R2CMenuElementUI@DuiLib@@8 0045a834     UIMenu.obj
 0002:0000e850       ??_R1A@?0A@EA@CMenuElementUI@DuiLib@@8 0045a850     UIMenu.obj
 0002:0000e86c       ??_R1A@?0A@EA@CListContainerElementUI@DuiLib@@8 0045a86c     UIMenu.obj
 0002:0000e888       ??_R3CListContainerElementUI@DuiLib@@8 0045a888     UIMenu.obj
 0002:0000e898       ??_R2CListContainerElementUI@DuiLib@@8 0045a898     UIMenu.obj
 0002:0000e8b0       ??_R1ENA@?0A@EA@IListItemUI@DuiLib@@8 0045a8b0     UIMenu.obj
 0002:0000e8cc       ??_R3IListItemUI@DuiLib@@8 0045a8cc     UIMenu.obj
 0002:0000e8dc       ??_R2IListItemUI@DuiLib@@8 0045a8dc     UIMenu.obj
 0002:0000e8e4       ??_R1A@?0A@EA@IListItemUI@DuiLib@@8 0045a8e4     UIMenu.obj
 0002:0000e900       ??_R4CMenuElementUI@DuiLib@@6BIContainerUI@1@@ 0045a900     UIMenu.obj
 0002:0000e914       ??_R4CMenuElementUI@DuiLib@@6B@ 0045a914     UIMenu.obj
 0002:0000e928       ??_R4?$ReceiverImpl@HUContextMenuParam@DuiLib@@@@6B@ 0045a928     UIMenu.obj
 0002:0000e93c       ??_R4?$ReceiverImplBase@HUContextMenuParam@DuiLib@@@@6B@ 0045a93c     UIMenu.obj
 0002:0000e950       ??_R4bad_alloc@std@@6B@    0045a950     UIMenu.obj
 0002:0000e964       ??_R3bad_alloc@std@@8      0045a964     UIMenu.obj
 0002:0000e974       ??_R2bad_alloc@std@@8      0045a974     UIMenu.obj
 0002:0000e980       ??_R1A@?0A@EA@bad_alloc@std@@8 0045a980     UIMenu.obj
 0002:0000e99c       ??_R1A@?0A@EA@exception@std@@8 0045a99c     UIMenu.obj
 0002:0000e9b8       ??_R3exception@std@@8      0045a9b8     UIMenu.obj
 0002:0000e9c8       ??_R2exception@std@@8      0045a9c8     UIMenu.obj
 0002:0000e9d0       ??_R4?$ObserverImpl@HUContextMenuParam@DuiLib@@@@6B@ 0045a9d0     UIMenu.obj
 0002:0000e9e4       ??_R3?$ObserverImpl@HUContextMenuParam@DuiLib@@@@8 0045a9e4     UIMenu.obj
 0002:0000e9f4       ??_R2?$ObserverImpl@HUContextMenuParam@DuiLib@@@@8 0045a9f4     UIMenu.obj
 0002:0000ea00       ??_R1A@?0A@EA@?$ObserverImpl@HUContextMenuParam@DuiLib@@@@8 0045aa00     UIMenu.obj
 0002:0000ea1c       ??_R1A@?0A@EA@?$ObserverImplBase@HUContextMenuParam@DuiLib@@@@8 0045aa1c     UIMenu.obj
 0002:0000ea38       ??_R3?$ObserverImplBase@HUContextMenuParam@DuiLib@@@@8 0045aa38     UIMenu.obj
 0002:0000ea48       ??_R2?$ObserverImplBase@HUContextMenuParam@DuiLib@@@@8 0045aa48     UIMenu.obj
 0002:0000ea50       ??_R4?$ObserverImplBase@HUContextMenuParam@DuiLib@@@@6B@ 0045aa50     UIMenu.obj
 0002:0000ea64       ??_R4invalid_argument@std@@6B@ 0045aa64     libcpmtd:xthrow.obj
 0002:0000ea78       ??_R3invalid_argument@std@@8 0045aa78     libcpmtd:xthrow.obj
 0002:0000ea88       ??_R2invalid_argument@std@@8 0045aa88     libcpmtd:xthrow.obj
 0002:0000ea98       ??_R1A@?0A@EA@invalid_argument@std@@8 0045aa98     libcpmtd:xthrow.obj
 0002:0000eab4       ??_R1A@?0A@EA@logic_error@std@@8 0045aab4     libcpmtd:xthrow.obj
 0002:0000ead0       ??_R3logic_error@std@@8    0045aad0     libcpmtd:xthrow.obj
 0002:0000eae0       ??_R2logic_error@std@@8    0045aae0     libcpmtd:xthrow.obj
 0002:0000eaec       ??_R4logic_error@std@@6B@  0045aaec     libcpmtd:xthrow.obj
 0002:0000eb00       ??_R4length_error@std@@6B@ 0045ab00     libcpmtd:xthrow.obj
 0002:0000eb14       ??_R3length_error@std@@8   0045ab14     libcpmtd:xthrow.obj
 0002:0000eb24       ??_R2length_error@std@@8   0045ab24     libcpmtd:xthrow.obj
 0002:0000eb34       ??_R1A@?0A@EA@length_error@std@@8 0045ab34     libcpmtd:xthrow.obj
 0002:0000eb50       ??_R4out_of_range@std@@6B@ 0045ab50     libcpmtd:xthrow.obj
 0002:0000eb64       ??_R3out_of_range@std@@8   0045ab64     libcpmtd:xthrow.obj
 0002:0000eb74       ??_R2out_of_range@std@@8   0045ab74     libcpmtd:xthrow.obj
 0002:0000eb84       ??_R1A@?0A@EA@out_of_range@std@@8 0045ab84     libcpmtd:xthrow.obj
 0002:0000eba0       ??_R4overflow_error@std@@6B@ 0045aba0     libcpmtd:xthrow.obj
 0002:0000ebb4       ??_R3overflow_error@std@@8 0045abb4     libcpmtd:xthrow.obj
 0002:0000ebc4       ??_R2overflow_error@std@@8 0045abc4     libcpmtd:xthrow.obj
 0002:0000ebd4       ??_R1A@?0A@EA@overflow_error@std@@8 0045abd4     libcpmtd:xthrow.obj
 0002:0000ebf0       ??_R1A@?0A@EA@runtime_error@std@@8 0045abf0     libcpmtd:xthrow.obj
 0002:0000ec0c       ??_R3runtime_error@std@@8  0045ac0c     libcpmtd:xthrow.obj
 0002:0000ec1c       ??_R2runtime_error@std@@8  0045ac1c     libcpmtd:xthrow.obj
 0002:0000ec28       ??_R4runtime_error@std@@6B@ 0045ac28     libcpmtd:xthrow.obj
 0002:0000ec3c       ??_R4type_info@@6B@        0045ac3c     LIBCMTD:typinfo.obj
 0002:0000ec50       ??_R3type_info@@8          0045ac50     LIBCMTD:typinfo.obj
 0002:0000ec60       ??_R2type_info@@8          0045ac60     LIBCMTD:typinfo.obj
 0002:0000ec68       ??_R1A@?0A@EA@type_info@@8 0045ac68     LIBCMTD:typinfo.obj
 0002:0000ec84       ??_R4exception@std@@6B@    0045ac84     LIBCMTD:stdexcpt.obj
 0002:0000ec98       ??_R4bad_cast@std@@6B@     0045ac98     LIBCMTD:stdexcpt.obj
 0002:0000ecac       ??_R3bad_cast@std@@8       0045acac     LIBCMTD:stdexcpt.obj
 0002:0000ecbc       ??_R2bad_cast@std@@8       0045acbc     LIBCMTD:stdexcpt.obj
 0002:0000ecc8       ??_R1A@?0A@EA@bad_cast@std@@8 0045acc8     LIBCMTD:stdexcpt.obj
 0002:0000ece4       ??_R4bad_typeid@std@@6B@   0045ace4     LIBCMTD:stdexcpt.obj
 0002:0000ecf8       ??_R3bad_typeid@std@@8     0045acf8     LIBCMTD:stdexcpt.obj
 0002:0000ed08       ??_R2bad_typeid@std@@8     0045ad08     LIBCMTD:stdexcpt.obj
 0002:0000ed14       ??_R1A@?0A@EA@bad_typeid@std@@8 0045ad14     LIBCMTD:stdexcpt.obj
 0002:0000ed30       ??_R4__non_rtti_object@std@@6B@ 0045ad30     LIBCMTD:stdexcpt.obj
 0002:0000ed44       ??_R3__non_rtti_object@std@@8 0045ad44     LIBCMTD:stdexcpt.obj
 0002:0000ed54       ??_R2__non_rtti_object@std@@8 0045ad54     LIBCMTD:stdexcpt.obj
 0002:0000ed64       ??_R1A@?0A@EA@__non_rtti_object@std@@8 0045ad64     LIBCMTD:stdexcpt.obj
 0002:0000ed80       ??_R4bad_exception@std@@6B@ 0045ad80     LIBCMTD:frame.obj
 0002:0000ed94       ??_R3bad_exception@std@@8  0045ad94     LIBCMTD:frame.obj
 0002:0000eda4       ??_R2bad_exception@std@@8  0045ada4     LIBCMTD:frame.obj
 0002:0000edb0       ??_R1A@?0A@EA@bad_exception@std@@8 0045adb0     LIBCMTD:frame.obj
 0002:0000edd0       ___safe_se_handler_table   0045add0     <linker-defined>
 0002:0000eea0       ___rtc_iaa                 0045aea0     LIBCMTD:_initsect_.obj
 0002:0000eea8       ___rtc_izz                 0045aea8     LIBCMTD:_initsect_.obj
 0002:0000eeac       ___rtc_taa                 0045aeac     LIBCMTD:_initsect_.obj
 0002:0000eeb4       ___rtc_tzz                 0045aeb4     LIBCMTD:_initsect_.obj
 0002:0000f3e8       __TI2?AVbad_alloc@std@@    0045b3e8     UIMenu.obj
 0002:0000f3f8       __CTA2?AVbad_alloc@std@@   0045b3f8     UIMenu.obj
 0002:0000f404       __CT??_R0?AVbad_alloc@std@@@8??0bad_alloc@std@@QAE@ABV01@@Z12 0045b404     UIMenu.obj
 0002:0000f420       __CT??_R0?AVexception@std@@@8??0exception@std@@QAE@ABV01@@Z12 0045b420     UIMenu.obj
 0002:0000f700       __TI3?AVinvalid_argument@std@@ 0045b700     libcpmtd:xthrow.obj
 0002:0000f710       __CTA3?AVinvalid_argument@std@@ 0045b710     libcpmtd:xthrow.obj
 0002:0000f720       __CT??_R0?AVinvalid_argument@std@@@8??0invalid_argument@std@@QAE@ABV01@@Z12 0045b720     libcpmtd:xthrow.obj
 0002:0000f73c       __CT??_R0?AVlogic_error@std@@@8??0logic_error@std@@QAE@ABV01@@Z12 0045b73c     libcpmtd:xthrow.obj
 0002:0000f758       __TI3?AVlength_error@std@@ 0045b758     libcpmtd:xthrow.obj
 0002:0000f768       __CTA3?AVlength_error@std@@ 0045b768     libcpmtd:xthrow.obj
 0002:0000f778       __CT??_R0?AVlength_error@std@@@8??0length_error@std@@QAE@ABV01@@Z12 0045b778     libcpmtd:xthrow.obj
 0002:0000f794       __TI3?AVout_of_range@std@@ 0045b794     libcpmtd:xthrow.obj
 0002:0000f7a4       __CTA3?AVout_of_range@std@@ 0045b7a4     libcpmtd:xthrow.obj
 0002:0000f7b4       __CT??_R0?AVout_of_range@std@@@8??0out_of_range@std@@QAE@ABV01@@Z12 0045b7b4     libcpmtd:xthrow.obj
 0002:0000f7d0       __TI3?AVoverflow_error@std@@ 0045b7d0     libcpmtd:xthrow.obj
 0002:0000f7e0       __CTA3?AVoverflow_error@std@@ 0045b7e0     libcpmtd:xthrow.obj
 0002:0000f7f0       __CT??_R0?AVoverflow_error@std@@@8??0overflow_error@std@@QAE@ABV01@@Z12 0045b7f0     libcpmtd:xthrow.obj
 0002:0000f80c       __CT??_R0?AVruntime_error@std@@@8??0runtime_error@std@@QAE@ABV01@@Z12 0045b80c     libcpmtd:xthrow.obj
 0002:0000f828       __TI2?AVruntime_error@std@@ 0045b828     libcpmtd:xthrow.obj
 0002:0000f838       __CTA2?AVruntime_error@std@@ 0045b838     libcpmtd:xthrow.obj
 0002:0000f96c       __TI3?AV__non_rtti_object@std@@ 0045b96c     LIBCMTD:rtti.obj
 0002:0000f99c       __CTA3?AV__non_rtti_object@std@@ 0045b99c     LIBCMTD:rtti.obj
 0002:0000f9ac       __CT??_R0?AV__non_rtti_object@std@@@8??0__non_rtti_object@std@@QAE@ABV01@@Z12 0045b9ac     LIBCMTD:rtti.obj
 0002:0000f9c8       __CT??_R0?AVbad_typeid@std@@@8??0bad_typeid@std@@QAE@ABV01@@Z12 0045b9c8     LIBCMTD:rtti.obj
 0002:0000f9e4       __TI2?AVbad_typeid@std@@   0045b9e4     LIBCMTD:rtti.obj
 0002:0000fa14       __CTA2?AVbad_typeid@std@@  0045ba14     LIBCMTD:rtti.obj
 0002:0000fa20       __TI2?AVbad_cast@std@@     0045ba20     LIBCMTD:rtti.obj
 0002:0000fa4c       __CTA2?AVbad_cast@std@@    0045ba4c     LIBCMTD:rtti.obj
 0002:0000fa58       __CT??_R0?AVbad_cast@std@@@8??0bad_cast@std@@QAE@ABV01@@Z12 0045ba58     LIBCMTD:rtti.obj
 0002:0000fd34       __TI2?AVbad_exception@std@@ 0045bd34     LIBCMTD:frame.obj
 0002:0000fd44       __CTA2?AVbad_exception@std@@ 0045bd44     LIBCMTD:frame.obj
 0002:0000fd50       __CT??_R0?AVbad_exception@std@@@8??0bad_exception@std@@QAE@ABV01@@Z12 0045bd50     LIBCMTD:frame.obj
 0002:00010518       __IMPORT_DESCRIPTOR_KERNEL32 0045c518     kernel32:KERNEL32.dll
 0002:0001052c       __IMPORT_DESCRIPTOR_USER32 0045c52c     user32:USER32.dll
 0002:00010540       __IMPORT_DESCRIPTOR_ole32  0045c540     ole32:ole32.dll
 0002:00010554       __IMPORT_DESCRIPTOR_DuiLib_ud 0045c554     DuiLib_ud:DuiLib_ud.dll
 0002:00010568       __NULL_IMPORT_DESCRIPTOR   0045c568     kernel32:KERNEL32.dll
 0003:00000000       ?g_iDebugLevel@@3HA        00461000     debug.obj
 0003:00000008       ?g_bLogSavePath@@3PA_WA    00461008     debug.obj
 0003:00000210       ??_R0?AVMainFrame@@@8      00461210     main_frame.obj
 0003:00000228       ??_R0?AVWindowImplBase@DuiLib@@@8 00461228     main_frame.obj
 0003:0000024c       ??_R0?AVCWindowWnd@DuiLib@@@8 0046124c     main_frame.obj
 0003:0000026c       ??_R0?AVCNotifyPump@DuiLib@@@8 0046126c     main_frame.obj
 0003:00000290       ??_R0?AVINotifyUI@DuiLib@@@8 00461290     main_frame.obj
 0003:000002b0       ??_R0?AVIMessageFilterUI@DuiLib@@@8 004612b0     main_frame.obj
 0003:000002d8       ??_R0?AVIDialogBuilderCallback@DuiLib@@@8 004612d8     main_frame.obj
 0003:00000304       ??_R0?AVCMenuUI@DuiLib@@@8 00461304     UIMenu.obj
 0003:00000324       ??_R0?AVCListUI@DuiLib@@@8 00461324     UIMenu.obj
 0003:00000344       ??_R0?AVCVerticalLayoutUI@DuiLib@@@8 00461344     UIMenu.obj
 0003:0000036c       ??_R0?AVCContainerUI@DuiLib@@@8 0046136c     UIMenu.obj
 0003:00000390       ??_R0?AVCControlUI@DuiLib@@@8 00461390     UIMenu.obj
 0003:000003b0       ??_R0?AVIContainerUI@DuiLib@@@8 004613b0     UIMenu.obj
 0003:000003d4       ??_R0?AVIListUI@DuiLib@@@8 004613d4     UIMenu.obj
 0003:000003f4       ??_R0?AVIListOwnerUI@DuiLib@@@8 004613f4     UIMenu.obj
 0003:00000418       ??_R0?AVCMenuWnd@DuiLib@@@8 00461418     UIMenu.obj
 0003:00000438       ??_R0?AV?$ReceiverImpl@HUContextMenuParam@DuiLib@@@@@8 00461438     UIMenu.obj
 0003:00000474       ??_R0?AV?$ReceiverImplBase@HUContextMenuParam@DuiLib@@@@@8 00461474     UIMenu.obj
 0003:000004b4       ??_R0?AVCMenuBuilderCallback@DuiLib@@@8 004614b4     UIMenu.obj
 0003:000004e0       ??_R0?AVCMenuElementUI@DuiLib@@@8 004614e0     UIMenu.obj
 0003:00000504       ??_R0?AVCListContainerElementUI@DuiLib@@@8 00461504     UIMenu.obj
 0003:00000534       ??_R0?AVIListItemUI@DuiLib@@@8 00461534     UIMenu.obj
 0003:00000558       ??_R0?AVbad_alloc@std@@@8  00461558     UIMenu.obj
 0003:00000574       ??_R0?AVexception@std@@@8  00461574     UIMenu.obj
 0003:00000590       ??_R0?AV?$ObserverImpl@HUContextMenuParam@DuiLib@@@@@8 00461590     UIMenu.obj
 0003:000005cc       ??_R0?AV?$ObserverImplBase@HUContextMenuParam@DuiLib@@@@@8 004615cc     UIMenu.obj
 0003:00000610       ??_R0?AVinvalid_argument@std@@@8 00461610     libcpmtd:xthrow.obj
 0003:00000634       ??_R0?AVlogic_error@std@@@8 00461634     libcpmtd:xthrow.obj
 0003:00000654       ??_R0?AVlength_error@std@@@8 00461654     libcpmtd:xthrow.obj
 0003:00000674       ??_R0?AVout_of_range@std@@@8 00461674     libcpmtd:xthrow.obj
 0003:00000694       ??_R0?AVoverflow_error@std@@@8 00461694     libcpmtd:xthrow.obj
 0003:000006b8       ??_R0?AVruntime_error@std@@@8 004616b8     libcpmtd:xthrow.obj
 0003:000006d8       ___security_cookie         004616d8     LIBCMTD:gs_cookie.obj
 0003:000006dc       ___security_cookie_complement 004616dc     LIBCMTD:gs_cookie.obj
 0003:000006e0       ??_R0?AVtype_info@@@8      004616e0     LIBCMTD:typinfo.obj
 0003:000006f8       ??_R0?AV__non_rtti_object@std@@@8 004616f8     LIBCMTD:rtti.obj
 0003:0000071c       ??_R0?AVbad_typeid@std@@@8 0046171c     LIBCMTD:rtti.obj
 0003:0000073c       ??_R0?AVbad_cast@std@@@8   0046173c     LIBCMTD:rtti.obj
 0003:00000760       ___app_type                00461760     LIBCMTD:wincrt0.obj
 0003:00000764       ?_RTC_ErrorLevels@@3PAHA   00461764     LIBCMTD:_error_.obj
 0003:000008e8       __crtDbgFlag               004618e8     LIBCMTD:dbgheap.obj
 0003:000008ec       ___crtDebugFillThreshold   004618ec     LIBCMTD:dbgheap.obj
 0003:000008f4       __crtBreakAlloc            004618f4     LIBCMTD:dbgheap.obj
 0003:00000900       __iob                      00461900     LIBCMTD:_file.obj
 0003:00000ca0       ___badioinfo               00461ca0     LIBCMTD:ioinit.obj
 0003:00000ce0       ??_R0?AVbad_exception@std@@@8 00461ce0     LIBCMTD:frame.obj
 0003:00000d00       ___flsindex                00461d00     LIBCMTD:tidtable.obj
 0003:00000d04       ___getvalueindex           00461d04     LIBCMTD:tidtable.obj
 0003:00000d10       ___initialmbcinfo          00461d10     LIBCMTD:mbctype.obj
 0003:00000f30       __mbctype                  00461f30     LIBCMTD:mbctype.obj
 0003:00001038       __mbcasemap                00462038     LIBCMTD:mbctype.obj
 0003:00001138       ___ptmbcinfo               00462138     LIBCMTD:mbctype.obj
 0003:00001230       ___globallocalestatus      00462230     LIBCMTD:glstatus.obj
 0003:00001234       ___clocalestr              00462234     LIBCMTD:nlsdata2.obj
 0003:00001238       ___lc_time_c               00462238     LIBCMTD:nlsdata2.obj
 0003:000013a0       ___initiallocinfo          004623a0     LIBCMTD:nlsdata2.obj
 0003:00001478       ___ptlocinfo               00462478     LIBCMTD:nlsdata2.obj
 0003:0000147c       ___initiallocalestructinfo 0046247c     LIBCMTD:nlsdata2.obj
 0003:00001488       ___abort_behavior          00462488     LIBCMTD:abort.obj
 0003:0000148c       __crtAssertBusy            0046248c     LIBCMTD:dbgrptt.obj
 0003:00001490       __CrtDbgMode               00462490     LIBCMTD:dbgrptt.obj
 0003:0000149c       __CrtDbgFile               0046249c     LIBCMTD:dbgrptt.obj
 0003:000014b0       __pfnAllocHook             004624b0     LIBCMTD:dbghook.obj
 0003:000014c4       __cfltcvt_tab              004624c4     LIBCMTD:cmiscdat.obj
 0003:000014ec       ___nullstring              004624ec     LIBCMTD:output.obj
 0003:000014f0       ___wnullstring             004624f0     LIBCMTD:output.obj
 0003:00001500       __NLG_Destination          00462500     LIBCMTD:exsup.obj
 0003:00001510       ___lconv_static_decimal    00462510     LIBCMTD:lconv.obj
 0003:00001514       ___lconv_static_W_decimal  00462514     LIBCMTD:lconv.obj
 0003:00001518       ___lconv_c                 00462518     LIBCMTD:lconv.obj
 0003:00001568       ___lconv                   00462568     LIBCMTD:lconv.obj
 0003:0000156c       __pctype                   0046256c     LIBCMTD:ctype.obj
 0003:00001570       __pwctype                  00462570     LIBCMTD:ctype.obj
 0003:00001574       ___mb_cur_max              00462574     LIBCMTD:nlsdata1.obj
 0003:00001578       ___decimal_point           00462578     LIBCMTD:nlsdata1.obj
 0003:0000157c       ___decimal_point_length    0046257c     LIBCMTD:nlsdata1.obj
 0003:00001580       __confh                    00462580     LIBCMTD:initcon.obj
 0003:00001588       __lookuptrailbytes         00462588     LIBCMTD:read.obj
 0003:000016d4       ?g_bSaveLogFile@@3_NA      004626d4     debug.obj
 0003:000019d4       ?s_context_menu_observer@DuiLib@@3V?$ObserverImpl@HUContextMenuParam@DuiLib@@@@A 004629d4     UIMenu.obj
 0003:00001a94       ___pInvalidArgHandler      00462a94     LIBCMTD:invarg.obj
 0003:00001a98       __aenvptr                  00462a98     LIBCMTD:wincrt0.obj
 0003:00001a9c       __wenvptr                  00462a9c     LIBCMTD:wincrt0.obj
 0003:00001aa0       ___error_mode              00462aa0     LIBCMTD:wincrt0.obj
 0003:00001aa4       ?wsprintffp@@3P6AHPADPBDZZA 00462aa4     LIBCMTD:_error_.obj
 0003:00001de8       ?_pfnDumpClient@@3P6AXPAXI@ZA 00462de8     LIBCMTD:dbgheap.obj
 0003:00001df0       ___crtDebugCheckCount      00462df0     LIBCMTD:dbgheap.obj
 0003:00001df8       __cflush                   00462df8     LIBCMTD:_file.obj
 0003:00001f68       __stdbuf                   00462f68     LIBCMTD:_sftbuf.obj
 0003:00001f70       _gpFlsAlloc                00462f70     LIBCMTD:tidtable.obj
 0003:00001f74       _gpFlsGetValue             00462f74     LIBCMTD:tidtable.obj
 0003:00001f78       _gpFlsSetValue             00462f78     LIBCMTD:tidtable.obj
 0003:00001f7c       _gpFlsFree                 00462f7c     LIBCMTD:tidtable.obj
 0003:00001f80       ?__pInconsistency@@3P6AXXZA 00462f80     LIBCMTD:hooks.obj
 0003:00001f84       __umaskval                 00462f84     LIBCMTD:crt0dat.obj
 0003:00001f88       ___argc                    00462f88     LIBCMTD:crt0dat.obj
 0003:00001f8c       ___argv                    00462f8c     LIBCMTD:crt0dat.obj
 0003:00001f90       ___wargv                   00462f90     LIBCMTD:crt0dat.obj
 0003:00001f94       __environ                  00462f94     LIBCMTD:crt0dat.obj
 0003:00001f98       ___initenv                 00462f98     LIBCMTD:crt0dat.obj
 0003:00001f9c       __wenviron                 00462f9c     LIBCMTD:crt0dat.obj
 0003:00001fa0       ___winitenv                00462fa0     LIBCMTD:crt0dat.obj
 0003:00001fa4       __pgmptr                   00462fa4     LIBCMTD:crt0dat.obj
 0003:00001fa8       __wpgmptr                  00462fa8     LIBCMTD:crt0dat.obj
 0003:00001fac       __exitflag                 00462fac     LIBCMTD:crt0dat.obj
 0003:00001fb0       __C_Termination_Done       00462fb0     LIBCMTD:crt0dat.obj
 0003:00001fb4       __C_Exit_Done              00462fb4     LIBCMTD:crt0dat.obj
 0003:00001fc4       ?_pnhHeap@@3P6AHI@ZA       00462fc4     LIBCMTD:handler.obj
 0003:00001fcc       ___mbulinfo                00462fcc     LIBCMTD:mbctype.obj
 0003:00001fd8       ___mbcodepage              00462fd8     LIBCMTD:mbctype.obj
 0003:00001fdc       ___ismbcodepage            00462fdc     LIBCMTD:mbctype.obj
 0003:00001fe0       ___mblcid                  00462fe0     LIBCMTD:mbctype.obj
 0003:00001fe4       ___locale_changed          00462fe4     LIBCMTD:setlocal.obj
 0003:00002610       ___pPurecall               00463610     LIBCMTD:inithelp.obj
 0003:00002748       __crtheap                  00463748     LIBCMTD:heapinit.obj
 0003:00002758       __newmode                  00463758     LIBCMTD:_newmode.obj
 0003:0000275c       __commode                  0046375c     LIBCMTD:ncommode.obj
 0003:00002778       ?pArgList@UnDecorator@@0PAVReplicator@@A 00463778     LIBCMTD:undname.obj
 0003:0000277c       ?pZNameList@UnDecorator@@0PAVReplicator@@A 0046377c     LIBCMTD:undname.obj
 0003:00002780       ?pTemplateArgList@UnDecorator@@0PAVReplicator@@A 00463780     LIBCMTD:undname.obj
 0003:00002784       ?gName@UnDecorator@@0PBDB  00463784     LIBCMTD:undname.obj
 0003:00002788       ?name@UnDecorator@@0PBDB   00463788     LIBCMTD:undname.obj
 0003:0000278c       ?outputString@UnDecorator@@0PADA 0046378c     LIBCMTD:undname.obj
 0003:00002790       ?maxStringLength@UnDecorator@@0HA 00463790     LIBCMTD:undname.obj
 0003:00002794       ?disableFlags@UnDecorator@@0KA 00463794     LIBCMTD:undname.obj
 0003:00002798       ?m_pGetParameter@UnDecorator@@0P6APADJ@ZA 00463798     LIBCMTD:undname.obj
 0003:0000279c       ?fExplicitTemplateParams@UnDecorator@@0_NA 0046379c     LIBCMTD:undname.obj
 0003:0000279d       ?fGetTemplateArgumentList@UnDecorator@@0_NA 0046379d     LIBCMTD:undname.obj
 0003:000027f0       ?nodes@?1??make@DNameStatusNode@@SAPAV2@W4DNameStatus@@@Z@4PAV2@A 004637f0     LIBCMTD:undname.obj
 0003:00002820       ??_B?1??make@DNameStatusNode@@SAPAV1@W4DNameStatus@@@Z@51 00463820     LIBCMTD:undname.obj
 0003:00002824       ___lconv_static_null       00463824     LIBCMTD:lconv.obj
 0003:00002828       ___lconv_static_W_null     00463828     LIBCMTD:lconv.obj
 0003:00002840       __fmode                    00463840     LIBCMTD:txtmode.obj
 0003:00002844       __debugger_hook_dummy      00463844     <common>
 0003:00002848       __pfnReportHook            00463848     <common>
 0003:0000284c       __pReportHookListW         0046384c     <common>
 0003:00002850       __pReportHookList          00463850     <common>
 0003:00002854       ___setlc_active            00463854     <common>
 0003:00002858       ___unguarded_readlc_active 00463858     <common>
 0003:0000285c       ___env_initialized         0046385c     <common>
 0003:00002860       ___onexitend               00463860     <common>
 0003:00002864       ___onexitbegin             00463864     <common>
 0003:00002868       ___mbctype_initialized     00463868     <common>
 0003:0000286c       __FPinit                   0046386c     <common>
 0003:00002870       ___dyn_tls_init_callback   00463870     <common>
 0003:00002874       __nhandle                  00463874     <common>
 0003:00002880       ___pioinfo                 00463880     <common>
 0003:00002980       ___piob                    00463980     <common>
 0003:000029a0       __bufin                    004639a0     <common>
 0003:000039a0       __nstream                  004649a0     <common>
 0003:000039a4       ___sse2_available          004649a4     <common>
 0003:000039a8       __acmdln                   004649a8     <common>
 0003:000039ac       __NoHeapEnableTerminationOnCorruption 004649ac     <common>

 entry point at        0001:0000ec90

 Static symbols

 0001:00006634       __catch$?reserve@?$vector@PAV?$ReceiverImplBase@HUContextMenuParam@DuiLib@@@@V?$allocator@PAV?$ReceiverImplBase@HUContextMenuParam@DuiLib@@@@@std@@@std@@QAEXI@Z$0 00407634 f i UIMenu.obj
 0001:00006924       __catch$?reserve@?$vector@PAV?$ObserverImplBase@HUContextMenuParam@DuiLib@@@@V?$allocator@PAV?$ObserverImplBase@HUContextMenuParam@DuiLib@@@@@std@@@std@@QAEXI@Z$0 00407924 f i UIMenu.obj
 0001:0000ac90       _flsall                    0040bc90 f   LIBCMTD:fflush.obj
 0001:0000c1f0       ?CatchGuardHandler@@YA?AW4_EXCEPTION_DISPOSITION@@PAUEHExceptionRecord@@PAUCatchGuardRN@@PAX2@Z 0040d1f0 f   LIBCMTD:_trnsctrl_.obj
 0001:0000c330       ?TranslatorGuardHandler@@YA?AW4_EXCEPTION_DISPOSITION@@PAUEHExceptionRecord@@PAUTranslatorGuardRN@@PAX2@Z 0040d330 f   LIBCMTD:_trnsctrl_.obj
 0001:0000c5a0       __onexit_nolock            0040d5a0 f   LIBCMTD:onexit.obj
 0001:0000d350       ?FindCompleteObject@@YAPAXPAPAX@Z 0040e350 f   LIBCMTD:rtti.obj
 0001:0000d390       ?FindSITargetTypeInstance@@YAPBU_s_RTTIBaseClassDescriptor@@PBU_s_RTTICompleteObjectLocator@@PAUTypeDescriptor@@1@Z 0040e390 f   LIBCMTD:rtti.obj
 0001:0000d480       ?FindMITargetTypeInstance@@YAPBU_s_RTTIBaseClassDescriptor@@PAXPBU_s_RTTICompleteObjectLocator@@PAUTypeDescriptor@@H2@Z 0040e480 f   LIBCMTD:rtti.obj
 0001:0000d640       ?FindVITargetTypeInstance@@YAPBU_s_RTTIBaseClassDescriptor@@PAXPBU_s_RTTICompleteObjectLocator@@PAUTypeDescriptor@@H2@Z 0040e640 f   LIBCMTD:rtti.obj
 0001:0000d860       ?PMDtoOffset@@YAHPAXABUPMD@@@Z 0040e860 f   LIBCMTD:rtti.obj
 0001:0000ecb0       ___tmainCRTStartup         0040fcb0 f   LIBCMTD:wincrt0.obj
 0001:0000ee70       _fast_error_exit           0040fe70 f   LIBCMTD:wincrt0.obj
 0001:0000eea0       _check_managed_app         0040fea0 f   LIBCMTD:wincrt0.obj
 0001:0000ef70       ?failwithmessage@@YAXPAXHHPBD@Z 0040ff70 f   LIBCMTD:_error_.obj
 0001:0000f190       ?DebuggerProbe@@YAHK@Z     00410190 f   LIBCMTD:_error_.obj
 0001:0000f220       ?DebuggerRuntime@@YAHKHPAXPB_W@Z 00410220 f   LIBCMTD:_error_.obj
 0001:0000f500       ?_getMemBlockDataString@@YAXPAD00I@Z 00410500 f   LIBCMTD:_error_.obj
 0001:00010f50       _write_char                00411f50 f   LIBCMTD:woutput.obj
 0001:00010fb0       _write_multi_char          00411fb0 f   LIBCMTD:woutput.obj
 0001:00010ff0       _write_string              00411ff0 f   LIBCMTD:woutput.obj
 0001:00011190       __nh_malloc_dbg_impl       00412190 f   LIBCMTD:dbgheap.obj
 0001:00011230       __heap_alloc_dbg_impl      00412230 f   LIBCMTD:dbgheap.obj
 0001:00011800       _realloc_help              00412800 f   LIBCMTD:dbgheap.obj
 0001:000128c0       _CheckBytes                004138c0 f   LIBCMTD:dbgheap.obj
 0001:00013680       ?_CrtMemDumpAllObjectsSince_stat@@YAXPBU_CrtMemState@@PAUlocaleinfo_struct@@@Z 00414680 f   LIBCMTD:dbgheap.obj
 0001:00013990       __printMemBlockData        00414990 f   LIBCMTD:dbgheap.obj
 0001:00015810       _write_char                00416810 f   LIBCMTD:woutputs.obj
 0001:00015870       _write_multi_char          00416870 f   LIBCMTD:woutputs.obj
 0001:000158b0       _write_string              004168b0 f   LIBCMTD:woutputs.obj
 0001:00019210       _write_char                0041a210 f   LIBCMTD:woutputp.obj
 0001:00019270       _write_multi_char          0041a270 f   LIBCMTD:woutputp.obj
 0001:000192b0       _write_string              0041a2b0 f   LIBCMTD:woutputp.obj
 0001:000197f0       _ValidateLocalCookies      0041a7f0 f   LIBCMTD:chandler4.obj
 0001:0001c350       __unwind_handler4          0041d350 f   LIBCMTD:exsup4.obj
 0001:0001c910       ?FindHandler@@YAXPAUEHExceptionRecord@@PAUEHRegistrationNode@@PAU_CONTEXT@@PAXPBU_s_FuncInfo@@EH1@Z 0041d910 f   LIBCMTD:frame.obj
 0001:0001ce60       ?FindHandlerForForeignException@@YAXPAUEHExceptionRecord@@PAUEHRegistrationNode@@PAU_CONTEXT@@PAXPBU_s_FuncInfo@@HH1@Z 0041de60 f   LIBCMTD:frame.obj
 0001:0001d2a0       ?CatchIt@@YAXPAUEHExceptionRecord@@PAUEHRegistrationNode@@PAU_CONTEXT@@PAXPBU_s_FuncInfo@@PBU_s_HandlerType@@PBU_s_CatchableType@@PBU_s_TryBlockMapEntry@@H1E@Z 0041e2a0 f   LIBCMTD:frame.obj
 0001:0001d360       ?CallCatchBlock@@YAPAXPAUEHExceptionRecord@@PAUEHRegistrationNode@@PAU_CONTEXT@@PBU_s_FuncInfo@@PAXHK@Z 0041e360 f   LIBCMTD:frame.obj
 0001:0001d5f0       ?ExFilterRethrow@@YAHPAU_EXCEPTION_POINTERS@@@Z 0041e5f0 f   LIBCMTD:frame.obj
 0001:0001e260       ?IsInExceptionSpec@@YAEPAUEHExceptionRecord@@PBU_s_ESTypeList@@@Z 0041f260 f   LIBCMTD:frame.obj
 0001:0001e320       ?CallUnexpected@@YAXPBU_s_ESTypeList@@@Z 0041f320 f   LIBCMTD:frame.obj
 0001:0001e36e       __catch$?CallUnexpected@@YAXPBU_s_ESTypeList@@@Z$0 0041f36e f   LIBCMTD:frame.obj
 0001:0001e3b0       ?Is_bad_exception_allowed@@YAEPBU_s_ESTypeList@@@Z 0041f3b0 f   LIBCMTD:frame.obj
 0001:0001f120       _doexit                    00420120 f   LIBCMTD:crt0dat.obj
 0001:0001f410       __initterm                 00420410 f   LIBCMTD:crt0dat.obj
 0001:000203b0       ?getSystemCP@@YAHH@Z       004213b0 f   LIBCMTD:mbctype.obj
 0001:00020810       ?CPtoLCID@@YAHH@Z          00421810 f   LIBCMTD:mbctype.obj
 0001:00020890       ?setSBCS@@YAXPAUthreadmbcinfostruct@@@Z 00421890 f   LIBCMTD:mbctype.obj
 0001:00020970       ?setSBUpLow@@YAXPAUthreadmbcinfostruct@@@Z 00421970 f   LIBCMTD:mbctype.obj
 0001:000218e0       __copytlocinfo_nolock      004228e0 f   LIBCMTD:setlocal.obj
 0001:00021ce0       _sync_legacy_variables_lk  00422ce0 f   LIBCMTD:setlocal.obj
 0001:00021d20       __setlocale_nolock         00422d20 f   LIBCMTD:setlocal.obj
 0001:00022110       __setlocale_set_cat        00423110 f   LIBCMTD:setlocal.obj
 0001:00022640       __setlocale_get_all        00423640 f   LIBCMTD:setlocal.obj
 0001:00024e30       _ctrlevent_capture@4       00425e30 f   LIBCMTD:winsig.obj
 0001:00025230       _siglookup                 00426230 f   LIBCMTD:winsig.obj
 0001:00026230       _xcptlookup                00427230 f   LIBCMTD:winxfltr.obj
 0001:00026630       _parse_cmdline             00427630 f   LIBCMTD:stdargv.obj
 0001:00026e50       ?GetPdbDll@@YAPAUHINSTANCE__@@XZ 00427e50 f   LIBCMTD:_pdblkup_.obj
 0001:00026f40       ?GetPdbDllFromInstallPath@@YAPAUHINSTANCE__@@XZ 00427f40 f   LIBCMTD:_pdblkup_.obj
 0001:00027100       ?GetPdbDllPathFromFilePath@@YAHPB_WPA_WI@Z 00428100 f   LIBCMTD:_pdblkup_.obj
 0001:00029400       _write_char                0042a400 f   LIBCMTD:output.obj
 0001:000294b0       _write_multi_char          0042a4b0 f   LIBCMTD:output.obj
 0001:000294f0       _write_string              0042a4f0 f   LIBCMTD:output.obj
 0001:0002a350       __is_LFH_enabled           0042b350 f   LIBCMTD:expand.obj
 0001:0002c2c0       _write_char                0042d2c0 f   LIBCMTD:outputs.obj
 0001:0002c370       _write_multi_char          0042d370 f   LIBCMTD:outputs.obj
 0001:0002c3b0       _write_string              0042d3b0 f   LIBCMTD:outputs.obj
 0001:00030140       _write_char                00431140 f   LIBCMTD:outputp.obj
 0001:000301f0       _write_multi_char          004311f0 f   LIBCMTD:outputp.obj
 0001:00030230       _write_string              00431230 f   LIBCMTD:outputp.obj
 0001:00030320       ?wcstoxl@@YAKPB_WPAPB_WHH@Z 00431320 f   LIBCMTD:wcstol.obj
 0001:00031860       __tsopen_nolock            00432860 f   LIBCMTD:wopen.obj
 0001:00032d90       __unwind_handler           00433d90 f   LIBCMTD:exsup.obj
 0001:0003c8c0       ?und_strlen@@YAIPBD@Z      0043d8c0 f   LIBCMTD:undname.obj
 0001:0003c900       ?und_memcpy@@YAXPADPBDI@Z  0043d900 f   LIBCMTD:undname.obj
 0001:0003c940       ?und_strncmp@@YAIPBD0I@Z   0043d940 f   LIBCMTD:undname.obj
 0001:0003cae0       ?__crtLCMapStringA_stat@@YAHPAUlocaleinfo_struct@@KKPBDHPADHHH@Z 0043dae0 f   LIBCMTD:a_map.obj
 0001:0003ce10       ?strncnt@@YAHPBDH@Z        0043de10 f   LIBCMTD:a_map.obj
 0001:0003cec0       ?__crtGetStringTypeA_stat@@YAHPAUlocaleinfo_struct@@KPBDHPAGHHH@Z 0043dec0 f   LIBCMTD:a_str.obj
 0001:0003d0c0       __get_lc_time              0043e0c0 f   LIBCMTD:inittime.obj
 0001:0003e6a0       _fix_grouping              0043f6a0 f   LIBCMTD:initnum.obj
 0001:0003ed40       _fix_grouping              0043fd40 f   LIBCMTD:initmon.obj
 0001:0003ff10       _cmpBYTE                   00440f10 f   LIBCMTD:memcmp.obj
 0001:0003ff40       _cmpResult                 00440f40 f   LIBCMTD:memcmp.obj
 0001:0003ff60       _unaligned_memcmp          00440f60 f   LIBCMTD:memcmp.obj
 0001:00040670       _cmpWORD                   00441670 f   LIBCMTD:memcmp.obj
 0001:000406f0       _cmpDWORD                  004416f0 f   LIBCMTD:memcmp.obj
 0001:00040e50       _TranslateName             00441e50 f   LIBCMTD:getqloc.obj
 0001:00040ee0       _GetLcidFromLangCountry    00441ee0 f   LIBCMTD:getqloc.obj
 0001:00040fb0       _LangCountryEnumProc@4     00441fb0 f   LIBCMTD:getqloc.obj
 0001:000413f0       _GetLcidFromLanguage       004423f0 f   LIBCMTD:getqloc.obj
 0001:00041470       _LanguageEnumProc@4        00442470 f   LIBCMTD:getqloc.obj
 0001:00041610       _GetLcidFromCountry        00442610 f   LIBCMTD:getqloc.obj
 0001:00041660       _CountryEnumProc@4         00442660 f   LIBCMTD:getqloc.obj
 0001:00041760       _GetLcidFromDefault        00442760 f   LIBCMTD:getqloc.obj
 0001:000417a0       _ProcessCodePage           004427a0 f   LIBCMTD:getqloc.obj
 0001:00041850       _TestDefaultCountry        00442850 f   LIBCMTD:getqloc.obj
 0001:000418a0       _TestDefaultLanguage       004428a0 f   LIBCMTD:getqloc.obj
 0001:00041920       _LcidFromHexString         00442920 f   LIBCMTD:getqloc.obj
 0001:000419a0       _GetPrimaryLen             004429a0 f   LIBCMTD:getqloc.obj
 0001:00042330       ?__crtGetLocaleInfoA_stat@@YAHPAUlocaleinfo_struct@@KKPADH@Z 00443330 f   LIBCMTD:a_loc.obj
 0001:000435b0       _xtoa_s@20                 004445b0 f   LIBCMTD:xtoas.obj
 0001:000439d0       @x64toa_s@24               004449d0 f   LIBCMTD:xtoas.obj
 0001:00044280       ?wcsncnt@@YAIPB_WI@Z       00445280 f   LIBCMTD:wcstombs.obj
 0001:000446e0       _xtow_s@20                 004456e0 f   LIBCMTD:xtows.obj
 0001:00044b10       @x64tow_s@24               00445b10 f   LIBCMTD:xtows.obj
 0001:00045210       ?x_ismbbtype_l@@YAHPAUlocaleinfo_struct@@IHH@Z 00446210 f   LIBCMTD:ismbbyte.obj
 0001:00046b30       ?strtoxl@@YAKPAUlocaleinfo_struct@@PBDPAPBDHH@Z 00447b30 f   LIBCMTD:strtol.obj
 0001:00049a50       ?strtoxq@@YA_KPAUlocaleinfo_struct@@PBDPAPBDHH@Z 0044aa50 f   LIBCMTD:strtoq.obj
 0001:0004a4f0       __unwindfunclet$?DbgPrint@@YAHPB_WZZ$0 0044b4f0 f   debug.obj
 0001:0004a4f8       __ehhandler$?DbgPrint@@YAHPB_WZZ 0044b4f8 f   debug.obj
 0001:0004a520       __unwindfunclet$?Notify@MainFrame@@MAEXAAUtagTNotifyUI@DuiLib@@@Z$0 0044b520 f   main_frame.obj
 0001:0004a535       __unwindfunclet$?Notify@MainFrame@@MAEXAAUtagTNotifyUI@DuiLib@@@Z$1 0044b535 f   main_frame.obj
 0001:0004a54a       __unwindfunclet$?Notify@MainFrame@@MAEXAAUtagTNotifyUI@DuiLib@@@Z$2 0044b54a f   main_frame.obj
 0001:0004a55f       __unwindfunclet$?Notify@MainFrame@@MAEXAAUtagTNotifyUI@DuiLib@@@Z$3 0044b55f f   main_frame.obj
 0001:0004a574       __unwindfunclet$?Notify@MainFrame@@MAEXAAUtagTNotifyUI@DuiLib@@@Z$4 0044b574 f   main_frame.obj
 0001:0004a589       __unwindfunclet$?Notify@MainFrame@@MAEXAAUtagTNotifyUI@DuiLib@@@Z$5 0044b589 f   main_frame.obj
 0001:0004a597       __ehhandler$?Notify@MainFrame@@MAEXAAUtagTNotifyUI@DuiLib@@@Z 0044b597 f   main_frame.obj
 0001:0004a5c0       __unwindfunclet$??0CMenuUI@DuiLib@@QAE@XZ$0 0044b5c0 f   UIMenu.obj
 0001:0004a5d2       __ehhandler$??0CMenuUI@DuiLib@@QAE@XZ 0044b5d2 f   UIMenu.obj
 0001:0004a5ed       __unwindfunclet$??0CMenuWnd@DuiLib@@QAE@PAUHWND__@@@Z$0 0044b5ed f   UIMenu.obj
 0001:0004a5f8       __unwindfunclet$??0CMenuWnd@DuiLib@@QAE@PAUHWND__@@@Z$1 0044b5f8 f   UIMenu.obj
 0001:0004a60d       __ehhandler$??0CMenuWnd@DuiLib@@QAE@PAUHWND__@@@Z 0044b60d f   UIMenu.obj
 0001:0004a628       __unwindfunclet$?HandleMessage@CMenuWnd@DuiLib@@UAEJIIJ@Z$0 0044b628 f   UIMenu.obj
 0001:0004a636       __unwindfunclet$?HandleMessage@CMenuWnd@DuiLib@@UAEJIIJ@Z$1 0044b636 f   UIMenu.obj
 0001:0004a64b       __ehhandler$?HandleMessage@CMenuWnd@DuiLib@@UAEJIIJ@Z 0044b64b f   UIMenu.obj
 0001:0004a673       __unwindfunclet$??0CMenuElementUI@DuiLib@@QAE@XZ$0 0044b673 f   UIMenu.obj
 0001:0004a685       __ehhandler$??0CMenuElementUI@DuiLib@@QAE@XZ 0044b685 f   UIMenu.obj
 0001:0004a6a0       __unwindfunclet$?CreateMenuWnd@CMenuElementUI@DuiLib@@QAEXXZ$0 0044b6a0 f   UIMenu.obj
 0001:0004a6ab       __ehhandler$?CreateMenuWnd@CMenuElementUI@DuiLib@@QAEXXZ 0044b6ab f   UIMenu.obj
 0001:0004a6d0       __unwindfunclet$?CreateControl@CMenuBuilderCallback@DuiLib@@EAEPAVCControlUI@2@PB_W@Z$0 0044b6d0 f   UIMenu.obj
 0001:0004a6db       __unwindfunclet$?CreateControl@CMenuBuilderCallback@DuiLib@@EAEPAVCControlUI@2@PB_W@Z$1 0044b6db f   UIMenu.obj
 0001:0004a6e6       __ehhandler$?CreateControl@CMenuBuilderCallback@DuiLib@@EAEPAVCControlUI@2@PB_W@Z 0044b6e6 f   UIMenu.obj
 0001:0004a710       __unwindfunclet$?RBroadcast@?$ObserverImpl@HUContextMenuParam@DuiLib@@@@UAEHUContextMenuParam@DuiLib@@@Z$0 0044b710 f   UIMenu.obj
 0001:0004a718       __unwindfunclet$?RBroadcast@?$ObserverImpl@HUContextMenuParam@DuiLib@@@@UAEHUContextMenuParam@DuiLib@@@Z$1 0044b718 f   UIMenu.obj
 0001:0004a720       __ehhandler$?RBroadcast@?$ObserverImpl@HUContextMenuParam@DuiLib@@@@UAEHUContextMenuParam@DuiLib@@@Z 0044b720 f   UIMenu.obj
 0001:0004a740       __unwindfunclet$?RemoveObserver@?$ReceiverImpl@HUContextMenuParam@DuiLib@@@@UAEXXZ$0 0044b740 f   UIMenu.obj
 0001:0004a748       __unwindfunclet$?RemoveObserver@?$ReceiverImpl@HUContextMenuParam@DuiLib@@@@UAEXXZ$1 0044b748 f   UIMenu.obj
 0001:0004a750       __ehhandler$?RemoveObserver@?$ReceiverImpl@HUContextMenuParam@DuiLib@@@@UAEXXZ 0044b750 f   UIMenu.obj
 0001:0004a770       __unwindfunclet$??1_Iterator_base12@std@@QAE@XZ$0 0044b770 f   UIMenu.obj
 0001:0004a778       __ehhandler$??1_Iterator_base12@std@@QAE@XZ 0044b778 f   UIMenu.obj
 0001:0004a7a0       __unwindfunclet$?rbegin@?$vector@PAV?$ReceiverImplBase@HUContextMenuParam@DuiLib@@@@V?$allocator@PAV?$ReceiverImplBase@HUContextMenuParam@DuiLib@@@@@std@@@std@@QAE?AV?$reverse_iterator@V?$_Vector_iterator@V?$_Vector_val@PAV?$ReceiverImplBase@HUContextMenuParam@DuiLib@@@@V?$allocator@PAV?$ReceiverImplBase@HUContextMenuParam@DuiLib@@@@@std@@@std@@@std@@@2@XZ$1 0044b7a0 f   UIMenu.obj
 0001:0004a7a8       __unwindfunclet$?rbegin@?$vector@PAV?$ReceiverImplBase@HUContextMenuParam@DuiLib@@@@V?$allocator@PAV?$ReceiverImplBase@HUContextMenuParam@DuiLib@@@@@std@@@std@@QAE?AV?$reverse_iterator@V?$_Vector_iterator@V?$_Vector_val@PAV?$ReceiverImplBase@HUContextMenuParam@DuiLib@@@@V?$allocator@PAV?$ReceiverImplBase@HUContextMenuParam@DuiLib@@@@@std@@@std@@@std@@@2@XZ$2 0044b7a8 f   UIMenu.obj
 0001:0004a7c1       __ehhandler$?rbegin@?$vector@PAV?$ReceiverImplBase@HUContextMenuParam@DuiLib@@@@V?$allocator@PAV?$ReceiverImplBase@HUContextMenuParam@DuiLib@@@@@std@@@std@@QAE?AV?$reverse_iterator@V?$_Vector_iterator@V?$_Vector_val@PAV?$ReceiverImplBase@HUContextMenuParam@DuiLib@@@@V?$allocator@PAV?$ReceiverImplBase@HUContextMenuParam@DuiLib@@@@@std@@@std@@@std@@@2@XZ 0044b7c1 f   UIMenu.obj
 0001:0004a7e0       __unwindfunclet$?rend@?$vector@PAV?$ReceiverImplBase@HUContextMenuParam@DuiLib@@@@V?$allocator@PAV?$ReceiverImplBase@HUContextMenuParam@DuiLib@@@@@std@@@std@@QAE?AV?$reverse_iterator@V?$_Vector_iterator@V?$_Vector_val@PAV?$ReceiverImplBase@HUContextMenuParam@DuiLib@@@@V?$allocator@PAV?$ReceiverImplBase@HUContextMenuParam@DuiLib@@@@@std@@@std@@@std@@@2@XZ$1 0044b7e0 f   UIMenu.obj
 0001:0004a7e8       __unwindfunclet$?rend@?$vector@PAV?$ReceiverImplBase@HUContextMenuParam@DuiLib@@@@V?$allocator@PAV?$ReceiverImplBase@HUContextMenuParam@DuiLib@@@@@std@@@std@@QAE?AV?$reverse_iterator@V?$_Vector_iterator@V?$_Vector_val@PAV?$ReceiverImplBase@HUContextMenuParam@DuiLib@@@@V?$allocator@PAV?$ReceiverImplBase@HUContextMenuParam@DuiLib@@@@@std@@@std@@@std@@@2@XZ$2 0044b7e8 f   UIMenu.obj
 0001:0004a801       __ehhandler$?rend@?$vector@PAV?$ReceiverImplBase@HUContextMenuParam@DuiLib@@@@V?$allocator@PAV?$ReceiverImplBase@HUContextMenuParam@DuiLib@@@@@std@@@std@@QAE?AV?$reverse_iterator@V?$_Vector_iterator@V?$_Vector_val@PAV?$ReceiverImplBase@HUContextMenuParam@DuiLib@@@@V?$allocator@PAV?$ReceiverImplBase@HUContextMenuParam@DuiLib@@@@@std@@@std@@@std@@@2@XZ 0044b801 f   UIMenu.obj
 0001:0004a820       __unwindfunclet$??1?$vector@PAV?$ObserverImplBase@HUContextMenuParam@DuiLib@@@@V?$allocator@PAV?$ObserverImplBase@HUContextMenuParam@DuiLib@@@@@std@@@std@@QAE@XZ$0 0044b820 f   UIMenu.obj
 0001:0004a828       __ehhandler$??1?$vector@PAV?$ObserverImplBase@HUContextMenuParam@DuiLib@@@@V?$allocator@PAV?$ObserverImplBase@HUContextMenuParam@DuiLib@@@@@std@@@std@@QAE@XZ 0044b828 f   UIMenu.obj
 0001:0004a850       __unwindfunclet$??D?$_Revranit@V?$_Vector_iterator@V?$_Vector_val@PAV?$ReceiverImplBase@HUContextMenuParam@DuiLib@@@@V?$allocator@PAV?$ReceiverImplBase@HUContextMenuParam@DuiLib@@@@@std@@@std@@@std@@U?$iterator@Urandom_access_iterator_tag@std@@PAV?$ReceiverImplBase@HUContextMenuParam@DuiLib@@@@HPAPAV3@AAPAV3@@2@@std@@QBEAAPAV?$ReceiverImplBase@HUContextMenuParam@DuiLib@@@@XZ$0 0044b850 f   UIMenu.obj
 0001:0004a858       __ehhandler$??D?$_Revranit@V?$_Vector_iterator@V?$_Vector_val@PAV?$ReceiverImplBase@HUContextMenuParam@DuiLib@@@@V?$allocator@PAV?$ReceiverImplBase@HUContextMenuParam@DuiLib@@@@@std@@@std@@@std@@U?$iterator@Urandom_access_iterator_tag@std@@PAV?$ReceiverImplBase@HUContextMenuParam@DuiLib@@@@HPAPAV3@AAPAV3@@2@@std@@QBEAAPAV?$ReceiverImplBase@HUContextMenuParam@DuiLib@@@@XZ 0044b858 f   UIMenu.obj
 0001:0004a880       __unwindfunclet$?_Adopt@_Iterator_base12@std@@QAEXPBU_Container_base12@2@@Z$0 0044b880 f   UIMenu.obj
 0001:0004a888       __ehhandler$?_Adopt@_Iterator_base12@std@@QAEXPBU_Container_base12@2@@Z 0044b888 f   UIMenu.obj
 0001:0004a8b0       __unwindfunclet$?_Orphan_range@?$vector@PAV?$ReceiverImplBase@HUContextMenuParam@DuiLib@@@@V?$allocator@PAV?$ReceiverImplBase@HUContextMenuParam@DuiLib@@@@@std@@@std@@IBEXPAPAV?$ReceiverImplBase@HUContextMenuParam@DuiLib@@@@0@Z$0 0044b8b0 f   UIMenu.obj
 0001:0004a8b8       __ehhandler$?_Orphan_range@?$vector@PAV?$ReceiverImplBase@HUContextMenuParam@DuiLib@@@@V?$allocator@PAV?$ReceiverImplBase@HUContextMenuParam@DuiLib@@@@@std@@@std@@IBEXPAPAV?$ReceiverImplBase@HUContextMenuParam@DuiLib@@@@0@Z 0044b8b8 f   UIMenu.obj
 0001:0004a8e0       __unwindfunclet$?_Orphan_range@?$vector@PAV?$ObserverImplBase@HUContextMenuParam@DuiLib@@@@V?$allocator@PAV?$ObserverImplBase@HUContextMenuParam@DuiLib@@@@@std@@@std@@IBEXPAPAV?$ObserverImplBase@HUContextMenuParam@DuiLib@@@@0@Z$0 0044b8e0 f   UIMenu.obj
 0001:0004a8e8       __ehhandler$?_Orphan_range@?$vector@PAV?$ObserverImplBase@HUContextMenuParam@DuiLib@@@@V?$allocator@PAV?$ObserverImplBase@HUContextMenuParam@DuiLib@@@@@std@@@std@@IBEXPAPAV?$ObserverImplBase@HUContextMenuParam@DuiLib@@@@0@Z 0044b8e8 f   UIMenu.obj
 0001:0004a910       __unwindfunclet$??0?$_Vector_val@PAV?$ObserverImplBase@HUContextMenuParam@DuiLib@@@@V?$allocator@PAV?$ObserverImplBase@HUContextMenuParam@DuiLib@@@@@std@@@std@@QAE@V?$allocator@PAV?$ObserverImplBase@HUContextMenuParam@DuiLib@@@@@1@@Z$0 0044b910 f   UIMenu.obj
 0001:0004a918       __ehhandler$??0?$_Vector_val@PAV?$ObserverImplBase@HUContextMenuParam@DuiLib@@@@V?$allocator@PAV?$ObserverImplBase@HUContextMenuParam@DuiLib@@@@@std@@@std@@QAE@V?$allocator@PAV?$ObserverImplBase@HUContextMenuParam@DuiLib@@@@@1@@Z 0044b918 f   UIMenu.obj
 0001:0004a940       __unwindfunclet$??1?$_Vector_val@PAV?$ObserverImplBase@HUContextMenuParam@DuiLib@@@@V?$allocator@PAV?$ObserverImplBase@HUContextMenuParam@DuiLib@@@@@std@@@std@@QAE@XZ$0 0044b940 f   UIMenu.obj
 0001:0004a948       __ehhandler$??1?$_Vector_val@PAV?$ObserverImplBase@HUContextMenuParam@DuiLib@@@@V?$allocator@PAV?$ObserverImplBase@HUContextMenuParam@DuiLib@@@@@std@@@std@@QAE@XZ 0044b948 f   UIMenu.obj
 0001:0004a970       __unwindfunclet$??0?$reverse_iterator@V?$_Vector_iterator@V?$_Vector_val@PAV?$ReceiverImplBase@HUContextMenuParam@DuiLib@@@@V?$allocator@PAV?$ReceiverImplBase@HUContextMenuParam@DuiLib@@@@@std@@@std@@@std@@@std@@QAE@V?$_Vector_iterator@V?$_Vector_val@PAV?$ReceiverImplBase@HUContextMenuParam@DuiLib@@@@V?$allocator@PAV?$ReceiverImplBase@HUContextMenuParam@DuiLib@@@@@std@@@std@@@1@@Z$0 0044b970 f   UIMenu.obj
 0001:0004a978       __ehhandler$??0?$reverse_iterator@V?$_Vector_iterator@V?$_Vector_val@PAV?$ReceiverImplBase@HUContextMenuParam@DuiLib@@@@V?$allocator@PAV?$ReceiverImplBase@HUContextMenuParam@DuiLib@@@@@std@@@std@@@std@@@std@@QAE@V?$_Vector_iterator@V?$_Vector_val@PAV?$ReceiverImplBase@HUContextMenuParam@DuiLib@@@@V?$allocator@PAV?$ReceiverImplBase@HUContextMenuParam@DuiLib@@@@@std@@@std@@@1@@Z 0044b978 f   UIMenu.obj
 0001:0004a9a0       __ehhandler$?reserve@?$vector@PAV?$ReceiverImplBase@HUContextMenuParam@DuiLib@@@@V?$allocator@PAV?$ReceiverImplBase@HUContextMenuParam@DuiLib@@@@@std@@@std@@QAEXI@Z 0044b9a0 f   UIMenu.obj
 0001:0004a9c0       __ehhandler$?reserve@?$vector@PAV?$ObserverImplBase@HUContextMenuParam@DuiLib@@@@V?$allocator@PAV?$ObserverImplBase@HUContextMenuParam@DuiLib@@@@@std@@@std@@QAEXI@Z 0044b9c0 f   UIMenu.obj
 0001:0004a9e0       __unwindfunclet$??0?$_Vector_const_iterator@V?$_Vector_val@PAV?$ReceiverImplBase@HUContextMenuParam@DuiLib@@@@V?$allocator@PAV?$ReceiverImplBase@HUContextMenuParam@DuiLib@@@@@std@@@std@@@std@@QAE@PAPAV?$ReceiverImplBase@HUContextMenuParam@DuiLib@@@@PBU_Container_base12@1@@Z$0 0044b9e0 f   UIMenu.obj
 0001:0004a9e8       __ehhandler$??0?$_Vector_const_iterator@V?$_Vector_val@PAV?$ReceiverImplBase@HUContextMenuParam@DuiLib@@@@V?$allocator@PAV?$ReceiverImplBase@HUContextMenuParam@DuiLib@@@@@std@@@std@@@std@@QAE@PAPAV?$ReceiverImplBase@HUContextMenuParam@DuiLib@@@@PBU_Container_base12@1@@Z 0044b9e8 f   UIMenu.obj
 0001:0004aa10       __unwindfunclet$??0?$_Revranit@V?$_Vector_iterator@V?$_Vector_val@PAV?$ReceiverImplBase@HUContextMenuParam@DuiLib@@@@V?$allocator@PAV?$ReceiverImplBase@HUContextMenuParam@DuiLib@@@@@std@@@std@@@std@@U?$iterator@Urandom_access_iterator_tag@std@@PAV?$ReceiverImplBase@HUContextMenuParam@DuiLib@@@@HPAPAV3@AAPAV3@@2@@std@@QAE@V?$_Vector_iterator@V?$_Vector_val@PAV?$ReceiverImplBase@HUContextMenuParam@DuiLib@@@@V?$allocator@PAV?$ReceiverImplBase@HUContextMenuParam@DuiLib@@@@@std@@@std@@@1@@Z$0 0044ba10 f   UIMenu.obj
 0001:0004aa18       __ehhandler$??0?$_Revranit@V?$_Vector_iterator@V?$_Vector_val@PAV?$ReceiverImplBase@HUContextMenuParam@DuiLib@@@@V?$allocator@PAV?$ReceiverImplBase@HUContextMenuParam@DuiLib@@@@@std@@@std@@@std@@U?$iterator@Urandom_access_iterator_tag@std@@PAV?$ReceiverImplBase@HUContextMenuParam@DuiLib@@@@HPAPAV3@AAPAV3@@2@@std@@QAE@V?$_Vector_iterator@V?$_Vector_val@PAV?$ReceiverImplBase@HUContextMenuParam@DuiLib@@@@V?$allocator@PAV?$ReceiverImplBase@HUContextMenuParam@DuiLib@@@@@std@@@std@@@1@@Z 0044ba18 f   UIMenu.obj
 0001:0004aa40       __unwindfunclet$??0?$_Vector_const_iterator@V?$_Vector_val@PAV?$ObserverImplBase@HUContextMenuParam@DuiLib@@@@V?$allocator@PAV?$ObserverImplBase@HUContextMenuParam@DuiLib@@@@@std@@@std@@@std@@QAE@PAPAV?$ObserverImplBase@HUContextMenuParam@DuiLib@@@@PBU_Container_base12@1@@Z$0 0044ba40 f   UIMenu.obj
 0001:0004aa48       __ehhandler$??0?$_Vector_const_iterator@V?$_Vector_val@PAV?$ObserverImplBase@HUContextMenuParam@DuiLib@@@@V?$allocator@PAV?$ObserverImplBase@HUContextMenuParam@DuiLib@@@@@std@@@std@@@std@@QAE@PAPAV?$ObserverImplBase@HUContextMenuParam@DuiLib@@@@PBU_Container_base12@1@@Z 0044ba48 f   UIMenu.obj
 0001:0004aa70       __unwindfunclet$?construct@?$allocator@U_Container_proxy@std@@@std@@QAEXPAU_Container_proxy@2@$$QAU32@@Z$0 0044ba70 f   UIMenu.obj
 0001:0004aa81       __ehhandler$?construct@?$allocator@U_Container_proxy@std@@@std@@QAEXPAU_Container_proxy@2@$$QAU32@@Z 0044ba81 f   UIMenu.obj
 0001:0004aaa0       __unwindfunclet$??$construct@AAPAV?$ReceiverImplBase@HUContextMenuParam@DuiLib@@@@@?$allocator@PAV?$ReceiverImplBase@HUContextMenuParam@DuiLib@@@@@std@@QAEXPAPAV?$ReceiverImplBase@HUContextMenuParam@DuiLib@@@@AAPAV2@@Z$0 0044baa0 f   UIMenu.obj
 0001:0004aab1       __ehhandler$??$construct@AAPAV?$ReceiverImplBase@HUContextMenuParam@DuiLib@@@@@?$allocator@PAV?$ReceiverImplBase@HUContextMenuParam@DuiLib@@@@@std@@QAEXPAPAV?$ReceiverImplBase@HUContextMenuParam@DuiLib@@@@AAPAV2@@Z 0044bab1 f   UIMenu.obj
 0001:0004aad0       __unwindfunclet$??$construct@AAPAV?$ObserverImplBase@HUContextMenuParam@DuiLib@@@@@?$allocator@PAV?$ObserverImplBase@HUContextMenuParam@DuiLib@@@@@std@@QAEXPAPAV?$ObserverImplBase@HUContextMenuParam@DuiLib@@@@AAPAV2@@Z$0 0044bad0 f   UIMenu.obj
 0001:0004aae1       __ehhandler$??$construct@AAPAV?$ObserverImplBase@HUContextMenuParam@DuiLib@@@@@?$allocator@PAV?$ObserverImplBase@HUContextMenuParam@DuiLib@@@@@std@@QAEXPAPAV?$ObserverImplBase@HUContextMenuParam@DuiLib@@@@AAPAV2@@Z 0044bae1 f   UIMenu.obj
 0001:0004ab00       __unwindfunclet$??$_Construct@PAV?$ReceiverImplBase@HUContextMenuParam@DuiLib@@@@ABQAV1@@std@@YAXPAPAV?$ReceiverImplBase@HUContextMenuParam@DuiLib@@@@ABQAV1@@Z$0 0044bb00 f   UIMenu.obj
 0001:0004ab11       __ehhandler$??$_Construct@PAV?$ReceiverImplBase@HUContextMenuParam@DuiLib@@@@ABQAV1@@std@@YAXPAPAV?$ReceiverImplBase@HUContextMenuParam@DuiLib@@@@ABQAV1@@Z 0044bb11 f   UIMenu.obj
 0001:0004ab30       __unwindfunclet$??$_Construct@PAV?$ObserverImplBase@HUContextMenuParam@DuiLib@@@@ABQAV1@@std@@YAXPAPAV?$ObserverImplBase@HUContextMenuParam@DuiLib@@@@ABQAV1@@Z$0 0044bb30 f   UIMenu.obj
 0001:0004ab41       __ehhandler$??$_Construct@PAV?$ObserverImplBase@HUContextMenuParam@DuiLib@@@@ABQAV1@@std@@YAXPAPAV?$ObserverImplBase@HUContextMenuParam@DuiLib@@@@ABQAV1@@Z 0044bb41 f   UIMenu.obj
 0001:0004ab60       __unwindfunclet$??$_Equal@V?$_Vector_iterator@V?$_Vector_val@PAV?$ReceiverImplBase@HUContextMenuParam@DuiLib@@@@V?$allocator@PAV?$ReceiverImplBase@HUContextMenuParam@DuiLib@@@@@std@@@std@@@std@@U?$iterator@Urandom_access_iterator_tag@std@@PAV?$ReceiverImplBase@HUContextMenuParam@DuiLib@@@@HPAPAV3@AAPAV3@@2@@?$_Revranit@V?$_Vector_iterator@V?$_Vector_val@PAV?$ReceiverImplBase@HUContextMenuParam@DuiLib@@@@V?$allocator@PAV?$ReceiverImplBase@HUContextMenuParam@DuiLib@@@@@std@@@std@@@std@@U?$iterator@Urandom_access_iterator_tag@std@@PAV?$ReceiverImplBase@HUContextMenuParam@DuiLib@@@@HPAPAV3@AAPAV3@@2@@std@@QBE_NABV01@@Z$0 0044bb60 f   UIMenu.obj
 0001:0004ab68       __ehhandler$??$_Equal@V?$_Vector_iterator@V?$_Vector_val@PAV?$ReceiverImplBase@HUContextMenuParam@DuiLib@@@@V?$allocator@PAV?$ReceiverImplBase@HUContextMenuParam@DuiLib@@@@@std@@@std@@@std@@U?$iterator@Urandom_access_iterator_tag@std@@PAV?$ReceiverImplBase@HUContextMenuParam@DuiLib@@@@HPAPAV3@AAPAV3@@2@@?$_Revranit@V?$_Vector_iterator@V?$_Vector_val@PAV?$ReceiverImplBase@HUContextMenuParam@DuiLib@@@@V?$allocator@PAV?$ReceiverImplBase@HUContextMenuParam@DuiLib@@@@@std@@@std@@@std@@U?$iterator@Urandom_access_iterator_tag@std@@PAV?$ReceiverImplBase@HUContextMenuParam@DuiLib@@@@HPAPAV3@AAPAV3@@2@@std@@QBE_NABV01@@Z 0044bb68 f   UIMenu.obj
 0001:0004ab90       __unwindfunclet$??1CMenuWnd@DuiLib@@UAE@XZ$0 0044bb90 f   UIMenu.obj
 0001:0004ab9b       __unwindfunclet$??1CMenuWnd@DuiLib@@UAE@XZ$1 0044bb9b f   UIMenu.obj
 0001:0004abb0       __ehhandler$??1CMenuWnd@DuiLib@@UAE@XZ 0044bbb0 f   UIMenu.obj
 0001:0004abd0       __unwindfunclet$?RemoveReceiver@?$ObserverImpl@HUContextMenuParam@DuiLib@@@@UAEXPAV?$ReceiverImplBase@HUContextMenuParam@DuiLib@@@@@Z$0 0044bbd0 f   UIMenu.obj
 0001:0004abd8       __unwindfunclet$?RemoveReceiver@?$ObserverImpl@HUContextMenuParam@DuiLib@@@@UAEXPAV?$ReceiverImplBase@HUContextMenuParam@DuiLib@@@@@Z$1 0044bbd8 f   UIMenu.obj
 0001:0004abe0       __ehhandler$?RemoveReceiver@?$ObserverImpl@HUContextMenuParam@DuiLib@@@@UAEXPAV?$ReceiverImplBase@HUContextMenuParam@DuiLib@@@@@Z 0044bbe0 f   UIMenu.obj
 0001:0004ac00       __unwindfunclet$?Broadcast@?$ObserverImpl@HUContextMenuParam@DuiLib@@@@UAEHUContextMenuParam@DuiLib@@@Z$0 0044bc00 f   UIMenu.obj
 0001:0004ac08       __unwindfunclet$?Broadcast@?$ObserverImpl@HUContextMenuParam@DuiLib@@@@UAEHUContextMenuParam@DuiLib@@@Z$1 0044bc08 f   UIMenu.obj
 0001:0004ac10       __ehhandler$?Broadcast@?$ObserverImpl@HUContextMenuParam@DuiLib@@@@UAEHUContextMenuParam@DuiLib@@@Z 0044bc10 f   UIMenu.obj
 0001:0004ac30       __unwindfunclet$?Notify@?$ObserverImpl@HUContextMenuParam@DuiLib@@@@UAEHUContextMenuParam@DuiLib@@@Z$0 0044bc30 f   UIMenu.obj
 0001:0004ac38       __unwindfunclet$?Notify@?$ObserverImpl@HUContextMenuParam@DuiLib@@@@UAEHUContextMenuParam@DuiLib@@@Z$1 0044bc38 f   UIMenu.obj
 0001:0004ac40       __ehhandler$?Notify@?$ObserverImpl@HUContextMenuParam@DuiLib@@@@UAEHUContextMenuParam@DuiLib@@@Z 0044bc40 f   UIMenu.obj
 0001:0004ac60       __unwindfunclet$??1?$vector@PAV?$ReceiverImplBase@HUContextMenuParam@DuiLib@@@@V?$allocator@PAV?$ReceiverImplBase@HUContextMenuParam@DuiLib@@@@@std@@@std@@QAE@XZ$0 0044bc60 f   UIMenu.obj
 0001:0004ac68       __ehhandler$??1?$vector@PAV?$ReceiverImplBase@HUContextMenuParam@DuiLib@@@@V?$allocator@PAV?$ReceiverImplBase@HUContextMenuParam@DuiLib@@@@@std@@@std@@QAE@XZ 0044bc68 f   UIMenu.obj
 0001:0004ac90       __unwindfunclet$?erase@?$vector@PAV?$ReceiverImplBase@HUContextMenuParam@DuiLib@@@@V?$allocator@PAV?$ReceiverImplBase@HUContextMenuParam@DuiLib@@@@@std@@@std@@QAE?AV?$_Vector_iterator@V?$_Vector_val@PAV?$ReceiverImplBase@HUContextMenuParam@DuiLib@@@@V?$allocator@PAV?$ReceiverImplBase@HUContextMenuParam@DuiLib@@@@@std@@@std@@@2@V?$_Vector_const_iterator@V?$_Vector_val@PAV?$ReceiverImplBase@HUContextMenuParam@DuiLib@@@@V?$allocator@PAV?$ReceiverImplBase@HUContextMenuParam@DuiLib@@@@@std@@@std@@@2@@Z$0 0044bc90 f   UIMenu.obj
 0001:0004ac98       __unwindfunclet$?erase@?$vector@PAV?$ReceiverImplBase@HUContextMenuParam@DuiLib@@@@V?$allocator@PAV?$ReceiverImplBase@HUContextMenuParam@DuiLib@@@@@std@@@std@@QAE?AV?$_Vector_iterator@V?$_Vector_val@PAV?$ReceiverImplBase@HUContextMenuParam@DuiLib@@@@V?$allocator@PAV?$ReceiverImplBase@HUContextMenuParam@DuiLib@@@@@std@@@std@@@2@V?$_Vector_const_iterator@V?$_Vector_val@PAV?$ReceiverImplBase@HUContextMenuParam@DuiLib@@@@V?$allocator@PAV?$ReceiverImplBase@HUContextMenuParam@DuiLib@@@@@std@@@std@@@2@@Z$2 0044bc98 f   UIMenu.obj
 0001:0004acb1       __ehhandler$?erase@?$vector@PAV?$ReceiverImplBase@HUContextMenuParam@DuiLib@@@@V?$allocator@PAV?$ReceiverImplBase@HUContextMenuParam@DuiLib@@@@@std@@@std@@QAE?AV?$_Vector_iterator@V?$_Vector_val@PAV?$ReceiverImplBase@HUContextMenuParam@DuiLib@@@@V?$allocator@PAV?$ReceiverImplBase@HUContextMenuParam@DuiLib@@@@@std@@@std@@@2@V?$_Vector_const_iterator@V?$_Vector_val@PAV?$ReceiverImplBase@HUContextMenuParam@DuiLib@@@@V?$allocator@PAV?$ReceiverImplBase@HUContextMenuParam@DuiLib@@@@@std@@@std@@@2@@Z 0044bcb1 f   UIMenu.obj
 0001:0004acd0       __unwindfunclet$?_Make_iter@?$vector@PAV?$ReceiverImplBase@HUContextMenuParam@DuiLib@@@@V?$allocator@PAV?$ReceiverImplBase@HUContextMenuParam@DuiLib@@@@@std@@@std@@QBE?AV?$_Vector_iterator@V?$_Vector_val@PAV?$ReceiverImplBase@HUContextMenuParam@DuiLib@@@@V?$allocator@PAV?$ReceiverImplBase@HUContextMenuParam@DuiLib@@@@@std@@@std@@@2@V?$_Vector_const_iterator@V?$_Vector_val@PAV?$ReceiverImplBase@HUContextMenuParam@DuiLib@@@@V?$allocator@PAV?$ReceiverImplBase@HUContextMenuParam@DuiLib@@@@@std@@@std@@@2@@Z$0 0044bcd0 f   UIMenu.obj
 0001:0004acd8       __unwindfunclet$?_Make_iter@?$vector@PAV?$ReceiverImplBase@HUContextMenuParam@DuiLib@@@@V?$allocator@PAV?$ReceiverImplBase@HUContextMenuParam@DuiLib@@@@@std@@@std@@QBE?AV?$_Vector_iterator@V?$_Vector_val@PAV?$ReceiverImplBase@HUContextMenuParam@DuiLib@@@@V?$allocator@PAV?$ReceiverImplBase@HUContextMenuParam@DuiLib@@@@@std@@@std@@@2@V?$_Vector_const_iterator@V?$_Vector_val@PAV?$ReceiverImplBase@HUContextMenuParam@DuiLib@@@@V?$allocator@PAV?$ReceiverImplBase@HUContextMenuParam@DuiLib@@@@@std@@@std@@@2@@Z$1 0044bcd8 f   UIMenu.obj
 0001:0004acf1       __ehhandler$?_Make_iter@?$vector@PAV?$ReceiverImplBase@HUContextMenuParam@DuiLib@@@@V?$allocator@PAV?$ReceiverImplBase@HUContextMenuParam@DuiLib@@@@@std@@@std@@QBE?AV?$_Vector_iterator@V?$_Vector_val@PAV?$ReceiverImplBase@HUContextMenuParam@DuiLib@@@@V?$allocator@PAV?$ReceiverImplBase@HUContextMenuParam@DuiLib@@@@@std@@@std@@@2@V?$_Vector_const_iterator@V?$_Vector_val@PAV?$ReceiverImplBase@HUContextMenuParam@DuiLib@@@@V?$allocator@PAV?$ReceiverImplBase@HUContextMenuParam@DuiLib@@@@@std@@@std@@@2@@Z 0044bcf1 f   UIMenu.obj
 0001:0004ad10       __unwindfunclet$??0?$_Vector_val@PAV?$ReceiverImplBase@HUContextMenuParam@DuiLib@@@@V?$allocator@PAV?$ReceiverImplBase@HUContextMenuParam@DuiLib@@@@@std@@@std@@QAE@V?$allocator@PAV?$ReceiverImplBase@HUContextMenuParam@DuiLib@@@@@1@@Z$0 0044bd10 f   UIMenu.obj
 0001:0004ad18       __ehhandler$??0?$_Vector_val@PAV?$ReceiverImplBase@HUContextMenuParam@DuiLib@@@@V?$allocator@PAV?$ReceiverImplBase@HUContextMenuParam@DuiLib@@@@@std@@@std@@QAE@V?$allocator@PAV?$ReceiverImplBase@HUContextMenuParam@DuiLib@@@@@1@@Z 0044bd18 f   UIMenu.obj
 0001:0004ad40       __unwindfunclet$??1?$_Vector_val@PAV?$ReceiverImplBase@HUContextMenuParam@DuiLib@@@@V?$allocator@PAV?$ReceiverImplBase@HUContextMenuParam@DuiLib@@@@@std@@@std@@QAE@XZ$0 0044bd40 f   UIMenu.obj
 0001:0004ad48       __ehhandler$??1?$_Vector_val@PAV?$ReceiverImplBase@HUContextMenuParam@DuiLib@@@@V?$allocator@PAV?$ReceiverImplBase@HUContextMenuParam@DuiLib@@@@@std@@@std@@QAE@XZ 0044bd48 f   UIMenu.obj
 0001:0004ad70       __ehhandler$?CallUnexpected@@YAXPBU_s_ESTypeList@@@Z 0044bd70 f   LIBCMTD:frame.obj
 0001:0004ad90       __unwindfunclet$?getSystemCP@@YAHH@Z$0 0044bd90 f   LIBCMTD:mbctype.obj
 0001:0004ad98       __ehhandler$?getSystemCP@@YAHH@Z 0044bd98 f   LIBCMTD:mbctype.obj
 0001:0004adc0       __unwindfunclet$?make@DNameStatusNode@@SAPAV1@W4DNameStatus@@@Z$0 0044bdc0 f   LIBCMTD:undname.obj
 0001:0004adce       __ehhandler$?make@DNameStatusNode@@SAPAV1@W4DNameStatus@@@Z 0044bdce f   LIBCMTD:undname.obj
 0001:0004adf0       __unwindfunclet$?x_ismbbtype_l@@YAHPAUlocaleinfo_struct@@IHH@Z$0 0044bdf0 f   LIBCMTD:ismbbyte.obj
 0001:0004adf8       __ehhandler$?x_ismbbtype_l@@YAHPAUlocaleinfo_struct@@IHH@Z 0044bdf8 f   LIBCMTD:ismbbyte.obj
 0001:0004ae20       __unwindfunclet$?strtoxl@@YAKPAUlocaleinfo_struct@@PBDPAPBDHH@Z$0 0044be20 f   LIBCMTD:strtol.obj
 0001:0004ae28       __ehhandler$?strtoxl@@YAKPAUlocaleinfo_struct@@PBDPAPBDHH@Z 0044be28 f   LIBCMTD:strtol.obj
 0001:0004ae50       __unwindfunclet$?strtoxq@@YA_KPAUlocaleinfo_struct@@PBDPAPBDHH@Z$0 0044be50 f   LIBCMTD:strtoq.obj
 0001:0004ae58       __ehhandler$?strtoxq@@YA_KPAUlocaleinfo_struct@@PBDPAPBDHH@Z 0044be58 f   LIBCMTD:strtoq.obj
 0001:0004ae80       ??__Es_mtxEntry@@YAXXZ     0044be80 f   debug.obj
 0001:0004aeb0       ??__Es_context_menu_observer@DuiLib@@YAXXZ 0044beb0 f   UIMenu.obj
 0001:0004aee0       ??__Einitlocks@std@@YAXXZ  0044bee0 f   libcpmtd:xlock.obj
 0001:0004af00       ??__Fs_mtxEntry@@YAXXZ     0044bf00 f   debug.obj
 0001:0004af20       ??__Fs_context_menu_observer@DuiLib@@YAXXZ 0044bf20 f   UIMenu.obj
 0001:0004af40       ??__Finitlocks@std@@YAXXZ  0044bf40 f   libcpmtd:xlock.obj
 0001:0004af60       ??__Fnomem@?5???2@YAPAXI@Z@YAXXZ 0044bf60 f   LIBCMTD:new.obj
