 GameDemo_ud

 Timestamp is 54bcacc4 (Mon Jan 19 15:05:40 2015)

 Preferred load address is 00400000

 Start         Length     Name                   Class
 0001:00000000 0004dbfaH .text                   CODE
 0001:0004dc00 00000923H .text$x                 CODE
 0001:0004e530 0000004eH .text$yc                CODE
 0001:0004e580 00000051H .text$yd                CODE
 0002:00000000 000005d0H .idata$5                DATA
 0002:000005d0 00000004H .CRT$XCA                DATA
 0002:000005d4 00000004H .CRT$XCC                DATA
 0002:000005d8 00000004H .CRT$XCU                DATA
 0002:000005dc 00000004H .CRT$XCZ                DATA
 0002:000005e0 00000004H .CRT$XIA                DATA
 0002:000005e4 00000010H .CRT$XIC                DATA
 0002:000005f4 00000004H .CRT$XIY                DATA
 0002:000005f8 00000004H .CRT$XIZ                DATA
 0002:000005fc 00000004H .CRT$XPA                DATA
 0002:00000600 00000008H .CRT$XPX                DATA
 0002:00000608 00000004H .CRT$XPXA               DATA
 0002:0000060c 00000004H .CRT$XPZ                DATA
 0002:00000610 00000004H .CRT$XTA                DATA
 0002:00000614 00000004H .CRT$XTZ                DATA
 0002:00000620 0000e6f0H .rdata                  DATA
 0002:0000ed10 0000005cH .rdata$debug            DATA
 0002:0000ed6c 00000b34H .rdata$r                DATA
 0002:0000f8a0 000000acH .rdata$sxdata           DATA
 0002:0000f94c 00000004H .rtc$IAA                DATA
 0002:0000f950 0000000cH .rtc$IMZ                DATA
 0002:0000f95c 00000004H .rtc$IZZ                DATA
 0002:0000f960 00000004H .rtc$TAA                DATA
 0002:0000f964 0000000cH .rtc$TMZ                DATA
 0002:0000f970 00000004H .rtc$TZZ                DATA
 0002:0000f978 000012ccH .xdata$x                DATA
 0002:00010c44 00000078H .idata$2                DATA
 0002:00010cbc 00000014H .idata$3                DATA
 0002:00010cd0 000005d0H .idata$4                DATA
 0002:000112a0 000038d4H .idata$6                DATA
 0002:00014b74 00000000H .edata                  DATA
 0003:00000000 00001780H .data                   DATA
 0003:00001780 000025f4H .bss                    DATA

  Address         Publics by Value              Rva+Base       Lib:Object

 0000:00000000       __except_list              00000000     <absolute>
 0000:0000002b       ___safe_se_handler_count   0000002b     <absolute>
 0000:00000000       ___ImageBase               00400000     <linker-defined>
 0001:00000000       _WinMain@16                00401000 f   GameDemo.obj
 0001:00000210       ??0CGameFrameWnd@@QAE@XZ   00401210 f i GameDemo.obj
 0001:00000290       ??0INotifyUI@DuiLib@@QAE@XZ 00401290 f i GameDemo.obj
 0001:000002b0       ?GetWindowClassName@CGameFrameWnd@@UBEPB_WXZ 004012b0 f i GameDemo.obj
 0001:000002d0       ?GetClassStyle@CGameFrameWnd@@UBEIXZ 004012d0 f i GameDemo.obj
 0001:000002f0       ?OnFinalMessage@CGameFrameWnd@@UAEXPAUHWND__@@@Z 004012f0 f i GameDemo.obj
 0001:00000350       ?Notify@CGameFrameWnd@@UAEXAAUtagTNotifyUI@DuiLib@@@Z 00401350 f i GameDemo.obj
 0001:000012d0       ?data@Node@GameListUI@@QAEAAUNodeData@2@XZ 004022d0 f i GameDemo.obj
 0001:000012f0       ?parent@Node@GameListUI@@QAEPAV12@XZ 004022f0 f i GameDemo.obj
 0001:00001310       ?ExpandNode@GameListUI@@QAEXPAVNode@1@_N@Z 00402310 f i GameDemo.obj
 0001:000017b0       ?child@Node@GameListUI@@QAEPAV12@H@Z 004027b0 f i GameDemo.obj
 0001:000017e0       ?has_children@Node@GameListUI@@QBE_NXZ 004027e0 f i GameDemo.obj
 0001:00001810       ?num_children@Node@GameListUI@@QBEHXZ 00402810 f i GameDemo.obj
 0001:00001840       ?get_last_child@Node@GameListUI@@QAEPAV12@XZ 00402840 f i GameDemo.obj
 0001:00001890       ?GetExpanderSizeX@GameListUI@@QBE?AUtagSIZE@@PAVNode@1@@Z 00402890 f i GameDemo.obj
 0001:000019a0       ?OnPrepare@CGameFrameWnd@@QAEXXZ 004029a0 f i GameDemo.obj
 0001:00001d40       ?AddNode@GameListUI@@QAEPAVNode@1@PB_WPAV21@@Z 00402d40 f i GameDemo.obj
 0001:000022c0       ??0Node@GameListUI@@QAE@XZ 004032c0 f i GameDemo.obj
 0001:00002340       ?add_child@Node@GameListUI@@QAEXPAV12@@Z 00403340 f i GameDemo.obj
 0001:00002380       ?set_parent@Node@GameListUI@@AAEXPAV12@@Z 00403380 f i GameDemo.obj
 0001:000023a0       ??0NodeData@GameListUI@@QAE@XZ 004033a0 f i GameDemo.obj
 0001:000023e0       ??_GNode@GameListUI@@QAEPAXI@Z 004033e0 f i GameDemo.obj
 0001:00002420       ??1Node@GameListUI@@QAE@XZ 00403420 f i GameDemo.obj
 0001:000024f0       ??1NodeData@GameListUI@@QAE@XZ 004034f0 f i GameDemo.obj
 0001:00002530       ??_ECListLabelElementUI@DuiLib@@UAEPAXI@Z 00403530 f i GameDemo.obj
 0001:00002530       ??_GCListLabelElementUI@DuiLib@@UAEPAXI@Z 00403530 f i GameDemo.obj
 0001:00002580       ??0CLoginFrameWnd@@QAE@XZ  00403580 f i GameDemo.obj
 0001:00002600       ??0IMessageFilterUI@DuiLib@@QAE@XZ 00403600 f i GameDemo.obj
 0001:00002620       ?GetWindowClassName@CLoginFrameWnd@@UBEPB_WXZ 00403620 f i GameDemo.obj
 0001:00002640       ?GetClassStyle@CLoginFrameWnd@@UBEIXZ 00403640 f i GameDemo.obj
 0001:00002660       ?OnFinalMessage@CLoginFrameWnd@@UAEXPAUHWND__@@@Z 00403660 f i GameDemo.obj
 0001:000026f0       ?Notify@CLoginFrameWnd@@UAEXAAUtagTNotifyUI@DuiLib@@@Z 004036f0 f i GameDemo.obj
 0001:00002a40       ?HandleMessage@CLoginFrameWnd@@UAEJIIJ@Z 00403a40 f i GameDemo.obj
 0001:00002cb0       ?OnCreate@CLoginFrameWnd@@QAEJIIJAAH@Z 00403cb0 f i GameDemo.obj
 0001:00002f30       ??0STRINGorID@DuiLib@@QAE@PB_W@Z 00403f30 f i GameDemo.obj
 0001:00002f50       ?Init@CLoginFrameWnd@@QAEXXZ 00403f50 f i GameDemo.obj
 0001:000030a0       ?OnNcActivate@CLoginFrameWnd@@QAEJIIJAAH@Z 004040a0 f i GameDemo.obj
 0001:00003100       ?OnNcCalcSize@CLoginFrameWnd@@QAEJIIJAAH@Z 00404100 f i GameDemo.obj
 0001:00003120       ?OnNcPaint@CLoginFrameWnd@@QAEJIIJAAH@Z 00404120 f i GameDemo.obj
 0001:00003140       ?OnNcHitTest@CLoginFrameWnd@@QAEJIIJAAH@Z 00404140 f i GameDemo.obj
 0001:000032f0       ?OnSize@CLoginFrameWnd@@QAEJIIJAAH@Z 004042f0 f i GameDemo.obj
 0001:000034b0       ?MessageHandler@CLoginFrameWnd@@UAEJIIJAA_N@Z 004044b0 f i GameDemo.obj
 0001:000036e0       ??_GCLoginFrameWnd@@QAEPAXI@Z 004046e0 f i GameDemo.obj
 0001:00003720       ??0CDialogBuilderCallbackEx@@QAE@XZ 00404720 f i GameDemo.obj
 0001:00003750       ??0IDialogBuilderCallback@DuiLib@@QAE@XZ 00404750 f i GameDemo.obj
 0001:00003770       ?CreateControl@CDialogBuilderCallbackEx@@UAEPAVCControlUI@DuiLib@@PB_W@Z 00404770 f i GameDemo.obj
 0001:00003890       ??0GameListUI@@QAE@XZ      00404890 f i GameDemo.obj
 0001:00003a00       ?Add@GameListUI@@UAE_NPAVCControlUI@DuiLib@@@Z 00404a00 f i GameDemo.obj
 0001:00003a70       ?AddAt@GameListUI@@UAE_NPAVCControlUI@DuiLib@@H@Z 00404a70 f i GameDemo.obj
 0001:00003ae0       ?Remove@GameListUI@@UAE_NPAVCControlUI@DuiLib@@@Z 00404ae0 f i GameDemo.obj
 0001:00003bf0       ?RemoveAt@GameListUI@@UAE_NH@Z 00404bf0 f i GameDemo.obj
 0001:00003d10       ?RemoveAll@GameListUI@@UAEXXZ 00404d10 f i GameDemo.obj
 0001:00003e90       ?SetVisible@GameListUI@@UAEX_N@Z 00404e90 f i GameDemo.obj
 0001:00003ee0       ?SetInternVisible@GameListUI@@UAEX_N@Z 00404ee0 f i GameDemo.obj
 0001:00003f20       ?DoEvent@GameListUI@@UAEXAAUtagTEventUI@DuiLib@@@Z 00404f20 f i GameDemo.obj
 0001:00004300       ?abs@@YAJJ@Z               00405300 f i GameDemo.obj
 0001:00004320       ?CalculateDelay@@YANN@Z    00405320 f i GameDemo.obj
 0001:00004340       ?pow@@YANNH@Z              00405340 f i GameDemo.obj
 0001:00004370       ?RemoveNode@GameListUI@@QAE_NPAVNode@1@@Z 00405370 f i GameDemo.obj
 0001:00004460       ?remove_child@Node@GameListUI@@QAEXPAV12@@Z 00405460 f i GameDemo.obj
 0001:000045a0       ??1?$_Vector_iterator@V?$_Vector_val@PAVNode@GameListUI@@V?$allocator@PAVNode@GameListUI@@@std@@@std@@@std@@QAE@XZ 004055a0 f i GameDemo.obj
 0001:000045d0       ??0?$_Vector_const_iterator@V?$_Vector_val@PAVNode@GameListUI@@V?$allocator@PAVNode@GameListUI@@@std@@@std@@@std@@QAE@ABV01@@Z 004055d0 f i GameDemo.obj
 0001:00004610       ??1?$_Vector_const_iterator@V?$_Vector_val@PAVNode@GameListUI@@V?$allocator@PAVNode@GameListUI@@@std@@@std@@@std@@QAE@XZ 00405610 f i GameDemo.obj
 0001:00004640       ??_GGameListUI@@UAEPAXI@Z  00405640 f i GameDemo.obj
 0001:00004640       ??_EGameListUI@@UAEPAXI@Z  00405640 f i GameDemo.obj
 0001:00004680       ??1GameListUI@@UAE@XZ      00405680 f i GameDemo.obj
 0001:00004760       ??0?$_Iterator012@Urandom_access_iterator_tag@std@@PAVNode@GameListUI@@HPBQAV34@ABQAV34@U_Iterator_base12@2@@std@@QAE@ABU01@@Z 00405760 f i GameDemo.obj
 0001:00004790       ??0_Iterator_base12@std@@QAE@ABU01@@Z 00405790 f i GameDemo.obj
 0001:000047d0       ??4_Iterator_base12@std@@QAEAAU01@ABU01@@Z 004057d0 f i GameDemo.obj
 0001:00004810       ?_Adopt@_Iterator_base12@std@@QAEXPBU_Container_base12@2@@Z 00405810 f i GameDemo.obj
 0001:00004900       ?_Orphan_me@_Iterator_base12@std@@QAEXXZ 00405900 f i GameDemo.obj
 0001:00004990       ??1?$_Iterator012@Urandom_access_iterator_tag@std@@PAVNode@GameListUI@@HPBQAV34@ABQAV34@U_Iterator_base12@2@@std@@QAE@XZ 00405990 f i GameDemo.obj
 0001:000049c0       ??1_Iterator_base12@std@@QAE@XZ 004059c0 f i GameDemo.obj
 0001:00004a70       ??0DeskListUI@@QAE@XZ      00405a70 f i GameDemo.obj
 0001:00004e10       ?DoEvent@DeskListUI@@UAEXAAUtagTEventUI@DuiLib@@@Z 00405e10 f i GameDemo.obj
 0001:000054d0       ??_GDeskListUI@@UAEPAXI@Z  004064d0 f i GameDemo.obj
 0001:000054d0       ??_EDeskListUI@@UAEPAXI@Z  004064d0 f i GameDemo.obj
 0001:00005510       ??1DeskListUI@@UAE@XZ      00406510 f i GameDemo.obj
 0001:00005540       ??1CLoginFrameWnd@@QAE@XZ  00406540 f i GameDemo.obj
 0001:00005580       ?SendChatMessage@CGameFrameWnd@@QAEXXZ 00406580 f i GameDemo.obj
 0001:000059d0       ?GetItemText@CGameFrameWnd@@UAEPB_WPAVCControlUI@DuiLib@@HH@Z 004069d0 f i GameDemo.obj
 0001:00005b60       ?HandleMessage@CGameFrameWnd@@UAEJIIJ@Z 00406b60 f i GameDemo.obj
 0001:00005ee0       ?OnCreate@CGameFrameWnd@@QAEJIIJAAH@Z 00406ee0 f i GameDemo.obj
 0001:00006130       ?Init@CGameFrameWnd@@QAEXXZ 00407130 f i GameDemo.obj
 0001:000062d0       ?OnClose@CGameFrameWnd@@QAEJIIJAAH@Z 004072d0 f i GameDemo.obj
 0001:000062f0       ?OnDestroy@CGameFrameWnd@@QAEJIIJAAH@Z 004072f0 f i GameDemo.obj
 0001:00006330       ?OnNcActivate@CGameFrameWnd@@QAEJIIJAAH@Z 00407330 f i GameDemo.obj
 0001:00006390       ?OnNcCalcSize@CGameFrameWnd@@QAEJIIJAAH@Z 00407390 f i GameDemo.obj
 0001:000063b0       ?OnNcPaint@CGameFrameWnd@@QAEJIIJAAH@Z 004073b0 f i GameDemo.obj
 0001:000063d0       ?OnNcHitTest@CGameFrameWnd@@QAEJIIJAAH@Z 004073d0 f i GameDemo.obj
 0001:00006700       ?OnSize@CGameFrameWnd@@QAEJIIJAAH@Z 00407700 f i GameDemo.obj
 0001:000068c0       ?OnGetMinMaxInfo@CGameFrameWnd@@QAEJIIJAAH@Z 004078c0 f i GameDemo.obj
 0001:00006a00       ?OnSysCommand@CGameFrameWnd@@QAEJIIJAAH@Z 00407a00 f i GameDemo.obj
 0001:00006bd0       ??0IListCallbackUI@DuiLib@@QAE@XZ 00407bd0 f i GameDemo.obj
 0001:00006bf0       ??_GCGameFrameWnd@@QAEPAXI@Z 00407bf0 f i GameDemo.obj
 0001:00006c30       ??_ECListTextElementUI@DuiLib@@UAEPAXI@Z 00407c30 f i GameDemo.obj
 0001:00006c30       ??_GCListTextElementUI@DuiLib@@UAEPAXI@Z 00407c30 f i GameDemo.obj
 0001:00006c80       ??1CGameFrameWnd@@QAE@XZ   00407c80 f i GameDemo.obj
 0001:00006cc0       ??0?$vector@PAVNode@GameListUI@@V?$allocator@PAVNode@GameListUI@@@std@@@std@@QAE@XZ 00407cc0 f i GameDemo.obj
 0001:00006d00       ??1?$vector@PAVNode@GameListUI@@V?$allocator@PAVNode@GameListUI@@@std@@@std@@QAE@XZ 00407d00 f i GameDemo.obj
 0001:00006d70       ?begin@?$vector@PAVNode@GameListUI@@V?$allocator@PAVNode@GameListUI@@@std@@@std@@QAE?AV?$_Vector_iterator@V?$_Vector_val@PAVNode@GameListUI@@V?$allocator@PAVNode@GameListUI@@@std@@@std@@@2@XZ 00407d70 f i GameDemo.obj
 0001:00006dc0       ?end@?$vector@PAVNode@GameListUI@@V?$allocator@PAVNode@GameListUI@@@std@@@std@@QAE?AV?$_Vector_iterator@V?$_Vector_val@PAVNode@GameListUI@@V?$allocator@PAVNode@GameListUI@@@std@@@std@@@2@XZ 00407dc0 f i GameDemo.obj
 0001:00006e10       ?size@?$vector@PAVNode@GameListUI@@V?$allocator@PAVNode@GameListUI@@@std@@@std@@QBEIXZ 00407e10 f i GameDemo.obj
 0001:00006e40       ??A?$vector@PAVNode@GameListUI@@V?$allocator@PAVNode@GameListUI@@@std@@@std@@QAEAAPAVNode@GameListUI@@I@Z 00407e40 f i GameDemo.obj
 0001:00006ee0       ?push_back@?$vector@PAVNode@GameListUI@@V?$allocator@PAVNode@GameListUI@@@std@@@std@@QAEXABQAVNode@GameListUI@@@Z 00407ee0 f i GameDemo.obj
 0001:00007000       ?erase@?$vector@PAVNode@GameListUI@@V?$allocator@PAVNode@GameListUI@@@std@@@std@@QAE?AV?$_Vector_iterator@V?$_Vector_val@PAVNode@GameListUI@@V?$allocator@PAVNode@GameListUI@@@std@@@std@@@2@V?$_Vector_const_iterator@V?$_Vector_val@PAVNode@GameListUI@@V?$allocator@PAVNode@GameListUI@@@std@@@std@@@2@@Z 00408000 f i GameDemo.obj
 0001:00007130       ?_Getcont@_Iterator_base12@std@@QBEPBU_Container_base12@2@XZ 00408130 f i GameDemo.obj
 0001:00007170       ??D?$_Vector_iterator@V?$_Vector_val@PAVNode@GameListUI@@V?$allocator@PAVNode@GameListUI@@@std@@@std@@@std@@QBEAAPAVNode@GameListUI@@XZ 00408170 f i GameDemo.obj
 0001:000071a0       ??E?$_Vector_iterator@V?$_Vector_val@PAVNode@GameListUI@@V?$allocator@PAVNode@GameListUI@@@std@@@std@@@std@@QAEAAV01@XZ 004081a0 f i GameDemo.obj
 0001:000071d0       ??M?$_Vector_const_iterator@V?$_Vector_val@PAVNode@GameListUI@@V?$allocator@PAVNode@GameListUI@@@std@@@std@@@std@@QBE_NABV01@@Z 004081d0 f i GameDemo.obj
 0001:00007210       ?_Make_iter@?$vector@PAVNode@GameListUI@@V?$allocator@PAVNode@GameListUI@@@std@@@std@@QBE?AV?$_Vector_iterator@V?$_Vector_val@PAVNode@GameListUI@@V?$allocator@PAVNode@GameListUI@@@std@@@std@@@2@V?$_Vector_const_iterator@V?$_Vector_val@PAVNode@GameListUI@@V?$allocator@PAVNode@GameListUI@@@std@@@std@@@2@@Z 00408210 f i GameDemo.obj
 0001:000072a0       ?_Destroy@?$vector@PAVNode@GameListUI@@V?$allocator@PAVNode@GameListUI@@@std@@@std@@IAEXPAPAVNode@GameListUI@@0@Z 004082a0 f i GameDemo.obj
 0001:000072e0       ?_Inside@?$vector@PAVNode@GameListUI@@V?$allocator@PAVNode@GameListUI@@@std@@@std@@IBE_NPBQAVNode@GameListUI@@@Z 004082e0 f i GameDemo.obj
 0001:00007330       ?_Reserve@?$vector@PAVNode@GameListUI@@V?$allocator@PAVNode@GameListUI@@@std@@@std@@IAEXI@Z 00408330 f i GameDemo.obj
 0001:000073b0       ?_Tidy@?$vector@PAVNode@GameListUI@@V?$allocator@PAVNode@GameListUI@@@std@@@std@@IAEXXZ 004083b0 f i GameDemo.obj
 0001:00007440       ?_Orphan_all@_Container_base12@std@@QAEXXZ 00408440 f i GameDemo.obj
 0001:000074f0       ?_Orphan_range@?$vector@PAVNode@GameListUI@@V?$allocator@PAVNode@GameListUI@@@std@@@std@@IBEXPAPAVNode@GameListUI@@0@Z 004084f0 f i GameDemo.obj
 0001:00007600       ?_Getpfirst@_Container_base12@std@@QBEPAPAU_Iterator_base12@2@XZ 00408600 f i GameDemo.obj
 0001:00007640       ?_Clrcont@_Iterator_base12@std@@QAEXXZ 00408640 f i GameDemo.obj
 0001:00007660       ?_Getpnext@_Iterator_base12@std@@QAEPAPAU12@XZ 00408660 f i GameDemo.obj
 0001:00007680       ??0?$_Vector_val@PAVNode@GameListUI@@V?$allocator@PAVNode@GameListUI@@@std@@@std@@QAE@V?$allocator@PAVNode@GameListUI@@@1@@Z 00408680 f i GameDemo.obj
 0001:000077a0       ??0_Container_proxy@std@@QAE@XZ 004087a0 f i GameDemo.obj
 0001:000077d0       ??0_Container_base12@std@@QAE@XZ 004087d0 f i GameDemo.obj
 0001:000077f0       ??1_Container_base12@std@@QAE@XZ 004087f0 f i GameDemo.obj
 0001:00007820       ??1?$_Vector_val@PAVNode@GameListUI@@V?$allocator@PAVNode@GameListUI@@@std@@@std@@QAE@XZ 00408820 f i GameDemo.obj
 0001:00007900       ??0?$allocator@PAVNode@GameListUI@@@std@@QAE@XZ 00408900 f i GameDemo.obj
 0001:00007920       ??0?$_Vector_iterator@V?$_Vector_val@PAVNode@GameListUI@@V?$allocator@PAVNode@GameListUI@@@std@@@std@@@std@@QAE@PAPAVNode@GameListUI@@PBU_Container_base12@1@@Z 00408920 f i GameDemo.obj
 0001:00007960       ??D?$_Vector_const_iterator@V?$_Vector_val@PAVNode@GameListUI@@V?$allocator@PAVNode@GameListUI@@@std@@@std@@@std@@QBEABQAVNode@GameListUI@@XZ 00408960 f i GameDemo.obj
 0001:00007a20       ??E?$_Vector_const_iterator@V?$_Vector_val@PAVNode@GameListUI@@V?$allocator@PAVNode@GameListUI@@@std@@@std@@@std@@QAEAAV01@XZ 00408a20 f i GameDemo.obj
 0001:00007ad0       ?_Compat@?$_Vector_const_iterator@V?$_Vector_val@PAVNode@GameListUI@@V?$allocator@PAVNode@GameListUI@@@std@@@std@@@std@@QBEXABV12@@Z 00408ad0 f i GameDemo.obj
 0001:00007b80       ?reserve@?$vector@PAVNode@GameListUI@@V?$allocator@PAVNode@GameListUI@@@std@@@std@@QAEXI@Z 00408b80 f i GameDemo.obj
 0001:00007cf0       ?capacity@?$vector@PAVNode@GameListUI@@V?$allocator@PAVNode@GameListUI@@@std@@@std@@QBEIXZ 00408cf0 f i GameDemo.obj
 0001:00007d20       ?max_size@?$vector@PAVNode@GameListUI@@V?$allocator@PAVNode@GameListUI@@@std@@@std@@QBEIXZ 00408d20 f i GameDemo.obj
 0001:00007d50       ?_Grow_to@?$vector@PAVNode@GameListUI@@V?$allocator@PAVNode@GameListUI@@@std@@@std@@IBEII@Z 00408d50 f i GameDemo.obj
 0001:00007dd0       ?_Xlen@?$vector@PAVNode@GameListUI@@V?$allocator@PAVNode@GameListUI@@@std@@@std@@IBEXXZ 00408dd0 f i GameDemo.obj
 0001:00007e00       ??0?$allocator@PAVNode@GameListUI@@@std@@QAE@ABV01@@Z 00408e00 f i GameDemo.obj
 0001:00007e20       ?deallocate@?$allocator@PAVNode@GameListUI@@@std@@QAEXPAPAVNode@GameListUI@@I@Z 00408e20 f i GameDemo.obj
 0001:00007e50       ??0?$_Vector_const_iterator@V?$_Vector_val@PAVNode@GameListUI@@V?$allocator@PAVNode@GameListUI@@@std@@@std@@@std@@QAE@PAPAVNode@GameListUI@@PBU_Container_base12@1@@Z 00408e50 f i GameDemo.obj
 0001:00007ed0       ?deallocate@?$allocator@U_Container_proxy@std@@@std@@QAEXPAU_Container_proxy@2@I@Z 00408ed0 f i GameDemo.obj
 0001:00007f00       ?allocate@?$allocator@U_Container_proxy@std@@@std@@QAEPAU_Container_proxy@2@I@Z 00408f00 f i GameDemo.obj
 0001:00007f30       ??0?$_Iterator012@Urandom_access_iterator_tag@std@@PAVNode@GameListUI@@HPBQAV34@ABQAV34@U_Iterator_base12@2@@std@@QAE@XZ 00408f30 f i GameDemo.obj
 0001:00007f60       ??0_Iterator_base12@std@@QAE@XZ 00408f60 f i GameDemo.obj
 0001:00007f90       ?allocate@?$allocator@PAVNode@GameListUI@@@std@@QAEPAPAVNode@GameListUI@@I@Z 00408f90 f i GameDemo.obj
 0001:00007fc0       ?max_size@?$allocator@PAVNode@GameListUI@@@std@@QBEIXZ 00408fc0 f i GameDemo.obj
 0001:00008010       ??$addressof@QAVNode@GameListUI@@@std@@YAPBQAVNode@GameListUI@@ABQAV12@@Z 00409010 f i GameDemo.obj
 0001:00008020       ??$_Cons_val@V?$allocator@PAVNode@GameListUI@@@std@@PAVNode@GameListUI@@AAPAV34@@std@@YAXAAV?$allocator@PAVNode@GameListUI@@@0@PAPAVNode@GameListUI@@AAPAV23@@Z 00409020 f i GameDemo.obj
 0001:00008050       ??$_Cons_val@V?$allocator@PAVNode@GameListUI@@@std@@PAVNode@GameListUI@@ABQAV34@@std@@YAXAAV?$allocator@PAVNode@GameListUI@@@0@PAPAVNode@GameListUI@@ABQAV23@@Z 00409050 f i GameDemo.obj
 0001:00008080       ??$_Move@PAPAVNode@GameListUI@@PAPAV12@@std@@YAPAPAVNode@GameListUI@@PAPAV12@00@Z 00409080 f i GameDemo.obj
 0001:000080d0       ??$_Destroy_range@V?$allocator@PAVNode@GameListUI@@@std@@@std@@YAXPAPAVNode@GameListUI@@0AAV?$allocator@PAVNode@GameListUI@@@0@@Z 004090d0 f i GameDemo.obj
 0001:00008120       ??$?0PAVNode@GameListUI@@@?$allocator@U_Container_proxy@std@@@std@@QAE@ABV?$allocator@PAVNode@GameListUI@@@1@@Z 00409120 f i GameDemo.obj
 0001:00008140       ??$_Cons_val@V?$allocator@U_Container_proxy@std@@@std@@U_Container_proxy@2@U32@@std@@YAXAAV?$allocator@U_Container_proxy@std@@@0@PAU_Container_proxy@0@$$QAU20@@Z 00409140 f i GameDemo.obj
 0001:00008170       ??$_Dest_val@V?$allocator@U_Container_proxy@std@@@std@@U_Container_proxy@2@@std@@YAXAAV?$allocator@U_Container_proxy@std@@@0@PAU_Container_proxy@0@@Z 00409170 f i GameDemo.obj
 0001:00008190       ??$_Umove@PAPAVNode@GameListUI@@@?$vector@PAVNode@GameListUI@@V?$allocator@PAVNode@GameListUI@@@std@@@std@@IAEPAPAVNode@GameListUI@@PAPAV23@00@Z 00409190 f i GameDemo.obj
 0001:000081d0       ??$_Allocate@U_Container_proxy@std@@@std@@YAPAU_Container_proxy@0@IPAU10@@Z 004091d0 f i GameDemo.obj
 0001:00008250       ??0bad_alloc@std@@QAE@PBD@Z 00409250 f i GameDemo.obj
 0001:00008290       ??1bad_alloc@std@@UAE@XZ   00409290 f i GameDemo.obj
 0001:000082c0       ??_Ebad_alloc@std@@UAEPAXI@Z 004092c0 f i GameDemo.obj
 0001:000082c0       ??_Gbad_alloc@std@@UAEPAXI@Z 004092c0 f i GameDemo.obj
 0001:00008300       ??$_Allocate@PAVNode@GameListUI@@@std@@YAPAPAVNode@GameListUI@@IPAPAV12@@Z 00409300 f i GameDemo.obj
 0001:00008380       ??0bad_alloc@std@@QAE@ABV01@@Z 00409380 f i GameDemo.obj
 0001:000083c0       ?construct@?$allocator@PAVNode@GameListUI@@@std@@QAEXPAPAVNode@GameListUI@@ABQAV34@@Z 004093c0 f i GameDemo.obj
 0001:000083f0       ?construct@?$allocator@U_Container_proxy@std@@@std@@QAEXPAU_Container_proxy@2@$$QAU32@@Z 004093f0 f i GameDemo.obj
 0001:000084a0       ??2@YAPAXIPAX@Z            004094a0 f i GameDemo.obj
 0001:000084b0       ??3@YAXPAX0@Z              004094b0 f i GameDemo.obj
 0001:000084c0       ?destroy@?$allocator@U_Container_proxy@std@@@std@@QAEXPAU_Container_proxy@2@@Z 004094c0 f i GameDemo.obj
 0001:000084f0       ??$forward@AAPAVNode@GameListUI@@@std@@YAAAPAVNode@GameListUI@@AAPAV12@@Z 004094f0 f i GameDemo.obj
 0001:00008500       ??$construct@AAPAVNode@GameListUI@@@?$allocator@PAVNode@GameListUI@@@std@@QAEXPAPAVNode@GameListUI@@AAPAV23@@Z 00409500 f i GameDemo.obj
 0001:000085b0       ??$forward@ABQAVNode@GameListUI@@@std@@YAABQAVNode@GameListUI@@ABQAV12@@Z 004095b0 f i GameDemo.obj
 0001:000085c0       ??$_Ptr_cat@PAVNode@GameListUI@@PAV12@@std@@YA?AU_Scalar_ptr_iterator_tag@0@PAPAVNode@GameListUI@@0@Z 004095c0 f i GameDemo.obj
 0001:00008610       ??$_Move@PAPAVNode@GameListUI@@PAPAV12@@std@@YAPAPAVNode@GameListUI@@PAPAV12@00U_Scalar_ptr_iterator_tag@0@@Z 00409610 f i GameDemo.obj
 0001:00008660       ??$_Destroy_range@V?$allocator@PAVNode@GameListUI@@@std@@@std@@YAXPAPAVNode@GameListUI@@0AAV?$allocator@PAVNode@GameListUI@@@0@U_Scalar_ptr_iterator_tag@0@@Z 00409660 f i GameDemo.obj
 0001:00008670       ??$forward@U_Container_proxy@std@@@std@@YA$$QAU_Container_proxy@0@AAU10@@Z 00409670 f i GameDemo.obj
 0001:00008680       ??$_Uninitialized_move@PAPAVNode@GameListUI@@PAPAV12@V?$allocator@PAVNode@GameListUI@@@std@@@std@@YAPAPAVNode@GameListUI@@PAPAV12@00AAV?$allocator@PAVNode@GameListUI@@@0@@Z 00409680 f i GameDemo.obj
 0001:000086e0       ??$_Construct@PAVNode@GameListUI@@ABQAV12@@std@@YAXPAPAVNode@GameListUI@@ABQAV12@@Z 004096e0 f i GameDemo.obj
 0001:00008790       ??$_Destroy@U_Container_proxy@std@@@std@@YAXPAU_Container_proxy@0@@Z 00409790 f i GameDemo.obj
 0001:000087a0       ??$_Val_type@PAPAVNode@GameListUI@@@std@@YAPAPAVNode@GameListUI@@PAPAV12@@Z 004097a0 f i GameDemo.obj
 0001:000087b0       ??$_Uninit_move@PAVNode@GameListUI@@PAV12@PAV12@@std@@YAPAPAVNode@GameListUI@@PAPAV12@00AAV?$allocator@PAVNode@GameListUI@@@0@0U_Scalar_ptr_iterator_tag@0@@Z 004097b0 f i GameDemo.obj
 0001:00008830       ??$_Debug_range@PAPAVNode@GameListUI@@@std@@YAXPAPAVNode@GameListUI@@0PB_WI@Z 00409830 f i GameDemo.obj
 0001:00008880       ??$_Debug_pointer@PAVNode@GameListUI@@@std@@YAXPAPAVNode@GameListUI@@PB_WI@Z 00409880 f i GameDemo.obj
 0001:000088b0       ??$_Iter_cat@PAPAVNode@GameListUI@@@std@@YA?AUrandom_access_iterator_tag@0@ABQAPAVNode@GameListUI@@@Z 004098b0 f i GameDemo.obj
 0001:00008910       ??$_Debug_range2@PAPAVNode@GameListUI@@@std@@YAXPAPAVNode@GameListUI@@0PB_WIUrandom_access_iterator_tag@0@@Z 00409910 f i GameDemo.obj
 0001:00008970       ?DoEvent@GameListUI@@WEPE@AEXAAUtagTEventUI@DuiLib@@@Z 00409970 f i GameDemo.obj
 0001:00008980       ??$_Pow_int@N@@YANNH@Z     00409980 f i GameDemo.obj
 0001:00008a00       ??_H@YGXPAXIHP6EPAX0@Z@Z   00409a00 f i StdAfx.obj
 0001:00008a40       ??0CMiniDumper@@QAE@_N@Z   00409a40 f   MiniDumper.obj
 0001:00008af0       ??1CMiniDumper@@QAE@XZ     00409af0 f   MiniDumper.obj
 0001:00008b50       ?unhandledExceptionHandler@CMiniDumper@@CGJPAU_EXCEPTION_POINTERS@@@Z 00409b50 f   MiniDumper.obj
 0001:00008b80       ?setMiniDumpFileName@CMiniDumper@@AAEXXZ 00409b80 f   MiniDumper.obj
 0001:00008c50       ?getImpersonationToken@CMiniDumper@@AAE_NPAPAX@Z 00409c50 f   MiniDumper.obj
 0001:00008d00       ?enablePrivilege@CMiniDumper@@AAEHPB_WPAXPAU_TOKEN_PRIVILEGES@@@Z 00409d00 f   MiniDumper.obj
 0001:00008e20       ?restorePrivilege@CMiniDumper@@AAEHPAXPAU_TOKEN_PRIVILEGES@@@Z 00409e20 f   MiniDumper.obj
 0001:00008eb0       ?writeMiniDump@CMiniDumper@@AAEJPAU_EXCEPTION_POINTERS@@@Z 00409eb0 f   MiniDumper.obj
 0001:00009340       ?wcsrchr@@YAPA_WPA_W_W@Z   0040a340 f i MiniDumper.obj
 0001:00009360       ??$wcscpy_s@$0BAE@@@YAHAAY0BAE@_WPB_W@Z 0040a360 f i MiniDumper.obj
 0001:00009390       ??$wcscat_s@$0BAE@@@YAHAAY0BAE@_WPB_W@Z 0040a390 f i MiniDumper.obj
 0001:000093b2       _InitializeCriticalSection@4 0040a3b2 f   kernel32:KERNEL32.dll
 0001:000093b8       _SetUnhandledExceptionFilter@4 0040a3b8 f   kernel32:KERNEL32.dll
 0001:000093be       _DeleteCriticalSection@4   0040a3be f   kernel32:KERNEL32.dll
 0001:000093c4       _GetCurrentProcess@0       0040a3c4 f   kernel32:KERNEL32.dll
 0001:000093ca       _GetLastError@0            0040a3ca f   kernel32:KERNEL32.dll
 0001:000093d0       _GetCurrentThread@0        0040a3d0 f   kernel32:KERNEL32.dll
 0001:000093d6       _TerminateProcess@8        0040a3d6 f   kernel32:KERNEL32.dll
 0001:000093dc       _CloseHandle@4             0040a3dc f   kernel32:KERNEL32.dll
 0001:000093e2       _LeaveCriticalSection@4    0040a3e2 f   kernel32:KERNEL32.dll
 0001:000093e8       _GetCurrentProcessId@0     0040a3e8 f   kernel32:KERNEL32.dll
 0001:000093ee       _EnterCriticalSection@4    0040a3ee f   kernel32:KERNEL32.dll
 0001:000093f4       _GetCurrentThreadId@0      0040a3f4 f   kernel32:KERNEL32.dll
 0001:000093fa       _CreateFileW@28            0040a3fa f   kernel32:KERNEL32.dll
 0001:00009400       _GetProcAddress@8          0040a400 f   kernel32:KERNEL32.dll
 0001:00009406       _LoadLibraryW@4            0040a406 f   kernel32:KERNEL32.dll
 0001:0000940c       _GetModuleFileNameW@12     0040a40c f   kernel32:KERNEL32.dll
 0001:00009412       _ShowWindow@8              0040a412 f   user32:USER32.dll
 0001:00009418       _ScreenToClient@8          0040a418 f   user32:USER32.dll
 0001:0000941e       _GetCursorPos@4            0040a41e f   user32:USER32.dll
 0001:00009424       _PostQuitMessage@4         0040a424 f   user32:USER32.dll
 0001:0000942a       _SetWindowLongW@12         0040a42a f   user32:USER32.dll
 0001:00009430       _GetWindowLongW@8          0040a430 f   user32:USER32.dll
 0001:00009436       _IsIconic@4                0040a436 f   user32:USER32.dll
 0001:0000943c       _GetClientRect@8           0040a43c f   user32:USER32.dll
 0001:00009442       _SetWindowRgn@12           0040a442 f   user32:USER32.dll
 0001:00009448       _GetWindowRect@8           0040a448 f   user32:USER32.dll
 0001:0000944e       _SetCursor@4               0040a44e f   user32:USER32.dll
 0001:00009454       _LoadCursorW@8             0040a454 f   user32:USER32.dll
 0001:0000945a       _IsZoomed@4                0040a45a f   user32:USER32.dll
 0001:00009460       _GetMonitorInfoW@8         0040a460 f   user32:USER32.dll
 0001:00009466       _MonitorFromWindow@8       0040a466 f   user32:USER32.dll
 0001:0000946c       _wsprintfW                 0040a46c f   user32:USER32.dll
 0001:00009472       _MessageBoxW@16            0040a472 f   user32:USER32.dll
 0001:00009478       _DeleteObject@4            0040a478 f   gdi32:GDI32.dll
 0001:0000947e       _CreateRoundRectRgn@24     0040a47e f   gdi32:GDI32.dll
 0001:00009484       _OpenProcessToken@12       0040a484 f   advapi32:ADVAPI32.dll
 0001:0000948a       _OpenThreadToken@16        0040a48a f   advapi32:ADVAPI32.dll
 0001:00009490       _AdjustTokenPrivileges@24  0040a490 f   advapi32:ADVAPI32.dll
 0001:00009496       _LookupPrivilegeValueW@12  0040a496 f   advapi32:ADVAPI32.dll
 0001:0000949c       _CoUninitialize@0          0040a49c f   ole32:ole32.dll
 0001:000094a2       _CoInitialize@4            0040a4a2 f   ole32:ole32.dll
 0001:000094a8       ?MessageLoop@CPaintManagerUI@DuiLib@@SAXXZ 0040a4a8 f   DuiLib_ud:DuiLib_ud.dll
 0001:000094ae       ??BCWindowWnd@DuiLib@@QBEPAUHWND__@@XZ 0040a4ae f   DuiLib_ud:DuiLib_ud.dll
 0001:000094b4       ?CenterWindow@CWindowWnd@DuiLib@@QAEXXZ 0040a4b4 f   DuiLib_ud:DuiLib_ud.dll
 0001:000094ba       ?Create@CWindowWnd@DuiLib@@QAEPAUHWND__@@PAU3@PB_WKKHHHHPAUHMENU__@@@Z 0040a4ba f   DuiLib_ud:DuiLib_ud.dll
 0001:000094c0       ?SetResourceZip@CPaintManagerUI@DuiLib@@SAXPB_W_N@Z 0040a4c0 f   DuiLib_ud:DuiLib_ud.dll
 0001:000094c6       ??1CDuiString@DuiLib@@QAE@XZ 0040a4c6 f   DuiLib_ud:DuiLib_ud.dll
 0001:000094cc       ?SetResourcePath@CPaintManagerUI@DuiLib@@SAXPB_W@Z 0040a4cc f   DuiLib_ud:DuiLib_ud.dll
 0001:000094d2       ??BCDuiString@DuiLib@@QBEPB_WXZ 0040a4d2 f   DuiLib_ud:DuiLib_ud.dll
 0001:000094d8       ??HCDuiString@DuiLib@@QBE?AV01@PB_W@Z 0040a4d8 f   DuiLib_ud:DuiLib_ud.dll
 0001:000094de       ?GetInstancePath@CPaintManagerUI@DuiLib@@SA?AVCDuiString@2@XZ 0040a4de f   DuiLib_ud:DuiLib_ud.dll
 0001:000094e4       ?SetInstance@CPaintManagerUI@DuiLib@@SAXPAUHINSTANCE__@@@Z 0040a4e4 f   DuiLib_ud:DuiLib_ud.dll
 0001:000094ea       ??0CPaintManagerUI@DuiLib@@QAE@XZ 0040a4ea f   DuiLib_ud:DuiLib_ud.dll
 0001:000094f0       ??0CWindowWnd@DuiLib@@QAE@XZ 0040a4f0 f   DuiLib_ud:DuiLib_ud.dll
 0001:000094f6       ?GetSuperClassName@CWindowWnd@DuiLib@@MBEPB_WXZ 0040a4f6 f   DuiLib_ud:DuiLib_ud.dll
 0001:000094fc       ?GetPaintWindow@CPaintManagerUI@DuiLib@@QBEPAUHWND__@@XZ 0040a4fc f   DuiLib_ud:DuiLib_ud.dll
 0001:00009502       ?SetSelectionCharFormat@CRichEditUI@DuiLib@@QAE_NAAUCHARFORMAT2W@@@Z 0040a502 f   DuiLib_ud:DuiLib_ud.dll
 0001:00009508       ?SetSel@CRichEditUI@DuiLib@@QAEHJJ@Z 0040a508 f   DuiLib_ud:DuiLib_ud.dll
 0001:0000950e       ?GetTextLength@CRichEditUI@DuiLib@@QBEJK@Z 0040a50e f   DuiLib_ud:DuiLib_ud.dll
 0001:00009514       ?SelectItem@CTabLayoutUI@DuiLib@@QAE_NH@Z 0040a514 f   DuiLib_ud:DuiLib_ud.dll
 0001:0000951a       ?GetCurSel@CTabLayoutUI@DuiLib@@QBEHXZ 0040a51a f   DuiLib_ud:DuiLib_ud.dll
 0001:00009520       ?NeedUpdate@CControlUI@DuiLib@@QAEXXZ 0040a520 f   DuiLib_ud:DuiLib_ud.dll
 0001:00009526       ?GetRoot@CPaintManagerUI@DuiLib@@QBEPAVCControlUI@2@XZ 0040a526 f   DuiLib_ud:DuiLib_ud.dll
 0001:0000952c       ?SetDefaultFont@CPaintManagerUI@DuiLib@@QAEXPB_WH_N11@Z 0040a52c f   DuiLib_ud:DuiLib_ud.dll
 0001:00009532       ?GetFontInfo@CPaintManagerUI@DuiLib@@QAEPAUtagTFontInfo@2@H@Z 0040a532 f   DuiLib_ud:DuiLib_ud.dll
 0001:00009538       ?GetDefaultFontInfo@CPaintManagerUI@DuiLib@@QAEPAUtagTFontInfo@2@XZ 0040a538 f   DuiLib_ud:DuiLib_ud.dll
 0001:0000953e       ?SendMessageW@CWindowWnd@DuiLib@@QAEJIIJ@Z 0040a53e f   DuiLib_ud:DuiLib_ud.dll
 0001:00009544       ?IsSelected@COptionUI@DuiLib@@QBE_NXZ 0040a544 f   DuiLib_ud:DuiLib_ud.dll
 0001:0000954a       ?FindControl@CPaintManagerUI@DuiLib@@QBEPAVCControlUI@2@PB_W@Z 0040a54a f   DuiLib_ud:DuiLib_ud.dll
 0001:00009550       ??8CDuiString@DuiLib@@QBE_NPB_W@Z 0040a550 f   DuiLib_ud:DuiLib_ud.dll
 0001:00009556       ??YCDuiString@DuiLib@@QAEABV01@ABV01@@Z 0040a556 f   DuiLib_ud:DuiLib_ud.dll
 0001:0000955c       ??YCDuiString@DuiLib@@QAEABV01@PB_W@Z 0040a55c f   DuiLib_ud:DuiLib_ud.dll
 0001:00009562       ??0CDuiString@DuiLib@@QAE@XZ 0040a562 f   DuiLib_ud:DuiLib_ud.dll
 0001:00009568       ??0CSize@DuiLib@@QAE@XZ    0040a568 f   DuiLib_ud:DuiLib_ud.dll
 0001:0000956e       ?ShowModal@CWindowWnd@DuiLib@@QAEIXZ 0040a56e f   DuiLib_ud:DuiLib_ud.dll
 0001:00009574       ?Close@CWindowWnd@DuiLib@@QAEXI@Z 0040a574 f   DuiLib_ud:DuiLib_ud.dll
 0001:0000957a       ??0CListTextElementUI@DuiLib@@QAE@XZ 0040a57a f   DuiLib_ud:DuiLib_ud.dll
 0001:00009580       ?GetName@CControlUI@DuiLib@@UBE?AVCDuiString@2@XZ 0040a580 f   DuiLib_ud:DuiLib_ud.dll
 0001:00009586       ?SetName@CControlUI@DuiLib@@UAEXPB_W@Z 0040a586 f   DuiLib_ud:DuiLib_ud.dll
 0001:0000958c       ?GetClass@CListTextElementUI@DuiLib@@UBEPB_WXZ 0040a58c f   DuiLib_ud:DuiLib_ud.dll
 0001:00009592       ?GetInterface@CListTextElementUI@DuiLib@@UAEPAXPB_W@Z 0040a592 f   DuiLib_ud:DuiLib_ud.dll
 0001:00009598       ?GetControlFlags@CListTextElementUI@DuiLib@@UBEIXZ 0040a598 f   DuiLib_ud:DuiLib_ud.dll
 0001:0000959e       ?Activate@CListElementUI@DuiLib@@UAE_NXZ 0040a59e f   DuiLib_ud:DuiLib_ud.dll
 0001:000095a4       ?GetManager@CControlUI@DuiLib@@UBEPAVCPaintManagerUI@2@XZ 0040a5a4 f   DuiLib_ud:DuiLib_ud.dll
 0001:000095aa       ?SetManager@CControlUI@DuiLib@@UAEXPAVCPaintManagerUI@2@PAV12@_N@Z 0040a5aa f   DuiLib_ud:DuiLib_ud.dll
 0001:000095b0       ?GetParent@CControlUI@DuiLib@@UBEPAV12@XZ 0040a5b0 f   DuiLib_ud:DuiLib_ud.dll
 0001:000095b6       ?GetText@CControlUI@DuiLib@@UBE?AVCDuiString@2@XZ 0040a5b6 f   DuiLib_ud:DuiLib_ud.dll
 0001:000095bc       ?SetText@CControlUI@DuiLib@@UAEXPB_W@Z 0040a5bc f   DuiLib_ud:DuiLib_ud.dll
 0001:000095c2       ?GetPos@CControlUI@DuiLib@@UBEABUtagRECT@@XZ 0040a5c2 f   DuiLib_ud:DuiLib_ud.dll
 0001:000095c8       ?SetPos@CControlUI@DuiLib@@UAEXUtagRECT@@@Z 0040a5c8 f   DuiLib_ud:DuiLib_ud.dll
 0001:000095ce       ?GetWidth@CControlUI@DuiLib@@UBEHXZ 0040a5ce f   DuiLib_ud:DuiLib_ud.dll
 0001:000095d4       ?GetHeight@CControlUI@DuiLib@@UBEHXZ 0040a5d4 f   DuiLib_ud:DuiLib_ud.dll
 0001:000095da       ?GetX@CControlUI@DuiLib@@UBEHXZ 0040a5da f   DuiLib_ud:DuiLib_ud.dll
 0001:000095e0       ?GetY@CControlUI@DuiLib@@UBEHXZ 0040a5e0 f   DuiLib_ud:DuiLib_ud.dll
 0001:000095e6       ?GetPadding@CControlUI@DuiLib@@UBE?AUtagRECT@@XZ 0040a5e6 f   DuiLib_ud:DuiLib_ud.dll
 0001:000095ec       ?SetPadding@CControlUI@DuiLib@@UAEXUtagRECT@@@Z 0040a5ec f   DuiLib_ud:DuiLib_ud.dll
 0001:000095f2       ?GetFixedXY@CControlUI@DuiLib@@UBE?AUtagSIZE@@XZ 0040a5f2 f   DuiLib_ud:DuiLib_ud.dll
 0001:000095f8       ?SetFixedXY@CControlUI@DuiLib@@UAEXUtagSIZE@@@Z 0040a5f8 f   DuiLib_ud:DuiLib_ud.dll
 0001:000095fe       ?GetFixedWidth@CControlUI@DuiLib@@UBEHXZ 0040a5fe f   DuiLib_ud:DuiLib_ud.dll
 0001:00009604       ?SetFixedWidth@CControlUI@DuiLib@@UAEXH@Z 0040a604 f   DuiLib_ud:DuiLib_ud.dll
 0001:0000960a       ?GetFixedHeight@CControlUI@DuiLib@@UBEHXZ 0040a60a f   DuiLib_ud:DuiLib_ud.dll
 0001:00009610       ?SetFixedHeight@CControlUI@DuiLib@@UAEXH@Z 0040a610 f   DuiLib_ud:DuiLib_ud.dll
 0001:00009616       ?GetMinWidth@CControlUI@DuiLib@@UBEHXZ 0040a616 f   DuiLib_ud:DuiLib_ud.dll
 0001:0000961c       ?SetMinWidth@CControlUI@DuiLib@@UAEXH@Z 0040a61c f   DuiLib_ud:DuiLib_ud.dll
 0001:00009622       ?GetMaxWidth@CControlUI@DuiLib@@UBEHXZ 0040a622 f   DuiLib_ud:DuiLib_ud.dll
 0001:00009628       ?SetMaxWidth@CControlUI@DuiLib@@UAEXH@Z 0040a628 f   DuiLib_ud:DuiLib_ud.dll
 0001:0000962e       ?GetMinHeight@CControlUI@DuiLib@@UBEHXZ 0040a62e f   DuiLib_ud:DuiLib_ud.dll
 0001:00009634       ?SetMinHeight@CControlUI@DuiLib@@UAEXH@Z 0040a634 f   DuiLib_ud:DuiLib_ud.dll
 0001:0000963a       ?GetMaxHeight@CControlUI@DuiLib@@UBEHXZ 0040a63a f   DuiLib_ud:DuiLib_ud.dll
 0001:00009640       ?SetMaxHeight@CControlUI@DuiLib@@UAEXH@Z 0040a640 f   DuiLib_ud:DuiLib_ud.dll
 0001:00009646       ?SetRelativePos@CControlUI@DuiLib@@UAEXUtagSIZE@@0@Z 0040a646 f   DuiLib_ud:DuiLib_ud.dll
 0001:0000964c       ?SetRelativeParentSize@CControlUI@DuiLib@@UAEXUtagSIZE@@@Z 0040a64c f   DuiLib_ud:DuiLib_ud.dll
 0001:00009652       ?GetRelativePos@CControlUI@DuiLib@@UBE?AUtagTRelativePosUI@2@XZ 0040a652 f   DuiLib_ud:DuiLib_ud.dll
 0001:00009658       ?IsRelativePos@CControlUI@DuiLib@@UBE_NXZ 0040a658 f   DuiLib_ud:DuiLib_ud.dll
 0001:0000965e       ?GetToolTip@CControlUI@DuiLib@@UBE?AVCDuiString@2@XZ 0040a65e f   DuiLib_ud:DuiLib_ud.dll
 0001:00009664       ?SetToolTip@CControlUI@DuiLib@@UAEXPB_W@Z 0040a664 f   DuiLib_ud:DuiLib_ud.dll
 0001:0000966a       ?SetToolTipWidth@CControlUI@DuiLib@@UAEXH@Z 0040a66a f   DuiLib_ud:DuiLib_ud.dll
 0001:00009670       ?GetToolTipWidth@CControlUI@DuiLib@@UAEHXZ 0040a670 f   DuiLib_ud:DuiLib_ud.dll
 0001:00009676       ?GetShortcut@CControlUI@DuiLib@@UBE_WXZ 0040a676 f   DuiLib_ud:DuiLib_ud.dll
 0001:0000967c       ?SetShortcut@CControlUI@DuiLib@@UAEX_W@Z 0040a67c f   DuiLib_ud:DuiLib_ud.dll
 0001:00009682       ?IsContextMenuUsed@CControlUI@DuiLib@@UBE_NXZ 0040a682 f   DuiLib_ud:DuiLib_ud.dll
 0001:00009688       ?SetContextMenuUsed@CControlUI@DuiLib@@UAEX_N@Z 0040a688 f   DuiLib_ud:DuiLib_ud.dll
 0001:0000968e       ?GetUserData@CControlUI@DuiLib@@UAEABVCDuiString@2@XZ 0040a68e f   DuiLib_ud:DuiLib_ud.dll
 0001:00009694       ?SetUserData@CControlUI@DuiLib@@UAEXPB_W@Z 0040a694 f   DuiLib_ud:DuiLib_ud.dll
 0001:0000969a       ?GetTag@CControlUI@DuiLib@@UBEIXZ 0040a69a f   DuiLib_ud:DuiLib_ud.dll
 0001:000096a0       ?SetTag@CControlUI@DuiLib@@UAEXI@Z 0040a6a0 f   DuiLib_ud:DuiLib_ud.dll
 0001:000096a6       ?IsVisible@CControlUI@DuiLib@@UBE_NXZ 0040a6a6 f   DuiLib_ud:DuiLib_ud.dll
 0001:000096ac       ?SetVisible@CListElementUI@DuiLib@@UAEX_N@Z 0040a6ac f   DuiLib_ud:DuiLib_ud.dll
 0001:000096b2       ?SetInternVisible@CControlUI@DuiLib@@UAEX_N@Z 0040a6b2 f   DuiLib_ud:DuiLib_ud.dll
 0001:000096b8       ?IsEnabled@CControlUI@DuiLib@@UBE_NXZ 0040a6b8 f   DuiLib_ud:DuiLib_ud.dll
 0001:000096be       ?SetEnabled@CListElementUI@DuiLib@@UAEX_N@Z 0040a6be f   DuiLib_ud:DuiLib_ud.dll
 0001:000096c4       ?IsMouseEnabled@CControlUI@DuiLib@@UBE_NXZ 0040a6c4 f   DuiLib_ud:DuiLib_ud.dll
 0001:000096ca       ?SetMouseEnabled@CControlUI@DuiLib@@UAEX_N@Z 0040a6ca f   DuiLib_ud:DuiLib_ud.dll
 0001:000096d0       ?IsKeyboardEnabled@CControlUI@DuiLib@@UBE_NXZ 0040a6d0 f   DuiLib_ud:DuiLib_ud.dll
 0001:000096d6       ?SetKeyboardEnabled@CControlUI@DuiLib@@UAEX_N@Z 0040a6d6 f   DuiLib_ud:DuiLib_ud.dll
 0001:000096dc       ?IsFocused@CControlUI@DuiLib@@UBE_NXZ 0040a6dc f   DuiLib_ud:DuiLib_ud.dll
 0001:000096e2       ?SetFocus@CControlUI@DuiLib@@UAEXXZ 0040a6e2 f   DuiLib_ud:DuiLib_ud.dll
 0001:000096e8       ?IsFloat@CControlUI@DuiLib@@UBE_NXZ 0040a6e8 f   DuiLib_ud:DuiLib_ud.dll
 0001:000096ee       ?SetFloat@CControlUI@DuiLib@@UAEX_N@Z 0040a6ee f   DuiLib_ud:DuiLib_ud.dll
 0001:000096f4       ?FindControl@CControlUI@DuiLib@@UAEPAV12@P6GPAV12@PAV12@PAX@Z1I@Z 0040a6f4 f   DuiLib_ud:DuiLib_ud.dll
 0001:000096fa       ?Init@CControlUI@DuiLib@@UAEXXZ 0040a6fa f   DuiLib_ud:DuiLib_ud.dll
 0001:00009700       ?DoInit@CControlUI@DuiLib@@UAEXXZ 0040a700 f   DuiLib_ud:DuiLib_ud.dll
 0001:00009706       ?Event@CControlUI@DuiLib@@UAEXAAUtagTEventUI@2@@Z 0040a706 f   DuiLib_ud:DuiLib_ud.dll
 0001:0000970c       ?DoEvent@CListTextElementUI@DuiLib@@UAEXAAUtagTEventUI@2@@Z 0040a70c f   DuiLib_ud:DuiLib_ud.dll
 0001:00009712       ?SetAttribute@CListElementUI@DuiLib@@UAEXPB_W0@Z 0040a712 f   DuiLib_ud:DuiLib_ud.dll
 0001:00009718       ?EstimateSize@CListTextElementUI@DuiLib@@UAE?AUtagSIZE@@U3@@Z 0040a718 f   DuiLib_ud:DuiLib_ud.dll
 0001:0000971e       ?DoPaint@CListLabelElementUI@DuiLib@@UAEXPAUHDC__@@ABUtagRECT@@@Z 0040a71e f   DuiLib_ud:DuiLib_ud.dll
 0001:00009724       ?PaintBkColor@CControlUI@DuiLib@@UAEXPAUHDC__@@@Z 0040a724 f   DuiLib_ud:DuiLib_ud.dll
 0001:0000972a       ?PaintBkImage@CControlUI@DuiLib@@UAEXPAUHDC__@@@Z 0040a72a f   DuiLib_ud:DuiLib_ud.dll
 0001:00009730       ?PaintStatusImage@CControlUI@DuiLib@@UAEXPAUHDC__@@@Z 0040a730 f   DuiLib_ud:DuiLib_ud.dll
 0001:00009736       ?PaintText@CControlUI@DuiLib@@UAEXPAUHDC__@@@Z 0040a736 f   DuiLib_ud:DuiLib_ud.dll
 0001:0000973c       ?PaintBorder@CControlUI@DuiLib@@UAEXPAUHDC__@@@Z 0040a73c f   DuiLib_ud:DuiLib_ud.dll
 0001:00009742       ?DoPostPaint@CControlUI@DuiLib@@UAEXPAUHDC__@@ABUtagRECT@@@Z 0040a742 f   DuiLib_ud:DuiLib_ud.dll
 0001:00009748       ?AddAt@CListUI@DuiLib@@UAE_NPAVCControlUI@2@H@Z 0040a748 f   DuiLib_ud:DuiLib_ud.dll
 0001:0000974e       ?SetBkImage@CControlUI@DuiLib@@QAEXPB_W@Z 0040a74e f   DuiLib_ud:DuiLib_ud.dll
 0001:00009754       ??4CDuiString@DuiLib@@QAEABV01@PB_W@Z 0040a754 f   DuiLib_ud:DuiLib_ud.dll
 0001:0000975a       ??0CListLabelElementUI@DuiLib@@QAE@XZ 0040a75a f   DuiLib_ud:DuiLib_ud.dll
 0001:00009760       ?GetClass@CListLabelElementUI@DuiLib@@UBEPB_WXZ 0040a760 f   DuiLib_ud:DuiLib_ud.dll
 0001:00009766       ?GetInterface@CListLabelElementUI@DuiLib@@UAEPAXPB_W@Z 0040a766 f   DuiLib_ud:DuiLib_ud.dll
 0001:0000976c       ?GetControlFlags@CListElementUI@DuiLib@@UBEIXZ 0040a76c f   DuiLib_ud:DuiLib_ud.dll
 0001:00009772       ?DoEvent@CListLabelElementUI@DuiLib@@UAEXAAUtagTEventUI@2@@Z 0040a772 f   DuiLib_ud:DuiLib_ud.dll
 0001:00009778       ?EstimateSize@CListLabelElementUI@DuiLib@@UAE?AUtagSIZE@@U3@@Z 0040a778 f   DuiLib_ud:DuiLib_ud.dll
 0001:0000977e       ??1CListLabelElementUI@DuiLib@@UAE@XZ 0040a77e f   DuiLib_ud:DuiLib_ud.dll
 0001:00009784       ?RemovePreMessageFilter@CPaintManagerUI@DuiLib@@QAE_NPAVIMessageFilterUI@2@@Z 0040a784 f   DuiLib_ud:DuiLib_ud.dll
 0001:0000978a       ?HandleMessage@CWindowWnd@DuiLib@@MAEJIIJ@Z 0040a78a f   DuiLib_ud:DuiLib_ud.dll
 0001:00009790       ?MessageHandler@CPaintManagerUI@DuiLib@@QAE_NIIJAAJ@Z 0040a790 f   DuiLib_ud:DuiLib_ud.dll
 0001:00009796       ??1CDialogBuilder@DuiLib@@QAE@XZ 0040a796 f   DuiLib_ud:DuiLib_ud.dll
 0001:0000979c       ?AddNotifier@CPaintManagerUI@DuiLib@@QAE_NPAVINotifyUI@2@@Z 0040a79c f   DuiLib_ud:DuiLib_ud.dll
 0001:000097a2       ?AttachDialog@CPaintManagerUI@DuiLib@@QAE_NPAVCControlUI@2@@Z 0040a7a2 f   DuiLib_ud:DuiLib_ud.dll
 0001:000097a8       ?Create@CDialogBuilder@DuiLib@@QAEPAVCControlUI@2@VSTRINGorID@2@PB_WPAVIDialogBuilderCallback@2@PAVCPaintManagerUI@2@PAV32@@Z 0040a7a8 f   DuiLib_ud:DuiLib_ud.dll
 0001:000097ae       ??0CDialogBuilder@DuiLib@@QAE@XZ 0040a7ae f   DuiLib_ud:DuiLib_ud.dll
 0001:000097b4       ?AddPreMessageFilter@CPaintManagerUI@DuiLib@@QAE_NPAVIMessageFilterUI@2@@Z 0040a7b4 f   DuiLib_ud:DuiLib_ud.dll
 0001:000097ba       ?Init@CPaintManagerUI@DuiLib@@QAEXPAUHWND__@@@Z 0040a7ba f   DuiLib_ud:DuiLib_ud.dll
 0001:000097c0       ?FindControl@CPaintManagerUI@DuiLib@@QBEPAVCControlUI@2@UtagPOINT@@@Z 0040a7c0 f   DuiLib_ud:DuiLib_ud.dll
 0001:000097c6       ?GetCaptionRect@CPaintManagerUI@DuiLib@@QAEAAUtagRECT@@XZ 0040a7c6 f   DuiLib_ud:DuiLib_ud.dll
 0001:000097cc       ?Offset@CDuiRect@DuiLib@@QAEXHH@Z 0040a7cc f   DuiLib_ud:DuiLib_ud.dll
 0001:000097d2       ??0CDuiRect@DuiLib@@QAE@XZ 0040a7d2 f   DuiLib_ud:DuiLib_ud.dll
 0001:000097d8       ?GetRoundCorner@CPaintManagerUI@DuiLib@@QBE?AUtagSIZE@@XZ 0040a7d8 f   DuiLib_ud:DuiLib_ud.dll
 0001:000097de       ?IsEmpty@CDuiString@DuiLib@@QBE_NXZ 0040a7de f   DuiLib_ud:DuiLib_ud.dll
 0001:000097e4       ??1CListUI@DuiLib@@UAE@XZ  0040a7e4 f   DuiLib_ud:DuiLib_ud.dll
 0001:000097ea       ?SetItemShowHtml@CListUI@DuiLib@@QAEX_N@Z 0040a7ea f   DuiLib_ud:DuiLib_ud.dll
 0001:000097f0       ??0CListUI@DuiLib@@QAE@XZ  0040a7f0 f   DuiLib_ud:DuiLib_ud.dll
 0001:000097f6       ?GetClass@CListUI@DuiLib@@UBEPB_WXZ 0040a7f6 f   DuiLib_ud:DuiLib_ud.dll
 0001:000097fc       ?GetInterface@CListUI@DuiLib@@UAEPAXPB_W@Z 0040a7fc f   DuiLib_ud:DuiLib_ud.dll
 0001:00009802       ?GetControlFlags@CListUI@DuiLib@@UBEIXZ 0040a802 f   DuiLib_ud:DuiLib_ud.dll
 0001:00009808       ?Activate@CControlUI@DuiLib@@UAE_NXZ 0040a808 f   DuiLib_ud:DuiLib_ud.dll
 0001:0000980e       ?SetManager@CContainerUI@DuiLib@@UAEXPAVCPaintManagerUI@2@PAVCControlUI@2@_N@Z 0040a80e f   DuiLib_ud:DuiLib_ud.dll
 0001:00009814       ?SetPos@CListUI@DuiLib@@UAEXUtagRECT@@@Z 0040a814 f   DuiLib_ud:DuiLib_ud.dll
 0001:0000981a       ?SetEnabled@CControlUI@DuiLib@@UAEX_N@Z 0040a81a f   DuiLib_ud:DuiLib_ud.dll
 0001:00009820       ?SetMouseEnabled@CContainerUI@DuiLib@@UAEX_N@Z 0040a820 f   DuiLib_ud:DuiLib_ud.dll
 0001:00009826       ?FindControl@CContainerUI@DuiLib@@UAEPAVCControlUI@2@P6GPAV32@PAV32@PAX@Z1I@Z 0040a826 f   DuiLib_ud:DuiLib_ud.dll
 0001:0000982c       ?SetAttribute@CListUI@DuiLib@@UAEXPB_W0@Z 0040a82c f   DuiLib_ud:DuiLib_ud.dll
 0001:00009832       ?EstimateSize@CControlUI@DuiLib@@UAE?AUtagSIZE@@U3@@Z 0040a832 f   DuiLib_ud:DuiLib_ud.dll
 0001:00009838       ?DoPaint@CContainerUI@DuiLib@@UAEXPAUHDC__@@ABUtagRECT@@@Z 0040a838 f   DuiLib_ud:DuiLib_ud.dll
 0001:0000983e       ?DoPostPaint@CVerticalLayoutUI@DuiLib@@UAEXPAUHDC__@@ABUtagRECT@@@Z 0040a83e f   DuiLib_ud:DuiLib_ud.dll
 0001:00009844       ?GetInset@CContainerUI@DuiLib@@UBE?AUtagRECT@@XZ 0040a844 f   DuiLib_ud:DuiLib_ud.dll
 0001:0000984a       ?SetInset@CContainerUI@DuiLib@@UAEXUtagRECT@@@Z 0040a84a f   DuiLib_ud:DuiLib_ud.dll
 0001:00009850       ?GetChildPadding@CListUI@DuiLib@@UBEHXZ 0040a850 f   DuiLib_ud:DuiLib_ud.dll
 0001:00009856       ?SetChildPadding@CListUI@DuiLib@@UAEXH@Z 0040a856 f   DuiLib_ud:DuiLib_ud.dll
 0001:0000985c       ?IsAutoDestroy@CContainerUI@DuiLib@@UBE_NXZ 0040a85c f   DuiLib_ud:DuiLib_ud.dll
 0001:00009862       ?SetAutoDestroy@CContainerUI@DuiLib@@UAEX_N@Z 0040a862 f   DuiLib_ud:DuiLib_ud.dll
 0001:00009868       ?IsDelayedDestroy@CContainerUI@DuiLib@@UBE_NXZ 0040a868 f   DuiLib_ud:DuiLib_ud.dll
 0001:0000986e       ?SetDelayedDestroy@CContainerUI@DuiLib@@UAEX_N@Z 0040a86e f   DuiLib_ud:DuiLib_ud.dll
 0001:00009874       ?IsMouseChildEnabled@CContainerUI@DuiLib@@UBE_NXZ 0040a874 f   DuiLib_ud:DuiLib_ud.dll
 0001:0000987a       ?SetMouseChildEnabled@CContainerUI@DuiLib@@UAEX_N@Z 0040a87a f   DuiLib_ud:DuiLib_ud.dll
 0001:00009880       ?FindSelectable@CContainerUI@DuiLib@@UBEHH_N@Z 0040a880 f   DuiLib_ud:DuiLib_ud.dll
 0001:00009886       ?GetScrollPos@CListUI@DuiLib@@UBE?AUtagSIZE@@XZ 0040a886 f   DuiLib_ud:DuiLib_ud.dll
 0001:0000988c       ?GetScrollRange@CListUI@DuiLib@@UBE?AUtagSIZE@@XZ 0040a88c f   DuiLib_ud:DuiLib_ud.dll
 0001:00009892       ?SetScrollPos@CListUI@DuiLib@@UAEXUtagSIZE@@@Z 0040a892 f   DuiLib_ud:DuiLib_ud.dll
 0001:00009898       ?LineUp@CListUI@DuiLib@@UAEXXZ 0040a898 f   DuiLib_ud:DuiLib_ud.dll
 0001:0000989e       ?LineDown@CListUI@DuiLib@@UAEXXZ 0040a89e f   DuiLib_ud:DuiLib_ud.dll
 0001:000098a4       ?PageUp@CListUI@DuiLib@@UAEXXZ 0040a8a4 f   DuiLib_ud:DuiLib_ud.dll
 0001:000098aa       ?PageDown@CListUI@DuiLib@@UAEXXZ 0040a8aa f   DuiLib_ud:DuiLib_ud.dll
 0001:000098b0       ?HomeUp@CListUI@DuiLib@@UAEXXZ 0040a8b0 f   DuiLib_ud:DuiLib_ud.dll
 0001:000098b6       ?EndDown@CListUI@DuiLib@@UAEXXZ 0040a8b6 f   DuiLib_ud:DuiLib_ud.dll
 0001:000098bc       ?LineLeft@CListUI@DuiLib@@UAEXXZ 0040a8bc f   DuiLib_ud:DuiLib_ud.dll
 0001:000098c2       ?LineRight@CListUI@DuiLib@@UAEXXZ 0040a8c2 f   DuiLib_ud:DuiLib_ud.dll
 0001:000098c8       ?PageLeft@CListUI@DuiLib@@UAEXXZ 0040a8c8 f   DuiLib_ud:DuiLib_ud.dll
 0001:000098ce       ?PageRight@CListUI@DuiLib@@UAEXXZ 0040a8ce f   DuiLib_ud:DuiLib_ud.dll
 0001:000098d4       ?HomeLeft@CListUI@DuiLib@@UAEXXZ 0040a8d4 f   DuiLib_ud:DuiLib_ud.dll
 0001:000098da       ?EndRight@CListUI@DuiLib@@UAEXXZ 0040a8da f   DuiLib_ud:DuiLib_ud.dll
 0001:000098e0       ?EnableScrollBar@CListUI@DuiLib@@UAEX_N0@Z 0040a8e0 f   DuiLib_ud:DuiLib_ud.dll
 0001:000098e6       ?GetVerticalScrollBar@CListUI@DuiLib@@UBEPAVCScrollBarUI@2@XZ 0040a8e6 f   DuiLib_ud:DuiLib_ud.dll
 0001:000098ec       ?GetHorizontalScrollBar@CListUI@DuiLib@@UBEPAVCScrollBarUI@2@XZ 0040a8ec f   DuiLib_ud:DuiLib_ud.dll
 0001:000098f2       ?SetFloatPos@CContainerUI@DuiLib@@MAEXH@Z 0040a8f2 f   DuiLib_ud:DuiLib_ud.dll
 0001:000098f8       ?ProcessScrollBar@CContainerUI@DuiLib@@MAEXUtagRECT@@HH@Z 0040a8f8 f   DuiLib_ud:DuiLib_ud.dll
 0001:000098fe       ?GetItemAt@CListUI@DuiLib@@UBEPAVCControlUI@2@H@Z 0040a8fe f   DuiLib_ud:DuiLib_ud.dll
 0001:00009904       ?GetItemIndex@CListUI@DuiLib@@UBEHPAVCControlUI@2@@Z 0040a904 f   DuiLib_ud:DuiLib_ud.dll
 0001:0000990a       ?SetItemIndex@CListUI@DuiLib@@UAE_NPAVCControlUI@2@H@Z 0040a90a f   DuiLib_ud:DuiLib_ud.dll
 0001:00009910       ?GetCount@CListUI@DuiLib@@UBEHXZ 0040a910 f   DuiLib_ud:DuiLib_ud.dll
 0001:00009916       ?GetListInfo@CListUI@DuiLib@@UAEPAUtagTListInfoUI@2@XZ 0040a916 f   DuiLib_ud:DuiLib_ud.dll
 0001:0000991c       ?GetCurSel@CListUI@DuiLib@@UBEHXZ 0040a91c f   DuiLib_ud:DuiLib_ud.dll
 0001:00009922       ?SelectItem@CListUI@DuiLib@@UAE_NH_N@Z 0040a922 f   DuiLib_ud:DuiLib_ud.dll
 0001:00009928       ?GetHeader@CListUI@DuiLib@@UBEPAVCListHeaderUI@2@XZ 0040a928 f   DuiLib_ud:DuiLib_ud.dll
 0001:0000992e       ?GetList@CListUI@DuiLib@@UBEPAVCContainerUI@2@XZ 0040a92e f   DuiLib_ud:DuiLib_ud.dll
 0001:00009934       ?GetTextCallback@CListUI@DuiLib@@UBEPAVIListCallbackUI@2@XZ 0040a934 f   DuiLib_ud:DuiLib_ud.dll
 0001:0000993a       ?SetTextCallback@CListUI@DuiLib@@UAEXPAVIListCallbackUI@2@@Z 0040a93a f   DuiLib_ud:DuiLib_ud.dll
 0001:00009940       ?ExpandItem@CListUI@DuiLib@@UAE_NH_N@Z 0040a940 f   DuiLib_ud:DuiLib_ud.dll
 0001:00009946       ?GetExpandedItem@CListUI@DuiLib@@UBEHXZ 0040a946 f   DuiLib_ud:DuiLib_ud.dll
 0001:0000994c       ?Add@CListUI@DuiLib@@UAE_NPAVCControlUI@2@@Z 0040a94c f   DuiLib_ud:DuiLib_ud.dll
 0001:00009952       ?Remove@CListUI@DuiLib@@UAE_NPAVCControlUI@2@@Z 0040a952 f   DuiLib_ud:DuiLib_ud.dll
 0001:00009958       ?RemoveAt@CListUI@DuiLib@@UAE_NH@Z 0040a958 f   DuiLib_ud:DuiLib_ud.dll
 0001:0000995e       ?RemoveAll@CListUI@DuiLib@@UAEXXZ 0040a95e f   DuiLib_ud:DuiLib_ud.dll
 0001:00009964       ?SetVisible@CControlUI@DuiLib@@UAEX_N@Z 0040a964 f   DuiLib_ud:DuiLib_ud.dll
 0001:0000996a       ?DoEvent@CListUI@DuiLib@@UAEXAAUtagTEventUI@2@@Z 0040a96a f   DuiLib_ud:DuiLib_ud.dll
 0001:00009970       ?SetTimer@CPaintManagerUI@DuiLib@@QAE_NPAVCControlUI@2@II@Z 0040a970 f   DuiLib_ud:DuiLib_ud.dll
 0001:00009976       ?KillTimer@CPaintManagerUI@DuiLib@@QAE_NPAVCControlUI@2@I@Z 0040a976 f   DuiLib_ud:DuiLib_ud.dll
 0001:0000997c       ?DoEvent@CVerticalLayoutUI@DuiLib@@UAEXAAUtagTEventUI@2@@Z 0040a97c f   DuiLib_ud:DuiLib_ud.dll
 0001:00009982       ??1CTileLayoutUI@DuiLib@@UAE@XZ 0040a982 f   DuiLib_ud:DuiLib_ud.dll
 0001:00009988       ?RemoveAll@CContainerUI@DuiLib@@UAEXXZ 0040a988 f   DuiLib_ud:DuiLib_ud.dll
 0001:0000998e       ??0CDuiString@DuiLib@@QAE@PB_WH@Z 0040a98e f   DuiLib_ud:DuiLib_ud.dll
 0001:00009994       ?Add@CContainerUI@DuiLib@@UAE_NPAVCControlUI@2@@Z 0040a994 f   DuiLib_ud:DuiLib_ud.dll
 0001:0000999a       ?Create@CDialogBuilder@DuiLib@@QAEPAVCControlUI@2@PAVIDialogBuilderCallback@2@PAVCPaintManagerUI@2@PAV32@@Z 0040a99a f   DuiLib_ud:DuiLib_ud.dll
 0001:000099a0       ?SetItemSize@CTileLayoutUI@DuiLib@@QAEXUtagSIZE@@@Z 0040a9a0 f   DuiLib_ud:DuiLib_ud.dll
 0001:000099a6       ??0CSize@DuiLib@@QAE@HH@Z  0040a9a6 f   DuiLib_ud:DuiLib_ud.dll
 0001:000099ac       ??0CTileLayoutUI@DuiLib@@QAE@XZ 0040a9ac f   DuiLib_ud:DuiLib_ud.dll
 0001:000099b2       ?GetClass@CTileLayoutUI@DuiLib@@UBEPB_WXZ 0040a9b2 f   DuiLib_ud:DuiLib_ud.dll
 0001:000099b8       ?GetInterface@CTileLayoutUI@DuiLib@@UAEPAXPB_W@Z 0040a9b8 f   DuiLib_ud:DuiLib_ud.dll
 0001:000099be       ?GetControlFlags@CControlUI@DuiLib@@UBEIXZ 0040a9be f   DuiLib_ud:DuiLib_ud.dll
 0001:000099c4       ?SetPos@CTileLayoutUI@DuiLib@@UAEXUtagRECT@@@Z 0040a9c4 f   DuiLib_ud:DuiLib_ud.dll
 0001:000099ca       ?SetVisible@CContainerUI@DuiLib@@UAEX_N@Z 0040a9ca f   DuiLib_ud:DuiLib_ud.dll
 0001:000099d0       ?SetInternVisible@CContainerUI@DuiLib@@UAEX_N@Z 0040a9d0 f   DuiLib_ud:DuiLib_ud.dll
 0001:000099d6       ?SetAttribute@CTileLayoutUI@DuiLib@@UAEXPB_W0@Z 0040a9d6 f   DuiLib_ud:DuiLib_ud.dll
 0001:000099dc       ?GetChildPadding@CContainerUI@DuiLib@@UBEHXZ 0040a9dc f   DuiLib_ud:DuiLib_ud.dll
 0001:000099e2       ?SetChildPadding@CContainerUI@DuiLib@@UAEXH@Z 0040a9e2 f   DuiLib_ud:DuiLib_ud.dll
 0001:000099e8       ?GetScrollPos@CContainerUI@DuiLib@@UBE?AUtagSIZE@@XZ 0040a9e8 f   DuiLib_ud:DuiLib_ud.dll
 0001:000099ee       ?GetScrollRange@CContainerUI@DuiLib@@UBE?AUtagSIZE@@XZ 0040a9ee f   DuiLib_ud:DuiLib_ud.dll
 0001:000099f4       ?SetScrollPos@CContainerUI@DuiLib@@UAEXUtagSIZE@@@Z 0040a9f4 f   DuiLib_ud:DuiLib_ud.dll
 0001:000099fa       ?LineUp@CContainerUI@DuiLib@@UAEXXZ 0040a9fa f   DuiLib_ud:DuiLib_ud.dll
 0001:00009a00       ?LineDown@CContainerUI@DuiLib@@UAEXXZ 0040aa00 f   DuiLib_ud:DuiLib_ud.dll
 0001:00009a06       ?PageUp@CContainerUI@DuiLib@@UAEXXZ 0040aa06 f   DuiLib_ud:DuiLib_ud.dll
 0001:00009a0c       ?PageDown@CContainerUI@DuiLib@@UAEXXZ 0040aa0c f   DuiLib_ud:DuiLib_ud.dll
 0001:00009a12       ?HomeUp@CContainerUI@DuiLib@@UAEXXZ 0040aa12 f   DuiLib_ud:DuiLib_ud.dll
 0001:00009a18       ?EndDown@CContainerUI@DuiLib@@UAEXXZ 0040aa18 f   DuiLib_ud:DuiLib_ud.dll
 0001:00009a1e       ?LineLeft@CContainerUI@DuiLib@@UAEXXZ 0040aa1e f   DuiLib_ud:DuiLib_ud.dll
 0001:00009a24       ?LineRight@CContainerUI@DuiLib@@UAEXXZ 0040aa24 f   DuiLib_ud:DuiLib_ud.dll
 0001:00009a2a       ?PageLeft@CContainerUI@DuiLib@@UAEXXZ 0040aa2a f   DuiLib_ud:DuiLib_ud.dll
 0001:00009a30       ?PageRight@CContainerUI@DuiLib@@UAEXXZ 0040aa30 f   DuiLib_ud:DuiLib_ud.dll
 0001:00009a36       ?HomeLeft@CContainerUI@DuiLib@@UAEXXZ 0040aa36 f   DuiLib_ud:DuiLib_ud.dll
 0001:00009a3c       ?EndRight@CContainerUI@DuiLib@@UAEXXZ 0040aa3c f   DuiLib_ud:DuiLib_ud.dll
 0001:00009a42       ?EnableScrollBar@CContainerUI@DuiLib@@UAEX_N0@Z 0040aa42 f   DuiLib_ud:DuiLib_ud.dll
 0001:00009a48       ?GetVerticalScrollBar@CContainerUI@DuiLib@@UBEPAVCScrollBarUI@2@XZ 0040aa48 f   DuiLib_ud:DuiLib_ud.dll
 0001:00009a4e       ?GetHorizontalScrollBar@CContainerUI@DuiLib@@UBEPAVCScrollBarUI@2@XZ 0040aa4e f   DuiLib_ud:DuiLib_ud.dll
 0001:00009a54       ?GetItemAt@CContainerUI@DuiLib@@UBEPAVCControlUI@2@H@Z 0040aa54 f   DuiLib_ud:DuiLib_ud.dll
 0001:00009a5a       ?GetItemIndex@CContainerUI@DuiLib@@UBEHPAVCControlUI@2@@Z 0040aa5a f   DuiLib_ud:DuiLib_ud.dll
 0001:00009a60       ?SetItemIndex@CContainerUI@DuiLib@@UAE_NPAVCControlUI@2@H@Z 0040aa60 f   DuiLib_ud:DuiLib_ud.dll
 0001:00009a66       ?GetCount@CContainerUI@DuiLib@@UBEHXZ 0040aa66 f   DuiLib_ud:DuiLib_ud.dll
 0001:00009a6c       ?AddAt@CContainerUI@DuiLib@@UAE_NPAVCControlUI@2@H@Z 0040aa6c f   DuiLib_ud:DuiLib_ud.dll
 0001:00009a72       ?Remove@CContainerUI@DuiLib@@UAE_NPAVCControlUI@2@@Z 0040aa72 f   DuiLib_ud:DuiLib_ud.dll
 0001:00009a78       ?RemoveAt@CContainerUI@DuiLib@@UAE_NH@Z 0040aa78 f   DuiLib_ud:DuiLib_ud.dll
 0001:00009a7e       ?GetMousePos@CPaintManagerUI@DuiLib@@QBE?AUtagPOINT@@XZ 0040aa7e f   DuiLib_ud:DuiLib_ud.dll
 0001:00009a84       ?DoEvent@CContainerUI@DuiLib@@UAEXAAUtagTEventUI@2@@Z 0040aa84 f   DuiLib_ud:DuiLib_ud.dll
 0001:00009a8a       ??1CPaintManagerUI@DuiLib@@QAE@XZ 0040aa8a f   DuiLib_ud:DuiLib_ud.dll
 0001:00009a90       ?ReplaceSel@CRichEditUI@DuiLib@@QAEXPB_W_N@Z 0040aa90 f   DuiLib_ud:DuiLib_ud.dll
 0001:00009a96       ?GetControl@CActiveXUI@DuiLib@@QAEJU_GUID@@PAPAX@Z 0040aa96 f   DuiLib_ud:DuiLib_ud.dll
 0001:00009a9c       ?GetSizeBox@CPaintManagerUI@DuiLib@@QAEAAUtagRECT@@XZ 0040aa9c f   DuiLib_ud:DuiLib_ud.dll
 0001:00009aa2       ??0CDuiRect@DuiLib@@QAE@ABUtagRECT@@@Z 0040aaa2 f   DuiLib_ud:DuiLib_ud.dll
 0001:00009aa8       ??1CListTextElementUI@DuiLib@@UAE@XZ 0040aaa8 f   DuiLib_ud:DuiLib_ud.dll
 0001:00009ab0       ??0_Init_locks@std@@QAE@XZ 0040aab0 f   libcpmtd:xlock.obj
 0001:00009b00       ??1_Init_locks@std@@QAE@XZ 0040ab00 f   libcpmtd:xlock.obj
 0001:00009b50       ?_Init_locks_ctor@_Init_locks@std@@CAXPAV12@@Z 0040ab50 f   libcpmtd:xlock.obj
 0001:00009ba0       ?_Init_locks_dtor@_Init_locks@std@@CAXPAV12@@Z 0040aba0 f   libcpmtd:xlock.obj
 0001:00009bf0       ??0_Lockit@std@@QAE@XZ     0040abf0 f   libcpmtd:xlock.obj
 0001:00009c20       ??0_Lockit@std@@QAE@H@Z    0040ac20 f   libcpmtd:xlock.obj
 0001:00009c60       ??1_Lockit@std@@QAE@XZ     0040ac60 f   libcpmtd:xlock.obj
 0001:00009c90       ?_Lockit_ctor@_Lockit@std@@CAXPAV12@@Z 0040ac90 f   libcpmtd:xlock.obj
 0001:00009cb0       ?_Lockit_ctor@_Lockit@std@@CAXPAV12@H@Z 0040acb0 f   libcpmtd:xlock.obj
 0001:00009ce0       ?_Lockit_dtor@_Lockit@std@@CAXPAV12@@Z 0040ace0 f   libcpmtd:xlock.obj
 0001:00009d00       ?_Lockit_ctor@_Lockit@std@@SAXH@Z 0040ad00 f   libcpmtd:xlock.obj
 0001:00009d20       ?_Lockit_dtor@_Lockit@std@@SAXH@Z 0040ad20 f   libcpmtd:xlock.obj
 0001:00009d40       ?_Debug_message@std@@YAXPB_W0I@Z 0040ad40 f   libcpmtd:stdthrow.obj
 0001:00009d70       ?_Debug_message@std@@YAXPBG0I@Z 0040ad70 f   libcpmtd:stdthrow.obj
 0001:00009d90       ?_Xinvalid_argument@std@@YAXPBD@Z 0040ad90 f   libcpmtd:xthrow.obj
 0001:00009dc0       ??0invalid_argument@std@@QAE@PBD@Z 0040adc0 f i libcpmtd:xthrow.obj
 0001:00009df0       ??0logic_error@std@@QAE@PBD@Z 0040adf0 f i libcpmtd:xthrow.obj
 0001:00009e20       ??_Elogic_error@std@@UAEPAXI@Z 0040ae20 f i libcpmtd:xthrow.obj
 0001:00009e20       ??_Glogic_error@std@@UAEPAXI@Z 0040ae20 f i libcpmtd:xthrow.obj
 0001:00009e50       ??1logic_error@std@@UAE@XZ 0040ae50 f i libcpmtd:xthrow.obj
 0001:00009e70       ??_Ginvalid_argument@std@@UAEPAXI@Z 0040ae70 f i libcpmtd:xthrow.obj
 0001:00009e70       ??_Einvalid_argument@std@@UAEPAXI@Z 0040ae70 f i libcpmtd:xthrow.obj
 0001:00009ea0       ??1invalid_argument@std@@UAE@XZ 0040aea0 f i libcpmtd:xthrow.obj
 0001:00009ec0       ??0invalid_argument@std@@QAE@ABV01@@Z 0040aec0 f i libcpmtd:xthrow.obj
 0001:00009ef0       ??0logic_error@std@@QAE@ABV01@@Z 0040aef0 f i libcpmtd:xthrow.obj
 0001:00009f20       ?_Xlength_error@std@@YAXPBD@Z 0040af20 f   libcpmtd:xthrow.obj
 0001:00009f50       ??0length_error@std@@QAE@PBD@Z 0040af50 f i libcpmtd:xthrow.obj
 0001:00009f80       ??_Elength_error@std@@UAEPAXI@Z 0040af80 f i libcpmtd:xthrow.obj
 0001:00009f80       ??_Glength_error@std@@UAEPAXI@Z 0040af80 f i libcpmtd:xthrow.obj
 0001:00009fb0       ??1length_error@std@@UAE@XZ 0040afb0 f i libcpmtd:xthrow.obj
 0001:00009fd0       ??0length_error@std@@QAE@ABV01@@Z 0040afd0 f i libcpmtd:xthrow.obj
 0001:0000a000       ?_Xout_of_range@std@@YAXPBD@Z 0040b000 f   libcpmtd:xthrow.obj
 0001:0000a030       ??0out_of_range@std@@QAE@PBD@Z 0040b030 f i libcpmtd:xthrow.obj
 0001:0000a060       ??_Gout_of_range@std@@UAEPAXI@Z 0040b060 f i libcpmtd:xthrow.obj
 0001:0000a060       ??_Eout_of_range@std@@UAEPAXI@Z 0040b060 f i libcpmtd:xthrow.obj
 0001:0000a090       ??1out_of_range@std@@UAE@XZ 0040b090 f i libcpmtd:xthrow.obj
 0001:0000a0b0       ??0out_of_range@std@@QAE@ABV01@@Z 0040b0b0 f i libcpmtd:xthrow.obj
 0001:0000a0e0       ?_Xoverflow_error@std@@YAXPBD@Z 0040b0e0 f   libcpmtd:xthrow.obj
 0001:0000a110       ??0overflow_error@std@@QAE@PBD@Z 0040b110 f i libcpmtd:xthrow.obj
 0001:0000a140       ??0runtime_error@std@@QAE@PBD@Z 0040b140 f i libcpmtd:xthrow.obj
 0001:0000a170       ??_Gruntime_error@std@@UAEPAXI@Z 0040b170 f i libcpmtd:xthrow.obj
 0001:0000a170       ??_Eruntime_error@std@@UAEPAXI@Z 0040b170 f i libcpmtd:xthrow.obj
 0001:0000a1a0       ??1runtime_error@std@@UAE@XZ 0040b1a0 f i libcpmtd:xthrow.obj
 0001:0000a1c0       ??_Goverflow_error@std@@UAEPAXI@Z 0040b1c0 f i libcpmtd:xthrow.obj
 0001:0000a1c0       ??_Eoverflow_error@std@@UAEPAXI@Z 0040b1c0 f i libcpmtd:xthrow.obj
 0001:0000a1f0       ??1overflow_error@std@@UAE@XZ 0040b1f0 f i libcpmtd:xthrow.obj
 0001:0000a210       ??0overflow_error@std@@QAE@ABV01@@Z 0040b210 f i libcpmtd:xthrow.obj
 0001:0000a240       ??0runtime_error@std@@QAE@ABV01@@Z 0040b240 f i libcpmtd:xthrow.obj
 0001:0000a270       ?_Xruntime_error@std@@YAXPBD@Z 0040b270 f   libcpmtd:xthrow.obj
 0001:0000a2a0       __Once                     0040b2a0 f   libcpmtd:xmtx.obj
 0001:0000a300       __Mtxinit                  0040b300 f   libcpmtd:xmtx.obj
 0001:0000a320       __Mtxdst                   0040b320 f   libcpmtd:xmtx.obj
 0001:0000a340       __Mtxlock                  0040b340 f   libcpmtd:xmtx.obj
 0001:0000a360       __Mtxunlock                0040b360 f   libcpmtd:xmtx.obj
 0001:0000a380       ??2@YAPAXI@Z               0040b380 f   LIBCMTD:new.obj
 0001:0000a400       ??0bad_alloc@std@@QAE@XZ   0040b400 f i LIBCMTD:new.obj
 0001:0000a430       @__security_check_cookie@4 0040b430 f   LIBCMTD:secchk.obj
 0001:0000a440       __RTC_CheckEsp             0040b440 f   LIBCMTD:_stack_.obj
 0001:0000a470       @_RTC_CheckStackVars@8     0040b470 f   LIBCMTD:_stack_.obj
 0001:0000a4e0       @_RTC_AllocaHelper@12      0040b4e0 f   LIBCMTD:_stack_.obj
 0001:0000a520       @_RTC_CheckStackVars2@12   0040b520 f   LIBCMTD:_stack_.obj
 0001:0000a600       __RTC_InitBase             0040b600 f   LIBCMTD:_init_.obj
 0001:0000a630       __RTC_Shutdown             0040b630 f   LIBCMTD:_init_.obj
 0001:0000a650       ?name@type_info@@QBEPBDPAU__type_info_node@@@Z 0040b650 f   LIBCMTD:typinfo.obj
 0001:0000a670       ??1type_info@@UAE@XZ       0040b670 f   LIBCMTD:typinfo.obj
 0001:0000a6a0       ??_Gtype_info@@UAEPAXI@Z   0040b6a0 f i LIBCMTD:typinfo.obj
 0001:0000a6a0       ??_Etype_info@@UAEPAXI@Z   0040b6a0 f i LIBCMTD:typinfo.obj
 0001:0000a6d0       ?_name_internal_method@type_info@@QBEPBDPAU__type_info_node@@@Z 0040b6d0 f   LIBCMTD:typinfo.obj
 0001:0000a6f0       ?_type_info_dtor_internal_method@type_info@@QAEXXZ 0040b6f0 f   LIBCMTD:typinfo.obj
 0001:0000a710       ??8type_info@@QBE_NABV0@@Z 0040b710 f   LIBCMTD:typinfo.obj
 0001:0000a740       ??9type_info@@QBE_NABV0@@Z 0040b740 f   LIBCMTD:typinfo.obj
 0001:0000a770       ?before@type_info@@QBEHABV1@@Z 0040b770 f   LIBCMTD:typinfo.obj
 0001:0000a7a0       ?raw_name@type_info@@QBEPBDXZ 0040b7a0 f   LIBCMTD:typinfo.obj
 0001:0000a7c0       ??0type_info@@AAE@ABV0@@Z  0040b7c0 f   LIBCMTD:typinfo.obj
 0001:0000a7e0       ??4type_info@@AAEAAV0@ABV0@@Z 0040b7e0 f   LIBCMTD:typinfo.obj
 0001:0000a800       __purecall                 0040b800 f   LIBCMTD:purevirt.obj
 0001:0000a840       __set_purecall_handler     0040b840 f   LIBCMTD:purevirt.obj
 0001:0000a880       __get_purecall_handler     0040b880 f   LIBCMTD:purevirt.obj
 0001:0000a8a0       _wcscmp                    0040b8a0 f   LIBCMTD:wcscmp.obj
 0001:0000a910       _memset                    0040b910 f   LIBCMTD:memset.obj
 0001:0000a990       ?_JumpToContinuation@@YGXPAXPAUEHRegistrationNode@@@Z 0040b990 f   LIBCMTD:_trnsctrl_.obj
 0001:0000a9d0       ?_CallMemberFunction0@@YGXPAX0@Z 0040b9d0 f   LIBCMTD:_trnsctrl_.obj
 0001:0000a9e0       ?_CallMemberFunction1@@YGXPAX00@Z 0040b9e0 f   LIBCMTD:_trnsctrl_.obj
 0001:0000a9f0       ?_CallMemberFunction2@@YGXPAX00H@Z 0040b9f0 f   LIBCMTD:_trnsctrl_.obj
 0001:0000aa00       ?_UnwindNestedFrames@@YGXPAUEHRegistrationNode@@PAUEHExceptionRecord@@@Z 0040ba00 f   LIBCMTD:_trnsctrl_.obj
 0001:0000aa60       ___CxxFrameHandler         0040ba60 f   LIBCMTD:_trnsctrl_.obj
 0001:0000aaa0       ___CxxFrameHandler3        0040baa0 f   LIBCMTD:_trnsctrl_.obj
 0001:0000aae0       ___CxxFrameHandler2        0040bae0 f   LIBCMTD:_trnsctrl_.obj
 0001:0000ab20       ___CxxLongjmpUnwind@4      0040bb20 f   LIBCMTD:_trnsctrl_.obj
 0001:0000ab50       ?_CallCatchBlock2@@YAPAXPAUEHRegistrationNode@@PBU_s_FuncInfo@@PAXHK@Z 0040bb50 f   LIBCMTD:_trnsctrl_.obj
 0001:0000ac10       ?_CallSETranslator@@YAHPAUEHExceptionRecord@@PAUEHRegistrationNode@@PAX2PBU_s_FuncInfo@@H1@Z 0040bc10 f   LIBCMTD:_trnsctrl_.obj
 0001:0000adb0       ?_GetRangeOfTrysToCheck@@YAPBU_s_TryBlockMapEntry@@PBU_s_FuncInfo@@HHPAI1@Z 0040bdb0 f   LIBCMTD:_trnsctrl_.obj
 0001:0000ae30       __CreateFrameInfo          0040be30 f   LIBCMTD:_trnsctrl_.obj
 0001:0000ae60       __IsExceptionObjectToBeDestroyed 0040be60 f   LIBCMTD:_trnsctrl_.obj
 0001:0000ae90       __FindAndUnlinkFrame       0040be90 f   LIBCMTD:_trnsctrl_.obj
 0001:0000aef0       ??3@YAXPAX@Z               0040bef0 f   LIBCMTD:dbgdel.obj
 0001:0000b000       __CrtSetReportHookW2       0040c000 f   LIBCMTD:dbgrptw.obj
 0001:0000b330       __CrtDbgReportW            0040c330 f   LIBCMTD:dbgrptw.obj
 0001:0000b370       __CrtDbgReportWV           0040c370 f i LIBCMTD:dbgrptw.obj
 0001:0000b3a0       ___crtMessageWindowW       0040c3a0 f   LIBCMTD:dbgrptw.obj
 0001:0000b7a0       __invoke_watson_if_error   0040c7a0 f i LIBCMTD:dbgrptw.obj
 0001:0000b7d0       __invoke_watson_if_oneof   0040c7d0 f i LIBCMTD:dbgrptw.obj
 0001:0000b810       ?_CrtDbgReportW@@YAHHPBGH00ZZ 0040c810 f   LIBCMTD:dbgrptw.obj
 0001:0000b850       __CIsqrt                   0040c850 f   LIBCMTD:_sqrt_.obj
 0001:0000b864       _sqrt                      0040c864     LIBCMTD:_sqrt_.obj
 0001:0000b910       __fpmath                   0040c910 f   LIBCMTD:_fpinit_.obj
 0001:0000b930       __cfltcvt_init             0040c930 f   LIBCMTD:_fpinit_.obj
 0001:0000b9a0       ___setfflag                0040c9a0 f   LIBCMTD:_fpinit_.obj
 0001:0000b9c0       __ftol2_sse                0040c9c0 f   LIBCMTD:ftol2.obj
 0001:0000b9c9       __ftol2_pentium4           0040c9c9 f   LIBCMTD:ftol2.obj
 0001:0000b9dc       __ftol2_sse_excpt          0040c9dc f   LIBCMTD:ftol2.obj
 0001:0000b9f6       __ftol2                    0040c9f6 f   LIBCMTD:ftol2.obj
 0001:0000ba70       _labs                      0040ca70 f   LIBCMTD:labs.obj
 0001:0000baa0       __itow                     0040caa0 f   LIBCMTD:xtow.obj
 0001:0000bbc0       __ltow                     0040cbc0 f   LIBCMTD:xtow.obj
 0001:0000bc00       __ultow                    0040cc00 f   LIBCMTD:xtow.obj
 0001:0000bc20       __i64tow                   0040cc20 f   LIBCMTD:xtow.obj
 0001:0000bd80       __ui64tow                  0040cd80 f   LIBCMTD:xtow.obj
 0001:0000bda0       __initp_misc_invarg        0040cda0 f   LIBCMTD:invarg.obj
 0001:0000bdb0       __invalid_parameter        0040cdb0 f   LIBCMTD:invarg.obj
 0001:0000be10       __invoke_watson            0040ce10 f   LIBCMTD:invarg.obj
 0001:0000be40       __call_reportfault         0040ce40 f   LIBCMTD:invarg.obj
 0001:0000bf90       __set_invalid_parameter_handler 0040cf90 f   LIBCMTD:invarg.obj
 0001:0000bfd0       __get_invalid_parameter_handler 0040cfd0 f   LIBCMTD:invarg.obj
 0001:0000c000       ?_invalid_parameter@@YAXPBG00II@Z 0040d000 f   LIBCMTD:invarg.obj
 0001:0000c030       ?_invoke_watson@@YAXPBG00II@Z 0040d030 f   LIBCMTD:invarg.obj
 0001:0000c050       __CxxThrowException@8      0040d050 f   LIBCMTD:throw.obj
 0001:0000c0b0       ??0exception@std@@QAE@XZ   0040d0b0 f   LIBCMTD:stdexcpt.obj
 0001:0000c0e0       ??_Eexception@std@@UAEPAXI@Z 0040d0e0 f i LIBCMTD:stdexcpt.obj
 0001:0000c0e0       ??_Gexception@std@@UAEPAXI@Z 0040d0e0 f i LIBCMTD:stdexcpt.obj
 0001:0000c110       ??0exception@std@@QAE@ABQBD@Z 0040d110 f   LIBCMTD:stdexcpt.obj
 0001:0000c150       ??0exception@std@@QAE@ABQBDH@Z 0040d150 f   LIBCMTD:stdexcpt.obj
 0001:0000c180       ??0exception@std@@QAE@ABV01@@Z 0040d180 f   LIBCMTD:stdexcpt.obj
 0001:0000c1c0       ??4exception@std@@QAEAAV01@ABV01@@Z 0040d1c0 f   LIBCMTD:stdexcpt.obj
 0001:0000c210       ??1exception@std@@UAE@XZ   0040d210 f   LIBCMTD:stdexcpt.obj
 0001:0000c230       ?what@exception@std@@UBEPBDXZ 0040d230 f   LIBCMTD:stdexcpt.obj
 0001:0000c260       ?_Copy_str@exception@std@@AAEXPBD@Z 0040d260 f   LIBCMTD:stdexcpt.obj
 0001:0000c2d0       ?_Tidy@exception@std@@AAEXXZ 0040d2d0 f   LIBCMTD:stdexcpt.obj
 0001:0000c310       ??0bad_cast@std@@QAE@PBD@Z 0040d310 f   LIBCMTD:stdexcpt.obj
 0001:0000c340       ??_Gbad_cast@std@@UAEPAXI@Z 0040d340 f i LIBCMTD:stdexcpt.obj
 0001:0000c340       ??_Ebad_cast@std@@UAEPAXI@Z 0040d340 f i LIBCMTD:stdexcpt.obj
 0001:0000c370       ??0bad_cast@std@@QAE@ABV01@@Z 0040d370 f   LIBCMTD:stdexcpt.obj
 0001:0000c3a0       ??1bad_cast@std@@UAE@XZ    0040d3a0 f   LIBCMTD:stdexcpt.obj
 0001:0000c3c0       ??0bad_typeid@std@@QAE@PBD@Z 0040d3c0 f   LIBCMTD:stdexcpt.obj
 0001:0000c3f0       ??_Ebad_typeid@std@@UAEPAXI@Z 0040d3f0 f i LIBCMTD:stdexcpt.obj
 0001:0000c3f0       ??_Gbad_typeid@std@@UAEPAXI@Z 0040d3f0 f i LIBCMTD:stdexcpt.obj
 0001:0000c420       ??0bad_typeid@std@@QAE@ABV01@@Z 0040d420 f   LIBCMTD:stdexcpt.obj
 0001:0000c450       ??1bad_typeid@std@@UAE@XZ  0040d450 f   LIBCMTD:stdexcpt.obj
 0001:0000c470       ??0__non_rtti_object@std@@QAE@PBD@Z 0040d470 f   LIBCMTD:stdexcpt.obj
 0001:0000c4a0       ??_G__non_rtti_object@std@@UAEPAXI@Z 0040d4a0 f i LIBCMTD:stdexcpt.obj
 0001:0000c4a0       ??_E__non_rtti_object@std@@UAEPAXI@Z 0040d4a0 f i LIBCMTD:stdexcpt.obj
 0001:0000c4d0       ??0__non_rtti_object@std@@QAE@ABV01@@Z 0040d4d0 f   LIBCMTD:stdexcpt.obj
 0001:0000c500       ??1__non_rtti_object@std@@UAE@XZ 0040d500 f   LIBCMTD:stdexcpt.obj
 0001:0000c520       _memmove                   0040d520 f   LIBCMTD:memmove.obj
 0001:0000c890       __onexit                   0040d890 f   LIBCMTD:onexit.obj
 0001:0000ca60       _atexit                    0040da60 f   LIBCMTD:onexit.obj
 0001:0000ca80       ___onexitinit              0040da80 f   LIBCMTD:onexit.obj
 0001:0000cae0       __wassert                  0040dae0 f   LIBCMTD:wassert.obj
 0001:0000d6b0       __time64                   0040e6b0 f   LIBCMTD:time64.obj
 0001:0000d730       __chkstk                   0040e730 f   LIBCMTD:chkstk.obj
 0001:0000d730       __alloca_probe             0040e730     LIBCMTD:chkstk.obj
 0001:0000d760       _wcsrchr                   0040e760 f   LIBCMTD:wcsrchr.obj
 0001:0000d7c0       _wcscpy_s                  0040e7c0 f   LIBCMTD:wcscpy_s.obj
 0001:0000daa0       _wcscat_s                  0040eaa0 f   LIBCMTD:wcscat_s.obj
 0001:0000de90       _WinMainCRTStartup         0040ee90 f   LIBCMTD:wincrt0.obj
 0001:0000e110       __initp_heap_handler       0040f110 f   LIBCMTD:handler.obj
 0001:0000e120       ?_set_new_handler@@YAP6AHI@ZP6AHI@Z@Z 0040f120 f   LIBCMTD:handler.obj
 0001:0000e160       ?_set_new_handler@@YAP6AHI@ZH@Z 0040f160 f   LIBCMTD:handler.obj
 0001:0000e1a0       ?_query_new_handler@@YAP6AHI@ZXZ 0040f1a0 f   LIBCMTD:handler.obj
 0001:0000e1c0       __callnewh                 0040f1c0 f   LIBCMTD:handler.obj
 0001:0000e200       _malloc                    0040f200 f   LIBCMTD:dbgmalloc.obj
 0001:0000e230       ___report_gsfailure        0040f230 f   LIBCMTD:gs_report.obj
 0001:0000e340       ?_RTC_Failure@@YAXPAXH@Z   0040f340 f   LIBCMTD:_error_.obj
 0001:0000e6f0       ?_RTC_StackFailure@@YAXPAXPBD@Z 0040f6f0 f   LIBCMTD:_error_.obj
 0001:0000e7f0       ?_RTC_AllocaFailure@@YAXPAXPAU_RTC_ALLOCA_NODE@@H@Z 0040f7f0 f   LIBCMTD:_error_.obj
 0001:0000e9a0       __RTC_UninitUse            0040f9a0 f   LIBCMTD:_error_.obj
 0001:0000ea90       __RTC_NumErrors            0040fa90 f   LIBCMTD:_userapi_.obj
 0001:0000eaa0       __RTC_GetErrDesc           0040faa0 f   LIBCMTD:_userapi_.obj
 0001:0000eac0       __RTC_SetErrorType         0040fac0 f   LIBCMTD:_userapi_.obj
 0001:0000eaf0       __RTC_SetErrorFunc         0040faf0 f   LIBCMTD:_userapi_.obj
 0001:0000eb10       __RTC_SetErrorFuncW        0040fb10 f   LIBCMTD:_userapi_.obj
 0001:0000eb30       ?_RTC_GetErrorFunc@@YAP6AHHPBDH00ZZPBX@Z 0040fb30 f   LIBCMTD:_userapi_.obj
 0001:0000eb40       ?_RTC_GetErrorFuncW@@YAP6AHHPB_WH00ZZPBX@Z 0040fb40 f   LIBCMTD:_userapi_.obj
 0001:0000eb50       __chkesp                   0040fb50 f   LIBCMTD:chkesp.obj
 0001:0000eb90       __CRT_RTC_INIT             0040fb90 f   LIBCMTD:chkesp.obj
 0001:0000eba0       __CRT_RTC_INITW            0040fba0 f   LIBCMTD:chkesp.obj
 0001:0000ebb0       ?_Type_info_dtor@type_info@@CAXPAV1@@Z 0040fbb0 f   LIBCMTD:typname.obj
 0001:0000ecc0       ?_Name_base@type_info@@CAPBDPBV1@PAU__type_info_node@@@Z 0040fcc0 f   LIBCMTD:typname.obj
 0001:0000ee70       ?_Type_info_dtor_internal@type_info@@CAXPAV1@@Z 0040fe70 f   LIBCMTD:typname.obj
 0001:0000ef80       ___unDNameHelper           0040ff80 f   LIBCMTD:typname.obj
 0001:0000efc0       ?_Name_base_internal@type_info@@CAPBDPBV1@PAU__type_info_node@@@Z 0040ffc0 f   LIBCMTD:typname.obj
 0001:0000f180       ___clean_type_info_names_internal 00410180 f   LIBCMTD:typname.obj
 0001:0000f240       _strcmp                    00410240 f   LIBCMTD:strcmp.obj
 0001:0000f2d0       _abort                     004102d0 f   LIBCMTD:abort.obj
 0001:0000f330       __set_abort_behavior       00410330 f   LIBCMTD:abort.obj
 0001:0000f360       __FF_MSGBANNER             00410360 f   LIBCMTD:crt0msg.obj
 0001:0000f3b0       __GET_RTERRMSG             004103b0 f   LIBCMTD:crt0msg.obj
 0001:0000f400       __NMSG_WRITE               00410400 f   LIBCMTD:crt0msg.obj
 0001:0000f740       ___getlocaleinfo           00410740 f   LIBCMTD:inithelp.obj
 0001:0000fa20       __initp_misc_purevirt      00410a20 f   LIBCMTD:inithelp.obj
 0001:0000fa30       __VEC_memzero              00410a30 f   LIBCMTD:p4_memset.obj
 0001:0000faf0       ___sse2_available_init     00410af0 f   LIBCMTD:cpu_disp.obj
 0001:0000fb10       ___InternalCxxFrameHandler 00410b10 f   LIBCMTD:frame.obj
 0001:00010110       ??0bad_exception@std@@QAE@PBD@Z 00411110 f i LIBCMTD:frame.obj
 0001:00010140       ??1bad_exception@std@@UAE@XZ 00411140 f i LIBCMTD:frame.obj
 0001:00010160       ??_Ebad_exception@std@@UAEPAXI@Z 00411160 f i LIBCMTD:frame.obj
 0001:00010160       ??_Gbad_exception@std@@UAEPAXI@Z 00411160 f i LIBCMTD:frame.obj
 0001:00010190       ??0bad_exception@std@@QAE@ABV01@@Z 00411190 f i LIBCMTD:frame.obj
 0001:00010350       ___TypeMatch               00411350 f   LIBCMTD:frame.obj
 0001:00010400       ___FrameUnwindFilter       00411400 f   LIBCMTD:frame.obj
 0001:00010480       ___FrameUnwindToState      00411480 f   LIBCMTD:frame.obj
 0001:000109c0       ___BuildCatchObjectHelper  004119c0 f   LIBCMTD:frame.obj
 0001:00010c30       ___BuildCatchObject        00411c30 f   LIBCMTD:frame.obj
 0001:00010d40       ___DestructExceptionObject 00411d40 f   LIBCMTD:frame.obj
 0001:00010df0       ___AdjustPointer           00411df0 f   LIBCMTD:frame.obj
 0001:00010e40       ?__uncaught_exception@@YA_NXZ 00411e40 f   LIBCMTD:frame.obj
 0001:00010e60       ___CxxExceptionFilter      00411e60 f   LIBCMTD:frame.obj
 0001:00011060       ___CxxRegisterExceptionObject 00412060 f   LIBCMTD:frame.obj
 0001:00011190       ___CxxDetectRethrow        00412190 f   LIBCMTD:frame.obj
 0001:00011220       ___CxxUnregisterExceptionObject 00412220 f   LIBCMTD:frame.obj
 0001:000113a0       ___CxxQueryExceptionSize   004123a0 f   LIBCMTD:frame.obj
 0001:000113b0       ___CxxCallUnwindDtor       004123b0 f   LIBCMTD:frame.obj
 0001:00011430       ___CxxCallUnwindDelDtor    00412430 f   LIBCMTD:frame.obj
 0001:000114b0       ___CxxCallUnwindStdDelDtor 004124b0 f   LIBCMTD:frame.obj
 0001:00011530       ___CxxCallUnwindVecDtor    00412530 f   LIBCMTD:frame.obj
 0001:00011760       ?_is_exception_typeof@@YAHABVtype_info@@PAU_EXCEPTION_POINTERS@@@Z 00412760 f   LIBCMTD:frame.obj
 0001:00011840       __CallSettingFrame@12      00412840 f   LIBCMTD:lowhelpr.obj
 0001:00011867       __NLG_Return               00412867     LIBCMTD:lowhelpr.obj
 0001:00011890       __encoded_null             00412890 f   LIBCMTD:tidtable.obj
 0001:000118a0       ___crtTlsAlloc@4           004128a0 f   LIBCMTD:tidtable.obj
 0001:000118b0       ___fls_getvalue@4          004128b0 f   LIBCMTD:tidtable.obj
 0001:000118d0       ___get_flsindex            004128d0 f   LIBCMTD:tidtable.obj
 0001:000118e0       ___set_flsgetvalue         004128e0 f   LIBCMTD:tidtable.obj
 0001:00011930       ___fls_setvalue@8          00412930 f   LIBCMTD:tidtable.obj
 0001:00011950       __mtinit                   00412950 f   LIBCMTD:tidtable.obj
 0001:00011b50       __mtterm                   00412b50 f   LIBCMTD:tidtable.obj
 0001:00011bb0       __initptd                  00412bb0 f   LIBCMTD:tidtable.obj
 0001:00011ce0       __getptd_noexit            00412ce0 f   LIBCMTD:tidtable.obj
 0001:00011da0       __getptd                   00412da0 f   LIBCMTD:tidtable.obj
 0001:00011dd0       __freefls@4                00412dd0 f   LIBCMTD:tidtable.obj
 0001:00011fe0       __freeptd                  00412fe0 f   LIBCMTD:tidtable.obj
 0001:00012060       ___threadid                00413060 f   LIBCMTD:tidtable.obj
 0001:00012070       ___threadhandle            00413070 f   LIBCMTD:tidtable.obj
 0001:00012080       __initp_eh_hooks           00413080 f   LIBCMTD:hooks.obj
 0001:000120a0       ?terminate@@YAXXZ          004130a0 f   LIBCMTD:hooks.obj
 0001:00012120       ?unexpected@@YAXXZ         00413120 f   LIBCMTD:hooks.obj
 0001:00012150       ?_inconsistency@@YAXXZ     00413150 f   LIBCMTD:hooks.obj
 0001:000121e0       __mtinitlocks              004131e0 f   LIBCMTD:mlock.obj
 0001:00012270       __mtdeletelocks            00413270 f   LIBCMTD:mlock.obj
 0001:00012330       __mtinitlocknum            00413330 f   LIBCMTD:mlock.obj
 0001:00012480       __lock                     00413480 f   LIBCMTD:mlock.obj
 0001:000124c0       __unlock                   004134c0 f   LIBCMTD:mlock.obj
 0001:000124e0       __lockerr_exit             004134e0 f   LIBCMTD:mlock.obj
 0001:00012500       __malloc_dbg               00413500 f   LIBCMTD:dbgheap.obj
 0001:00012530       __nh_malloc                00413530 f   LIBCMTD:dbgheap.obj
 0001:00012550       __nh_malloc_dbg            00413550 f   LIBCMTD:dbgheap.obj
 0001:00012630       __heap_alloc               00413630 f   LIBCMTD:dbgheap.obj
 0001:00012a10       __heap_alloc_dbg           00413a10 f   LIBCMTD:dbgheap.obj
 0001:00012a70       __calloc_dbg_impl          00413a70 f   LIBCMTD:dbgheap.obj
 0001:00012af0       __calloc_dbg               00413af0 f   LIBCMTD:dbgheap.obj
 0001:00012b50       __recalloc                 00413b50 f   LIBCMTD:dbgheap.obj
 0001:00012b80       __realloc_dbg              00413b80 f   LIBCMTD:dbgheap.obj
 0001:00013220       __recalloc_dbg             00414220 f   LIBCMTD:dbgheap.obj
 0001:000132d0       __expand                   004142d0 f   LIBCMTD:dbgheap.obj
 0001:00013300       __expand_dbg               00414300 f   LIBCMTD:dbgheap.obj
 0001:00013410       __free_nolock              00414410 f   LIBCMTD:dbgheap.obj
 0001:00013430       __free_dbg                 00414430 f   LIBCMTD:dbgheap.obj
 0001:000134b0       __free_dbg_nolock          004144b0 f   LIBCMTD:dbgheap.obj
 0001:00013990       __msize                    00414990 f   LIBCMTD:dbgheap.obj
 0001:000139b0       __msize_dbg                004149b0 f   LIBCMTD:dbgheap.obj
 0001:00013ba0       __CrtSetBreakAlloc         00414ba0 f   LIBCMTD:dbgheap.obj
 0001:00013bc0       __CrtSetDbgBlockType       00414bc0 f   LIBCMTD:dbgheap.obj
 0001:00013cb0       __CrtSetAllocHook          00414cb0 f   LIBCMTD:dbgheap.obj
 0001:00013cd0       __CrtGetAllocHook          00414cd0 f   LIBCMTD:dbgheap.obj
 0001:00013d30       __CrtCheckMemory           00414d30 f   LIBCMTD:dbgheap.obj
 0001:00014190       __CrtSetDbgFlag            00415190 f   LIBCMTD:dbgheap.obj
 0001:000142e0       __CrtDoForAllClientObjects 004152e0 f   LIBCMTD:dbgheap.obj
 0001:00014400       __CrtIsValidPointer        00415400 f   LIBCMTD:dbgheap.obj
 0001:00014410       __CrtIsValidHeapPointer    00415410 f   LIBCMTD:dbgheap.obj
 0001:00014460       __CrtIsMemoryBlock         00415460 f   LIBCMTD:dbgheap.obj
 0001:000145d0       __CrtReportBlockType       004155d0 f   LIBCMTD:dbgheap.obj
 0001:00014600       __CrtSetDumpClient         00415600 f   LIBCMTD:dbgheap.obj
 0001:00014620       __CrtGetDumpClient         00415620 f   LIBCMTD:dbgheap.obj
 0001:00014630       __CrtMemCheckpoint         00415630 f   LIBCMTD:dbgheap.obj
 0001:00014850       __CrtMemDifference         00415850 f   LIBCMTD:dbgheap.obj
 0001:00014a70       __CrtMemDumpAllObjectsSince 00415a70 f   LIBCMTD:dbgheap.obj
 0001:00014ab0       ??0_LocaleUpdate@@QAE@PAUlocaleinfo_struct@@@Z 00415ab0 f i LIBCMTD:dbgheap.obj
 0001:00014b90       ??1_LocaleUpdate@@QAE@XZ   00415b90 f i LIBCMTD:dbgheap.obj
 0001:00014bc0       ?GetLocaleT@_LocaleUpdate@@QAEPAUlocaleinfo_struct@@XZ 00415bc0 f i LIBCMTD:dbgheap.obj
 0001:00015080       __CrtDumpMemoryLeaks       00416080 f   LIBCMTD:dbgheap.obj
 0001:00015100       __CrtMemDumpStatistics     00416100 f   LIBCMTD:dbgheap.obj
 0001:00015210       __aligned_malloc           00416210 f   LIBCMTD:dbgheap.obj
 0001:00015230       __aligned_malloc_dbg       00416230 f   LIBCMTD:dbgheap.obj
 0001:00015260       __aligned_realloc          00416260 f   LIBCMTD:dbgheap.obj
 0001:00015290       __aligned_recalloc         00416290 f   LIBCMTD:dbgheap.obj
 0001:000152c0       __aligned_realloc_dbg      004162c0 f   LIBCMTD:dbgheap.obj
 0001:000152f0       __aligned_recalloc_dbg     004162f0 f   LIBCMTD:dbgheap.obj
 0001:00015320       __aligned_offset_malloc    00416320 f   LIBCMTD:dbgheap.obj
 0001:00015340       __aligned_offset_malloc_dbg 00416340 f   LIBCMTD:dbgheap.obj
 0001:00015500       __aligned_offset_realloc   00416500 f   LIBCMTD:dbgheap.obj
 0001:00015530       __aligned_offset_recalloc  00416530 f   LIBCMTD:dbgheap.obj
 0001:00015560       __aligned_offset_realloc_dbg 00416560 f   LIBCMTD:dbgheap.obj
 0001:00015850       __aligned_offset_recalloc_dbg 00416850 f   LIBCMTD:dbgheap.obj
 0001:00015910       __aligned_free             00416910 f   LIBCMTD:dbgheap.obj
 0001:00015930       __aligned_free_dbg         00416930 f   LIBCMTD:dbgheap.obj
 0001:000159e0       __CrtSetDebugFillThreshold 004169e0 f   LIBCMTD:dbgheap.obj
 0001:00015a00       __CrtSetCheckCount         00416a00 f   LIBCMTD:dbgheap.obj
 0001:00015a20       __CrtGetCheckCount         00416a20 f   LIBCMTD:dbgheap.obj
 0001:00015a30       __aligned_msize            00416a30 f   LIBCMTD:dbgheap.obj
 0001:00015a50       __aligned_msize_dbg        00416a50 f   LIBCMTD:dbgheap.obj
 0001:00015b60       __except_handler4          00416b60 f   LIBCMTD:chandler4.obj
 0001:00015d80       __CrtDbgBreak              00416d80 f   LIBCMTD:dbgrptt.obj
 0001:00015d90       __CrtSetReportMode         00416d90 f   LIBCMTD:dbgrptt.obj
 0001:00015ed0       __CrtSetReportFile         00416ed0 f   LIBCMTD:dbgrptt.obj
 0001:00015fd0       __CrtSetReportHook         00416fd0 f   LIBCMTD:dbgrptt.obj
 0001:00015ff0       __CrtGetReportHook         00416ff0 f   LIBCMTD:dbgrptt.obj
 0001:00016000       __VCrtDbgReportA           00417000 f   LIBCMTD:dbgrptt.obj
 0001:00016830       __VCrtDbgReportW           00417830 f   LIBCMTD:dbgrptt.obj
 0001:00017160       __dosmaperr                00418160 f   LIBCMTD:dosmap.obj
 0001:00017190       __get_errno_from_oserr     00418190 f   LIBCMTD:dosmap.obj
 0001:00017210       __set_errno                00418210 f   LIBCMTD:dosmap.obj
 0001:00017240       __get_errno                00418240 f   LIBCMTD:dosmap.obj
 0001:000172c0       __set_doserrno             004182c0 f   LIBCMTD:dosmap.obj
 0001:000172f0       __get_doserrno             004182f0 f   LIBCMTD:dosmap.obj
 0001:00017370       __errno                    00418370 f   LIBCMTD:dosmap.obj
 0001:000173a0       ___doserrno                004183a0 f   LIBCMTD:dosmap.obj
 0001:000173d0       __cinit                    004183d0 f   LIBCMTD:crt0dat.obj
 0001:00017470       _exit                      00418470 f   LIBCMTD:crt0dat.obj
 0001:00017490       __exit                     00418490 f   LIBCMTD:crt0dat.obj
 0001:000174b0       __cexit                    004184b0 f   LIBCMTD:crt0dat.obj
 0001:000174d0       __c_exit                   004184d0 f   LIBCMTD:crt0dat.obj
 0001:000174f0       __amsg_exit                004184f0 f   LIBCMTD:crt0dat.obj
 0001:00017520       ___freeCrtMemory           00418520 f   LIBCMTD:crt0dat.obj
 0001:00017860       ___crtCorExitProcess       00418860 f   LIBCMTD:crt0dat.obj
 0001:000178a0       ___crtExitProcess          004188a0 f   LIBCMTD:crt0dat.obj
 0001:000178c0       __lockexit                 004188c0 f   LIBCMTD:crt0dat.obj
 0001:000178e0       __unlockexit               004188e0 f   LIBCMTD:crt0dat.obj
 0001:00017900       __init_pointers            00418900 f   LIBCMTD:crt0dat.obj
 0001:00017990       __initterm_e               00418990 f   LIBCMTD:crt0dat.obj
 0001:000179d0       __get_wpgmptr              004189d0 f   LIBCMTD:crt0dat.obj
 0001:00017ac0       __get_pgmptr               00418ac0 f   LIBCMTD:crt0dat.obj
 0001:00017bb0       __initp_misc_winsig        00418bb0 f   LIBCMTD:winsig.obj
 0001:00017be0       _signal                    00418be0 f   LIBCMTD:winsig.obj
 0001:00018080       _raise                     00419080 f   LIBCMTD:winsig.obj
 0001:000183f0       ___get_sigabrt             004193f0 f   LIBCMTD:winsig.obj
 0001:00018410       ___fpecode                 00419410 f   LIBCMTD:winsig.obj
 0001:00018420       ___pxcptinfoptrs           00419420 f   LIBCMTD:winsig.obj
 0001:00018430       ___crtMessageBoxW          00419430 f   LIBCMTD:crtmboxw.obj
 0001:00018650       __swprintf                 00419650 f   LIBCMTD:swprintf.obj
 0001:00018850       ___swprintf_l              00419850 f   LIBCMTD:swprintf.obj
 0001:00018880       _swprintf_s                00419880 f   LIBCMTD:swprintf.obj
 0001:000188b0       __snwprintf_s              004198b0 f   LIBCMTD:swprintf.obj
 0001:000188e0       __swprintf_p               004198e0 f   LIBCMTD:swprintf.obj
 0001:00018910       __swprintf_s_l             00419910 f   LIBCMTD:swprintf.obj
 0001:00018940       __snwprintf_s_l            00419940 f   LIBCMTD:swprintf.obj
 0001:00018970       __swprintf_p_l             00419970 f   LIBCMTD:swprintf.obj
 0001:000189a0       __scwprintf                004199a0 f   LIBCMTD:swprintf.obj
 0001:000189c0       __scwprintf_p              004199c0 f   LIBCMTD:swprintf.obj
 0001:000189e0       __scwprintf_l              004199e0 f   LIBCMTD:swprintf.obj
 0001:00018a10       __scwprintf_p_l            00419a10 f   LIBCMTD:swprintf.obj
 0001:00018a40       _memcpy_s                  00419a40 f   LIBCMTD:memcpy_s.obj
 0001:00018bd0       _wcslen                    00419bd0 f   LIBCMTD:wcslen.obj
 0001:00018c00       __trandisp1                00419c00 f   LIBCMTD:_87disp_.obj
 0001:00018c67       __trandisp2                00419c67 f   LIBCMTD:_87disp_.obj
 0001:00018cf3       __rttospopde               00419cf3     LIBCMTD:_87disp_.obj
 0001:00018cf8       __rttospop                 00419cf8     LIBCMTD:_87disp_.obj
 0001:00018cfa       __rtnospop                 00419cfa     LIBCMTD:_87disp_.obj
 0001:00018cfc       __rttosnpop                00419cfc     LIBCMTD:_87disp_.obj
 0001:00018cfd       __rtnospopde               00419cfd     LIBCMTD:_87disp_.obj
 0001:00018d04       __rtzeropop                00419d04     LIBCMTD:_87disp_.obj
 0001:00018d06       __rtzeronpop               00419d06     LIBCMTD:_87disp_.obj
 0001:00018d0b       __rtonepop                 00419d0b     LIBCMTD:_87disp_.obj
 0001:00018d0d       __rtonenpop                00419d0d     LIBCMTD:_87disp_.obj
 0001:00018d12       __tosnan1                  00419d12     LIBCMTD:_87disp_.obj
 0001:00018d3d       __nosnan2                  00419d3d     LIBCMTD:_87disp_.obj
 0001:00018d3f       __tosnan2                  00419d3f     LIBCMTD:_87disp_.obj
 0001:00018d67       __nan2                     00419d67     LIBCMTD:_87disp_.obj
 0001:00018da6       __rtindfpop                00419da6     LIBCMTD:_87disp_.obj
 0001:00018da8       __rtindfnpop               00419da8     LIBCMTD:_87disp_.obj
 0001:00018db9       __rttosnpopde              00419db9     LIBCMTD:_87disp_.obj
 0001:00018dc3       __rtchsifneg               00419dc3     LIBCMTD:_87disp_.obj
 0001:00018dd0       __startTwoArgErrorHandling 00419dd0 f   LIBCMTD:_genexcep_.obj
 0001:00018de7       __startOneArgErrorHandling 00419de7 f   LIBCMTD:_genexcep_.obj
 0001:00018e30       __twoToTOS                 00419e30 f   LIBCMTD:_common_.obj
 0001:00018e45       __load_CW                  00419e45 f   LIBCMTD:_common_.obj
 0001:00018e5c       __convertTOStoQNaN         00419e5c f   LIBCMTD:_common_.obj
 0001:00018e75       __fload_withFB             00419e75 f   LIBCMTD:_common_.obj
 0001:00018eb8       __checkTOS_withFB          00419eb8 f   LIBCMTD:_common_.obj
 0001:00018ece       __fast_exit                00419ece f   LIBCMTD:_common_.obj
 0001:00018edb       __math_exit                00419edb f   LIBCMTD:_common_.obj
 0001:00018f05       __check_overflow_exit      00419f05 f   LIBCMTD:_common_.obj
 0001:00018f19       __check_range_exit         00419f19 f   LIBCMTD:_common_.obj
 0001:00018fc0       __setdefaultprecision      00419fc0 f   LIBCMTD:fp8.obj
 0001:00019000       __forcdecpt                0041a000 f   LIBCMTD:cvt.obj
 0001:00019020       __forcdecpt_l              0041a020 f   LIBCMTD:cvt.obj
 0001:000190e0       __cropzeros                0041a0e0 f   LIBCMTD:cvt.obj
 0001:00019100       __cropzeros_l              0041a100 f   LIBCMTD:cvt.obj
 0001:00019210       __positive                 0041a210 f   LIBCMTD:cvt.obj
 0001:00019240       __fassign_l                0041a240 f   LIBCMTD:cvt.obj
 0001:000192a0       __fassign                  0041a2a0 f   LIBCMTD:cvt.obj
 0001:000192c0       __cftoe_l                  0041a2c0 f   LIBCMTD:cvt.obj
 0001:00019810       __cftoe                    0041a810 f   LIBCMTD:cvt.obj
 0001:00019840       __cftoa_l                  0041a840 f   LIBCMTD:cvt.obj
 0001:0001a020       ?strrchr@@YAPADPADH@Z      0041b020 f i LIBCMTD:cvt.obj
 0001:0001a040       __cftoa                    0041b040 f   LIBCMTD:cvt.obj
 0001:0001a070       __cftof_l                  0041b070 f   LIBCMTD:cvt.obj
 0001:0001a480       __cftof                    0041b480 f   LIBCMTD:cvt.obj
 0001:0001a4b0       __cftog_l                  0041b4b0 f   LIBCMTD:cvt.obj
 0001:0001a6e0       __cftog                    0041b6e0 f   LIBCMTD:cvt.obj
 0001:0001a710       __cfltcvt_l                0041b710 f   LIBCMTD:cvt.obj
 0001:0001a7d0       __cfltcvt                  0041b7d0 f   LIBCMTD:cvt.obj
 0001:0001a830       __initp_misc_cfltcvt_tab   0041b830 f   LIBCMTD:cmiscdat.obj
 0001:0001a870       __aulldiv                  0041b870 f   LIBCMTD:ulldiv.obj
 0001:0001a8e0       __aullrem                  0041b8e0 f   LIBCMTD:ullrem.obj
 0001:0001a960       __CrtDefaultAllocHook      0041b960 f   LIBCMTD:dbghook.obj
 0001:0001a970       __crt_debugger_hook        0041b970 f   LIBCMTD:dbghook.obj
 0001:0001a990       _strcpy_s                  0041b990 f   LIBCMTD:strcpy_s.obj
 0001:0001ac70       _strlen                    0041bc70 f   LIBCMTD:strlen.obj
 0001:0001ad00       _free                      0041bd00 f   LIBCMTD:dbgfree.obj
 0001:0001ad20       __VEC_memcpy               0041bd20 f   LIBCMTD:p4_memcpy.obj
 0001:0001ae30       __itow_s                   0041be30 f   LIBCMTD:xtows.obj
 0001:0001b210       __ltow_s                   0041c210 f   LIBCMTD:xtows.obj
 0001:0001b250       __ultow_s                  0041c250 f   LIBCMTD:xtows.obj
 0001:0001b270       __i64tow_s                 0041c270 f   LIBCMTD:xtows.obj
 0001:0001b690       __ui64tow_s                0041c690 f   LIBCMTD:xtows.obj
 0001:0001b6b0       _wcsncat_s                 0041c6b0 f   LIBCMTD:wcsncat_s.obj
 0001:0001bb60       _wcsncpy_s                 0041cb60 f   LIBCMTD:wcsncpy_s.obj
 0001:0001bf70       _fflush                    0041cf70 f   LIBCMTD:fflush.obj
 0001:0001c010       __fflush_nolock            0041d010 f   LIBCMTD:fflush.obj
 0001:0001c070       __flush                    0041d070 f   LIBCMTD:fflush.obj
 0001:0001c130       __flushall                 0041d130 f   LIBCMTD:fflush.obj
 0001:0001c300       _fwprintf                  0041d300 f   LIBCMTD:fwprintf.obj
 0001:0001c480       __fwprintf_l               0041d480 f   LIBCMTD:fwprintf.obj
 0001:0001c4b0       __fwprintf_s_l             0041d4b0 f   LIBCMTD:fwprintf.obj
 0001:0001c4e0       _fwprintf_s                0041d4e0 f   LIBCMTD:fwprintf.obj
 0001:0001c510       __fwprintf_p_l             0041d510 f   LIBCMTD:fwprintf.obj
 0001:0001c540       __fwprintf_p               0041d540 f   LIBCMTD:fwprintf.obj
 0001:0001c570       _setvbuf                   0041d570 f   LIBCMTD:setvbuf.obj
 0001:0001c840       ___iob_func                0041d840 f   LIBCMTD:_file.obj
 0001:0001c850       ___initstdio               0041d850 f   LIBCMTD:_file.obj
 0001:0001c9a0       ___endstdio                0041d9a0 f   LIBCMTD:_file.obj
 0001:0001c9d0       __lock_file                0041d9d0 f   LIBCMTD:_file.obj
 0001:0001ca30       __lock_file2               0041da30 f   LIBCMTD:_file.obj
 0001:0001ca70       __unlock_file              0041da70 f   LIBCMTD:_file.obj
 0001:0001cad0       __unlock_file2             0041dad0 f   LIBCMTD:_file.obj
 0001:0001cb10       __set_error_mode           0041db10 f   LIBCMTD:errmode.obj
 0001:0001cbd0       ___set_app_type            0041dbd0 f   LIBCMTD:errmode.obj
 0001:0001cbe0       __vswprintf_helper         0041dbe0 f   LIBCMTD:vswprnc.obj
 0001:0001ce40       __vswprintf_c              0041de40 f   LIBCMTD:vswprnc.obj
 0001:0001ce90       __vswprintf_c_l            0041de90 f   LIBCMTD:vswprnc.obj
 0001:0001cee0       __vswprintf_s_l            0041dee0 f   LIBCMTD:vswprnc.obj
 0001:0001d150       _vswprintf_s               0041e150 f   LIBCMTD:vswprnc.obj
 0001:0001d180       __vsnwprintf_s_l           0041e180 f   LIBCMTD:vswprnc.obj
 0001:0001d530       __vsnwprintf_s             0041e530 f   LIBCMTD:vswprnc.obj
 0001:0001d560       __vswprintf_p              0041e560 f   LIBCMTD:vswprnc.obj
 0001:0001d5b0       __vswprintf_p_l            0041e5b0 f   LIBCMTD:vswprnc.obj
 0001:0001d600       ?__CxxUnhandledExceptionFilter@@YGJPAU_EXCEPTION_POINTERS@@@Z 0041e600 f   LIBCMTD:unhandld.obj
 0001:0001d670       ___CxxSetUnhandledExceptionFilter 0041e670 f   LIBCMTD:unhandld.obj
 0001:0001d690       ___security_init_cookie    0041e690 f   LIBCMTD:gs_support.obj
 0001:0001d770       ___CppXcptFilter           0041e770 f   LIBCMTD:winxfltr.obj
 0001:0001d7a0       __XcptFilter               0041e7a0 f   LIBCMTD:winxfltr.obj
 0001:0001da00       __wincmdln                 0041ea00 f   LIBCMTD:wincmdln.obj
 0001:0001dad0       __setenvp                  0041ead0 f   LIBCMTD:stdenvp.obj
 0001:0001dc70       __setargv                  0041ec70 f   LIBCMTD:stdargv.obj
 0001:0001dd90       __set_pgmptr               0041ed90 f i LIBCMTD:stdargv.obj
 0001:0001e100       ___crtGetEnvironmentStringsA 0041f100 f   LIBCMTD:a_env.obj
 0001:0001e200       __ioinit                   0041f200 f   LIBCMTD:ioinit.obj
 0001:0001e610       __ioterm                   0041f610 f   LIBCMTD:ioinit.obj
 0001:0001e6b0       __RTC_Initialize           0041f6b0 f   LIBCMTD:_initsect_.obj
 0001:0001e6e0       __RTC_Terminate            0041f6e0 f   LIBCMTD:_initsect_.obj
 0001:0001e710       __heap_init                0041f710 f   LIBCMTD:heapinit.obj
 0001:0001e750       __heap_term                0041f750 f   LIBCMTD:heapinit.obj
 0001:0001e770       __get_heap_handle          0041f770 f   LIBCMTD:heapinit.obj
 0001:0001e7b0       ?_RTC_GetSrcLine@@YAHPAEPA_WKPAH1K@Z 0041f7b0 f   LIBCMTD:_pdblkup_.obj
 0001:0001ee00       __CrtSetReportHook2        0041fe00 f   LIBCMTD:dbgrpt.obj
 0001:0001f130       __CrtDbgReport             00420130 f   LIBCMTD:dbgrpt.obj
 0001:0001f170       __CrtDbgReportV            00420170 f i LIBCMTD:dbgrpt.obj
 0001:0001f1a0       ___crtMessageWindowA       004201a0 f   LIBCMTD:dbgrpt.obj
 0001:0001f5a0       ___unDName                 004205a0 f   LIBCMTD:undname.obj
 0001:0001f680       ?Constructor@_HeapManager@@QAEXP6APAXI@ZP6AXPAX@Z@Z 00420680 f i LIBCMTD:undname.obj
 0001:0001f6c0       ?Destructor@_HeapManager@@QAEXXZ 004206c0 f i LIBCMTD:undname.obj
 0001:0001f710       ___unDNameEx               00420710 f   LIBCMTD:undname.obj
 0001:0001f7f0       ??0UnDecorator@@QAE@PADPBDHP6APADJ@ZK@Z 004207f0 f i LIBCMTD:undname.obj
 0001:0001f890       ??BUnDecorator@@QAEPADXZ   00420890 f i LIBCMTD:undname.obj
 0001:0001fac0       ?dbGetString@DName@@QBEPADXZ 00420ac0 f   LIBCMTD:undname.obj
 0001:0001faf0       ?getDecoratedName@UnDecorator@@CA?AVDName@@XZ 00420af0 f   LIBCMTD:undname.obj
 0001:0001fe00       ?getSymbolName@UnDecorator@@CA?AVDName@@XZ 00420e00 f i LIBCMTD:undname.obj
 0001:0001fe80       ?getZName@UnDecorator@@CA?AVDName@@_N0@Z 00420e80 f   LIBCMTD:undname.obj
 0001:00020120       ?getOperatorName@UnDecorator@@CA?AVDName@@_NPA_N@Z 00421120 f i LIBCMTD:undname.obj
 0001:00020a90       ?getStringEncoding@UnDecorator@@CA?AVDName@@PADH@Z 00421a90 f   LIBCMTD:undname.obj
 0001:00020b90       ?getScope@UnDecorator@@CA?AVDName@@XZ 00421b90 f   LIBCMTD:undname.obj
 0001:00020f70       ?getSignedDimension@UnDecorator@@CA?AVDName@@XZ 00421f70 f   LIBCMTD:undname.obj
 0001:00020ff0       ?getDimension@UnDecorator@@CA?AVDName@@_N@Z 00421ff0 f   LIBCMTD:undname.obj
 0001:000212a0       ?getNumberOfDimensions@UnDecorator@@CAHXZ 004222a0 f   LIBCMTD:undname.obj
 0001:000213a0       ?getTemplateName@UnDecorator@@CA?AVDName@@_N@Z 004223a0 f   LIBCMTD:undname.obj
 0001:00021560       ?getTemplateArgumentList@UnDecorator@@CA?AVDName@@XZ 00422560 f   LIBCMTD:undname.obj
 0001:000217e0       ?getTemplateConstant@UnDecorator@@CA?AVDName@@XZ 004227e0 f   LIBCMTD:undname.obj
 0001:00021c70       ?composeDeclaration@UnDecorator@@CA?AVDName@@ABV2@@Z 00422c70 f i LIBCMTD:undname.obj
 0001:00023270       ?getTypeEncoding@UnDecorator@@CAHXZ 00424270 f i LIBCMTD:undname.obj
 0001:00023cb0       ?getBasedType@UnDecorator@@CA?AVDName@@XZ 00424cb0 f   LIBCMTD:undname.obj
 0001:00023d70       ?getScopedName@UnDecorator@@CA?AVDName@@XZ 00424d70 f   LIBCMTD:undname.obj
 0001:00023e90       ?getCallingConvention@UnDecorator@@CA?AVDName@@XZ 00424e90 f   LIBCMTD:undname.obj
 0001:00024010       ?getReturnType@UnDecorator@@CA?AVDName@@PAV2@@Z 00425010 f   LIBCMTD:undname.obj
 0001:00024060       ?getDataType@UnDecorator@@CA?AVDName@@PAV2@@Z 00425060 f   LIBCMTD:undname.obj
 0001:00024180       ?getPrimaryDataType@UnDecorator@@CA?AVDName@@ABV2@@Z 00425180 f   LIBCMTD:undname.obj
 0001:00024520       ?getArgumentTypes@UnDecorator@@CA?AVDName@@XZ 00425520 f   LIBCMTD:undname.obj
 0001:00024680       ?getArgumentList@UnDecorator@@CA?AVDName@@XZ 00425680 f   LIBCMTD:undname.obj
 0001:000247d0       ?getThrowTypes@UnDecorator@@CA?AVDName@@XZ 004257d0 f   LIBCMTD:undname.obj
 0001:00024880       ?getBasicDataType@UnDecorator@@CA?AVDName@@ABV2@@Z 00425880 f   LIBCMTD:undname.obj
 0001:00024e40       ?getECSUDataType@UnDecorator@@CA?AVDName@@XZ 00425e40 f   LIBCMTD:undname.obj
 0001:00025010       ?getECSUName@UnDecorator@@CA?AVDName@@XZ 00426010 f i LIBCMTD:undname.obj
 0001:00025030       ?getEnumType@UnDecorator@@CA?AVDName@@XZ 00426030 f i LIBCMTD:undname.obj
 0001:00025180       ?getFunctionIndirectType@UnDecorator@@CA?AVDName@@ABV2@@Z 00426180 f   LIBCMTD:undname.obj
 0001:000255c0       ?getPtrRefType@UnDecorator@@CA?AVDName@@ABV2@0PBD@Z 004265c0 f   LIBCMTD:undname.obj
 0001:00025720       ?getExtendedDataIndirectType@UnDecorator@@CA?AVDName@@AAPBDAA_NH@Z 00426720 f   LIBCMTD:undname.obj
 0001:00025940       ?getDataIndirectType@UnDecorator@@CA?AVDName@@ABV2@PBD0H@Z 00426940 f   LIBCMTD:undname.obj
 0001:00026040       ?getPtrRefDataType@UnDecorator@@CA?AVDName@@ABV2@H@Z 00427040 f i LIBCMTD:undname.obj
 0001:00026180       ?getArrayType@UnDecorator@@CA?AVDName@@ABV2@@Z 00427180 f i LIBCMTD:undname.obj
 0001:000263b0       ?getLexicalFrame@UnDecorator@@CA?AVDName@@XZ 004273b0 f i LIBCMTD:undname.obj
 0001:000263f0       ?getThisType@UnDecorator@@CA?AVDName@@XZ 004273f0 f i LIBCMTD:undname.obj
 0001:00026430       ?getPointerType@UnDecorator@@CA?AVDName@@ABV2@0@Z 00427430 f i LIBCMTD:undname.obj
 0001:00026460       ?getPointerTypeArray@UnDecorator@@CA?AVDName@@ABV2@0@Z 00427460 f i LIBCMTD:undname.obj
 0001:00026490       ?getReferenceType@UnDecorator@@CA?AVDName@@ABV2@0PBD@Z 00427490 f i LIBCMTD:undname.obj
 0001:000264c0       ?getDisplacement@UnDecorator@@CA?AVDName@@XZ 004274c0 f i LIBCMTD:undname.obj
 0001:000264e0       ?getCallIndex@UnDecorator@@CA?AVDName@@XZ 004274e0 f i LIBCMTD:undname.obj
 0001:00026500       ?getGuardNumber@UnDecorator@@CA?AVDName@@XZ 00427500 f i LIBCMTD:undname.obj
 0001:00026520       ?getVbTableType@UnDecorator@@CA?AVDName@@ABV2@@Z 00427520 f i LIBCMTD:undname.obj
 0001:00026540       ?getVCallThunkType@UnDecorator@@CA?AVDName@@XZ 00427540 f i LIBCMTD:undname.obj
 0001:000265a0       ?getVfTableType@UnDecorator@@CA?AVDName@@ABV2@@Z 004275a0 f i LIBCMTD:undname.obj
 0001:00026760       ?getStorageConvention@UnDecorator@@CA?AVDName@@XZ 00427760 f i LIBCMTD:undname.obj
 0001:00026780       ?getDataIndirectType@UnDecorator@@CA?AVDName@@XZ 00427780 f i LIBCMTD:undname.obj
 0001:000267c0       ?getVdispMapType@UnDecorator@@CA?AVDName@@ABV2@@Z 004277c0 f i LIBCMTD:undname.obj
 0001:00026830       ?getExternalDataType@UnDecorator@@CA?AVDName@@ABV2@@Z 00427830 f i LIBCMTD:undname.obj
 0001:000268c0       ?doMSKeywords@UnDecorator@@SAHXZ 004278c0 f i LIBCMTD:undname.obj
 0001:000268e0       ?doPtr64@UnDecorator@@SAHXZ 004278e0 f i LIBCMTD:undname.obj
 0001:00026900       ?doFunctionReturns@UnDecorator@@SAHXZ 00427900 f i LIBCMTD:undname.obj
 0001:00026920       ?doAllocationModel@UnDecorator@@SAHXZ 00427920 f i LIBCMTD:undname.obj
 0001:00026940       ?doAllocationLanguage@UnDecorator@@SAHXZ 00427940 f i LIBCMTD:undname.obj
 0001:00026960       ?doThisTypes@UnDecorator@@SAHXZ 00427960 f i LIBCMTD:undname.obj
 0001:00026980       ?doAccessSpecifiers@UnDecorator@@SAHXZ 00427980 f i LIBCMTD:undname.obj
 0001:000269a0       ?doThrowTypes@UnDecorator@@SAHXZ 004279a0 f i LIBCMTD:undname.obj
 0001:000269c0       ?doMemberTypes@UnDecorator@@SAHXZ 004279c0 f i LIBCMTD:undname.obj
 0001:000269e0       ?doNameOnly@UnDecorator@@SAHXZ 004279e0 f i LIBCMTD:undname.obj
 0001:00026a00       ?doTypeOnly@UnDecorator@@SAHXZ 00427a00 f i LIBCMTD:undname.obj
 0001:00026a20       ?haveTemplateParameters@UnDecorator@@SAHXZ 00427a20 f i LIBCMTD:undname.obj
 0001:00026a40       ?doEcsu@UnDecorator@@SAHXZ 00427a40 f i LIBCMTD:undname.obj
 0001:00026a60       ?doEllipsis@UnDecorator@@SAHXZ 00427a60 f i LIBCMTD:undname.obj
 0001:00026a80       ?UScore@UnDecorator@@SAPBDW4Tokens@@@Z 00427a80 f   LIBCMTD:undname.obj
 0001:00026ab0       ?doUnderScore@UnDecorator@@SAHXZ 00427ab0 f i LIBCMTD:undname.obj
 0001:00026ad0       ??2@YAPAXIAAV_HeapManager@@H@Z 00427ad0 f i LIBCMTD:undname.obj
 0001:00026af0       ?getMemory@_HeapManager@@QAEPAXIH@Z 00427af0 f   LIBCMTD:undname.obj
 0001:00026c00       ??0Block@_HeapManager@@QAE@XZ 00427c00 f i LIBCMTD:undname.obj
 0001:00026c20       ??H@YA?AVDName@@DABV0@@Z   00427c20 f i LIBCMTD:undname.obj
 0001:00026c50       ??H@YA?AVDName@@W4DNameStatus@@ABV0@@Z 00427c50 f i LIBCMTD:undname.obj
 0001:00026c80       ??H@YA?AVDName@@PBDABV0@@Z 00427c80 f i LIBCMTD:undname.obj
 0001:00026cb0       ??0DName@@QAE@XZ           00427cb0 f i LIBCMTD:undname.obj
 0001:00026d70       ??0DName@@QAE@D@Z          00427d70 f   LIBCMTD:undname.obj
 0001:00026e50       ??0DName@@QAE@ABV0@@Z      00427e50 f i LIBCMTD:undname.obj
 0001:00026e80       ??0DName@@QAE@PAV0@@Z      00427e80 f   LIBCMTD:undname.obj
 0001:00026fb0       ??0DName@@QAE@PBD@Z        00427fb0 f   LIBCMTD:undname.obj
 0001:000270a0       ??0DName@@QAE@AAPBDD@Z     004280a0 f   LIBCMTD:undname.obj
 0001:00027360       ?doNoIdentCharCheck@UnDecorator@@SAHXZ 00428360 f i LIBCMTD:undname.obj
 0001:00027380       ??0DName@@QAE@_K@Z         00428380 f   LIBCMTD:undname.obj
 0001:000274c0       ??0DName@@QAE@_J@Z         004284c0 f   LIBCMTD:undname.obj
 0001:00027640       ??0DName@@QAE@W4DNameStatus@@@Z 00428640 f   LIBCMTD:undname.obj
 0001:00027760       ?isValid@DName@@QBEHXZ     00428760 f i LIBCMTD:undname.obj
 0001:00027790       ?isEmpty@DName@@QBEHXZ     00428790 f i LIBCMTD:undname.obj
 0001:000277b0       ?status@DName@@QBE?AW4DNameStatus@@XZ 004287b0 f i LIBCMTD:undname.obj
 0001:000277d0       ?setPtrRef@DName@@QAEAAV1@XZ 004287d0 f i LIBCMTD:undname.obj
 0001:00027800       ?isPtrRef@DName@@QBEHXZ    00428800 f i LIBCMTD:undname.obj
 0001:00027820       ?isUDC@DName@@QBEHXZ       00428820 f i LIBCMTD:undname.obj
 0001:00027860       ?setIsUDC@DName@@QAEXXZ    00428860 f i LIBCMTD:undname.obj
 0001:00027890       ?isUDTThunk@DName@@QBEHXZ  00428890 f i LIBCMTD:undname.obj
 0001:000278d0       ?setIsArray@DName@@QAEXXZ  004288d0 f i LIBCMTD:undname.obj
 0001:000278f0       ?isArray@DName@@QBEHXZ     004288f0 f i LIBCMTD:undname.obj
 0001:00027910       ?isNoTE@DName@@QBEHXZ      00428910 f i LIBCMTD:undname.obj
 0001:00027930       ?setIsNoTE@DName@@QAEXXZ   00428930 f i LIBCMTD:undname.obj
 0001:00027950       ?isPinPtr@DName@@QBEHXZ    00428950 f i LIBCMTD:undname.obj
 0001:00027970       ?setIsPinPtr@DName@@QAEXXZ 00428970 f i LIBCMTD:undname.obj
 0001:00027990       ?isComArray@DName@@QBEHXZ  00428990 f i LIBCMTD:undname.obj
 0001:000279b0       ?setIsComArray@DName@@QAEXXZ 004289b0 f i LIBCMTD:undname.obj
 0001:000279d0       ?isVCallThunk@DName@@QBEHXZ 004289d0 f i LIBCMTD:undname.obj
 0001:000279f0       ?setIsVCallThunk@DName@@QAEXXZ 004289f0 f i LIBCMTD:undname.obj
 0001:00027a10       ?length@DName@@QBEHXZ      00428a10 f i LIBCMTD:undname.obj
 0001:00027a40       ?getLastChar@DName@@QBEDXZ 00428a40 f i LIBCMTD:undname.obj
 0001:00027a70       ?getString@DName@@QBEPADPADH@Z 00428a70 f i LIBCMTD:undname.obj
 0001:00027b00       ?getString@DName@@QBEPADPAD0@Z 00428b00 f i LIBCMTD:undname.obj
 0001:00027b40       ??HDName@@QBE?AV0@D@Z      00428b40 f   LIBCMTD:undname.obj
 0001:00027b80       ??HDName@@QBE?AV0@PBD@Z    00428b80 f   LIBCMTD:undname.obj
 0001:00027bc0       ??HDName@@QBE?AV0@ABV0@@Z  00428bc0 f   LIBCMTD:undname.obj
 0001:00027c00       ??HDName@@QBE?AV0@PAV0@@Z  00428c00 f   LIBCMTD:undname.obj
 0001:00027c40       ??HDName@@QBE?AV0@W4DNameStatus@@@Z 00428c40 f   LIBCMTD:undname.obj
 0001:00027c80       ?append@DName@@AAEXPAVDNameNode@@@Z 00428c80 f   LIBCMTD:undname.obj
 0001:00027d10       ??YDName@@QAEAAV0@D@Z      00428d10 f   LIBCMTD:undname.obj
 0001:00027da0       ??YDName@@QAEAAV0@PBD@Z    00428da0 f   LIBCMTD:undname.obj
 0001:00027e40       ??YDName@@QAEAAV0@ABV0@@Z  00428e40 f   LIBCMTD:undname.obj
 0001:00027eb0       ??YDName@@QAEAAV0@PAV0@@Z  00428eb0 f   LIBCMTD:undname.obj
 0001:00027f70       ??YDName@@QAEAAV0@W4DNameStatus@@@Z 00428f70 f   LIBCMTD:undname.obj
 0001:00027fe0       ??_5DName@@QAEAAV0@ABV0@@Z 00428fe0 f   LIBCMTD:undname.obj
 0001:00028040       ??4DName@@QAEAAV0@D@Z      00429040 f i LIBCMTD:undname.obj
 0001:00028120       ??4DName@@QAEAAV0@PBD@Z    00429120 f   LIBCMTD:undname.obj
 0001:00028200       ??4DName@@QAEAAV0@ABV0@@Z  00429200 f   LIBCMTD:undname.obj
 0001:00028230       ??4DName@@QAEAAV0@PAV0@@Z  00429230 f   LIBCMTD:undname.obj
 0001:00028370       ??4DName@@QAEAAV0@W4DNameStatus@@@Z 00429370 f   LIBCMTD:undname.obj
 0001:00028470       ?doPchar@DName@@AAEXPBDH@Z 00429470 f   LIBCMTD:undname.obj
 0001:000285b0       ?isFull@Replicator@@QBEHXZ 004295b0 f i LIBCMTD:undname.obj
 0001:000285d0       ??0Replicator@@QAE@XZ      004295d0 f i LIBCMTD:undname.obj
 0001:000285f0       ??YReplicator@@QAEAAV0@ABVDName@@@Z 004295f0 f   LIBCMTD:undname.obj
 0001:00028680       ??AReplicator@@QBE?AVDName@@H@Z 00429680 f   LIBCMTD:undname.obj
 0001:000286f0       ??0DNameNode@@IAE@XZ       004296f0 f   LIBCMTD:undname.obj
 0001:00028710       ??0charNode@@QAE@D@Z       00429710 f   LIBCMTD:undname.obj
 0001:00028740       ?length@charNode@@UBEHXZ   00429740 f i LIBCMTD:undname.obj
 0001:00028760       ?getLastChar@charNode@@UBEDXZ 00429760 f i LIBCMTD:undname.obj
 0001:00028780       ?getString@charNode@@UBEPADPAD0@Z 00429780 f i LIBCMTD:undname.obj
 0001:000287b0       ??0pcharNode@@QAE@PBDH@Z   004297b0 f   LIBCMTD:undname.obj
 0001:00028840       ?length@pcharNode@@UBEHXZ  00429840 f i LIBCMTD:undname.obj
 0001:00028860       ?getLastChar@pcharNode@@UBEDXZ 00429860 f i LIBCMTD:undname.obj
 0001:000288a0       ?getString@pcharNode@@UBEPADPAD0@Z 004298a0 f i LIBCMTD:undname.obj
 0001:000288d0       ?getStringHelper@@YAPADPAD00H@Z 004298d0 f i LIBCMTD:undname.obj
 0001:00028910       ??0pDNameNode@@QAE@PAVDName@@@Z 00429910 f   LIBCMTD:undname.obj
 0001:00028970       ?length@pDNameNode@@UBEHXZ 00429970 f i LIBCMTD:undname.obj
 0001:000289b0       ?getLastChar@pDNameNode@@UBEDXZ 004299b0 f i LIBCMTD:undname.obj
 0001:000289e0       ?getString@pDNameNode@@UBEPADPAD0@Z 004299e0 f i LIBCMTD:undname.obj
 0001:00028a20       ??0DNameStatusNode@@AAE@W4DNameStatus@@@Z 00429a20 f   LIBCMTD:undname.obj
 0001:00028a70       ?length@DNameStatusNode@@UBEHXZ 00429a70 f i LIBCMTD:undname.obj
 0001:00028a90       ?getLastChar@DNameStatusNode@@UBEDXZ 00429a90 f i LIBCMTD:undname.obj
 0001:00028ab0       ?getString@DNameStatusNode@@UBEPADPAD0@Z 00429ab0 f i LIBCMTD:undname.obj
 0001:00028af0       ?make@DNameStatusNode@@SAPAV1@W4DNameStatus@@@Z 00429af0 f i LIBCMTD:undname.obj
 0001:00028ba0       ??0pairNode@@QAE@PAVDNameNode@@0@Z 00429ba0 f   LIBCMTD:undname.obj
 0001:00028be0       ?length@pairNode@@UBEHXZ   00429be0 f i LIBCMTD:undname.obj
 0001:00028c30       ?getLastChar@pairNode@@UBEDXZ 00429c30 f i LIBCMTD:undname.obj
 0001:00028c80       ?getString@pairNode@@UBEPADPAD0@Z 00429c80 f i LIBCMTD:undname.obj
 0001:00028dc0       __malloc_base              00429dc0 f   LIBCMTD:malloc.obj
 0001:00028e50       __heap_alloc_base          00429e50 f i LIBCMTD:malloc.obj
 0001:00028eb0       __free_base                00429eb0 f   LIBCMTD:free.obj
 0001:00028f00       __local_unwind4            00429f00 f   LIBCMTD:exsup4.obj
 0001:00028fd6       __seh_longjmp_unwind4@4    00429fd6 f   LIBCMTD:exsup4.obj
 0001:00028ff2       @_EH4_CallFilterFunc@8     00429ff2 f   LIBCMTD:exsup4.obj
 0001:00029009       @_EH4_TransferToHandler@8  0042a009 f   LIBCMTD:exsup4.obj
 0001:00029022       @_EH4_GlobalUnwind2@8      0042a022 f   LIBCMTD:exsup4.obj
 0001:0002903b       @_EH4_LocalUnwind@16       0042a03b f   LIBCMTD:exsup4.obj
 0001:00029060       _strncpy_s                 0042a060 f   LIBCMTD:strncpy_s.obj
 0001:00029450       ___crtGetLocaleInfoA       0042a450 f   LIBCMTD:a_loc.obj
 0001:000295b0       __MarkAllocaS              0042a5b0 f i LIBCMTD:a_loc.obj
 0001:000295e0       __freea                    0042a5e0 f i LIBCMTD:a_loc.obj
 0001:00029650       ?_ValidateRead@@YAHPBXI@Z  0042a650 f   LIBCMTD:validate.obj
 0001:00029680       ?_ValidateWrite@@YAHPAXI@Z 0042a680 f   LIBCMTD:validate.obj
 0001:000296b0       ?_ValidateExecute@@YAHP6GHXZ@Z 0042a6b0 f   LIBCMTD:validate.obj
 0001:000296e0       __global_unwind2           0042a6e0 f   LIBCMTD:exsup.obj
 0001:00029745       __local_unwind2            0042a745 f   LIBCMTD:exsup.obj
 0001:000297c9       __abnormal_termination     0042a7c9 f   LIBCMTD:exsup.obj
 0001:000297ec       __NLG_Notify1              0042a7ec f   LIBCMTD:exsup.obj
 0001:000297f5       __NLG_Notify               0042a7f5 f   LIBCMTD:exsup.obj
 0001:0002980c       __NLG_Dispatch             0042a80c     LIBCMTD:exsup.obj
 0001:0002980c       __NLG_Dispatch2            0042a80c     LIBCMTD:exsup.obj
 0001:00029814       __NLG_Call                 0042a814 f   LIBCMTD:exsup.obj
 0001:00029816       __NLG_Return2              0042a816     LIBCMTD:exsup.obj
 0001:00029820       ___addlocaleref            0042a820 f   LIBCMTD:localref.obj
 0001:00029940       ___removelocaleref         0042a940 f   LIBCMTD:localref.obj
 0001:00029a70       ___freetlocinfo            0042aa70 f   LIBCMTD:localref.obj
 0001:00029d50       __updatetlocinfoEx_nolock  0042ad50 f   LIBCMTD:localref.obj
 0001:00029dd0       ___updatetlocinfo          0042add0 f   LIBCMTD:localref.obj
 0001:00029ea0       ___updatetmbcinfo          0042aea0 f   LIBCMTD:mbctype.obj
 0001:00029fb0       __setmbcp                  0042afb0 f   LIBCMTD:mbctype.obj
 0001:0002a360       __setmbcp_nolock           0042b360 f   LIBCMTD:mbctype.obj
 0001:0002ab50       __getmbcp                  0042bb50 f   LIBCMTD:mbctype.obj
 0001:0002abc0       ___initmbctable            0042bbc0 f   LIBCMTD:mbctype.obj
 0001:0002abf0       __expand_base              0042bbf0 f   LIBCMTD:expand.obj
 0001:0002ad50       __realloc_base             0042bd50 f   LIBCMTD:realloc.obj
 0001:0002ae50       __heapchk                  0042be50 f   LIBCMTD:heapchk.obj
 0001:0002ae80       __heapset                  0042be80 f   LIBCMTD:heapchk.obj
 0001:0002ae90       _sprintf                   0042be90 f   LIBCMTD:sprintf.obj
 0001:0002b030       __sprintf_l                0042c030 f   LIBCMTD:sprintf.obj
 0001:0002b060       _sprintf_s                 0042c060 f   LIBCMTD:sprintf.obj
 0001:0002b090       __sprintf_s_l              0042c090 f   LIBCMTD:sprintf.obj
 0001:0002b0c0       __snprintf_s               0042c0c0 f   LIBCMTD:sprintf.obj
 0001:0002b0f0       __snprintf_s_l             0042c0f0 f   LIBCMTD:sprintf.obj
 0001:0002b120       __sprintf_p                0042c120 f   LIBCMTD:sprintf.obj
 0001:0002b150       __sprintf_p_l              0042c150 f   LIBCMTD:sprintf.obj
 0001:0002b180       __scprintf                 0042c180 f   LIBCMTD:sprintf.obj
 0001:0002b1a0       __scprintf_p               0042c1a0 f   LIBCMTD:sprintf.obj
 0001:0002b1c0       __scprintf_l               0042c1c0 f   LIBCMTD:sprintf.obj
 0001:0002b1f0       __scprintf_p_l             0042c1f0 f   LIBCMTD:sprintf.obj
 0001:0002b220       __chvalidator              0042c220 f   LIBCMTD:isctype.obj
 0001:0002b270       __chvalidator_l            0042c270 f   LIBCMTD:isctype.obj
 0001:0002b320       __isctype_l                0042c320 f   LIBCMTD:isctype.obj
 0001:0002b440       __isctype                  0042c440 f   LIBCMTD:isctype.obj
 0001:0002b480       _memcpy                    0042c480 f   LIBCMTD:memcpy.obj
 0001:0002b7f0       __ValidateImageBase        0042c7f0 f   LIBCMTD:pesect.obj
 0001:0002b850       __FindPESection            0042c850 f   LIBCMTD:pesect.obj
 0001:0002b8d0       __IsNonwritableInCurrentImage 0042c8d0 f   LIBCMTD:pesect.obj
 0001:0002b9f0       __mbstowcs_l_helper        0042c9f0 f   LIBCMTD:mbstowcs.obj
 0001:0002bd40       __mbstowcs_l               0042cd40 f   LIBCMTD:mbstowcs.obj
 0001:0002bd60       _mbstowcs                  0042cd60 f   LIBCMTD:mbstowcs.obj
 0001:0002bdb0       __mbstowcs_s_l             0042cdb0 f   LIBCMTD:mbstowcs.obj
 0001:0002c130       _mbstowcs_s                0042d130 f   LIBCMTD:mbstowcs.obj
 0001:0002c160       _strcat_s                  0042d160 f   LIBCMTD:strcat_s.obj
 0001:0002c540       __vsnprintf_helper         0042d540 f   LIBCMTD:vsnprnc.obj
 0001:0002c730       __vsnprintf_c              0042d730 f   LIBCMTD:vsnprnc.obj
 0001:0002c780       __vsnprintf_c_l            0042d780 f   LIBCMTD:vsnprnc.obj
 0001:0002c7d0       __vsprintf_s_l             0042d7d0 f   LIBCMTD:vsnprnc.obj
 0001:0002ca40       _vsprintf_s                0042da40 f   LIBCMTD:vsnprnc.obj
 0001:0002ca70       __vsnprintf_s_l            0042da70 f   LIBCMTD:vsnprnc.obj
 0001:0002ce10       __vsnprintf_s              0042de10 f   LIBCMTD:vsnprnc.obj
 0001:0002ce40       __vsprintf_p               0042de40 f   LIBCMTD:vsnprnc.obj
 0001:0002ce90       __vsprintf_p_l             0042de90 f   LIBCMTD:vsnprnc.obj
 0001:0002cee0       __itoa_s                   0042dee0 f   LIBCMTD:xtoas.obj
 0001:0002d2b0       __ltoa_s                   0042e2b0 f   LIBCMTD:xtoas.obj
 0001:0002d2f0       __ultoa_s                  0042e2f0 f   LIBCMTD:xtoas.obj
 0001:0002d310       __i64toa_s                 0042e310 f   LIBCMTD:xtoas.obj
 0001:0002d710       __ui64toa_s                0042e710 f   LIBCMTD:xtoas.obj
 0001:0002d730       __wcstombs_l_helper        0042e730 f   LIBCMTD:wcstombs.obj
 0001:0002dc70       __wcstombs_l               0042ec70 f   LIBCMTD:wcstombs.obj
 0001:0002dc90       _wcstombs                  0042ec90 f   LIBCMTD:wcstombs.obj
 0001:0002dcb0       __wcstombs_s_l             0042ecb0 f   LIBCMTD:wcstombs.obj
 0001:0002dfe0       _wcstombs_s                0042efe0 f   LIBCMTD:wcstombs.obj
 0001:0002e010       __initp_misc_rand_s        0042f010 f   LIBCMTD:rand_s.obj
 0001:0002e020       _rand_s                    0042f020 f   LIBCMTD:rand_s.obj
 0001:0002e240       __flsbuf                   0042f240 f   LIBCMTD:_flsbuf.obj
 0001:0002e500       __woutput_l                0042f500 f   LIBCMTD:woutput.obj
 0001:0002f700       _get_int_arg               00430700 f i LIBCMTD:woutput.obj
 0001:0002f720       _get_int64_arg             00430720 f i LIBCMTD:woutput.obj
 0001:0002f740       __vswprintf_l              00430740 f   LIBCMTD:vswprint.obj
 0001:0002f930       __vswprintf                00430930 f   LIBCMTD:vswprint.obj
 0001:0002f950       ___vswprintf_l             00430950 f   LIBCMTD:vswprint.obj
 0001:0002f970       __vscwprintf_helper        00430970 f   LIBCMTD:vswprint.obj
 0001:0002fa50       __vscwprintf               00430a50 f   LIBCMTD:vswprint.obj
 0001:0002fa70       __vscwprintf_l             00430a70 f   LIBCMTD:vswprint.obj
 0001:0002fa90       __vscwprintf_p             00430a90 f   LIBCMTD:vswprint.obj
 0001:0002fab0       __vscwprintf_p_l           00430ab0 f   LIBCMTD:vswprint.obj
 0001:0002fad0       __87except                 00430ad0 f   LIBCMTD:_87except_.obj
 0001:0002fc80       __controlfp_s              00430c80 f   LIBCMTD:_contrlfp_.obj
 0001:0002fd60       __isalpha_l                00430d60 f i LIBCMTD:_ctype.obj
 0001:0002fdf0       _isalpha                   00430df0 f i LIBCMTD:_ctype.obj
 0001:0002fe30       __isupper_l                00430e30 f i LIBCMTD:_ctype.obj
 0001:0002feb0       _isupper                   00430eb0 f i LIBCMTD:_ctype.obj
 0001:0002fee0       __islower_l                00430ee0 f i LIBCMTD:_ctype.obj
 0001:0002ff60       _islower                   00430f60 f i LIBCMTD:_ctype.obj
 0001:0002ff90       __isdigit_l                00430f90 f i LIBCMTD:_ctype.obj
 0001:00030010       _isdigit                   00431010 f i LIBCMTD:_ctype.obj
 0001:00030040       __isxdigit_l               00431040 f i LIBCMTD:_ctype.obj
 0001:000300d0       _isxdigit                  004310d0 f i LIBCMTD:_ctype.obj
 0001:00030110       __isspace_l                00431110 f i LIBCMTD:_ctype.obj
 0001:00030190       _isspace                   00431190 f i LIBCMTD:_ctype.obj
 0001:000301c0       __ispunct_l                004311c0 f i LIBCMTD:_ctype.obj
 0001:00030240       _ispunct                   00431240 f i LIBCMTD:_ctype.obj
 0001:00030270       __isalnum_l                00431270 f i LIBCMTD:_ctype.obj
 0001:00030300       _isalnum                   00431300 f i LIBCMTD:_ctype.obj
 0001:00030340       __isprint_l                00431340 f i LIBCMTD:_ctype.obj
 0001:000303d0       _isprint                   004313d0 f i LIBCMTD:_ctype.obj
 0001:00030410       __isgraph_l                00431410 f i LIBCMTD:_ctype.obj
 0001:000304a0       _isgraph                   004314a0 f i LIBCMTD:_ctype.obj
 0001:000304e0       __iscntrl_l                004314e0 f i LIBCMTD:_ctype.obj
 0001:00030560       _iscntrl                   00431560 f i LIBCMTD:_ctype.obj
 0001:00030590       ___isascii                 00431590 f i LIBCMTD:_ctype.obj
 0001:000305b0       ___toascii                 004315b0 f i LIBCMTD:_ctype.obj
 0001:000305c0       __iscsymf_l                004315c0 f i LIBCMTD:_ctype.obj
 0001:00030600       ___iscsymf                 00431600 f i LIBCMTD:_ctype.obj
 0001:00030640       __iscsym_l                 00431640 f i LIBCMTD:_ctype.obj
 0001:00030680       ___iscsym                  00431680 f i LIBCMTD:_ctype.obj
 0001:000306c0       __tolower                  004316c0 f   LIBCMTD:tolower.obj
 0001:000306d0       __tolower_l                004316d0 f   LIBCMTD:tolower.obj
 0001:000308b0       _tolower                   004318b0 f   LIBCMTD:tolower.obj
 0001:00030900       __atodbl_l                 00431900 f   LIBCMTD:atodbl.obj
 0001:00030a10       __atodbl                   00431a10 f   LIBCMTD:atodbl.obj
 0001:00030a30       __atoldbl_l                00431a30 f   LIBCMTD:atodbl.obj
 0001:00030b40       __atoldbl                  00431b40 f   LIBCMTD:atodbl.obj
 0001:00030b60       __atoflt_l                 00431b60 f   LIBCMTD:atodbl.obj
 0001:00030c70       __atoflt                   00431c70 f   LIBCMTD:atodbl.obj
 0001:00030c90       __fptostr                  00431c90 f   LIBCMTD:_fptostr.obj
 0001:00030f40       __fltout2                  00431f40 f   LIBCMTD:_cfout_.obj
 0001:00030ff0       ___dtold                   00431ff0 f   LIBCMTD:_cfout_.obj
 0001:00031150       __set_output_format        00432150 f   LIBCMTD:outputformat.obj
 0001:000311d0       __get_output_format        004321d0 f   LIBCMTD:outputformat.obj
 0001:000311e0       __allrem                   004321e0 f   LIBCMTD:llrem.obj
 0001:000312a0       __alldiv                   004322a0 f   LIBCMTD:lldiv.obj
 0001:00031350       __allshl                   00432350 f   LIBCMTD:llshl.obj
 0001:00031370       __aullshr                  00432370 f   LIBCMTD:ullshr.obj
 0001:00031390       _strrchr                   00432390 f   LIBCMTD:strrchr.obj
 0001:000313c0       __fptrap                   004323c0 f   LIBCMTD:crt0fp.obj
 0001:000313e0       __commit                   004323e0 f   LIBCMTD:commit.obj
 0001:00031600       __fileno                   00432600 f   LIBCMTD:fileno.obj
 0001:00031680       __write                    00432680 f   LIBCMTD:write.obj
 0001:000318b0       __write_nolock             004328b0 f   LIBCMTD:write.obj
 0001:000323f0       __stbuf                    004333f0 f   LIBCMTD:_sftbuf.obj
 0001:00032550       __ftbuf                    00433550 f   LIBCMTD:_sftbuf.obj
 0001:000325e0       _vfwprintf_helper          004335e0 f   LIBCMTD:vfwprint.obj
 0001:00032760       __vfwprintf_l              00433760 f   LIBCMTD:vfwprint.obj
 0001:00032790       __vfwprintf_s_l            00433790 f   LIBCMTD:vfwprint.obj
 0001:000327c0       __vfwprintf_p_l            004337c0 f   LIBCMTD:vfwprint.obj
 0001:000327f0       _vfwprintf                 004337f0 f   LIBCMTD:vfwprint.obj
 0001:00032820       _vfwprintf_s               00433820 f   LIBCMTD:vfwprint.obj
 0001:00032850       __vfwprintf_p              00433850 f   LIBCMTD:vfwprint.obj
 0001:00032880       __freebuf                  00433880 f   LIBCMTD:_freebuf.obj
 0001:00032910       __fcloseall                00433910 f   LIBCMTD:closeall.obj
 0001:00032a40       __woutput_s_l              00433a40 f   LIBCMTD:woutputs.obj
 0001:00033d90       __validate_param_reuseW    00434d90 f   LIBCMTD:woutputp.obj
 0001:00034000       __woutput_p_l              00435000 f   LIBCMTD:woutputp.obj
 0001:00037790       __ismbbkalnum_l            00438790 f   LIBCMTD:ismbbyte.obj
 0001:000377b0       __ismbbkalnum              004387b0 f   LIBCMTD:ismbbyte.obj
 0001:000377d0       __ismbbkprint_l            004387d0 f   LIBCMTD:ismbbyte.obj
 0001:000377f0       __ismbbkprint              004387f0 f   LIBCMTD:ismbbyte.obj
 0001:00037810       __ismbbkpunct_l            00438810 f   LIBCMTD:ismbbyte.obj
 0001:00037830       __ismbbkpunct              00438830 f   LIBCMTD:ismbbyte.obj
 0001:00037850       __ismbbalnum_l             00438850 f   LIBCMTD:ismbbyte.obj
 0001:00037870       __ismbbalnum               00438870 f   LIBCMTD:ismbbyte.obj
 0001:00037890       __ismbbalpha_l             00438890 f   LIBCMTD:ismbbyte.obj
 0001:000378b0       __ismbbalpha               004388b0 f   LIBCMTD:ismbbyte.obj
 0001:000378d0       __ismbbgraph_l             004388d0 f   LIBCMTD:ismbbyte.obj
 0001:000378f0       __ismbbgraph               004388f0 f   LIBCMTD:ismbbyte.obj
 0001:00037910       __ismbbprint_l             00438910 f   LIBCMTD:ismbbyte.obj
 0001:00037930       __ismbbprint               00438930 f   LIBCMTD:ismbbyte.obj
 0001:00037950       __ismbbpunct_l             00438950 f   LIBCMTD:ismbbyte.obj
 0001:00037970       __ismbbpunct               00438970 f   LIBCMTD:ismbbyte.obj
 0001:00037990       __ismbblead_l              00438990 f   LIBCMTD:ismbbyte.obj
 0001:000379b0       __ismbblead                004389b0 f   LIBCMTD:ismbbyte.obj
 0001:000379d0       __ismbbtrail_l             004389d0 f   LIBCMTD:ismbbyte.obj
 0001:000379f0       __ismbbtrail               004389f0 f   LIBCMTD:ismbbyte.obj
 0001:00037a10       __ismbbkana_l              00438a10 f   LIBCMTD:ismbbyte.obj
 0001:00037a80       __ismbbkana                00438a80 f   LIBCMTD:ismbbyte.obj
 0001:00037b70       __wmakepath_s              00438b70 f   LIBCMTD:wmakepath_s.obj
 0001:00037f20       __wsplitpath_s             00438f20 f   LIBCMTD:wsplitpath_s.obj
 0001:00038550       ___crtMessageBoxA          00439550 f   LIBCMTD:crtmbox.obj
 0001:00038770       _atol                      00439770 f   LIBCMTD:atox.obj
 0001:00038790       __atol_l                   00439790 f   LIBCMTD:atox.obj
 0001:000387b0       _atoi                      004397b0 f   LIBCMTD:atox.obj
 0001:000387d0       __atoi_l                   004397d0 f   LIBCMTD:atox.obj
 0001:000387f0       __atoi64                   004397f0 f   LIBCMTD:atox.obj
 0001:00038810       __atoi64_l                 00439810 f   LIBCMTD:atox.obj
 0001:00038830       ___init_time               00439830 f   LIBCMTD:inittime.obj
 0001:00039560       ___free_lc_time            0043a560 f   LIBCMTD:inittime.obj
 0001:00039bd0       ___init_numeric            0043abd0 f   LIBCMTD:initnum.obj
 0001:00039f80       ___free_lconv_num          0043af80 f   LIBCMTD:initnum.obj
 0001:0003a030       ___init_monetary           0043b030 f   LIBCMTD:initmon.obj
 0001:0003a620       ___free_lconv_mon          0043b620 f   LIBCMTD:initmon.obj
 0001:0003a7d0       _localeconv                0043b7d0 f   LIBCMTD:lconv.obj
 0001:0003a820       ___pwctype_func            0043b820 f   LIBCMTD:ctype.obj
 0001:0003a830       ___pctype_func             0043b830 f   LIBCMTD:ctype.obj
 0001:0003a880       ___crtLCMapStringA         0043b880 f   LIBCMTD:a_map.obj
 0001:0003abc0       ___crtGetStringTypeA       0043bbc0 f   LIBCMTD:a_str.obj
 0001:0003ad30       __output_l                 0043bd30 f   LIBCMTD:output.obj
 0001:0003c1a0       _get_short_arg             0043d1a0 f i LIBCMTD:output.obj
 0001:0003c1c0       __vsprintf_l               0043d1c0 f   LIBCMTD:vsprintf.obj
 0001:0003c360       _vsprintf                  0043d360 f   LIBCMTD:vsprintf.obj
 0001:0003c380       __vscprintf_helper         0043d380 f   LIBCMTD:vsprintf.obj
 0001:0003c460       __vscprintf                0043d460 f   LIBCMTD:vsprintf.obj
 0001:0003c480       __vscprintf_l              0043d480 f   LIBCMTD:vsprintf.obj
 0001:0003c4a0       __vscprintf_p              0043d4a0 f   LIBCMTD:vsprintf.obj
 0001:0003c4c0       __vscprintf_p_l            0043d4c0 f   LIBCMTD:vsprintf.obj
 0001:0003c4e0       __isleadbyte_l             0043d4e0 f i LIBCMTD:_wctype.obj
 0001:0003c530       _isleadbyte                0043d530 f i LIBCMTD:_wctype.obj
 0001:0003c550       __iswalpha_l               0043d550 f i LIBCMTD:_wctype.obj
 0001:0003c570       _iswalpha                  0043d570 f i LIBCMTD:_wctype.obj
 0001:0003c590       __iswupper_l               0043d590 f i LIBCMTD:_wctype.obj
 0001:0003c5b0       _iswupper                  0043d5b0 f i LIBCMTD:_wctype.obj
 0001:0003c5d0       __iswlower_l               0043d5d0 f i LIBCMTD:_wctype.obj
 0001:0003c5f0       _iswlower                  0043d5f0 f i LIBCMTD:_wctype.obj
 0001:0003c610       __iswdigit_l               0043d610 f i LIBCMTD:_wctype.obj
 0001:0003c630       _iswdigit                  0043d630 f i LIBCMTD:_wctype.obj
 0001:0003c650       __iswxdigit_l              0043d650 f i LIBCMTD:_wctype.obj
 0001:0003c670       _iswxdigit                 0043d670 f i LIBCMTD:_wctype.obj
 0001:0003c690       __iswspace_l               0043d690 f i LIBCMTD:_wctype.obj
 0001:0003c6b0       _iswspace                  0043d6b0 f i LIBCMTD:_wctype.obj
 0001:0003c6d0       __iswpunct_l               0043d6d0 f i LIBCMTD:_wctype.obj
 0001:0003c6f0       _iswpunct                  0043d6f0 f i LIBCMTD:_wctype.obj
 0001:0003c710       __iswalnum_l               0043d710 f i LIBCMTD:_wctype.obj
 0001:0003c730       _iswalnum                  0043d730 f i LIBCMTD:_wctype.obj
 0001:0003c750       __iswprint_l               0043d750 f i LIBCMTD:_wctype.obj
 0001:0003c770       _iswprint                  0043d770 f i LIBCMTD:_wctype.obj
 0001:0003c790       __iswgraph_l               0043d790 f i LIBCMTD:_wctype.obj
 0001:0003c7b0       _iswgraph                  0043d7b0 f i LIBCMTD:_wctype.obj
 0001:0003c7d0       __iswcntrl_l               0043d7d0 f i LIBCMTD:_wctype.obj
 0001:0003c7f0       _iswcntrl                  0043d7f0 f i LIBCMTD:_wctype.obj
 0001:0003c810       _iswascii                  0043d810 f i LIBCMTD:_wctype.obj
 0001:0003c830       __iswcsym_l                0043d830 f i LIBCMTD:_wctype.obj
 0001:0003c870       ___iswcsym                 0043d870 f i LIBCMTD:_wctype.obj
 0001:0003c8b0       __iswcsymf_l               0043d8b0 f i LIBCMTD:_wctype.obj
 0001:0003c8f0       ___iswcsymf                0043d8f0 f i LIBCMTD:_wctype.obj
 0001:0003c930       ____setlc_active_func      0043d930 f   LIBCMTD:setlocal.obj
 0001:0003c940       ____unguarded_readlc_active_add_func 0043d940 f   LIBCMTD:setlocal.obj
 0001:0003c950       __configthreadlocale       0043d950 f   LIBCMTD:setlocal.obj
 0001:0003ca60       __locterm                  0043da60 f   LIBCMTD:setlocal.obj
 0001:0003cb00       __free_locale              0043db00 f   LIBCMTD:setlocal.obj
 0001:0003cc40       ___free_locale             0043dc40 f   LIBCMTD:setlocal.obj
 0001:0003cc60       __create_locale            0043dc60 f   LIBCMTD:setlocal.obj
 0001:0003ce90       ___create_locale           0043de90 f   LIBCMTD:setlocal.obj
 0001:0003ceb0       __get_current_locale       0043deb0 f   LIBCMTD:setlocal.obj
 0001:0003cfd0       ___get_current_locale      0043dfd0 f   LIBCMTD:setlocal.obj
 0001:0003d000       _setlocale                 0043e000 f   LIBCMTD:setlocal.obj
 0001:0003deb0       __expandlocale             0043eeb0 f   LIBCMTD:setlocal.obj
 0001:0003e160       ___init_dummy              0043f160 f   LIBCMTD:setlocal.obj
 0001:0003e170       __strcats                  0043f170 f   LIBCMTD:setlocal.obj
 0001:0003e1f0       ___lc_strtolc              0043f1f0 f   LIBCMTD:setlocal.obj
 0001:0003e3f0       ___lc_lctostr              0043f3f0 f   LIBCMTD:setlocal.obj
 0001:0003e490       __output_s_l               0043f490 f   LIBCMTD:outputs.obj
 0001:0003fa60       __validate_param_reuseA    00440a60 f   LIBCMTD:outputp.obj
 0001:0003fcd0       __output_p_l               00440cd0 f   LIBCMTD:outputp.obj
 0001:000438e0       _get_crtdouble_arg         004448e0 f i LIBCMTD:outputp.obj
 0001:00043900       __lseeki64                 00444900 f   LIBCMTD:lseeki64.obj
 0001:00043b50       __lseeki64_nolock          00444b50 f   LIBCMTD:lseeki64.obj
 0001:00043c40       __getbuf                   00444c40 f   LIBCMTD:_getbuf.obj
 0001:00043d10       __isatty                   00444d10 f   LIBCMTD:isatty.obj
 0001:00043dd0       _printf                    00444dd0 f   LIBCMTD:printf.obj
 0001:00043f10       __printf_l                 00444f10 f   LIBCMTD:printf.obj
 0001:00043f40       __printf_s_l               00444f40 f   LIBCMTD:printf.obj
 0001:00043f70       _printf_s                  00444f70 f   LIBCMTD:printf.obj
 0001:00043fa0       __printf_p_l               00444fa0 f   LIBCMTD:printf.obj
 0001:00043fd0       __printf_p                 00444fd0 f   LIBCMTD:printf.obj
 0001:00044000       __set_printf_count_output  00445000 f   LIBCMTD:printf.obj
 0001:00044050       __get_printf_count_output  00445050 f   LIBCMTD:printf.obj
 0001:00044070       __mbtowc_l                 00445070 f   LIBCMTD:mbtowc.obj
 0001:00044290       _mbtowc                    00445290 f   LIBCMTD:mbtowc.obj
 0001:000442b0       _fputwc                    004452b0 f   LIBCMTD:fputwc.obj
 0001:000443b0       __fputwc_nolock            004453b0 f   LIBCMTD:fputwc.obj
 0001:000446a0       _putwc                     004456a0 f   LIBCMTD:fputwc.obj
 0001:000446c0       __handle_qnan1             004456c0 f   LIBCMTD:_fpexcept_.obj
 0001:00044720       __handle_qnan2             00445720 f   LIBCMTD:_fpexcept_.obj
 0001:00044790       __except1                  00445790 f   LIBCMTD:_fpexcept_.obj
 0001:00044890       __except2                  00445890 f   LIBCMTD:_fpexcept_.obj
 0001:000449a0       __raise_exc_ex             004459a0 f   LIBCMTD:_fpexcept_.obj
 0001:00044ed0       __raise_exc                00445ed0 f   LIBCMTD:_fpexcept_.obj
 0001:00044f00       __raise_excf               00445f00 f   LIBCMTD:_fpexcept_.obj
 0001:00044f30       __handle_exc               00445f30 f   LIBCMTD:_fpexcept_.obj
 0001:00045240       __umatherr                 00446240 f   LIBCMTD:_fpexcept_.obj
 0001:000452e0       __set_errno_from_matherr   004462e0 f   LIBCMTD:_fpexcept_.obj
 0001:00045370       __errcode                  00446370 f   LIBCMTD:_fpexcept_.obj
 0001:000453e0       __matherr                  004463e0 f   LIBCMTD:_matherr_.obj
 0001:000453f0       __statfp                   004463f0 f   LIBCMTD:_fpctrl_.obj
 0001:00045410       __clrfp                    00446410 f   LIBCMTD:_fpctrl_.obj
 0001:00045430       __ctrlfp                   00446430 f   LIBCMTD:_fpctrl_.obj
 0001:00045460       __set_statfp               00446460 f   LIBCMTD:_fpctrl_.obj
 0001:000454d0       ___get_fpsr_sse2           004464d0 f   LIBCMTD:_fpctrl_.obj
 0001:00045500       ___set_fpsr_sse2           00446500 f   LIBCMTD:_fpctrl_.obj
 0001:000455e0       ___fclrf_sse2              004465e0 f   LIBCMTD:_fpctrl_.obj
 0001:00045600       ___statfp_sse2             00446600 f   LIBCMTD:_fpctrl_.obj
 0001:00045630       ___clrfp_sse2              00446630 f   LIBCMTD:_fpctrl_.obj
 0001:00045670       ___ctrlfp_sse2             00446670 f   LIBCMTD:_fpctrl_.obj
 0001:000456d0       ___set_statfp_sse2         004466d0 f   LIBCMTD:_fpctrl_.obj
 0001:00045700       __statusfp2                00446700 f   LIBCMTD:_ieee87_.obj
 0001:00045740       __statusfp                 00446740 f   LIBCMTD:_ieee87_.obj
 0001:00045790       __clearfp                  00446790 f   LIBCMTD:_ieee87_.obj
 0001:000457e0       ___control87_2             004467e0 f   LIBCMTD:_ieee87_.obj
 0001:00045890       __controlfp                00446890 f   LIBCMTD:_ieee87_.obj
 0001:000458b0       __control87                004468b0 f i LIBCMTD:_ieee87_.obj
 0001:00045960       __set_controlfp            00446960 f   LIBCMTD:_ieee87_.obj
 0001:000459f0       __fpreset                  004469f0 f   LIBCMTD:_ieee87_.obj
 0001:000461b0       __ld12tod                  004471b0 f   LIBCMTD:_intrncvt_.obj
 0001:000461d0       __ld12cvt                  004471d0 f i LIBCMTD:_intrncvt_.obj
 0001:00046430       __RoundMan                 00447430 f i LIBCMTD:_intrncvt_.obj
 0001:00046510       __ZeroTail                 00447510 f i LIBCMTD:_intrncvt_.obj
 0001:000465a0       __IncMan                   004475a0 f i LIBCMTD:_intrncvt_.obj
 0001:00046650       ___addl                    00447650 f i LIBCMTD:_intrncvt_.obj
 0001:00046690       __CopyMan                  00447690 f i LIBCMTD:_intrncvt_.obj
 0001:000466e0       __FillZeroMan              004476e0 f i LIBCMTD:_intrncvt_.obj
 0001:00046720       __IsZeroMan                00447720 f i LIBCMTD:_intrncvt_.obj
 0001:00046760       __ShrMan                   00447760 f i LIBCMTD:_intrncvt_.obj
 0001:00046850       __ld12tof                  00447850 f   LIBCMTD:_intrncvt_.obj
 0001:00046870       __ld12told                 00447870 f   LIBCMTD:_intrncvt_.obj
 0001:00046940       ___strgtold12_l            00447940 f   LIBCMTD:_strgtold_.obj
 0001:000473f0       ___multtenpow12            004483f0 f i LIBCMTD:_strgtold_.obj
 0001:000474d0       ___ld12mul                 004484d0 f i LIBCMTD:_strgtold_.obj
 0001:000478d0       ___shl_12                  004488d0 f i LIBCMTD:_strgtold_.obj
 0001:00047940       ___shr_12                  00448940 f i LIBCMTD:_strgtold_.obj
 0001:000479b0       ___STRINGTOLD_L            004489b0 f   LIBCMTD:_strgtold_.obj
 0001:00047a20       _$I10_OUTPUT               00448a20 f   LIBCMTD:_x10fout_.obj
 0001:00047fd0       ___add_12                  00448fd0 f i LIBCMTD:_x10fout_.obj
 0001:00048080       __alloc_osfhnd             00449080 f   LIBCMTD:osfinfo.obj
 0001:00048330       __set_osfhnd               00449330 f   LIBCMTD:osfinfo.obj
 0001:00048400       __free_osfhnd              00449400 f   LIBCMTD:osfinfo.obj
 0001:000484f0       __get_osfhandle            004494f0 f   LIBCMTD:osfinfo.obj
 0001:00048660       __open_osfhandle           00449660 f   LIBCMTD:osfinfo.obj
 0001:00048890       ___lock_fhandle            00449890 f   LIBCMTD:osfinfo.obj
 0001:00048990       __unlock_fhandle           00449990 f   LIBCMTD:osfinfo.obj
 0001:000489c0       __putwch                   004499c0 f   LIBCMTD:putwch.obj
 0001:00048a50       __putwch_nolock            00449a50 f   LIBCMTD:putwch.obj
 0001:00048aa0       _fclose                    00449aa0 f   LIBCMTD:fclose.obj
 0001:00048bb0       __fclose_nolock            00449bb0 f   LIBCMTD:fclose.obj
 0001:00048cb0       _wcstol                    00449cb0 f   LIBCMTD:wcstol.obj
 0001:00049080       __wcstol_l                 0044a080 f   LIBCMTD:wcstol.obj
 0001:000490a0       _wcstoul                   0044a0a0 f   LIBCMTD:wcstol.obj
 0001:000490c0       __wcstoul_l                0044a0c0 f   LIBCMTD:wcstol.obj
 0001:000490e0       _strtol                    0044a0e0 f   LIBCMTD:strtol.obj
 0001:00049610       __strtol_l                 0044a610 f   LIBCMTD:strtol.obj
 0001:00049640       _strtoul                   0044a640 f   LIBCMTD:strtol.obj
 0001:00049690       __strtoul_l                0044a690 f   LIBCMTD:strtol.obj
 0001:000496c0       __strtoi64                 0044a6c0 f   LIBCMTD:strtoq.obj
 0001:00049c30       __strtoi64_l               0044ac30 f   LIBCMTD:strtoq.obj
 0001:00049c60       __strtoui64                0044ac60 f   LIBCMTD:strtoq.obj
 0001:00049cb0       __strtoui64_l              0044acb0 f   LIBCMTD:strtoq.obj
 0001:00049ce0       __wctomb_s_l               0044ace0 f   LIBCMTD:wctomb.obj
 0001:00049fe0       _wctomb_s                  0044afe0 f   LIBCMTD:wctomb.obj
 0001:0004a010       __wctomb_l                 0044b010 f   LIBCMTD:wctomb.obj
 0001:0004a090       _wctomb                    0044b090 f   LIBCMTD:wctomb.obj
 0001:0004a0e0       __iswctype_l               0044b0e0 f   LIBCMTD:iswctype.obj
 0001:0004a100       _iswctype                  0044b100 f   LIBCMTD:iswctype.obj
 0001:0004a160       _is_wctype                 0044b160 f   LIBCMTD:iswctype.obj
 0001:0004a180       ___init_ctype              0044b180 f   LIBCMTD:initctyp.obj
 0001:0004a730       ____mb_cur_max_func        0044b730 f   LIBCMTD:initctyp.obj
 0001:0004a780       ____mb_cur_max_l_func      0044b780 f   LIBCMTD:initctyp.obj
 0001:0004a7b0       ____lc_codepage_func       0044b7b0 f   LIBCMTD:initctyp.obj
 0001:0004a800       ____lc_collate_cp_func     0044b800 f   LIBCMTD:initctyp.obj
 0001:0004a850       ____lc_handle_func         0044b850 f   LIBCMTD:initctyp.obj
 0001:0004a8a0       ___init_collate            0044b8a0 f   LIBCMTD:initcoll.obj
 0001:0004a8b0       _strcspn                   0044b8b0 f   LIBCMTD:strcspn.obj
 0001:0004a900       _strncmp                   0044b900 f   LIBCMTD:strncmp.obj
 0001:0004aa80       _strpbrk                   0044ba80 f   LIBCMTD:strpbrk.obj
 0001:0004aac0       _memcmp                    0044bac0 f   LIBCMTD:memcmp.obj
 0001:0004b530       ___get_qualified_locale    0044c530 f   LIBCMTD:getqloc.obj
 0001:0004c390       _vprintf_helper            0044d390 f   LIBCMTD:vprintf.obj
 0001:0004c4b0       __vprintf_l                0044d4b0 f   LIBCMTD:vprintf.obj
 0001:0004c4d0       __vprintf_s_l              0044d4d0 f   LIBCMTD:vprintf.obj
 0001:0004c4f0       __vprintf_p_l              0044d4f0 f   LIBCMTD:vprintf.obj
 0001:0004c510       _vprintf                   0044d510 f   LIBCMTD:vprintf.obj
 0001:0004c530       _vprintf_s                 0044d530 f   LIBCMTD:vprintf.obj
 0001:0004c550       __vprintf_p                0044d550 f   LIBCMTD:vprintf.obj
 0001:0004c570       __flswbuf                  0044d570 f   LIBCMTD:_flswbuf.obj
 0001:0004c850       __set_exp                  0044d850 f   LIBCMTD:_util_.obj
 0001:0004c890       __get_exp                  0044d890 f   LIBCMTD:_util_.obj
 0001:0004c8c0       __add_exp                  0044d8c0 f   LIBCMTD:_util_.obj
 0001:0004c900       __set_bexp                 0044d900 f   LIBCMTD:_util_.obj
 0001:0004c930       __sptype                   0044d930 f   LIBCMTD:_util_.obj
 0001:0004c9b0       __decomp                   0044d9b0 f   LIBCMTD:_util_.obj
 0001:0004cae0       ___mtold12                 0044dae0 f   LIBCMTD:_mantold_.obj
 0001:0004cc40       ___initconout              0044dc40 f   LIBCMTD:initcon.obj
 0001:0004cc70       ___termconout              0044dc70 f   LIBCMTD:initcon.obj
 0001:0004cca0       __close                    0044dca0 f   LIBCMTD:close.obj
 0001:0004ceb0       __close_nolock             0044deb0 f   LIBCMTD:close.obj
 0001:0004cf80       __wchartodigit             0044df80 f   LIBCMTD:wchtodig.obj
 0001:0004d2b0       __allmul                   0044e2b0 f   LIBCMTD:llmul.obj
 0001:0004d2f0       __stricmp_l                0044e2f0 f   LIBCMTD:stricmp.obj
 0001:0004d4a0       ___ascii_stricmp           0044e4a0 f   LIBCMTD:stricmp.obj
 0001:0004d520       __stricmp                  0044e520 f   LIBCMTD:stricmp.obj
 0001:0004d630       __strnicmp_l               0044e630 f   LIBCMTD:strnicmp.obj
 0001:0004d870       __strnicmp                 0044e870 f   LIBCMTD:strnicmp.obj
 0001:0004da00       ___ascii_strnicmp          0044ea00 f   LIBCMTD:_strnicm.obj
 0001:0004da62       _InterlockedIncrement@4    0044ea62 f   kernel32:KERNEL32.dll
 0001:0004da68       _InterlockedDecrement@4    0044ea68 f   kernel32:KERNEL32.dll
 0001:0004da6e       _Sleep@4                   0044ea6e f   kernel32:KERNEL32.dll
 0001:0004da74       _InterlockedExchange@8     0044ea74 f   kernel32:KERNEL32.dll
 0001:0004da7a       _DecodePointer@4           0044ea7a f   kernel32:KERNEL32.dll
 0001:0004da80       _EncodePointer@4           0044ea80 f   kernel32:KERNEL32.dll
 0001:0004da86       _RtlUnwind@16              0044ea86 f   kernel32:KERNEL32.dll
 0001:0004da8c       _UnhandledExceptionFilter@4 0044ea8c f   kernel32:KERNEL32.dll
 0001:0004da92       _IsDebuggerPresent@0       0044ea92 f   kernel32:KERNEL32.dll
 0001:0004da98       _RaiseException@16         0044ea98 f   kernel32:KERNEL32.dll
 0001:0004da9e       _WriteConsoleW@20          0044ea9e f   kernel32:KERNEL32.dll
 0001:0004daa4       _GetFileType@4             0044eaa4 f   kernel32:KERNEL32.dll
 0001:0004daaa       _GetStdHandle@4            0044eaaa f   kernel32:KERNEL32.dll
 0001:0004dab0       _GetSystemTimeAsFileTime@4 0044eab0 f   kernel32:KERNEL32.dll
 0001:0004dab6       _GetCommandLineA@0         0044eab6 f   kernel32:KERNEL32.dll
 0001:0004dabc       _HeapSetInformation@16     0044eabc f   kernel32:KERNEL32.dll
 0001:0004dac2       _GetStartupInfoW@4         0044eac2 f   kernel32:KERNEL32.dll
 0001:0004dac8       _WideCharToMultiByte@32    0044eac8 f   kernel32:KERNEL32.dll
 0001:0004dace       _MultiByteToWideChar@24    0044eace f   kernel32:KERNEL32.dll
 0001:0004dad4       _lstrlenA@4                0044ead4 f   kernel32:KERNEL32.dll
 0001:0004dada       _WriteFile@20              0044eada f   kernel32:KERNEL32.dll
 0001:0004dae0       _GetLocaleInfoW@16         0044eae0 f   kernel32:KERNEL32.dll
 0001:0004dae6       _IsProcessorFeaturePresent@4 0044eae6 f   kernel32:KERNEL32.dll
 0001:0004daec       _TlsAlloc@0                0044eaec f   kernel32:KERNEL32.dll
 0001:0004daf2       _TlsGetValue@4             0044eaf2 f   kernel32:KERNEL32.dll
 0001:0004daf8       _TlsSetValue@8             0044eaf8 f   kernel32:KERNEL32.dll
 0001:0004dafe       _TlsFree@4                 0044eafe f   kernel32:KERNEL32.dll
 0001:0004db04       _GetModuleHandleW@4        0044eb04 f   kernel32:KERNEL32.dll
 0001:0004db0a       _SetLastError@4            0044eb0a f   kernel32:KERNEL32.dll
 0001:0004db10       _InitializeCriticalSectionAndSpinCount@8 0044eb10 f   kernel32:KERNEL32.dll
 0001:0004db16       _FatalAppExitA@8           0044eb16 f   kernel32:KERNEL32.dll
 0001:0004db1c       _HeapValidate@12           0044eb1c f   kernel32:KERNEL32.dll
 0001:0004db22       _IsBadReadPtr@8            0044eb22 f   kernel32:KERNEL32.dll
 0001:0004db28       _OutputDebugStringA@4      0044eb28 f   kernel32:KERNEL32.dll
 0001:0004db2e       _OutputDebugStringW@4      0044eb2e f   kernel32:KERNEL32.dll
 0001:0004db34       _ExitProcess@4             0044eb34 f   kernel32:KERNEL32.dll
 0001:0004db3a       _SetConsoleCtrlHandler@8   0044eb3a f   kernel32:KERNEL32.dll
 0001:0004db40       _QueryPerformanceCounter@4 0044eb40 f   kernel32:KERNEL32.dll
 0001:0004db46       _GetTickCount@0            0044eb46 f   kernel32:KERNEL32.dll
 0001:0004db4c       _GetModuleFileNameA@12     0044eb4c f   kernel32:KERNEL32.dll
 0001:0004db52       _FreeEnvironmentStringsW@4 0044eb52 f   kernel32:KERNEL32.dll
 0001:0004db58       _GetEnvironmentStringsW@0  0044eb58 f   kernel32:KERNEL32.dll
 0001:0004db5e       _SetHandleCount@4          0044eb5e f   kernel32:KERNEL32.dll
 0001:0004db64       _HeapCreate@12             0044eb64 f   kernel32:KERNEL32.dll
 0001:0004db6a       _HeapDestroy@4             0044eb6a f   kernel32:KERNEL32.dll
 0001:0004db70       _HeapFree@12               0044eb70 f   kernel32:KERNEL32.dll
 0001:0004db76       _HeapAlloc@12              0044eb76 f   kernel32:KERNEL32.dll
 0001:0004db7c       _GetProcessHeap@0          0044eb7c f   kernel32:KERNEL32.dll
 0001:0004db82       _VirtualQuery@12           0044eb82 f   kernel32:KERNEL32.dll
 0001:0004db88       _FreeLibrary@4             0044eb88 f   kernel32:KERNEL32.dll
 0001:0004db8e       _GetACP@0                  0044eb8e f   kernel32:KERNEL32.dll
 0001:0004db94       _GetOEMCP@0                0044eb94 f   kernel32:KERNEL32.dll
 0001:0004db9a       _GetCPInfo@8               0044eb9a f   kernel32:KERNEL32.dll
 0001:0004dba0       _IsValidCodePage@4         0044eba0 f   kernel32:KERNEL32.dll
 0001:0004dba6       _HeapReAlloc@16            0044eba6 f   kernel32:KERNEL32.dll
 0001:0004dbac       _HeapSize@12               0044ebac f   kernel32:KERNEL32.dll
 0001:0004dbb2       _HeapQueryInformation@20   0044ebb2 f   kernel32:KERNEL32.dll
 0001:0004dbb8       _FlushFileBuffers@4        0044ebb8 f   kernel32:KERNEL32.dll
 0001:0004dbbe       _GetConsoleCP@0            0044ebbe f   kernel32:KERNEL32.dll
 0001:0004dbc4       _GetConsoleMode@8          0044ebc4 f   kernel32:KERNEL32.dll
 0001:0004dbca       _LCMapStringW@24           0044ebca f   kernel32:KERNEL32.dll
 0001:0004dbd0       _GetStringTypeW@16         0044ebd0 f   kernel32:KERNEL32.dll
 0001:0004dbd6       _SetFilePointer@16         0044ebd6 f   kernel32:KERNEL32.dll
 0001:0004dbdc       _SetStdHandle@8            0044ebdc f   kernel32:KERNEL32.dll
 0001:0004dbe2       _GetLocaleInfoA@16         0044ebe2 f   kernel32:KERNEL32.dll
 0001:0004dbe8       _IsValidLocale@8           0044ebe8 f   kernel32:KERNEL32.dll
 0001:0004dbee       _EnumSystemLocalesA@8      0044ebee f   kernel32:KERNEL32.dll
 0001:0004dbf4       _GetUserDefaultLCID@0      0044ebf4 f   kernel32:KERNEL32.dll
 0002:00000000       __imp__AdjustTokenPrivileges@24 00450000     advapi32:ADVAPI32.dll
 0002:00000004       __imp__OpenThreadToken@16  00450004     advapi32:ADVAPI32.dll
 0002:00000008       __imp__OpenProcessToken@12 00450008     advapi32:ADVAPI32.dll
 0002:0000000c       __imp__LookupPrivilegeValueW@12 0045000c     advapi32:ADVAPI32.dll
 0002:00000010       \177ADVAPI32_NULL_THUNK_DATA 00450010     advapi32:ADVAPI32.dll
 0002:00000014       __imp_?ReplaceSel@CRichEditUI@DuiLib@@QAEXPB_W_N@Z 00450014     DuiLib_ud:DuiLib_ud.dll
 0002:00000018       __imp_??1CPaintManagerUI@DuiLib@@QAE@XZ 00450018     DuiLib_ud:DuiLib_ud.dll
 0002:0000001c       __imp_?DoEvent@CContainerUI@DuiLib@@UAEXAAUtagTEventUI@2@@Z 0045001c     DuiLib_ud:DuiLib_ud.dll
 0002:00000020       __imp_?GetMousePos@CPaintManagerUI@DuiLib@@QBE?AUtagPOINT@@XZ 00450020     DuiLib_ud:DuiLib_ud.dll
 0002:00000024       __imp_?RemoveAt@CContainerUI@DuiLib@@UAE_NH@Z 00450024     DuiLib_ud:DuiLib_ud.dll
 0002:00000028       __imp_?Remove@CContainerUI@DuiLib@@UAE_NPAVCControlUI@2@@Z 00450028     DuiLib_ud:DuiLib_ud.dll
 0002:0000002c       __imp_?AddAt@CContainerUI@DuiLib@@UAE_NPAVCControlUI@2@H@Z 0045002c     DuiLib_ud:DuiLib_ud.dll
 0002:00000030       __imp_?GetCount@CContainerUI@DuiLib@@UBEHXZ 00450030     DuiLib_ud:DuiLib_ud.dll
 0002:00000034       __imp_?SetItemIndex@CContainerUI@DuiLib@@UAE_NPAVCControlUI@2@H@Z 00450034     DuiLib_ud:DuiLib_ud.dll
 0002:00000038       __imp_?GetItemIndex@CContainerUI@DuiLib@@UBEHPAVCControlUI@2@@Z 00450038     DuiLib_ud:DuiLib_ud.dll
 0002:0000003c       __imp_?GetItemAt@CContainerUI@DuiLib@@UBEPAVCControlUI@2@H@Z 0045003c     DuiLib_ud:DuiLib_ud.dll
 0002:00000040       __imp_?GetHorizontalScrollBar@CContainerUI@DuiLib@@UBEPAVCScrollBarUI@2@XZ 00450040     DuiLib_ud:DuiLib_ud.dll
 0002:00000044       __imp_?GetVerticalScrollBar@CContainerUI@DuiLib@@UBEPAVCScrollBarUI@2@XZ 00450044     DuiLib_ud:DuiLib_ud.dll
 0002:00000048       __imp_?EnableScrollBar@CContainerUI@DuiLib@@UAEX_N0@Z 00450048     DuiLib_ud:DuiLib_ud.dll
 0002:0000004c       __imp_?EndRight@CContainerUI@DuiLib@@UAEXXZ 0045004c     DuiLib_ud:DuiLib_ud.dll
 0002:00000050       __imp_?HomeLeft@CContainerUI@DuiLib@@UAEXXZ 00450050     DuiLib_ud:DuiLib_ud.dll
 0002:00000054       __imp_?GetControl@CActiveXUI@DuiLib@@QAEJU_GUID@@PAPAX@Z 00450054     DuiLib_ud:DuiLib_ud.dll
 0002:00000058       __imp_?PageLeft@CContainerUI@DuiLib@@UAEXXZ 00450058     DuiLib_ud:DuiLib_ud.dll
 0002:0000005c       __imp_?LineRight@CContainerUI@DuiLib@@UAEXXZ 0045005c     DuiLib_ud:DuiLib_ud.dll
 0002:00000060       __imp_?LineLeft@CContainerUI@DuiLib@@UAEXXZ 00450060     DuiLib_ud:DuiLib_ud.dll
 0002:00000064       __imp_?EndDown@CContainerUI@DuiLib@@UAEXXZ 00450064     DuiLib_ud:DuiLib_ud.dll
 0002:00000068       __imp_?HomeUp@CContainerUI@DuiLib@@UAEXXZ 00450068     DuiLib_ud:DuiLib_ud.dll
 0002:0000006c       __imp_?PageDown@CContainerUI@DuiLib@@UAEXXZ 0045006c     DuiLib_ud:DuiLib_ud.dll
 0002:00000070       __imp_?PageUp@CContainerUI@DuiLib@@UAEXXZ 00450070     DuiLib_ud:DuiLib_ud.dll
 0002:00000074       __imp_?LineDown@CContainerUI@DuiLib@@UAEXXZ 00450074     DuiLib_ud:DuiLib_ud.dll
 0002:00000078       __imp_?LineUp@CContainerUI@DuiLib@@UAEXXZ 00450078     DuiLib_ud:DuiLib_ud.dll
 0002:0000007c       __imp_?SetScrollPos@CContainerUI@DuiLib@@UAEXUtagSIZE@@@Z 0045007c     DuiLib_ud:DuiLib_ud.dll
 0002:00000080       __imp_?GetScrollRange@CContainerUI@DuiLib@@UBE?AUtagSIZE@@XZ 00450080     DuiLib_ud:DuiLib_ud.dll
 0002:00000084       __imp_?GetScrollPos@CContainerUI@DuiLib@@UBE?AUtagSIZE@@XZ 00450084     DuiLib_ud:DuiLib_ud.dll
 0002:00000088       __imp_?SetChildPadding@CContainerUI@DuiLib@@UAEXH@Z 00450088     DuiLib_ud:DuiLib_ud.dll
 0002:0000008c       __imp_?GetChildPadding@CContainerUI@DuiLib@@UBEHXZ 0045008c     DuiLib_ud:DuiLib_ud.dll
 0002:00000090       __imp_?SetAttribute@CTileLayoutUI@DuiLib@@UAEXPB_W0@Z 00450090     DuiLib_ud:DuiLib_ud.dll
 0002:00000094       __imp_?SetInternVisible@CContainerUI@DuiLib@@UAEX_N@Z 00450094     DuiLib_ud:DuiLib_ud.dll
 0002:00000098       __imp_?GetSizeBox@CPaintManagerUI@DuiLib@@QAEAAUtagRECT@@XZ 00450098     DuiLib_ud:DuiLib_ud.dll
 0002:0000009c       __imp_??0CDuiRect@DuiLib@@QAE@ABUtagRECT@@@Z 0045009c     DuiLib_ud:DuiLib_ud.dll
 0002:000000a0       __imp_??1CListTextElementUI@DuiLib@@UAE@XZ 004500a0     DuiLib_ud:DuiLib_ud.dll
 0002:000000a4       __imp_?PageRight@CContainerUI@DuiLib@@UAEXXZ 004500a4     DuiLib_ud:DuiLib_ud.dll
 0002:000000a8       __imp_??0CListUI@DuiLib@@QAE@XZ 004500a8     DuiLib_ud:DuiLib_ud.dll
 0002:000000ac       __imp_?SetVisible@CContainerUI@DuiLib@@UAEX_N@Z 004500ac     DuiLib_ud:DuiLib_ud.dll
 0002:000000b0       __imp_?SetPos@CTileLayoutUI@DuiLib@@UAEXUtagRECT@@@Z 004500b0     DuiLib_ud:DuiLib_ud.dll
 0002:000000b4       __imp_?GetControlFlags@CControlUI@DuiLib@@UBEIXZ 004500b4     DuiLib_ud:DuiLib_ud.dll
 0002:000000b8       __imp_?MessageLoop@CPaintManagerUI@DuiLib@@SAXXZ 004500b8     DuiLib_ud:DuiLib_ud.dll
 0002:000000bc       __imp_??BCWindowWnd@DuiLib@@QBEPAUHWND__@@XZ 004500bc     DuiLib_ud:DuiLib_ud.dll
 0002:000000c0       __imp_?CenterWindow@CWindowWnd@DuiLib@@QAEXXZ 004500c0     DuiLib_ud:DuiLib_ud.dll
 0002:000000c4       __imp_?Create@CWindowWnd@DuiLib@@QAEPAUHWND__@@PAU3@PB_WKKHHHHPAUHMENU__@@@Z 004500c4     DuiLib_ud:DuiLib_ud.dll
 0002:000000c8       __imp_?SetResourceZip@CPaintManagerUI@DuiLib@@SAXPB_W_N@Z 004500c8     DuiLib_ud:DuiLib_ud.dll
 0002:000000cc       __imp_??1CDuiString@DuiLib@@QAE@XZ 004500cc     DuiLib_ud:DuiLib_ud.dll
 0002:000000d0       __imp_?SetResourcePath@CPaintManagerUI@DuiLib@@SAXPB_W@Z 004500d0     DuiLib_ud:DuiLib_ud.dll
 0002:000000d4       __imp_??BCDuiString@DuiLib@@QBEPB_WXZ 004500d4     DuiLib_ud:DuiLib_ud.dll
 0002:000000d8       __imp_??HCDuiString@DuiLib@@QBE?AV01@PB_W@Z 004500d8     DuiLib_ud:DuiLib_ud.dll
 0002:000000dc       __imp_?GetInstancePath@CPaintManagerUI@DuiLib@@SA?AVCDuiString@2@XZ 004500dc     DuiLib_ud:DuiLib_ud.dll
 0002:000000e0       __imp_?SetInstance@CPaintManagerUI@DuiLib@@SAXPAUHINSTANCE__@@@Z 004500e0     DuiLib_ud:DuiLib_ud.dll
 0002:000000e4       __imp_??0CPaintManagerUI@DuiLib@@QAE@XZ 004500e4     DuiLib_ud:DuiLib_ud.dll
 0002:000000e8       __imp_??0CWindowWnd@DuiLib@@QAE@XZ 004500e8     DuiLib_ud:DuiLib_ud.dll
 0002:000000ec       __imp_?GetSuperClassName@CWindowWnd@DuiLib@@MBEPB_WXZ 004500ec     DuiLib_ud:DuiLib_ud.dll
 0002:000000f0       __imp_?GetPaintWindow@CPaintManagerUI@DuiLib@@QBEPAUHWND__@@XZ 004500f0     DuiLib_ud:DuiLib_ud.dll
 0002:000000f4       __imp_?SetSelectionCharFormat@CRichEditUI@DuiLib@@QAE_NAAUCHARFORMAT2W@@@Z 004500f4     DuiLib_ud:DuiLib_ud.dll
 0002:000000f8       __imp_?SetSel@CRichEditUI@DuiLib@@QAEHJJ@Z 004500f8     DuiLib_ud:DuiLib_ud.dll
 0002:000000fc       __imp_?GetTextLength@CRichEditUI@DuiLib@@QBEJK@Z 004500fc     DuiLib_ud:DuiLib_ud.dll
 0002:00000100       __imp_?SelectItem@CTabLayoutUI@DuiLib@@QAE_NH@Z 00450100     DuiLib_ud:DuiLib_ud.dll
 0002:00000104       __imp_?GetCurSel@CTabLayoutUI@DuiLib@@QBEHXZ 00450104     DuiLib_ud:DuiLib_ud.dll
 0002:00000108       __imp_?NeedUpdate@CControlUI@DuiLib@@QAEXXZ 00450108     DuiLib_ud:DuiLib_ud.dll
 0002:0000010c       __imp_?GetRoot@CPaintManagerUI@DuiLib@@QBEPAVCControlUI@2@XZ 0045010c     DuiLib_ud:DuiLib_ud.dll
 0002:00000110       __imp_?SetDefaultFont@CPaintManagerUI@DuiLib@@QAEXPB_WH_N11@Z 00450110     DuiLib_ud:DuiLib_ud.dll
 0002:00000114       __imp_?GetFontInfo@CPaintManagerUI@DuiLib@@QAEPAUtagTFontInfo@2@H@Z 00450114     DuiLib_ud:DuiLib_ud.dll
 0002:00000118       __imp_?GetDefaultFontInfo@CPaintManagerUI@DuiLib@@QAEPAUtagTFontInfo@2@XZ 00450118     DuiLib_ud:DuiLib_ud.dll
 0002:0000011c       __imp_?SendMessageW@CWindowWnd@DuiLib@@QAEJIIJ@Z 0045011c     DuiLib_ud:DuiLib_ud.dll
 0002:00000120       __imp_?IsSelected@COptionUI@DuiLib@@QBE_NXZ 00450120     DuiLib_ud:DuiLib_ud.dll
 0002:00000124       __imp_?FindControl@CPaintManagerUI@DuiLib@@QBEPAVCControlUI@2@PB_W@Z 00450124     DuiLib_ud:DuiLib_ud.dll
 0002:00000128       __imp_??8CDuiString@DuiLib@@QBE_NPB_W@Z 00450128     DuiLib_ud:DuiLib_ud.dll
 0002:0000012c       __imp_??YCDuiString@DuiLib@@QAEABV01@ABV01@@Z 0045012c     DuiLib_ud:DuiLib_ud.dll
 0002:00000130       __imp_??YCDuiString@DuiLib@@QAEABV01@PB_W@Z 00450130     DuiLib_ud:DuiLib_ud.dll
 0002:00000134       __imp_??0CDuiString@DuiLib@@QAE@XZ 00450134     DuiLib_ud:DuiLib_ud.dll
 0002:00000138       __imp_??0CSize@DuiLib@@QAE@XZ 00450138     DuiLib_ud:DuiLib_ud.dll
 0002:0000013c       __imp_?ShowModal@CWindowWnd@DuiLib@@QAEIXZ 0045013c     DuiLib_ud:DuiLib_ud.dll
 0002:00000140       __imp_?Close@CWindowWnd@DuiLib@@QAEXI@Z 00450140     DuiLib_ud:DuiLib_ud.dll
 0002:00000144       __imp_??0CListTextElementUI@DuiLib@@QAE@XZ 00450144     DuiLib_ud:DuiLib_ud.dll
 0002:00000148       __imp_?GetName@CControlUI@DuiLib@@UBE?AVCDuiString@2@XZ 00450148     DuiLib_ud:DuiLib_ud.dll
 0002:0000014c       __imp_?SetName@CControlUI@DuiLib@@UAEXPB_W@Z 0045014c     DuiLib_ud:DuiLib_ud.dll
 0002:00000150       __imp_?GetClass@CListTextElementUI@DuiLib@@UBEPB_WXZ 00450150     DuiLib_ud:DuiLib_ud.dll
 0002:00000154       __imp_?GetInterface@CListTextElementUI@DuiLib@@UAEPAXPB_W@Z 00450154     DuiLib_ud:DuiLib_ud.dll
 0002:00000158       __imp_?GetControlFlags@CListTextElementUI@DuiLib@@UBEIXZ 00450158     DuiLib_ud:DuiLib_ud.dll
 0002:0000015c       __imp_?Activate@CListElementUI@DuiLib@@UAE_NXZ 0045015c     DuiLib_ud:DuiLib_ud.dll
 0002:00000160       __imp_?GetManager@CControlUI@DuiLib@@UBEPAVCPaintManagerUI@2@XZ 00450160     DuiLib_ud:DuiLib_ud.dll
 0002:00000164       __imp_?SetManager@CControlUI@DuiLib@@UAEXPAVCPaintManagerUI@2@PAV12@_N@Z 00450164     DuiLib_ud:DuiLib_ud.dll
 0002:00000168       __imp_?GetParent@CControlUI@DuiLib@@UBEPAV12@XZ 00450168     DuiLib_ud:DuiLib_ud.dll
 0002:0000016c       __imp_?GetText@CControlUI@DuiLib@@UBE?AVCDuiString@2@XZ 0045016c     DuiLib_ud:DuiLib_ud.dll
 0002:00000170       __imp_?SetText@CControlUI@DuiLib@@UAEXPB_W@Z 00450170     DuiLib_ud:DuiLib_ud.dll
 0002:00000174       __imp_?GetPos@CControlUI@DuiLib@@UBEABUtagRECT@@XZ 00450174     DuiLib_ud:DuiLib_ud.dll
 0002:00000178       __imp_?SetPos@CControlUI@DuiLib@@UAEXUtagRECT@@@Z 00450178     DuiLib_ud:DuiLib_ud.dll
 0002:0000017c       __imp_?GetWidth@CControlUI@DuiLib@@UBEHXZ 0045017c     DuiLib_ud:DuiLib_ud.dll
 0002:00000180       __imp_?GetHeight@CControlUI@DuiLib@@UBEHXZ 00450180     DuiLib_ud:DuiLib_ud.dll
 0002:00000184       __imp_?GetX@CControlUI@DuiLib@@UBEHXZ 00450184     DuiLib_ud:DuiLib_ud.dll
 0002:00000188       __imp_?GetY@CControlUI@DuiLib@@UBEHXZ 00450188     DuiLib_ud:DuiLib_ud.dll
 0002:0000018c       __imp_?GetPadding@CControlUI@DuiLib@@UBE?AUtagRECT@@XZ 0045018c     DuiLib_ud:DuiLib_ud.dll
 0002:00000190       __imp_?SetPadding@CControlUI@DuiLib@@UAEXUtagRECT@@@Z 00450190     DuiLib_ud:DuiLib_ud.dll
 0002:00000194       __imp_?GetFixedXY@CControlUI@DuiLib@@UBE?AUtagSIZE@@XZ 00450194     DuiLib_ud:DuiLib_ud.dll
 0002:00000198       __imp_?SetFixedXY@CControlUI@DuiLib@@UAEXUtagSIZE@@@Z 00450198     DuiLib_ud:DuiLib_ud.dll
 0002:0000019c       __imp_?GetFixedWidth@CControlUI@DuiLib@@UBEHXZ 0045019c     DuiLib_ud:DuiLib_ud.dll
 0002:000001a0       __imp_?SetFixedWidth@CControlUI@DuiLib@@UAEXH@Z 004501a0     DuiLib_ud:DuiLib_ud.dll
 0002:000001a4       __imp_?GetFixedHeight@CControlUI@DuiLib@@UBEHXZ 004501a4     DuiLib_ud:DuiLib_ud.dll
 0002:000001a8       __imp_?SetFixedHeight@CControlUI@DuiLib@@UAEXH@Z 004501a8     DuiLib_ud:DuiLib_ud.dll
 0002:000001ac       __imp_?GetMinWidth@CControlUI@DuiLib@@UBEHXZ 004501ac     DuiLib_ud:DuiLib_ud.dll
 0002:000001b0       __imp_?SetMinWidth@CControlUI@DuiLib@@UAEXH@Z 004501b0     DuiLib_ud:DuiLib_ud.dll
 0002:000001b4       __imp_?GetMaxWidth@CControlUI@DuiLib@@UBEHXZ 004501b4     DuiLib_ud:DuiLib_ud.dll
 0002:000001b8       __imp_?SetMaxWidth@CControlUI@DuiLib@@UAEXH@Z 004501b8     DuiLib_ud:DuiLib_ud.dll
 0002:000001bc       __imp_?GetMinHeight@CControlUI@DuiLib@@UBEHXZ 004501bc     DuiLib_ud:DuiLib_ud.dll
 0002:000001c0       __imp_?SetMinHeight@CControlUI@DuiLib@@UAEXH@Z 004501c0     DuiLib_ud:DuiLib_ud.dll
 0002:000001c4       __imp_?GetMaxHeight@CControlUI@DuiLib@@UBEHXZ 004501c4     DuiLib_ud:DuiLib_ud.dll
 0002:000001c8       __imp_?SetMaxHeight@CControlUI@DuiLib@@UAEXH@Z 004501c8     DuiLib_ud:DuiLib_ud.dll
 0002:000001cc       __imp_?SetRelativePos@CControlUI@DuiLib@@UAEXUtagSIZE@@0@Z 004501cc     DuiLib_ud:DuiLib_ud.dll
 0002:000001d0       __imp_?SetRelativeParentSize@CControlUI@DuiLib@@UAEXUtagSIZE@@@Z 004501d0     DuiLib_ud:DuiLib_ud.dll
 0002:000001d4       __imp_?GetRelativePos@CControlUI@DuiLib@@UBE?AUtagTRelativePosUI@2@XZ 004501d4     DuiLib_ud:DuiLib_ud.dll
 0002:000001d8       __imp_?IsRelativePos@CControlUI@DuiLib@@UBE_NXZ 004501d8     DuiLib_ud:DuiLib_ud.dll
 0002:000001dc       __imp_?GetToolTip@CControlUI@DuiLib@@UBE?AVCDuiString@2@XZ 004501dc     DuiLib_ud:DuiLib_ud.dll
 0002:000001e0       __imp_?SetToolTip@CControlUI@DuiLib@@UAEXPB_W@Z 004501e0     DuiLib_ud:DuiLib_ud.dll
 0002:000001e4       __imp_?SetToolTipWidth@CControlUI@DuiLib@@UAEXH@Z 004501e4     DuiLib_ud:DuiLib_ud.dll
 0002:000001e8       __imp_?GetToolTipWidth@CControlUI@DuiLib@@UAEHXZ 004501e8     DuiLib_ud:DuiLib_ud.dll
 0002:000001ec       __imp_?GetShortcut@CControlUI@DuiLib@@UBE_WXZ 004501ec     DuiLib_ud:DuiLib_ud.dll
 0002:000001f0       __imp_?SetShortcut@CControlUI@DuiLib@@UAEX_W@Z 004501f0     DuiLib_ud:DuiLib_ud.dll
 0002:000001f4       __imp_?IsContextMenuUsed@CControlUI@DuiLib@@UBE_NXZ 004501f4     DuiLib_ud:DuiLib_ud.dll
 0002:000001f8       __imp_?SetContextMenuUsed@CControlUI@DuiLib@@UAEX_N@Z 004501f8     DuiLib_ud:DuiLib_ud.dll
 0002:000001fc       __imp_?GetUserData@CControlUI@DuiLib@@UAEABVCDuiString@2@XZ 004501fc     DuiLib_ud:DuiLib_ud.dll
 0002:00000200       __imp_?SetUserData@CControlUI@DuiLib@@UAEXPB_W@Z 00450200     DuiLib_ud:DuiLib_ud.dll
 0002:00000204       __imp_?GetTag@CControlUI@DuiLib@@UBEIXZ 00450204     DuiLib_ud:DuiLib_ud.dll
 0002:00000208       __imp_?SetTag@CControlUI@DuiLib@@UAEXI@Z 00450208     DuiLib_ud:DuiLib_ud.dll
 0002:0000020c       __imp_?IsVisible@CControlUI@DuiLib@@UBE_NXZ 0045020c     DuiLib_ud:DuiLib_ud.dll
 0002:00000210       __imp_?SetVisible@CListElementUI@DuiLib@@UAEX_N@Z 00450210     DuiLib_ud:DuiLib_ud.dll
 0002:00000214       __imp_?SetInternVisible@CControlUI@DuiLib@@UAEX_N@Z 00450214     DuiLib_ud:DuiLib_ud.dll
 0002:00000218       __imp_?IsEnabled@CControlUI@DuiLib@@UBE_NXZ 00450218     DuiLib_ud:DuiLib_ud.dll
 0002:0000021c       __imp_?SetEnabled@CListElementUI@DuiLib@@UAEX_N@Z 0045021c     DuiLib_ud:DuiLib_ud.dll
 0002:00000220       __imp_?IsMouseEnabled@CControlUI@DuiLib@@UBE_NXZ 00450220     DuiLib_ud:DuiLib_ud.dll
 0002:00000224       __imp_?SetMouseEnabled@CControlUI@DuiLib@@UAEX_N@Z 00450224     DuiLib_ud:DuiLib_ud.dll
 0002:00000228       __imp_?IsKeyboardEnabled@CControlUI@DuiLib@@UBE_NXZ 00450228     DuiLib_ud:DuiLib_ud.dll
 0002:0000022c       __imp_?SetKeyboardEnabled@CControlUI@DuiLib@@UAEX_N@Z 0045022c     DuiLib_ud:DuiLib_ud.dll
 0002:00000230       __imp_?IsFocused@CControlUI@DuiLib@@UBE_NXZ 00450230     DuiLib_ud:DuiLib_ud.dll
 0002:00000234       __imp_?SetFocus@CControlUI@DuiLib@@UAEXXZ 00450234     DuiLib_ud:DuiLib_ud.dll
 0002:00000238       __imp_?IsFloat@CControlUI@DuiLib@@UBE_NXZ 00450238     DuiLib_ud:DuiLib_ud.dll
 0002:0000023c       __imp_?SetFloat@CControlUI@DuiLib@@UAEX_N@Z 0045023c     DuiLib_ud:DuiLib_ud.dll
 0002:00000240       __imp_?FindControl@CControlUI@DuiLib@@UAEPAV12@P6GPAV12@PAV12@PAX@Z1I@Z 00450240     DuiLib_ud:DuiLib_ud.dll
 0002:00000244       __imp_?Init@CControlUI@DuiLib@@UAEXXZ 00450244     DuiLib_ud:DuiLib_ud.dll
 0002:00000248       __imp_?DoInit@CControlUI@DuiLib@@UAEXXZ 00450248     DuiLib_ud:DuiLib_ud.dll
 0002:0000024c       __imp_?Event@CControlUI@DuiLib@@UAEXAAUtagTEventUI@2@@Z 0045024c     DuiLib_ud:DuiLib_ud.dll
 0002:00000250       __imp_?DoEvent@CListTextElementUI@DuiLib@@UAEXAAUtagTEventUI@2@@Z 00450250     DuiLib_ud:DuiLib_ud.dll
 0002:00000254       __imp_?SetAttribute@CListElementUI@DuiLib@@UAEXPB_W0@Z 00450254     DuiLib_ud:DuiLib_ud.dll
 0002:00000258       __imp_?EstimateSize@CListTextElementUI@DuiLib@@UAE?AUtagSIZE@@U3@@Z 00450258     DuiLib_ud:DuiLib_ud.dll
 0002:0000025c       __imp_?DoPaint@CListLabelElementUI@DuiLib@@UAEXPAUHDC__@@ABUtagRECT@@@Z 0045025c     DuiLib_ud:DuiLib_ud.dll
 0002:00000260       __imp_?PaintBkColor@CControlUI@DuiLib@@UAEXPAUHDC__@@@Z 00450260     DuiLib_ud:DuiLib_ud.dll
 0002:00000264       __imp_?PaintBkImage@CControlUI@DuiLib@@UAEXPAUHDC__@@@Z 00450264     DuiLib_ud:DuiLib_ud.dll
 0002:00000268       __imp_?PaintStatusImage@CControlUI@DuiLib@@UAEXPAUHDC__@@@Z 00450268     DuiLib_ud:DuiLib_ud.dll
 0002:0000026c       __imp_?PaintText@CControlUI@DuiLib@@UAEXPAUHDC__@@@Z 0045026c     DuiLib_ud:DuiLib_ud.dll
 0002:00000270       __imp_?PaintBorder@CControlUI@DuiLib@@UAEXPAUHDC__@@@Z 00450270     DuiLib_ud:DuiLib_ud.dll
 0002:00000274       __imp_?DoPostPaint@CControlUI@DuiLib@@UAEXPAUHDC__@@ABUtagRECT@@@Z 00450274     DuiLib_ud:DuiLib_ud.dll
 0002:00000278       __imp_?AddAt@CListUI@DuiLib@@UAE_NPAVCControlUI@2@H@Z 00450278     DuiLib_ud:DuiLib_ud.dll
 0002:0000027c       __imp_?SetBkImage@CControlUI@DuiLib@@QAEXPB_W@Z 0045027c     DuiLib_ud:DuiLib_ud.dll
 0002:00000280       __imp_??4CDuiString@DuiLib@@QAEABV01@PB_W@Z 00450280     DuiLib_ud:DuiLib_ud.dll
 0002:00000284       __imp_??0CListLabelElementUI@DuiLib@@QAE@XZ 00450284     DuiLib_ud:DuiLib_ud.dll
 0002:00000288       __imp_?GetClass@CListLabelElementUI@DuiLib@@UBEPB_WXZ 00450288     DuiLib_ud:DuiLib_ud.dll
 0002:0000028c       __imp_?GetInterface@CListLabelElementUI@DuiLib@@UAEPAXPB_W@Z 0045028c     DuiLib_ud:DuiLib_ud.dll
 0002:00000290       __imp_?GetControlFlags@CListElementUI@DuiLib@@UBEIXZ 00450290     DuiLib_ud:DuiLib_ud.dll
 0002:00000294       __imp_?DoEvent@CListLabelElementUI@DuiLib@@UAEXAAUtagTEventUI@2@@Z 00450294     DuiLib_ud:DuiLib_ud.dll
 0002:00000298       __imp_?EstimateSize@CListLabelElementUI@DuiLib@@UAE?AUtagSIZE@@U3@@Z 00450298     DuiLib_ud:DuiLib_ud.dll
 0002:0000029c       __imp_??1CListLabelElementUI@DuiLib@@UAE@XZ 0045029c     DuiLib_ud:DuiLib_ud.dll
 0002:000002a0       __imp_?RemovePreMessageFilter@CPaintManagerUI@DuiLib@@QAE_NPAVIMessageFilterUI@2@@Z 004502a0     DuiLib_ud:DuiLib_ud.dll
 0002:000002a4       __imp_?HandleMessage@CWindowWnd@DuiLib@@MAEJIIJ@Z 004502a4     DuiLib_ud:DuiLib_ud.dll
 0002:000002a8       __imp_?MessageHandler@CPaintManagerUI@DuiLib@@QAE_NIIJAAJ@Z 004502a8     DuiLib_ud:DuiLib_ud.dll
 0002:000002ac       __imp_??1CDialogBuilder@DuiLib@@QAE@XZ 004502ac     DuiLib_ud:DuiLib_ud.dll
 0002:000002b0       __imp_?AddNotifier@CPaintManagerUI@DuiLib@@QAE_NPAVINotifyUI@2@@Z 004502b0     DuiLib_ud:DuiLib_ud.dll
 0002:000002b4       __imp_?AttachDialog@CPaintManagerUI@DuiLib@@QAE_NPAVCControlUI@2@@Z 004502b4     DuiLib_ud:DuiLib_ud.dll
 0002:000002b8       __imp_?Create@CDialogBuilder@DuiLib@@QAEPAVCControlUI@2@VSTRINGorID@2@PB_WPAVIDialogBuilderCallback@2@PAVCPaintManagerUI@2@PAV32@@Z 004502b8     DuiLib_ud:DuiLib_ud.dll
 0002:000002bc       __imp_??0CDialogBuilder@DuiLib@@QAE@XZ 004502bc     DuiLib_ud:DuiLib_ud.dll
 0002:000002c0       __imp_?AddPreMessageFilter@CPaintManagerUI@DuiLib@@QAE_NPAVIMessageFilterUI@2@@Z 004502c0     DuiLib_ud:DuiLib_ud.dll
 0002:000002c4       __imp_?Init@CPaintManagerUI@DuiLib@@QAEXPAUHWND__@@@Z 004502c4     DuiLib_ud:DuiLib_ud.dll
 0002:000002c8       __imp_?FindControl@CPaintManagerUI@DuiLib@@QBEPAVCControlUI@2@UtagPOINT@@@Z 004502c8     DuiLib_ud:DuiLib_ud.dll
 0002:000002cc       __imp_?GetCaptionRect@CPaintManagerUI@DuiLib@@QAEAAUtagRECT@@XZ 004502cc     DuiLib_ud:DuiLib_ud.dll
 0002:000002d0       __imp_?Offset@CDuiRect@DuiLib@@QAEXHH@Z 004502d0     DuiLib_ud:DuiLib_ud.dll
 0002:000002d4       __imp_??0CDuiRect@DuiLib@@QAE@XZ 004502d4     DuiLib_ud:DuiLib_ud.dll
 0002:000002d8       __imp_?GetRoundCorner@CPaintManagerUI@DuiLib@@QBE?AUtagSIZE@@XZ 004502d8     DuiLib_ud:DuiLib_ud.dll
 0002:000002dc       __imp_?IsEmpty@CDuiString@DuiLib@@QBE_NXZ 004502dc     DuiLib_ud:DuiLib_ud.dll
 0002:000002e0       __imp_??1CListUI@DuiLib@@UAE@XZ 004502e0     DuiLib_ud:DuiLib_ud.dll
 0002:000002e4       __imp_?SetItemShowHtml@CListUI@DuiLib@@QAEX_N@Z 004502e4     DuiLib_ud:DuiLib_ud.dll
 0002:000002e8       __imp_?GetInterface@CTileLayoutUI@DuiLib@@UAEPAXPB_W@Z 004502e8     DuiLib_ud:DuiLib_ud.dll
 0002:000002ec       __imp_?GetClass@CListUI@DuiLib@@UBEPB_WXZ 004502ec     DuiLib_ud:DuiLib_ud.dll
 0002:000002f0       __imp_?GetInterface@CListUI@DuiLib@@UAEPAXPB_W@Z 004502f0     DuiLib_ud:DuiLib_ud.dll
 0002:000002f4       __imp_?GetControlFlags@CListUI@DuiLib@@UBEIXZ 004502f4     DuiLib_ud:DuiLib_ud.dll
 0002:000002f8       __imp_?Activate@CControlUI@DuiLib@@UAE_NXZ 004502f8     DuiLib_ud:DuiLib_ud.dll
 0002:000002fc       __imp_?SetManager@CContainerUI@DuiLib@@UAEXPAVCPaintManagerUI@2@PAVCControlUI@2@_N@Z 004502fc     DuiLib_ud:DuiLib_ud.dll
 0002:00000300       __imp_?SetPos@CListUI@DuiLib@@UAEXUtagRECT@@@Z 00450300     DuiLib_ud:DuiLib_ud.dll
 0002:00000304       __imp_?SetEnabled@CControlUI@DuiLib@@UAEX_N@Z 00450304     DuiLib_ud:DuiLib_ud.dll
 0002:00000308       __imp_?SetMouseEnabled@CContainerUI@DuiLib@@UAEX_N@Z 00450308     DuiLib_ud:DuiLib_ud.dll
 0002:0000030c       __imp_?FindControl@CContainerUI@DuiLib@@UAEPAVCControlUI@2@P6GPAV32@PAV32@PAX@Z1I@Z 0045030c     DuiLib_ud:DuiLib_ud.dll
 0002:00000310       __imp_?SetAttribute@CListUI@DuiLib@@UAEXPB_W0@Z 00450310     DuiLib_ud:DuiLib_ud.dll
 0002:00000314       __imp_?EstimateSize@CControlUI@DuiLib@@UAE?AUtagSIZE@@U3@@Z 00450314     DuiLib_ud:DuiLib_ud.dll
 0002:00000318       __imp_?DoPaint@CContainerUI@DuiLib@@UAEXPAUHDC__@@ABUtagRECT@@@Z 00450318     DuiLib_ud:DuiLib_ud.dll
 0002:0000031c       __imp_?DoPostPaint@CVerticalLayoutUI@DuiLib@@UAEXPAUHDC__@@ABUtagRECT@@@Z 0045031c     DuiLib_ud:DuiLib_ud.dll
 0002:00000320       __imp_?GetInset@CContainerUI@DuiLib@@UBE?AUtagRECT@@XZ 00450320     DuiLib_ud:DuiLib_ud.dll
 0002:00000324       __imp_?SetInset@CContainerUI@DuiLib@@UAEXUtagRECT@@@Z 00450324     DuiLib_ud:DuiLib_ud.dll
 0002:00000328       __imp_?GetChildPadding@CListUI@DuiLib@@UBEHXZ 00450328     DuiLib_ud:DuiLib_ud.dll
 0002:0000032c       __imp_?SetChildPadding@CListUI@DuiLib@@UAEXH@Z 0045032c     DuiLib_ud:DuiLib_ud.dll
 0002:00000330       __imp_?IsAutoDestroy@CContainerUI@DuiLib@@UBE_NXZ 00450330     DuiLib_ud:DuiLib_ud.dll
 0002:00000334       __imp_?SetAutoDestroy@CContainerUI@DuiLib@@UAEX_N@Z 00450334     DuiLib_ud:DuiLib_ud.dll
 0002:00000338       __imp_?IsDelayedDestroy@CContainerUI@DuiLib@@UBE_NXZ 00450338     DuiLib_ud:DuiLib_ud.dll
 0002:0000033c       __imp_?SetDelayedDestroy@CContainerUI@DuiLib@@UAEX_N@Z 0045033c     DuiLib_ud:DuiLib_ud.dll
 0002:00000340       __imp_?IsMouseChildEnabled@CContainerUI@DuiLib@@UBE_NXZ 00450340     DuiLib_ud:DuiLib_ud.dll
 0002:00000344       __imp_?SetMouseChildEnabled@CContainerUI@DuiLib@@UAEX_N@Z 00450344     DuiLib_ud:DuiLib_ud.dll
 0002:00000348       __imp_?FindSelectable@CContainerUI@DuiLib@@UBEHH_N@Z 00450348     DuiLib_ud:DuiLib_ud.dll
 0002:0000034c       __imp_?GetScrollPos@CListUI@DuiLib@@UBE?AUtagSIZE@@XZ 0045034c     DuiLib_ud:DuiLib_ud.dll
 0002:00000350       __imp_?GetScrollRange@CListUI@DuiLib@@UBE?AUtagSIZE@@XZ 00450350     DuiLib_ud:DuiLib_ud.dll
 0002:00000354       __imp_?SetScrollPos@CListUI@DuiLib@@UAEXUtagSIZE@@@Z 00450354     DuiLib_ud:DuiLib_ud.dll
 0002:00000358       __imp_?LineUp@CListUI@DuiLib@@UAEXXZ 00450358     DuiLib_ud:DuiLib_ud.dll
 0002:0000035c       __imp_?LineDown@CListUI@DuiLib@@UAEXXZ 0045035c     DuiLib_ud:DuiLib_ud.dll
 0002:00000360       __imp_?PageUp@CListUI@DuiLib@@UAEXXZ 00450360     DuiLib_ud:DuiLib_ud.dll
 0002:00000364       __imp_?PageDown@CListUI@DuiLib@@UAEXXZ 00450364     DuiLib_ud:DuiLib_ud.dll
 0002:00000368       __imp_?HomeUp@CListUI@DuiLib@@UAEXXZ 00450368     DuiLib_ud:DuiLib_ud.dll
 0002:0000036c       __imp_?EndDown@CListUI@DuiLib@@UAEXXZ 0045036c     DuiLib_ud:DuiLib_ud.dll
 0002:00000370       __imp_?LineLeft@CListUI@DuiLib@@UAEXXZ 00450370     DuiLib_ud:DuiLib_ud.dll
 0002:00000374       __imp_?LineRight@CListUI@DuiLib@@UAEXXZ 00450374     DuiLib_ud:DuiLib_ud.dll
 0002:00000378       __imp_?PageLeft@CListUI@DuiLib@@UAEXXZ 00450378     DuiLib_ud:DuiLib_ud.dll
 0002:0000037c       __imp_?PageRight@CListUI@DuiLib@@UAEXXZ 0045037c     DuiLib_ud:DuiLib_ud.dll
 0002:00000380       __imp_?HomeLeft@CListUI@DuiLib@@UAEXXZ 00450380     DuiLib_ud:DuiLib_ud.dll
 0002:00000384       __imp_?EndRight@CListUI@DuiLib@@UAEXXZ 00450384     DuiLib_ud:DuiLib_ud.dll
 0002:00000388       __imp_?EnableScrollBar@CListUI@DuiLib@@UAEX_N0@Z 00450388     DuiLib_ud:DuiLib_ud.dll
 0002:0000038c       __imp_?GetVerticalScrollBar@CListUI@DuiLib@@UBEPAVCScrollBarUI@2@XZ 0045038c     DuiLib_ud:DuiLib_ud.dll
 0002:00000390       __imp_?GetHorizontalScrollBar@CListUI@DuiLib@@UBEPAVCScrollBarUI@2@XZ 00450390     DuiLib_ud:DuiLib_ud.dll
 0002:00000394       __imp_?SetFloatPos@CContainerUI@DuiLib@@MAEXH@Z 00450394     DuiLib_ud:DuiLib_ud.dll
 0002:00000398       __imp_?ProcessScrollBar@CContainerUI@DuiLib@@MAEXUtagRECT@@HH@Z 00450398     DuiLib_ud:DuiLib_ud.dll
 0002:0000039c       __imp_?GetItemAt@CListUI@DuiLib@@UBEPAVCControlUI@2@H@Z 0045039c     DuiLib_ud:DuiLib_ud.dll
 0002:000003a0       __imp_?GetItemIndex@CListUI@DuiLib@@UBEHPAVCControlUI@2@@Z 004503a0     DuiLib_ud:DuiLib_ud.dll
 0002:000003a4       __imp_?SetItemIndex@CListUI@DuiLib@@UAE_NPAVCControlUI@2@H@Z 004503a4     DuiLib_ud:DuiLib_ud.dll
 0002:000003a8       __imp_?GetCount@CListUI@DuiLib@@UBEHXZ 004503a8     DuiLib_ud:DuiLib_ud.dll
 0002:000003ac       __imp_?GetListInfo@CListUI@DuiLib@@UAEPAUtagTListInfoUI@2@XZ 004503ac     DuiLib_ud:DuiLib_ud.dll
 0002:000003b0       __imp_?GetCurSel@CListUI@DuiLib@@UBEHXZ 004503b0     DuiLib_ud:DuiLib_ud.dll
 0002:000003b4       __imp_?SelectItem@CListUI@DuiLib@@UAE_NH_N@Z 004503b4     DuiLib_ud:DuiLib_ud.dll
 0002:000003b8       __imp_?GetHeader@CListUI@DuiLib@@UBEPAVCListHeaderUI@2@XZ 004503b8     DuiLib_ud:DuiLib_ud.dll
 0002:000003bc       __imp_?GetList@CListUI@DuiLib@@UBEPAVCContainerUI@2@XZ 004503bc     DuiLib_ud:DuiLib_ud.dll
 0002:000003c0       __imp_?GetTextCallback@CListUI@DuiLib@@UBEPAVIListCallbackUI@2@XZ 004503c0     DuiLib_ud:DuiLib_ud.dll
 0002:000003c4       __imp_?SetTextCallback@CListUI@DuiLib@@UAEXPAVIListCallbackUI@2@@Z 004503c4     DuiLib_ud:DuiLib_ud.dll
 0002:000003c8       __imp_?ExpandItem@CListUI@DuiLib@@UAE_NH_N@Z 004503c8     DuiLib_ud:DuiLib_ud.dll
 0002:000003cc       __imp_?GetExpandedItem@CListUI@DuiLib@@UBEHXZ 004503cc     DuiLib_ud:DuiLib_ud.dll
 0002:000003d0       __imp_?Add@CListUI@DuiLib@@UAE_NPAVCControlUI@2@@Z 004503d0     DuiLib_ud:DuiLib_ud.dll
 0002:000003d4       __imp_?Remove@CListUI@DuiLib@@UAE_NPAVCControlUI@2@@Z 004503d4     DuiLib_ud:DuiLib_ud.dll
 0002:000003d8       __imp_?RemoveAt@CListUI@DuiLib@@UAE_NH@Z 004503d8     DuiLib_ud:DuiLib_ud.dll
 0002:000003dc       __imp_?RemoveAll@CListUI@DuiLib@@UAEXXZ 004503dc     DuiLib_ud:DuiLib_ud.dll
 0002:000003e0       __imp_?SetVisible@CControlUI@DuiLib@@UAEX_N@Z 004503e0     DuiLib_ud:DuiLib_ud.dll
 0002:000003e4       __imp_?DoEvent@CListUI@DuiLib@@UAEXAAUtagTEventUI@2@@Z 004503e4     DuiLib_ud:DuiLib_ud.dll
 0002:000003e8       __imp_?SetTimer@CPaintManagerUI@DuiLib@@QAE_NPAVCControlUI@2@II@Z 004503e8     DuiLib_ud:DuiLib_ud.dll
 0002:000003ec       __imp_?KillTimer@CPaintManagerUI@DuiLib@@QAE_NPAVCControlUI@2@I@Z 004503ec     DuiLib_ud:DuiLib_ud.dll
 0002:000003f0       __imp_?DoEvent@CVerticalLayoutUI@DuiLib@@UAEXAAUtagTEventUI@2@@Z 004503f0     DuiLib_ud:DuiLib_ud.dll
 0002:000003f4       __imp_??1CTileLayoutUI@DuiLib@@UAE@XZ 004503f4     DuiLib_ud:DuiLib_ud.dll
 0002:000003f8       __imp_?RemoveAll@CContainerUI@DuiLib@@UAEXXZ 004503f8     DuiLib_ud:DuiLib_ud.dll
 0002:000003fc       __imp_??0CDuiString@DuiLib@@QAE@PB_WH@Z 004503fc     DuiLib_ud:DuiLib_ud.dll
 0002:00000400       __imp_?Add@CContainerUI@DuiLib@@UAE_NPAVCControlUI@2@@Z 00450400     DuiLib_ud:DuiLib_ud.dll
 0002:00000404       __imp_?Create@CDialogBuilder@DuiLib@@QAEPAVCControlUI@2@PAVIDialogBuilderCallback@2@PAVCPaintManagerUI@2@PAV32@@Z 00450404     DuiLib_ud:DuiLib_ud.dll
 0002:00000408       __imp_?SetItemSize@CTileLayoutUI@DuiLib@@QAEXUtagSIZE@@@Z 00450408     DuiLib_ud:DuiLib_ud.dll
 0002:0000040c       __imp_??0CSize@DuiLib@@QAE@HH@Z 0045040c     DuiLib_ud:DuiLib_ud.dll
 0002:00000410       __imp_??0CTileLayoutUI@DuiLib@@QAE@XZ 00450410     DuiLib_ud:DuiLib_ud.dll
 0002:00000414       __imp_?GetClass@CTileLayoutUI@DuiLib@@UBEPB_WXZ 00450414     DuiLib_ud:DuiLib_ud.dll
 0002:00000418       \177DuiLib_ud_NULL_THUNK_DATA 00450418     DuiLib_ud:DuiLib_ud.dll
 0002:0000041c       __imp__CreateRoundRectRgn@24 0045041c     gdi32:GDI32.dll
 0002:00000420       __imp__DeleteObject@4      00450420     gdi32:GDI32.dll
 0002:00000424       \177GDI32_NULL_THUNK_DATA  00450424     gdi32:GDI32.dll
 0002:00000428       __imp__VirtualQuery@12     00450428     kernel32:KERNEL32.dll
 0002:0000042c       __imp__GetProcessHeap@0    0045042c     kernel32:KERNEL32.dll
 0002:00000430       __imp__HeapAlloc@12        00450430     kernel32:KERNEL32.dll
 0002:00000434       __imp__FreeLibrary@4       00450434     kernel32:KERNEL32.dll
 0002:00000438       __imp__GetACP@0            00450438     kernel32:KERNEL32.dll
 0002:0000043c       __imp__GetOEMCP@0          0045043c     kernel32:KERNEL32.dll
 0002:00000440       __imp__GetCPInfo@8         00450440     kernel32:KERNEL32.dll
 0002:00000444       __imp__IsValidCodePage@4   00450444     kernel32:KERNEL32.dll
 0002:00000448       __imp__HeapReAlloc@16      00450448     kernel32:KERNEL32.dll
 0002:0000044c       __imp__HeapSize@12         0045044c     kernel32:KERNEL32.dll
 0002:00000450       __imp__HeapQueryInformation@20 00450450     kernel32:KERNEL32.dll
 0002:00000454       __imp__FlushFileBuffers@4  00450454     kernel32:KERNEL32.dll
 0002:00000458       __imp__GetConsoleCP@0      00450458     kernel32:KERNEL32.dll
 0002:0000045c       __imp__GetConsoleMode@8    0045045c     kernel32:KERNEL32.dll
 0002:00000460       __imp__LCMapStringW@24     00450460     kernel32:KERNEL32.dll
 0002:00000464       __imp__GetStringTypeW@16   00450464     kernel32:KERNEL32.dll
 0002:00000468       __imp__SetFilePointer@16   00450468     kernel32:KERNEL32.dll
 0002:0000046c       __imp__SetStdHandle@8      0045046c     kernel32:KERNEL32.dll
 0002:00000470       __imp__GetLocaleInfoA@16   00450470     kernel32:KERNEL32.dll
 0002:00000474       __imp__IsValidLocale@8     00450474     kernel32:KERNEL32.dll
 0002:00000478       __imp__EnumSystemLocalesA@8 00450478     kernel32:KERNEL32.dll
 0002:0000047c       __imp__GetModuleFileNameW@12 0045047c     kernel32:KERNEL32.dll
 0002:00000480       __imp__LoadLibraryW@4      00450480     kernel32:KERNEL32.dll
 0002:00000484       __imp__GetProcAddress@8    00450484     kernel32:KERNEL32.dll
 0002:00000488       __imp__CreateFileW@28      00450488     kernel32:KERNEL32.dll
 0002:0000048c       __imp__GetCurrentThreadId@0 0045048c     kernel32:KERNEL32.dll
 0002:00000490       __imp__EnterCriticalSection@4 00450490     kernel32:KERNEL32.dll
 0002:00000494       __imp__GetCurrentProcessId@0 00450494     kernel32:KERNEL32.dll
 0002:00000498       __imp__LeaveCriticalSection@4 00450498     kernel32:KERNEL32.dll
 0002:0000049c       __imp__CloseHandle@4       0045049c     kernel32:KERNEL32.dll
 0002:000004a0       __imp__TerminateProcess@8  004504a0     kernel32:KERNEL32.dll
 0002:000004a4       __imp__GetCurrentThread@0  004504a4     kernel32:KERNEL32.dll
 0002:000004a8       __imp__GetLastError@0      004504a8     kernel32:KERNEL32.dll
 0002:000004ac       __imp__GetCurrentProcess@0 004504ac     kernel32:KERNEL32.dll
 0002:000004b0       __imp__DeleteCriticalSection@4 004504b0     kernel32:KERNEL32.dll
 0002:000004b4       __imp__SetUnhandledExceptionFilter@4 004504b4     kernel32:KERNEL32.dll
 0002:000004b8       __imp__InitializeCriticalSection@4 004504b8     kernel32:KERNEL32.dll
 0002:000004bc       __imp__InterlockedIncrement@4 004504bc     kernel32:KERNEL32.dll
 0002:000004c0       __imp__InterlockedDecrement@4 004504c0     kernel32:KERNEL32.dll
 0002:000004c4       __imp__Sleep@4             004504c4     kernel32:KERNEL32.dll
 0002:000004c8       __imp__InterlockedExchange@8 004504c8     kernel32:KERNEL32.dll
 0002:000004cc       __imp__DecodePointer@4     004504cc     kernel32:KERNEL32.dll
 0002:000004d0       __imp__EncodePointer@4     004504d0     kernel32:KERNEL32.dll
 0002:000004d4       __imp__RtlUnwind@16        004504d4     kernel32:KERNEL32.dll
 0002:000004d8       __imp__UnhandledExceptionFilter@4 004504d8     kernel32:KERNEL32.dll
 0002:000004dc       __imp__IsDebuggerPresent@0 004504dc     kernel32:KERNEL32.dll
 0002:000004e0       __imp__RaiseException@16   004504e0     kernel32:KERNEL32.dll
 0002:000004e4       __imp__WriteConsoleW@20    004504e4     kernel32:KERNEL32.dll
 0002:000004e8       __imp__GetFileType@4       004504e8     kernel32:KERNEL32.dll
 0002:000004ec       __imp__GetStdHandle@4      004504ec     kernel32:KERNEL32.dll
 0002:000004f0       __imp__GetSystemTimeAsFileTime@4 004504f0     kernel32:KERNEL32.dll
 0002:000004f4       __imp__GetCommandLineA@0   004504f4     kernel32:KERNEL32.dll
 0002:000004f8       __imp__HeapSetInformation@16 004504f8     kernel32:KERNEL32.dll
 0002:000004fc       __imp__GetStartupInfoW@4   004504fc     kernel32:KERNEL32.dll
 0002:00000500       __imp__WideCharToMultiByte@32 00450500     kernel32:KERNEL32.dll
 0002:00000504       __imp__MultiByteToWideChar@24 00450504     kernel32:KERNEL32.dll
 0002:00000508       __imp__lstrlenA@4          00450508     kernel32:KERNEL32.dll
 0002:0000050c       __imp__WriteFile@20        0045050c     kernel32:KERNEL32.dll
 0002:00000510       __imp__GetLocaleInfoW@16   00450510     kernel32:KERNEL32.dll
 0002:00000514       __imp__IsProcessorFeaturePresent@4 00450514     kernel32:KERNEL32.dll
 0002:00000518       __imp__TlsAlloc@0          00450518     kernel32:KERNEL32.dll
 0002:0000051c       __imp__TlsGetValue@4       0045051c     kernel32:KERNEL32.dll
 0002:00000520       __imp__TlsSetValue@8       00450520     kernel32:KERNEL32.dll
 0002:00000524       __imp__TlsFree@4           00450524     kernel32:KERNEL32.dll
 0002:00000528       __imp__GetModuleHandleW@4  00450528     kernel32:KERNEL32.dll
 0002:0000052c       __imp__SetLastError@4      0045052c     kernel32:KERNEL32.dll
 0002:00000530       __imp__InitializeCriticalSectionAndSpinCount@8 00450530     kernel32:KERNEL32.dll
 0002:00000534       __imp__FatalAppExitA@8     00450534     kernel32:KERNEL32.dll
 0002:00000538       __imp__HeapValidate@12     00450538     kernel32:KERNEL32.dll
 0002:0000053c       __imp__IsBadReadPtr@8      0045053c     kernel32:KERNEL32.dll
 0002:00000540       __imp__OutputDebugStringA@4 00450540     kernel32:KERNEL32.dll
 0002:00000544       __imp__OutputDebugStringW@4 00450544     kernel32:KERNEL32.dll
 0002:00000548       __imp__ExitProcess@4       00450548     kernel32:KERNEL32.dll
 0002:0000054c       __imp__SetConsoleCtrlHandler@8 0045054c     kernel32:KERNEL32.dll
 0002:00000550       __imp__QueryPerformanceCounter@4 00450550     kernel32:KERNEL32.dll
 0002:00000554       __imp__GetTickCount@0      00450554     kernel32:KERNEL32.dll
 0002:00000558       __imp__GetModuleFileNameA@12 00450558     kernel32:KERNEL32.dll
 0002:0000055c       __imp__FreeEnvironmentStringsW@4 0045055c     kernel32:KERNEL32.dll
 0002:00000560       __imp__GetEnvironmentStringsW@0 00450560     kernel32:KERNEL32.dll
 0002:00000564       __imp__SetHandleCount@4    00450564     kernel32:KERNEL32.dll
 0002:00000568       __imp__HeapCreate@12       00450568     kernel32:KERNEL32.dll
 0002:0000056c       __imp__HeapDestroy@4       0045056c     kernel32:KERNEL32.dll
 0002:00000570       __imp__HeapFree@12         00450570     kernel32:KERNEL32.dll
 0002:00000574       __imp__GetUserDefaultLCID@0 00450574     kernel32:KERNEL32.dll
 0002:00000578       \177KERNEL32_NULL_THUNK_DATA 00450578     kernel32:KERNEL32.dll
 0002:0000057c       __imp__ShowWindow@8        0045057c     user32:USER32.dll
 0002:00000580       __imp__ScreenToClient@8    00450580     user32:USER32.dll
 0002:00000584       __imp__MessageBoxW@16      00450584     user32:USER32.dll
 0002:00000588       __imp__wsprintfW           00450588     user32:USER32.dll
 0002:0000058c       __imp__MonitorFromWindow@8 0045058c     user32:USER32.dll
 0002:00000590       __imp__GetMonitorInfoW@8   00450590     user32:USER32.dll
 0002:00000594       __imp__IsZoomed@4          00450594     user32:USER32.dll
 0002:00000598       __imp__LoadCursorW@8       00450598     user32:USER32.dll
 0002:0000059c       __imp__SetCursor@4         0045059c     user32:USER32.dll
 0002:000005a0       __imp__GetWindowRect@8     004505a0     user32:USER32.dll
 0002:000005a4       __imp__SetWindowRgn@12     004505a4     user32:USER32.dll
 0002:000005a8       __imp__GetClientRect@8     004505a8     user32:USER32.dll
 0002:000005ac       __imp__IsIconic@4          004505ac     user32:USER32.dll
 0002:000005b0       __imp__GetWindowLongW@8    004505b0     user32:USER32.dll
 0002:000005b4       __imp__SetWindowLongW@12   004505b4     user32:USER32.dll
 0002:000005b8       __imp__PostQuitMessage@4   004505b8     user32:USER32.dll
 0002:000005bc       __imp__GetCursorPos@4      004505bc     user32:USER32.dll
 0002:000005c0       \177USER32_NULL_THUNK_DATA 004505c0     user32:USER32.dll
 0002:000005c4       __imp__CoInitialize@4      004505c4     ole32:ole32.dll
 0002:000005c8       __imp__CoUninitialize@0    004505c8     ole32:ole32.dll
 0002:000005cc       \177ole32_NULL_THUNK_DATA  004505cc     ole32:ole32.dll
 0002:000005d0       ___xc_a                    004505d0     LIBCMTD:crt0init.obj
 0002:000005dc       ___xc_z                    004505dc     LIBCMTD:crt0init.obj
 0002:000005e0       ___xi_a                    004505e0     LIBCMTD:crt0init.obj
 0002:000005f8       ___xi_z                    004505f8     LIBCMTD:crt0init.obj
 0002:000005fc       ___xp_a                    004505fc     LIBCMTD:crt0init.obj
 0002:0000060c       ___xp_z                    0045060c     LIBCMTD:crt0init.obj
 0002:00000610       ___xt_a                    00450610     LIBCMTD:crt0init.obj
 0002:00000614       ___xt_z                    00450614     LIBCMTD:crt0init.obj
 0002:00000668       ??_7CGameFrameWnd@@6BIListCallbackUI@DuiLib@@@ 00450668     GameDemo.obj
 0002:00000670       ??_7CGameFrameWnd@@6BINotifyUI@DuiLib@@@ 00450670     GameDemo.obj
 0002:00000678       ??_7CGameFrameWnd@@6BCWindowWnd@DuiLib@@@ 00450678     GameDemo.obj
 0002:00000690       ??_7INotifyUI@DuiLib@@6B@  00450690     GameDemo.obj
 0002:00000694       ??_C@_1BI@CIPCFHPH@?$AAU?$AAI?$AAM?$AAa?$AAi?$AAn?$AAF?$AAr?$AAa?$AAm?$AAe?$AA?$AA@ 00450694     GameDemo.obj
 0002:000006ac       ??_C@_1O@BDLFHMCE@?$AAr?$AAe?$AAt?$AAu?$AAr?$AAn?$AA?$AA@ 004506ac     GameDemo.obj
 0002:000006bc       ??_C@_1BC@OPBOIGA@?$AAc?$AAh?$AAa?$AAt?$AAE?$AAd?$AAi?$AAt?$AA?$AA@ 004506bc     GameDemo.obj
 0002:000006d0       ??_C@_1BE@OOHBFJCC@?$AAc?$AAh?$AAa?$AAt?$AAC?$AAo?$AAm?$AAb?$AAo?$AA?$AA@ 004506d0     GameDemo.obj
 0002:000006e4       ??_C@_1BG@BGGLOGEL@?$AAi?$AAt?$AAe?$AAm?$AAs?$AAe?$AAl?$AAe?$AAc?$AAt?$AA?$AA@ 004506e4     GameDemo.obj
 0002:000006fc       ??_C@_1BK@NCDHHILC@?$AAi?$AAt?$AAe?$AAm?$AAa?$AAc?$AAt?$AAi?$AAv?$AAa?$AAt?$AAe?$AA?$AA@ 004506fc     GameDemo.obj
 0002:00000718       ??_C@_1CG@HLDAGBPJ@?$AAL?$AAi?$AAs?$AAt?$AAL?$AAa?$AAb?$AAe?$AAl?$AAE?$AAl?$AAe?$AAm?$AAe?$AAn?$AAt?$AAU?$AAI?$AA?$AA@ 00450718     GameDemo.obj
 0002:00000740       ??_C@_1BC@OPGKBNDA@?$AAg?$AAa?$AAm?$AAe?$AAl?$AAi?$AAs?$AAt?$AA?$AA@ 00450740     GameDemo.obj
 0002:00000754       ??_C@_1BE@KEJJHJFG@?$AAi?$AAt?$AAe?$AAm?$AAc?$AAl?$AAi?$AAc?$AAk?$AA?$AA@ 00450754     GameDemo.obj
 0002:00000768       ??_C@_1EA@EJAACAPG@?$AA?$LL?$AA?$LG?$AA?S?$AA?$KN?$AA?$LN?$AA?x?$AA?H?$AA?k?$AAX?$AAX?$AAX?$AA?S?$AA?N?$AA?O?$AA?$LH?$AA?$KD?$AA?$KM?$AA?W?$AA?$KD?$AA?S?$AA?N?$AA?O?$AA?$LH?$AA?S?$AA?d?$AA?$LP?$AA?l?$AA?$KD?$AA?$KB?$AA?6?$AA?6?$AA?$AA@ 00450768     GameDemo.obj
 0002:000007a8       ??_C@_1BI@DIEAEMCE@?$AAc?$AAh?$AAa?$AAt?$AAm?$AAs?$AAg?$AAl?$AAi?$AAs?$AAt?$AA?$AA@ 004507a8     GameDemo.obj
 0002:000007c0       ??_C@_1BC@OLEJEEKK@?$AAd?$AAe?$AAs?$AAt?$AAl?$AAi?$AAs?$AAt?$AA?$AA@ 004507c0     GameDemo.obj
 0002:000007d4       ??_C@_1BG@FDECLDCN@?$AAr?$AAo?$AAo?$AAm?$AAs?$AAw?$AAi?$AAt?$AAc?$AAh?$AA?$AA@ 004507d4     GameDemo.obj
 0002:000007ec       ??_C@_1O@JNICGKBF@?$AAs?$AAw?$AAi?$AAt?$AAc?$AAh?$AA?$AA@ 004507ec     GameDemo.obj
 0002:000007fc       ??_C@_1BM@HGPLKIHI@?$AAs?$AAe?$AAl?$AAe?$AAc?$AAt?$AAc?$AAh?$AAa?$AAn?$AAg?$AAe?$AAd?$AA?$AA@ 004507fc     GameDemo.obj
 0002:00000818       ??_C@_1BA@CNHPCBDI@?$AAs?$AAe?$AAn?$AAd?$AAb?$AAt?$AAn?$AA?$AA@ 00450818     GameDemo.obj
 0002:00000828       ??_C@_1BK@GMPMFCAJ@?$AAr?$AAo?$AAo?$AAm?$AAc?$AAl?$AAo?$AAs?$AAe?$AAb?$AAt?$AAn?$AA?$AA@ 00450828     GameDemo.obj
 0002:00000844       ??_C@_1BC@ONFHFOHB@?$AAl?$AAe?$AAa?$AAv?$AAe?$AAB?$AAt?$AAn?$AA?$AA@ 00450844     GameDemo.obj
 0002:00000858       ??_C@_1BG@HCBKOMMN@?$AAf?$AAo?$AAn?$AAt?$AAs?$AAw?$AAi?$AAt?$AAc?$AAh?$AA?$AA@ 00450858     GameDemo.obj
 0002:00000870       ??_C@_1CA@EEAIMIOD@?$AAr?$AAo?$AAo?$AAm?$AAs?$AAw?$AAi?$AAt?$AAc?$AAh?$AAp?$AAa?$AAn?$AAe?$AAl?$AA?$AA@ 00450870     GameDemo.obj
 0002:00000890       ??_C@_1BM@ELFIGPED@?$AAr?$AAe?$AAt?$AAu?$AAr?$AAn?$AAh?$AAa?$AAl?$AAl?$AAb?$AAt?$AAn?$AA?$AA@ 00450890     GameDemo.obj
 0002:000008ac       ??_C@_1BA@JPFLFAFA@?$AAq?$AAu?$AAi?$AAt?$AAb?$AAt?$AAn?$AA?$AA@ 004508ac     GameDemo.obj
 0002:000008bc       ??_C@_1BG@KOFEOBKE@?$AAf?$AAa?$AAd?$AAe?$AAE?$AAf?$AAf?$AAe?$AAc?$AAt?$AA?$AA@ 004508bc     GameDemo.obj
 0002:000008d4       ??_C@_1BG@DALABBHI@?$AAh?$AAa?$AAl?$AAl?$AAs?$AAw?$AAi?$AAt?$AAc?$AAh?$AA?$AA@ 004508d4     GameDemo.obj
 0002:000008ec       ??_C@_1M@LNNONFPA@?$AAc?$AAl?$AAi?$AAc?$AAk?$AA?$AA@ 004508ec     GameDemo.obj
 0002:000008f8       ??_C@_1BG@LEKJCKOE@?$AAw?$AAi?$AAn?$AAd?$AAo?$AAw?$AAi?$AAn?$AAi?$AAt?$AA?$AA@ 004508f8     GameDemo.obj
 0002:00000910       ??_C@_1DO@HKPIIMOL@?$AA?$DM?$AAa?$AA?$DO?$AA?$DM?$AAi?$AA?5?$AAt?$AAr?$AAe?$AAe?$AA_?$AAe?$AAx?$AAp?$AAa?$AAn?$AAd?$AA?4?$AAp?$AAn?$AAg?$AA?5?$AA2?$AA?5?$AA0?$AA?$DO?$AA?$DM?$AA?1?$AAa?$AA?$DO?$AA?$AA@ 00450910     GameDemo.obj
 0002:00000950       ??_C@_1DO@OHPHGNJN@?$AA?$DM?$AAa?$AA?$DO?$AA?$DM?$AAi?$AA?5?$AAt?$AAr?$AAe?$AAe?$AA_?$AAe?$AAx?$AAp?$AAa?$AAn?$AAd?$AA?4?$AAp?$AAn?$AAg?$AA?5?$AA2?$AA?5?$AA1?$AA?$DO?$AA?$DM?$AA?1?$AAa?$AA?$DO?$AA?$AA@ 00450950     GameDemo.obj
 0002:00000990       ??_C@_1O@IKILDJFC@?$AA?$DM?$AAx?$AA?5?$AA2?$AA4?$AA?$DO?$AA?$AA@ 00450990     GameDemo.obj
 0002:000009a0       ??_C@_1M@ELDGIOAN@?$AA?$DM?$AAx?$AA?5?$AA6?$AA?$DO?$AA?$AA@ 004509a0     GameDemo.obj
 0002:000009ac       ??_C@_11LOCGONAA@?$AA?$AA@ 004509ac     GameDemo.obj
 0002:000009b4       ??_SCListTextElementUI@DuiLib@@6BCControlUI@1@@ 004509b4     GameDemo.obj
 0002:00000ae8       ??_C@_1BC@OOEDCLBD@?$AAu?$AAs?$AAe?$AAr?$AAl?$AAi?$AAs?$AAt?$AA?$AA@ 00450ae8     GameDemo.obj
 0002:00000afc       ??_C@_1O@NBDNNANJ@?$AA?$LH?$AA?I?$AA?P?$AA?P?$AA?F?$AA?e?$AA?$AA@ 00450afc     GameDemo.obj
 0002:00000b10       ??_C@_1FC@HAGODKOP@?$AA?$HL?$AAx?$AA?5?$AA4?$AA?$HN?$AA?$HL?$AAi?$AA?5?$AAg?$AAa?$AAm?$AAe?$AAi?$AAc?$AAo?$AAn?$AAs?$AA?4?$AAp?$AAn?$AAg?$AA?5?$AA1?$AA8?$AA?5?$AA3?$AA?$HN?$AA?$HL?$AAx?$AA?5?$AA4?$AA?$HN@ 00450b10     GameDemo.obj
 0002:00000b64       ??_C@_19HBMEAGDN@?$AA?K?$AA?$KL?$AA?$LP?$AA?$NL?$AA?$AA@ 00450b64     GameDemo.obj
 0002:00000b70       ??_C@_1FC@ODKIJCFJ@?$AA?$HL?$AAx?$AA?5?$AA4?$AA?$HN?$AA?$HL?$AAi?$AA?5?$AAg?$AAa?$AAm?$AAe?$AAi?$AAc?$AAo?$AAn?$AAs?$AA?4?$AAp?$AAn?$AAg?$AA?5?$AA1?$AA8?$AA?5?$AA3?$AA?$HN?$AA?$HL?$AAx?$AA?5?$AA4?$AA?$HN@ 00450b70     GameDemo.obj
 0002:00000bc4       ??_C@_1O@OBEEIDDE@?$AA?H?$AA?$PN?$AA?H?$AA?$LB?$AA?R?$AA?$LL?$AA?$AA@ 00450bc4     GameDemo.obj
 0002:00000bd8       ??_C@_1FO@FIJBHGFM@?$AA?$HL?$AAx?$AA?5?$AA4?$AA?$HN?$AA?$HL?$AAi?$AA?5?$AAg?$AAa?$AAm?$AAe?$AAi?$AAc?$AAo?$AAn?$AAs?$AA?4?$AAp?$AAn?$AAg?$AA?5?$AA1?$AA8?$AA?5?$AA3?$AA?$HN?$AA?$HL?$AAx?$AA?5?$AA4?$AA?$HN@ 00450bd8     GameDemo.obj
 0002:00000c38       ??_C@_1FE@BPOMPNPG@?$AA?$HL?$AAx?$AA?5?$AA4?$AA?$HN?$AA?$HL?$AAi?$AA?5?$AAg?$AAa?$AAm?$AAe?$AAi?$AAc?$AAo?$AAn?$AAs?$AA?4?$AAp?$AAn?$AAg?$AA?5?$AA1?$AA8?$AA?5?$AA1?$AA0?$AA?$HN?$AA?$HL?$AAx?$AA?5?$AA4@ 00450c38     GameDemo.obj
 0002:00000c90       ??_C@_1FI@NAPDFKCP@?$AA?$HL?$AAx?$AA?5?$AA4?$AA?$HN?$AA?$HL?$AAi?$AA?5?$AAg?$AAa?$AAm?$AAe?$AAi?$AAc?$AAo?$AAn?$AAs?$AA?4?$AAp?$AAn?$AAg?$AA?5?$AA1?$AA8?$AA?5?$AA1?$AA0?$AA?$HN?$AA?$HL?$AAx?$AA?5?$AA4@ 00450c90     GameDemo.obj
 0002:00000ce8       ??_C@_1FI@LNPLHFMN@?$AA?$HL?$AAx?$AA?5?$AA4?$AA?$HN?$AA?$HL?$AAi?$AA?5?$AAg?$AAa?$AAm?$AAe?$AAi?$AAc?$AAo?$AAn?$AAs?$AA?4?$AAp?$AAn?$AAg?$AA?5?$AA1?$AA8?$AA?5?$AA1?$AA0?$AA?$HN?$AA?$HL?$AAx?$AA?5?$AA4@ 00450ce8     GameDemo.obj
 0002:00000d40       ??_C@_1FC@HAJIFELJ@?$AA?$HL?$AAx?$AA?5?$AA4?$AA?$HN?$AA?$HL?$AAi?$AA?5?$AAg?$AAa?$AAm?$AAe?$AAi?$AAc?$AAo?$AAn?$AAs?$AA?4?$AAp?$AAn?$AAg?$AA?5?$AA1?$AA8?$AA?5?$AA3?$AA?$HN?$AA?$HL?$AAx?$AA?5?$AA4?$AA?$HN@ 00450d40     GameDemo.obj
 0002:00000d98       ??_C@_1GA@POIEJJHO@?$AAf?$AAi?$AAl?$AAe?$AA?$DN?$AA?8?$AAt?$AAr?$AAe?$AAe?$AA_?$AAt?$AAo?$AAp?$AA?4?$AAp?$AAn?$AAg?$AA?8?$AA?5?$AAc?$AAo?$AAr?$AAn?$AAe?$AAr?$AA?$DN?$AA?8?$AA2?$AA?0?$AA1?$AA?0@ 00450d98     GameDemo.obj
 0002:00000dfc       ??_SCListLabelElementUI@DuiLib@@6BCControlUI@1@@ 00450dfc     GameDemo.obj
 0002:00000f34       ??_7CLoginFrameWnd@@6BIMessageFilterUI@DuiLib@@@ 00450f34     GameDemo.obj
 0002:00000f3c       ??_7CLoginFrameWnd@@6BINotifyUI@DuiLib@@@ 00450f3c     GameDemo.obj
 0002:00000f44       ??_7CLoginFrameWnd@@6BCWindowWnd@DuiLib@@@ 00450f44     GameDemo.obj
 0002:00000f5c       ??_7IMessageFilterUI@DuiLib@@6B@ 00450f5c     GameDemo.obj
 0002:00000f60       ??_C@_1BK@NGHJJPOJ@?$AAU?$AAI?$AAL?$AAo?$AAg?$AAi?$AAn?$AAF?$AAr?$AAa?$AAm?$AAe?$AA?$AA@ 00450f60     GameDemo.obj
 0002:00000f7c       ??_C@_1BI@ICFNJPJN@?$AAa?$AAc?$AAc?$AAo?$AAu?$AAn?$AAt?$AAe?$AAd?$AAi?$AAt?$AA?$AA@ 00450f7c     GameDemo.obj
 0002:00000f94       ??_C@_1BK@IBACKOOB@?$AAa?$AAc?$AAc?$AAo?$AAu?$AAn?$AAt?$AAc?$AAo?$AAm?$AAb?$AAo?$AA?$AA@ 00450f94     GameDemo.obj
 0002:00000fb0       ??_C@_1BC@GHEKCGJB@?$AAl?$AAo?$AAg?$AAi?$AAn?$AAB?$AAt?$AAn?$AA?$AA@ 00450fb0     GameDemo.obj
 0002:00000fc4       ??_C@_1BC@GMBNLEAB@?$AAc?$AAl?$AAo?$AAs?$AAe?$AAb?$AAt?$AAn?$AA?$AA@ 00450fc4     GameDemo.obj
 0002:00000fd8       ??_C@_1BK@FNIBLOHM@?$AAG?$AAa?$AAm?$AAe?$AAD?$AAe?$AAm?$AAo?$AA?4?$AAc?$AAp?$AAp?$AA?$AA@ 00450fd8     GameDemo.obj
 0002:00000ff4       ??_C@_1DO@ODIKFOCA@?$AAp?$AAR?$AAo?$AAo?$AAt?$AA?5?$AA?$CG?$AA?$CG?$AA?5?$AA?$CC?$AAF?$AAa?$AAi?$AAl?$AAe?$AAd?$AA?5?$AAt?$AAo?$AA?5?$AAp?$AAa?$AAr?$AAs?$AAe?$AA?5?$AAX?$AAM?$AAL?$AA?$CC?$AA?$AA@ 00450ff4     GameDemo.obj
 0002:00001034       ??_C@_0BE@NJOIAKFM@Failed?5to?5parse?5XML?$AA@ 00451034     GameDemo.obj
 0002:00001048       ??_C@_1BE@NBEHJCEI@?$AAl?$AAo?$AAg?$AAi?$AAn?$AA?4?$AAx?$AAm?$AAl?$AA?$AA@ 00451048     GameDemo.obj
 0002:0000105c       ??_C@_1BC@JNPKAAM@?$AAB?$AAu?$AAt?$AAt?$AAo?$AAn?$AAU?$AAI?$AA?$AA@ 0045105c     GameDemo.obj
 0002:00001070       ??_C@_1BA@MABNEBGN@?$AAp?$AAw?$AAd?$AAe?$AAd?$AAi?$AAt?$AA?$AA@ 00451070     GameDemo.obj
 0002:00001084       ??_7CDialogBuilderCallbackEx@@6B@ 00451084     GameDemo.obj
 0002:0000108c       ??_7IDialogBuilderCallback@DuiLib@@6B@ 0045108c     GameDemo.obj
 0002:00001090       ??_C@_1BC@IHNOINMH@?$AAD?$AAe?$AAs?$AAk?$AAL?$AAi?$AAs?$AAt?$AA?$AA@ 00451090     GameDemo.obj
 0002:000010a4       ??_C@_1BC@PNHBKGNA@?$AAG?$AAa?$AAm?$AAe?$AAL?$AAi?$AAs?$AAt?$AA?$AA@ 004510a4     GameDemo.obj
 0002:000010bc       ??_7GameListUI@@6B@        004510bc     GameDemo.obj
 0002:000010e8       ??_7GameListUI@@6BIContainerUI@DuiLib@@@ 004510e8     GameDemo.obj
 0002:00001114       ??_7GameListUI@@6BCControlUI@DuiLib@@@ 00451114     GameDemo.obj
 0002:000012c4       ??_C@_1CC@MKADDNJA@?$AAL?$AAi?$AAs?$AAt?$AAL?$AAa?$AAb?$AAe?$AAl?$AAE?$AAl?$AAe?$AAm?$AAe?$AAn?$AAt?$AA?$AA@ 004512c4     GameDemo.obj
 0002:000012e8       ??_C@_1DC@POOIKBAO@?$AAI?$AAT?$AAE?$AAR?$AAA?$AAT?$AAO?$AAR?$AA?5?$AAL?$AAI?$AAS?$AAT?$AA?5?$AAC?$AAO?$AAR?$AAR?$AAU?$AAP?$AAT?$AAE?$AAD?$AA?$CB?$AA?$AA@ 004512e8     GameDemo.obj
 0002:00001320       ??_C@_1JA@HPGAGILB@?$AAC?$AA?3?$AA?2?$AAP?$AAr?$AAo?$AAg?$AAr?$AAa?$AAm?$AA?5?$AAF?$AAi?$AAl?$AAe?$AAs?$AA?5?$AA?$CI?$AAx?$AA8?$AA6?$AA?$CJ?$AA?2?$AAM?$AAi?$AAc?$AAr?$AAo?$AAs?$AAo?$AAf?$AAt@ 00451320     GameDemo.obj
 0002:000013b0       ??_C@_15BLMJCMIJ@?$AA?5?$AA?9?$AA?$AA@ 004513b0     GameDemo.obj
 0002:000013b8       ??_C@_15FFDNOHIK@?$AA?9?$AA?5?$AA?$AA@ 004513b8     GameDemo.obj
 0002:000013c0       ??_C@_1BC@BDOKMMJE@?$AAd?$AAe?$AAs?$AAk?$AA?4?$AAx?$AAm?$AAl?$AA?$AA@ 004513c0     GameDemo.obj
 0002:000013d8       ??_7DeskListUI@@6BIContainerUI@DuiLib@@@ 004513d8     GameDemo.obj
 0002:00001404       ??_7DeskListUI@@6BCControlUI@DuiLib@@@ 00451404     GameDemo.obj
 0002:000015b4       ??_C@_13LBAGMAIH@?$AA?6?$AA?$AA@ 004515b4     GameDemo.obj
 0002:000015b8       ??_C@_17GIIAOBPE@?$AA?K?$AA?$LF?$AA?3?$AA?$AA@ 004515b8     GameDemo.obj
 0002:000015c0       ??_C@_19GJKPBNMI@?$AA?D?$AA?$LD?$AA?H?$AA?K?$AA?$AA@ 004515c0     GameDemo.obj
 0002:000015cc       ??_C@_17CHOLIMHJ@?$AA1?$AA0?$AA0?$AA?$AA@ 004515cc     GameDemo.obj
 0002:000015d4       ??_C@_15NNKLAGPN@?$AA0?$AA?$CF?$AA?$AA@ 004515d4     GameDemo.obj
 0002:000015dc       ??_C@_17MEGGCFCO@?$AA5?$AA0?$AA?$CF?$AA?$AA@ 004515dc     GameDemo.obj
 0002:000015e4       ??_C@_13BJEOCIHA@?$AA5?$AA?$AA@ 004515e4     GameDemo.obj
 0002:000015e8       ??_C@_1BC@CJOEKMAC@?$AA?$LE?$AA?K?$AA?H?$AA?K?$AA?j?$AA?G?$AA?$LD?$AA?F?$AA?$AA@ 004515e8     GameDemo.obj
 0002:000015fc       ??_C@_1BI@JOKCCCOA@?$AA?$DM?$AAi?$AA?5?$AAv?$AAi?$AAp?$AA?4?$AAp?$AAn?$AAg?$AA?$DO?$AA?$AA@ 004515fc     GameDemo.obj
 0002:00001614       ??_C@_1BC@JPJMJIAM@?$AAh?$AAa?$AAl?$AAl?$AA?4?$AAx?$AAm?$AAl?$AA?$AA@ 00451614     GameDemo.obj
 0002:00001628       ??_C@_1EE@LBHAPKDK@?$AAh?$AAt?$AAt?$AAp?$AAs?$AA?3?$AA?1?$AA?1?$AAc?$AAo?$AAd?$AAe?$AA?4?$AAg?$AAo?$AAo?$AAg?$AAl?$AAe?$AA?4?$AAc?$AAo?$AAm?$AA?1?$AAp?$AA?1?$AAd?$AAu?$AAi?$AAl?$AAi?$AAb@ 00451628     GameDemo.obj
 0002:0000166c       ??_C@_15GNDOAHPP@?$AAi?$AAe?$AA?$AA@ 0045166c     GameDemo.obj
 0002:00001674       ??_C@_1O@LGDCHDDB@?$AAm?$AAi?$AAn?$AAb?$AAt?$AAn?$AA?$AA@ 00451674     GameDemo.obj
 0002:00001684       ??_C@_1BG@ECOFGJMN@?$AAr?$AAe?$AAs?$AAt?$AAo?$AAr?$AAe?$AAb?$AAt?$AAn?$AA?$AA@ 00451684     GameDemo.obj
 0002:0000169c       ??_C@_1O@JKIOPEGA@?$AAm?$AAa?$AAx?$AAb?$AAt?$AAn?$AA?$AA@ 0045169c     GameDemo.obj
 0002:000016ac       ??_C@_1O@NHMJANFD@?$AAT?$AAe?$AAx?$AAt?$AAU?$AAI?$AA?$AA@ 004516ac     GameDemo.obj
 0002:000016bc       ??_C@_1BC@BCJKFOOD@?$AAO?$AAp?$AAt?$AAi?$AAo?$AAn?$AAU?$AAI?$AA?$AA@ 004516bc     GameDemo.obj
 0002:000016d4       ??_7IListCallbackUI@DuiLib@@6B@ 004516d4     GameDemo.obj
 0002:000016d8       ??_C@_1BO@MEPPHOO@?$AA?$CC?$AAo?$AAu?$AAt?$AA?5?$AAo?$AAf?$AA?5?$AAr?$AAa?$AAn?$AAg?$AAe?$AA?$CC?$AA?$AA@ 004516d8     GameDemo.obj
 0002:000016f8       ??_C@_1MG@FMECJGIP@?$AAs?$AAt?$AAd?$AA?3?$AA?3?$AAv?$AAe?$AAc?$AAt?$AAo?$AAr?$AA?$DM?$AAc?$AAl?$AAa?$AAs?$AAs?$AA?5?$AAG?$AAa?$AAm?$AAe?$AAL?$AAi?$AAs?$AAt?$AAU?$AAI?$AA?3?$AA?3?$AAN?$AAo@ 004516f8     GameDemo.obj
 0002:000017c0       ??_C@_1FG@IBPIFFN@?$AA?$CC?$AAS?$AAt?$AAa?$AAn?$AAd?$AAa?$AAr?$AAd?$AA?5?$AAC?$AA?$CL?$AA?$CL?$AA?5?$AAL?$AAi?$AAb?$AAr?$AAa?$AAr?$AAi?$AAe?$AAs?$AA?5?$AAO?$AAu?$AAt?$AA?5?$AAo?$AAf?$AA?5?$AAR@ 004517c0     GameDemo.obj
 0002:00001818       ??_C@_0CE@OFMIGAMM@Standard?5C?$CL?$CL?5Libraries?5Out?5of?5Ra@ 00451818     GameDemo.obj
 0002:0000183c       ??_C@_1DM@LHGCHCBA@?$AAv?$AAe?$AAc?$AAt?$AAo?$AAr?$AA?5?$AAs?$AAu?$AAb?$AAs?$AAc?$AAr?$AAi?$AAp?$AAt?$AA?5?$AAo?$AAu?$AAt?$AA?5?$AAo?$AAf?$AA?5?$AAr?$AAa?$AAn?$AAg?$AAe?$AA?$AA@ 0045183c     GameDemo.obj
 0002:00001878       ??_C@_1IM@BMIEAPLA@?$AAC?$AA?3?$AA?2?$AAP?$AAr?$AAo?$AAg?$AAr?$AAa?$AAm?$AA?5?$AAF?$AAi?$AAl?$AAe?$AAs?$AA?5?$AA?$CI?$AAx?$AA8?$AA6?$AA?$CJ?$AA?2?$AAM?$AAi?$AAc?$AAr?$AAo?$AAs?$AAo?$AAf?$AAt@ 00451878     GameDemo.obj
 0002:00001908       ??_C@_1EI@HGIDLLCM@?$AAv?$AAe?$AAc?$AAt?$AAo?$AAr?$AA?5?$AAe?$AAr?$AAa?$AAs?$AAe?$AA?5?$AAi?$AAt?$AAe?$AAr?$AAa?$AAt?$AAo?$AAr?$AA?5?$AAo?$AAu?$AAt?$AAs?$AAi?$AAd?$AAe?$AA?5?$AAr?$AAa@ 00451908     GameDemo.obj
 0002:00001950       ??_C@_1BBG@HPINEOND@?$AAs?$AAt?$AAd?$AA?3?$AA?3?$AA_?$AAV?$AAe?$AAc?$AAt?$AAo?$AAr?$AA_?$AAc?$AAo?$AAn?$AAs?$AAt?$AA_?$AAi?$AAt?$AAe?$AAr?$AAa?$AAt?$AAo?$AAr?$AA?$DM?$AAc?$AAl?$AAa?$AAs@ 00451950     GameDemo.obj
 0002:00001a68       ??_C@_1EG@FOHJJHAC@?$AAv?$AAe?$AAc?$AAt?$AAo?$AAr?$AA?5?$AAi?$AAt?$AAe?$AAr?$AAa?$AAt?$AAo?$AAr?$AA?5?$AAn?$AAo?$AAt?$AA?5?$AAd?$AAe?$AAr?$AAe?$AAf?$AAe?$AAr?$AAe?$AAn?$AAc?$AAa?$AAb@ 00451a68     GameDemo.obj
 0002:00001ab0       ??_C@_1BBI@IHBOHOFM@?$AAs?$AAt?$AAd?$AA?3?$AA?3?$AA_?$AAV?$AAe?$AAc?$AAt?$AAo?$AAr?$AA_?$AAc?$AAo?$AAn?$AAs?$AAt?$AA_?$AAi?$AAt?$AAe?$AAr?$AAa?$AAt?$AAo?$AAr?$AA?$DM?$AAc?$AAl?$AAa?$AAs@ 00451ab0     GameDemo.obj
 0002:00001bc8       ??_C@_1EE@EJDKCLKB@?$AAv?$AAe?$AAc?$AAt?$AAo?$AAr?$AA?5?$AAi?$AAt?$AAe?$AAr?$AAa?$AAt?$AAo?$AAr?$AA?5?$AAn?$AAo?$AAt?$AA?5?$AAi?$AAn?$AAc?$AAr?$AAe?$AAm?$AAe?$AAn?$AAt?$AAa?$AAb?$AAl@ 00451bc8     GameDemo.obj
 0002:00001c0c       ??_C@_1CG@JNLFBNGN@?$AA?$CC?$AAi?$AAn?$AAv?$AAa?$AAl?$AAi?$AAd?$AA?5?$AAa?$AAr?$AAg?$AAu?$AAm?$AAe?$AAn?$AAt?$AA?$CC?$AA?$AA@ 00451c0c     GameDemo.obj
 0002:00001c38       ??_C@_1BBA@BMOKGEJO@?$AAs?$AAt?$AAd?$AA?3?$AA?3?$AA_?$AAV?$AAe?$AAc?$AAt?$AAo?$AAr?$AA_?$AAc?$AAo?$AAn?$AAs?$AAt?$AA_?$AAi?$AAt?$AAe?$AAr?$AAa?$AAt?$AAo?$AAr?$AA?$DM?$AAc?$AAl?$AAa?$AAs@ 00451c38     GameDemo.obj
 0002:00001d48       ??_C@_1FO@GJIHNDLM@?$AA?$CC?$AAS?$AAt?$AAa?$AAn?$AAd?$AAa?$AAr?$AAd?$AA?5?$AAC?$AA?$CL?$AA?$CL?$AA?5?$AAL?$AAi?$AAb?$AAr?$AAa?$AAr?$AAi?$AAe?$AAs?$AA?5?$AAI?$AAn?$AAv?$AAa?$AAl?$AAi?$AAd?$AA?5@ 00451d48     GameDemo.obj
 0002:00001da8       ??_C@_0CI@FNPHFCCM@Standard?5C?$CL?$CL?5Libraries?5Invalid?5A@ 00451da8     GameDemo.obj
 0002:00001dd0       ??_C@_1DM@HINDPMBP@?$AAv?$AAe?$AAc?$AAt?$AAo?$AAr?$AA?5?$AAi?$AAt?$AAe?$AAr?$AAa?$AAt?$AAo?$AAr?$AAs?$AA?5?$AAi?$AAn?$AAc?$AAo?$AAm?$AAp?$AAa?$AAt?$AAi?$AAb?$AAl?$AAe?$AA?$AA@ 00451dd0     GameDemo.obj
 0002:00001e0c       ??_C@_0BD@OLBABOEK@vector?$DMT?$DO?5too?5long?$AA@ 00451e0c     GameDemo.obj
 0002:00001e24       ??_7bad_alloc@std@@6B@     00451e24     GameDemo.obj
 0002:00001e30       ??_C@_1IM@GCFPIDLL@?$AAC?$AA?3?$AA?2?$AAP?$AAr?$AAo?$AAg?$AAr?$AAa?$AAm?$AA?5?$AAF?$AAi?$AAl?$AAe?$AAs?$AA?5?$AA?$CI?$AAx?$AA8?$AA6?$AA?$CJ?$AA?2?$AAM?$AAi?$AAc?$AAr?$AAo?$AAs?$AAo?$AAf?$AAt@ 00451e30     GameDemo.obj
 0002:00001ebc       ??_C@_1CK@EOPGIILJ@?$AAi?$AAn?$AAv?$AAa?$AAl?$AAi?$AAd?$AA?5?$AAn?$AAu?$AAl?$AAl?$AA?5?$AAp?$AAo?$AAi?$AAn?$AAt?$AAe?$AAr?$AA?$AA@ 00451ebc     GameDemo.obj
 0002:00001ee8       ??_C@_1CO@DGLIKNHI@?$AAi?$AAn?$AAv?$AAa?$AAl?$AAi?$AAd?$AA?5?$AAi?$AAt?$AAe?$AAr?$AAa?$AAt?$AAo?$AAr?$AA?5?$AAr?$AAa?$AAn?$AAg?$AAe?$AA?$AA@ 00451ee8     GameDemo.obj
 0002:00001f18       __real@3ff0000000000000    00451f18     GameDemo.obj
 0002:00001f20       ?has_denorm@_Num_base@std@@2W4float_denorm_style@2@B 00451f20     StdAfx.obj
 0002:00001f24       ?has_denorm_loss@_Num_base@std@@2_NB 00451f24     StdAfx.obj
 0002:00001f25       ?has_infinity@_Num_base@std@@2_NB 00451f25     StdAfx.obj
 0002:00001f26       ?has_quiet_NaN@_Num_base@std@@2_NB 00451f26     StdAfx.obj
 0002:00001f27       ?has_signaling_NaN@_Num_base@std@@2_NB 00451f27     StdAfx.obj
 0002:00001f28       ?is_bounded@_Num_base@std@@2_NB 00451f28     StdAfx.obj
 0002:00001f29       ?is_exact@_Num_base@std@@2_NB 00451f29     StdAfx.obj
 0002:00001f2a       ?is_iec559@_Num_base@std@@2_NB 00451f2a     StdAfx.obj
 0002:00001f2b       ?is_integer@_Num_base@std@@2_NB 00451f2b     StdAfx.obj
 0002:00001f2c       ?is_modulo@_Num_base@std@@2_NB 00451f2c     StdAfx.obj
 0002:00001f2d       ?is_signed@_Num_base@std@@2_NB 00451f2d     StdAfx.obj
 0002:00001f2e       ?is_specialized@_Num_base@std@@2_NB 00451f2e     StdAfx.obj
 0002:00001f2f       ?tinyness_before@_Num_base@std@@2_NB 00451f2f     StdAfx.obj
 0002:00001f30       ?traps@_Num_base@std@@2_NB 00451f30     StdAfx.obj
 0002:00001f34       ?round_style@_Num_base@std@@2W4float_round_style@2@B 00451f34     StdAfx.obj
 0002:00001f38       ?digits@_Num_base@std@@2HB 00451f38     StdAfx.obj
 0002:00001f3c       ?digits10@_Num_base@std@@2HB 00451f3c     StdAfx.obj
 0002:00001f40       ?max_digits10@_Num_base@std@@2HB 00451f40     StdAfx.obj
 0002:00001f44       ?max_exponent@_Num_base@std@@2HB 00451f44     StdAfx.obj
 0002:00001f48       ?max_exponent10@_Num_base@std@@2HB 00451f48     StdAfx.obj
 0002:00001f4c       ?min_exponent@_Num_base@std@@2HB 00451f4c     StdAfx.obj
 0002:00001f50       ?min_exponent10@_Num_base@std@@2HB 00451f50     StdAfx.obj
 0002:00001f54       ?radix@_Num_base@std@@2HB  00451f54     StdAfx.obj
 0002:00001f58       ?is_bounded@_Num_int_base@std@@2_NB 00451f58     StdAfx.obj
 0002:00001f59       ?is_exact@_Num_int_base@std@@2_NB 00451f59     StdAfx.obj
 0002:00001f5a       ?is_integer@_Num_int_base@std@@2_NB 00451f5a     StdAfx.obj
 0002:00001f5b       ?is_modulo@_Num_int_base@std@@2_NB 00451f5b     StdAfx.obj
 0002:00001f5c       ?is_specialized@_Num_int_base@std@@2_NB 00451f5c     StdAfx.obj
 0002:00001f60       ?radix@_Num_int_base@std@@2HB 00451f60     StdAfx.obj
 0002:00001f64       ?has_denorm@_Num_float_base@std@@2W4float_denorm_style@2@B 00451f64     StdAfx.obj
 0002:00001f68       ?has_denorm_loss@_Num_float_base@std@@2_NB 00451f68     StdAfx.obj
 0002:00001f69       ?has_infinity@_Num_float_base@std@@2_NB 00451f69     StdAfx.obj
 0002:00001f6a       ?has_quiet_NaN@_Num_float_base@std@@2_NB 00451f6a     StdAfx.obj
 0002:00001f6b       ?has_signaling_NaN@_Num_float_base@std@@2_NB 00451f6b     StdAfx.obj
 0002:00001f6c       ?is_bounded@_Num_float_base@std@@2_NB 00451f6c     StdAfx.obj
 0002:00001f6d       ?is_exact@_Num_float_base@std@@2_NB 00451f6d     StdAfx.obj
 0002:00001f6e       ?is_iec559@_Num_float_base@std@@2_NB 00451f6e     StdAfx.obj
 0002:00001f6f       ?is_integer@_Num_float_base@std@@2_NB 00451f6f     StdAfx.obj
 0002:00001f70       ?is_modulo@_Num_float_base@std@@2_NB 00451f70     StdAfx.obj
 0002:00001f71       ?is_signed@_Num_float_base@std@@2_NB 00451f71     StdAfx.obj
 0002:00001f72       ?is_specialized@_Num_float_base@std@@2_NB 00451f72     StdAfx.obj
 0002:00001f73       ?tinyness_before@_Num_float_base@std@@2_NB 00451f73     StdAfx.obj
 0002:00001f74       ?traps@_Num_float_base@std@@2_NB 00451f74     StdAfx.obj
 0002:00001f78       ?round_style@_Num_float_base@std@@2W4float_round_style@2@B 00451f78     StdAfx.obj
 0002:00001f7c       ?radix@_Num_float_base@std@@2HB 00451f7c     StdAfx.obj
 0002:00001f80       ?is_signed@?$numeric_limits@D@std@@2_NB 00451f80     StdAfx.obj
 0002:00001f84       ?digits@?$numeric_limits@D@std@@2HB 00451f84     StdAfx.obj
 0002:00001f88       ?digits10@?$numeric_limits@D@std@@2HB 00451f88     StdAfx.obj
 0002:00001f8c       ?max_digits10@?$numeric_limits@D@std@@2HB 00451f8c     StdAfx.obj
 0002:00001f90       ?is_signed@?$numeric_limits@_W@std@@2_NB 00451f90     StdAfx.obj
 0002:00001f94       ?digits@?$numeric_limits@_W@std@@2HB 00451f94     StdAfx.obj
 0002:00001f98       ?digits10@?$numeric_limits@_W@std@@2HB 00451f98     StdAfx.obj
 0002:00001f9c       ?max_digits10@?$numeric_limits@_W@std@@2HB 00451f9c     StdAfx.obj
 0002:00001fa0       ?is_modulo@?$numeric_limits@_N@std@@2_NB 00451fa0     StdAfx.obj
 0002:00001fa1       ?is_signed@?$numeric_limits@_N@std@@2_NB 00451fa1     StdAfx.obj
 0002:00001fa4       ?digits@?$numeric_limits@_N@std@@2HB 00451fa4     StdAfx.obj
 0002:00001fa8       ?digits10@?$numeric_limits@_N@std@@2HB 00451fa8     StdAfx.obj
 0002:00001fac       ?max_digits10@?$numeric_limits@_N@std@@2HB 00451fac     StdAfx.obj
 0002:00001fb0       ?is_signed@?$numeric_limits@C@std@@2_NB 00451fb0     StdAfx.obj
 0002:00001fb4       ?digits@?$numeric_limits@C@std@@2HB 00451fb4     StdAfx.obj
 0002:00001fb8       ?digits10@?$numeric_limits@C@std@@2HB 00451fb8     StdAfx.obj
 0002:00001fbc       ?max_digits10@?$numeric_limits@C@std@@2HB 00451fbc     StdAfx.obj
 0002:00001fc0       ?is_signed@?$numeric_limits@E@std@@2_NB 00451fc0     StdAfx.obj
 0002:00001fc4       ?digits@?$numeric_limits@E@std@@2HB 00451fc4     StdAfx.obj
 0002:00001fc8       ?digits10@?$numeric_limits@E@std@@2HB 00451fc8     StdAfx.obj
 0002:00001fcc       ?max_digits10@?$numeric_limits@E@std@@2HB 00451fcc     StdAfx.obj
 0002:00001fd0       ?is_signed@?$numeric_limits@F@std@@2_NB 00451fd0     StdAfx.obj
 0002:00001fd4       ?digits@?$numeric_limits@F@std@@2HB 00451fd4     StdAfx.obj
 0002:00001fd8       ?digits10@?$numeric_limits@F@std@@2HB 00451fd8     StdAfx.obj
 0002:00001fdc       ?max_digits10@?$numeric_limits@F@std@@2HB 00451fdc     StdAfx.obj
 0002:00001fe0       ?is_signed@?$numeric_limits@G@std@@2_NB 00451fe0     StdAfx.obj
 0002:00001fe4       ?digits@?$numeric_limits@G@std@@2HB 00451fe4     StdAfx.obj
 0002:00001fe8       ?digits10@?$numeric_limits@G@std@@2HB 00451fe8     StdAfx.obj
 0002:00001fec       ?max_digits10@?$numeric_limits@G@std@@2HB 00451fec     StdAfx.obj
 0002:00001ff0       ?is_signed@?$numeric_limits@H@std@@2_NB 00451ff0     StdAfx.obj
 0002:00001ff4       ?digits@?$numeric_limits@H@std@@2HB 00451ff4     StdAfx.obj
 0002:00001ff8       ?digits10@?$numeric_limits@H@std@@2HB 00451ff8     StdAfx.obj
 0002:00001ffc       ?max_digits10@?$numeric_limits@H@std@@2HB 00451ffc     StdAfx.obj
 0002:00002000       ?is_signed@?$numeric_limits@I@std@@2_NB 00452000     StdAfx.obj
 0002:00002004       ?digits@?$numeric_limits@I@std@@2HB 00452004     StdAfx.obj
 0002:00002008       ?digits10@?$numeric_limits@I@std@@2HB 00452008     StdAfx.obj
 0002:0000200c       ?max_digits10@?$numeric_limits@I@std@@2HB 0045200c     StdAfx.obj
 0002:00002010       ?is_signed@?$numeric_limits@J@std@@2_NB 00452010     StdAfx.obj
 0002:00002014       ?digits@?$numeric_limits@J@std@@2HB 00452014     StdAfx.obj
 0002:00002018       ?digits10@?$numeric_limits@J@std@@2HB 00452018     StdAfx.obj
 0002:0000201c       ?max_digits10@?$numeric_limits@J@std@@2HB 0045201c     StdAfx.obj
 0002:00002020       ?is_signed@?$numeric_limits@K@std@@2_NB 00452020     StdAfx.obj
 0002:00002024       ?digits@?$numeric_limits@K@std@@2HB 00452024     StdAfx.obj
 0002:00002028       ?digits10@?$numeric_limits@K@std@@2HB 00452028     StdAfx.obj
 0002:0000202c       ?max_digits10@?$numeric_limits@K@std@@2HB 0045202c     StdAfx.obj
 0002:00002030       ?is_signed@?$numeric_limits@_J@std@@2_NB 00452030     StdAfx.obj
 0002:00002034       ?digits@?$numeric_limits@_J@std@@2HB 00452034     StdAfx.obj
 0002:00002038       ?digits10@?$numeric_limits@_J@std@@2HB 00452038     StdAfx.obj
 0002:0000203c       ?max_digits10@?$numeric_limits@_J@std@@2HB 0045203c     StdAfx.obj
 0002:00002040       ?is_signed@?$numeric_limits@_K@std@@2_NB 00452040     StdAfx.obj
 0002:00002044       ?digits@?$numeric_limits@_K@std@@2HB 00452044     StdAfx.obj
 0002:00002048       ?digits10@?$numeric_limits@_K@std@@2HB 00452048     StdAfx.obj
 0002:0000204c       ?max_digits10@?$numeric_limits@_K@std@@2HB 0045204c     StdAfx.obj
 0002:00002050       ?digits@?$numeric_limits@M@std@@2HB 00452050     StdAfx.obj
 0002:00002054       ?digits10@?$numeric_limits@M@std@@2HB 00452054     StdAfx.obj
 0002:00002058       ?max_digits10@?$numeric_limits@M@std@@2HB 00452058     StdAfx.obj
 0002:0000205c       ?max_exponent@?$numeric_limits@M@std@@2HB 0045205c     StdAfx.obj
 0002:00002060       ?max_exponent10@?$numeric_limits@M@std@@2HB 00452060     StdAfx.obj
 0002:00002064       ?min_exponent@?$numeric_limits@M@std@@2HB 00452064     StdAfx.obj
 0002:00002068       ?min_exponent10@?$numeric_limits@M@std@@2HB 00452068     StdAfx.obj
 0002:0000206c       ?digits@?$numeric_limits@N@std@@2HB 0045206c     StdAfx.obj
 0002:00002070       ?digits10@?$numeric_limits@N@std@@2HB 00452070     StdAfx.obj
 0002:00002074       ?max_digits10@?$numeric_limits@N@std@@2HB 00452074     StdAfx.obj
 0002:00002078       ?max_exponent@?$numeric_limits@N@std@@2HB 00452078     StdAfx.obj
 0002:0000207c       ?max_exponent10@?$numeric_limits@N@std@@2HB 0045207c     StdAfx.obj
 0002:00002080       ?min_exponent@?$numeric_limits@N@std@@2HB 00452080     StdAfx.obj
 0002:00002084       ?min_exponent10@?$numeric_limits@N@std@@2HB 00452084     StdAfx.obj
 0002:00002088       ?digits@?$numeric_limits@O@std@@2HB 00452088     StdAfx.obj
 0002:0000208c       ?digits10@?$numeric_limits@O@std@@2HB 0045208c     StdAfx.obj
 0002:00002090       ?max_digits10@?$numeric_limits@O@std@@2HB 00452090     StdAfx.obj
 0002:00002094       ?max_exponent@?$numeric_limits@O@std@@2HB 00452094     StdAfx.obj
 0002:00002098       ?max_exponent10@?$numeric_limits@O@std@@2HB 00452098     StdAfx.obj
 0002:0000209c       ?min_exponent@?$numeric_limits@O@std@@2HB 0045209c     StdAfx.obj
 0002:000020a0       ?min_exponent10@?$numeric_limits@O@std@@2HB 004520a0     StdAfx.obj
 0002:000020a4       ?value@?$integral_constant@_N$0A@@tr1@std@@2_NB 004520a4     StdAfx.obj
 0002:000020a5       ?value@?$integral_constant@_N$00@tr1@std@@2_NB 004520a5     StdAfx.obj
 0002:000020a8       ?value@?$integral_constant@I$0A@@tr1@std@@2IB 004520a8     StdAfx.obj
 0002:000020ac       ?_Rank@?$_Arithmetic_traits@_N@std@@2HB 004520ac     StdAfx.obj
 0002:000020b0       ?_Rank@?$_Arithmetic_traits@D@std@@2HB 004520b0     StdAfx.obj
 0002:000020b4       ?_Rank@?$_Arithmetic_traits@C@std@@2HB 004520b4     StdAfx.obj
 0002:000020b8       ?_Rank@?$_Arithmetic_traits@E@std@@2HB 004520b8     StdAfx.obj
 0002:000020bc       ?_Rank@?$_Arithmetic_traits@F@std@@2HB 004520bc     StdAfx.obj
 0002:000020c0       ?_Rank@?$_Arithmetic_traits@G@std@@2HB 004520c0     StdAfx.obj
 0002:000020c4       ?_Rank@?$_Arithmetic_traits@H@std@@2HB 004520c4     StdAfx.obj
 0002:000020c8       ?_Rank@?$_Arithmetic_traits@I@std@@2HB 004520c8     StdAfx.obj
 0002:000020cc       ?_Rank@?$_Arithmetic_traits@J@std@@2HB 004520cc     StdAfx.obj
 0002:000020d0       ?_Rank@?$_Arithmetic_traits@K@std@@2HB 004520d0     StdAfx.obj
 0002:000020d4       ?_Rank@?$_Arithmetic_traits@_J@std@@2HB 004520d4     StdAfx.obj
 0002:000020d8       ?_Rank@?$_Arithmetic_traits@_K@std@@2HB 004520d8     StdAfx.obj
 0002:000020dc       ?_Rank@?$_Arithmetic_traits@M@std@@2HB 004520dc     StdAfx.obj
 0002:000020e0       ?_Rank@?$_Arithmetic_traits@N@std@@2HB 004520e0     StdAfx.obj
 0002:000020e4       ?_Rank@?$_Arithmetic_traits@O@std@@2HB 004520e4     StdAfx.obj
 0002:00002448       _LIBID_SHDocVw             00452448     uuid:i_exdisp.obj
 0002:00002458       _IID_IWebBrowser           00452458     uuid:i_exdisp.obj
 0002:00002468       _DIID_DWebBrowserEvents    00452468     uuid:i_exdisp.obj
 0002:00002478       _IID_IWebBrowserApp        00452478     uuid:i_exdisp.obj
 0002:00002488       _IID_IWebBrowser2          00452488     uuid:i_exdisp.obj
 0002:00002498       _DIID_DWebBrowserEvents2   00452498     uuid:i_exdisp.obj
 0002:000024a8       _CLSID_WebBrowser_V1       004524a8     uuid:i_exdisp.obj
 0002:000024b8       _CLSID_WebBrowser          004524b8     uuid:i_exdisp.obj
 0002:000024c8       _CLSID_InternetExplorer    004524c8     uuid:i_exdisp.obj
 0002:000024d8       _CLSID_InternetExplorerMedium 004524d8     uuid:i_exdisp.obj
 0002:000024e8       _CLSID_ShellBrowserWindow  004524e8     uuid:i_exdisp.obj
 0002:000024f8       _DIID_DShellWindowsEvents  004524f8     uuid:i_exdisp.obj
 0002:00002508       _IID_IShellWindows         00452508     uuid:i_exdisp.obj
 0002:00002518       _CLSID_ShellWindows        00452518     uuid:i_exdisp.obj
 0002:00002528       _IID_IShellUIHelper        00452528     uuid:i_exdisp.obj
 0002:00002538       _IID_IShellUIHelper2       00452538     uuid:i_exdisp.obj
 0002:00002548       _IID_IShellUIHelper3       00452548     uuid:i_exdisp.obj
 0002:00002558       _CLSID_ShellUIHelper       00452558     uuid:i_exdisp.obj
 0002:00002568       _DIID_DShellNameSpaceEvents 00452568     uuid:i_exdisp.obj
 0002:00002578       _IID_IShellFavoritesNameSpace 00452578     uuid:i_exdisp.obj
 0002:00002588       _IID_IShellNameSpace       00452588     uuid:i_exdisp.obj
 0002:00002598       _CLSID_ShellNameSpace      00452598     uuid:i_exdisp.obj
 0002:000025a8       _IID_IScriptErrorList      004525a8     uuid:i_exdisp.obj
 0002:000025b8       _CLSID_CScriptErrorList    004525b8     uuid:i_exdisp.obj
 0002:000025cc       ??_7invalid_argument@std@@6B@ 004525cc     libcpmtd:xthrow.obj
 0002:000025d8       ??_7logic_error@std@@6B@   004525d8     libcpmtd:xthrow.obj
 0002:000025e4       ??_7length_error@std@@6B@  004525e4     libcpmtd:xthrow.obj
 0002:000025f0       ??_7out_of_range@std@@6B@  004525f0     libcpmtd:xthrow.obj
 0002:000025fc       ??_7overflow_error@std@@6B@ 004525fc     libcpmtd:xthrow.obj
 0002:00002608       ??_7runtime_error@std@@6B@ 00452608     libcpmtd:xthrow.obj
 0002:00002610       ??_C@_0P@GHFPNOJB@bad?5allocation?$AA@ 00452610     LIBCMTD:new.obj
 0002:00002624       ??_7type_info@@6B@         00452624     LIBCMTD:typinfo.obj
 0002:00002628       ?ProcessDetach@NativeDll@<CrtImplementationDetails>@@0IB 00452628     LIBCMTD:_trnsctrl_.obj
 0002:0000262c       ?ProcessAttach@NativeDll@<CrtImplementationDetails>@@0IB 0045262c     LIBCMTD:_trnsctrl_.obj
 0002:00002630       ?ThreadAttach@NativeDll@<CrtImplementationDetails>@@0IB 00452630     LIBCMTD:_trnsctrl_.obj
 0002:00002634       ?ThreadDetach@NativeDll@<CrtImplementationDetails>@@0IB 00452634     LIBCMTD:_trnsctrl_.obj
 0002:00002638       ?ProcessVerifier@NativeDll@<CrtImplementationDetails>@@0IB 00452638     LIBCMTD:_trnsctrl_.obj
 0002:00002640       ??_C@_1GE@BDAODJCD@?$AAf?$AA?3?$AA?2?$AAd?$AAd?$AA?2?$AAv?$AAc?$AAt?$AAo?$AAo?$AAl?$AAs?$AA?2?$AAc?$AAr?$AAt?$AA_?$AAb?$AAl?$AAd?$AA?2?$AAs?$AAe?$AAl?$AAf?$AA_?$AAx?$AA8?$AA6?$AA?2?$AAc@ 00452640     LIBCMTD:dbgdel.obj
 0002:000026a8       ??_C@_1EO@LHDAJOCM@?$AA_?$AAB?$AAL?$AAO?$AAC?$AAK?$AA_?$AAT?$AAY?$AAP?$AAE?$AA_?$AAI?$AAS?$AA_?$AAV?$AAA?$AAL?$AAI?$AAD?$AA?$CI?$AAp?$AAH?$AAe?$AAa?$AAd?$AA?9?$AA?$DO?$AAn?$AAB?$AAl?$AAo@ 004526a8     LIBCMTD:dbgdel.obj
 0002:000026f8       ??_C@_17LGKOMLJ@?$AA?4?$AA?4?$AA?4?$AA?$AA@ 004526f8     LIBCMTD:dbgrptw.obj
 0002:00002700       ??_C@_1CC@CGHMNGDG@?$AAA?$AAs?$AAs?$AAe?$AAr?$AAt?$AAi?$AAo?$AAn?$AA?5?$AAF?$AAa?$AAi?$AAl?$AAe?$AAd?$AA?$AA@ 00452700     LIBCMTD:dbgrptw.obj
 0002:00002724       ??_C@_1M@ILHOPKA@?$AAE?$AAr?$AAr?$AAo?$AAr?$AA?$AA@ 00452724     LIBCMTD:dbgrptw.obj
 0002:00002730       ??_C@_1BA@GLMCNLEM@?$AAW?$AAa?$AAr?$AAn?$AAi?$AAn?$AAg?$AA?$AA@ 00452730     LIBCMTD:dbgrptw.obj
 0002:0000274c       ??_C@_0DA@PCCBBBID@f?3?2dd?2vctools?2crt_bld?2self_x86?2c@ 0045274c     LIBCMTD:dbgrptw.obj
 0002:00002780       ??_C@_1FI@PHIAFFHM@?$AA?$CI?$AA?$CC?$AAT?$AAh?$AAe?$AA?5?$AAh?$AAo?$AAo?$AAk?$AA?5?$AAf?$AAu?$AAn?$AAc?$AAt?$AAi?$AAo?$AAn?$AA?5?$AAi?$AAs?$AA?5?$AAn?$AAo?$AAt?$AA?5?$AAi?$AAn?$AA?5?$AAt?$AAh@ 00452780     LIBCMTD:dbgrptw.obj
 0002:000027d8       ??_C@_1CG@JBJEFOCM@?$AAp?$AAf?$AAn?$AAN?$AAe?$AAw?$AAH?$AAo?$AAo?$AAk?$AA?5?$AA?$CB?$AA?$DN?$AA?5?$AAN?$AAU?$AAL?$AAL?$AA?$AA@ 004527d8     LIBCMTD:dbgrptw.obj
 0002:00002800       ??_C@_1CI@IIHEAKEI@?$AA_?$AAC?$AAr?$AAt?$AAS?$AAe?$AAt?$AAR?$AAe?$AAp?$AAo?$AAr?$AAt?$AAH?$AAo?$AAo?$AAk?$AAW?$AA2?$AA?$AA@ 00452800     LIBCMTD:dbgrptw.obj
 0002:00002828       ??_C@_1GA@IBJGKIFE@?$AAf?$AA?3?$AA?2?$AAd?$AAd?$AA?2?$AAv?$AAc?$AAt?$AAo?$AAo?$AAl?$AAs?$AA?2?$AAc?$AAr?$AAt?$AA_?$AAb?$AAl?$AAd?$AA?2?$AAs?$AAe?$AAl?$AAf?$AA_?$AAx?$AA8?$AA6?$AA?2?$AAc@ 00452828     LIBCMTD:dbgrptw.obj
 0002:00002888       ??_C@_1HI@OFEHGPPC@?$AAm?$AAo?$AAd?$AAe?$AA?5?$AA?$DN?$AA?$DN?$AA?5?$AA_?$AAC?$AAR?$AAT?$AA_?$AAR?$AAP?$AAT?$AAH?$AAO?$AAO?$AAK?$AA_?$AAI?$AAN?$AAS?$AAT?$AAA?$AAL?$AAL?$AA?5?$AA?$HM?$AA?$HM?$AA?5@ 00452888     LIBCMTD:dbgrptw.obj
 0002:00002900       ??_C@_1EG@PEOEAKBB@?$AAM?$AAi?$AAc?$AAr?$AAo?$AAs?$AAo?$AAf?$AAt?$AA?5?$AAV?$AAi?$AAs?$AAu?$AAa?$AAl?$AA?5?$AAC?$AA?$CL?$AA?$CL?$AA?5?$AAD?$AAe?$AAb?$AAu?$AAg?$AA?5?$AAL?$AAi?$AAb?$AAr?$AAa@ 00452900     LIBCMTD:dbgrptw.obj
 0002:00002948       ??_C@_1FG@BBOLDHGF@?$AA_?$AAC?$AAr?$AAt?$AAD?$AAb?$AAg?$AAR?$AAe?$AAp?$AAo?$AAr?$AAt?$AA?3?$AA?5?$AAS?$AAt?$AAr?$AAi?$AAn?$AAg?$AA?5?$AAt?$AAo?$AAo?$AA?5?$AAl?$AAo?$AAn?$AAg?$AA?5?$AAo@ 00452948     LIBCMTD:dbgrptw.obj
 0002:000029a0       ??_C@_1JI@EACPGHID@?$AAw?$AAc?$AAs?$AAc?$AAp?$AAy?$AA_?$AAs?$AA?$CI?$AAs?$AAz?$AAO?$AAu?$AAt?$AAM?$AAe?$AAs?$AAs?$AAa?$AAg?$AAe?$AA?0?$AA?5?$AA4?$AA0?$AA9?$AA6?$AA?0?$AA?5?$AAL?$AA?$CC?$AA_@ 004529a0     LIBCMTD:dbgrptw.obj
 0002:00002a38       ??_C@_1BI@KALLJECN@?$AA?$CI?$AA?$CK?$AA_?$AAe?$AAr?$AAr?$AAn?$AAo?$AA?$CI?$AA?$CJ?$AA?$CJ?$AA?$AA@ 00452a38     LIBCMTD:dbgrptw.obj
 0002:00002a50       ??_C@_1KK@MEFMPOLM@?$AAD?$AAe?$AAb?$AAu?$AAg?$AA?5?$AA?$CF?$AAs?$AA?$CB?$AA?6?$AA?6?$AAP?$AAr?$AAo?$AAg?$AAr?$AAa?$AAm?$AA?3?$AA?5?$AA?$CF?$AAs?$AA?$CF?$AAs?$AA?$CF?$AAs?$AA?$CF?$AAs?$AA?$CF?$AAs?$AA?$CF?$AAs@ 00452a50     LIBCMTD:dbgrptw.obj
 0002:00002afc       ??_C@_1BE@CGCJKGHI@?$AA?6?$AAM?$AAo?$AAd?$AAu?$AAl?$AAe?$AA?3?$AA?5?$AA?$AA@ 00452afc     LIBCMTD:dbgrptw.obj
 0002:00002b10       ??_C@_1BA@LNHECFIM@?$AA?6?$AAF?$AAi?$AAl?$AAe?$AA?3?$AA?5?$AA?$AA@ 00452b10     LIBCMTD:dbgrptw.obj
 0002:00002b20       ??_C@_1BA@GLLGCPCK@?$AA?6?$AAL?$AAi?$AAn?$AAe?$AA?3?$AA?5?$AA?$AA@ 00452b20     LIBCMTD:dbgrptw.obj
 0002:00002b30       ??_C@_15IABLJNFO@?$AA?6?$AA?6?$AA?$AA@ 00452b30     LIBCMTD:dbgrptw.obj
 0002:00002b38       ??_C@_1BK@PEDCIPMA@?$AAE?$AAx?$AAp?$AAr?$AAe?$AAs?$AAs?$AAi?$AAo?$AAn?$AA?3?$AA?5?$AA?$AA@ 00452b38     LIBCMTD:dbgrptw.obj
 0002:00002b58       ??_C@_1OG@PMPPFHAF@?$AA?6?$AA?6?$AAF?$AAo?$AAr?$AA?5?$AAi?$AAn?$AAf?$AAo?$AAr?$AAm?$AAa?$AAt?$AAi?$AAo?$AAn?$AA?5?$AAo?$AAn?$AA?5?$AAh?$AAo?$AAw?$AA?5?$AAy?$AAo?$AAu?$AAr?$AA?5?$AAp?$AAr@ 00452b58     LIBCMTD:dbgrptw.obj
 0002:00002c40       ??_C@_1NO@LECLLHOL@?$AAm?$AAe?$AAm?$AAc?$AAp?$AAy?$AA_?$AAs?$AA?$CI?$AAs?$AAz?$AAS?$AAh?$AAo?$AAr?$AAt?$AAP?$AAr?$AAo?$AAg?$AAN?$AAa?$AAm?$AAe?$AA?0?$AA?5?$AAs?$AAi?$AAz?$AAe?$AAo?$AAf@ 00452c40     LIBCMTD:dbgrptw.obj
 0002:00002d20       ??_C@_1CO@EAEJAADC@?$AA?$DM?$AAp?$AAr?$AAo?$AAg?$AAr?$AAa?$AAm?$AA?5?$AAn?$AAa?$AAm?$AAe?$AA?5?$AAu?$AAn?$AAk?$AAn?$AAo?$AAw?$AAn?$AA?$DO?$AA?$AA@ 00452d20     LIBCMTD:dbgrptw.obj
 0002:00002d50       ??_C@_1GI@DEDNNLCI@?$AAw?$AAc?$AAs?$AAc?$AAp?$AAy?$AA_?$AAs?$AA?$CI?$AAs?$AAz?$AAE?$AAx?$AAe?$AAN?$AAa?$AAm?$AAe?$AA?0?$AA?5?$AA2?$AA6?$AA0?$AA?0?$AA?5?$AAL?$AA?$CC?$AA?$DM?$AAp?$AAr?$AAo?$AAg@ 00452d50     LIBCMTD:dbgrptw.obj
 0002:00002db8       ??_C@_1CI@PGJIFDEK@?$AA_?$AA_?$AAc?$AAr?$AAt?$AAM?$AAe?$AAs?$AAs?$AAa?$AAg?$AAe?$AAW?$AAi?$AAn?$AAd?$AAo?$AAw?$AAW?$AA?$AA@ 00452db8     LIBCMTD:dbgrptw.obj
 0002:00002de0       __FPinit                   00452de0     LIBCMTD:_fpinit_.obj
 0002:00002e08       ??_7exception@std@@6B@     00452e08     LIBCMTD:stdexcpt.obj
 0002:00002e10       ??_C@_0BC@EOODALEL@Unknown?5exception?$AA@ 00452e10     LIBCMTD:stdexcpt.obj
 0002:00002e28       ??_7bad_cast@std@@6B@      00452e28     LIBCMTD:stdexcpt.obj
 0002:00002e34       ??_7bad_typeid@std@@6B@    00452e34     LIBCMTD:stdexcpt.obj
 0002:00002e40       ??_7__non_rtti_object@std@@6B@ 00452e40     LIBCMTD:stdexcpt.obj
 0002:00002e48       ??_C@_0DA@HMCPFNKN@f?3?2dd?2vctools?2crt_bld?2self_x86?2c@ 00452e48     LIBCMTD:onexit.obj
 0002:00002e78       ??_C@_1EK@MBDPDCGA@?$AAM?$AAi?$AAc?$AAr?$AAo?$AAs?$AAo?$AAf?$AAt?$AA?5?$AAV?$AAi?$AAs?$AAu?$AAa?$AAl?$AA?5?$AAC?$AA?$CL?$AA?$CL?$AA?5?$AAR?$AAu?$AAn?$AAt?$AAi?$AAm?$AAe?$AA?5?$AAL?$AAi?$AAb@ 00452e78     LIBCMTD:wassert.obj
 0002:00002ec8       ??_C@_1HK@POCJMFGK@?$AA?$CI?$AAP?$AAr?$AAe?$AAs?$AAs?$AA?5?$AAR?$AAe?$AAt?$AAr?$AAy?$AA?5?$AAt?$AAo?$AA?5?$AAd?$AAe?$AAb?$AAu?$AAg?$AA?5?$AAt?$AAh?$AAe?$AA?5?$AAa?$AAp?$AAp?$AAl?$AAi?$AAc@ 00452ec8     LIBCMTD:wassert.obj
 0002:00002f48       ??_C@_1LO@HBAMOOPN@?$AAw?$AAc?$AAs?$AAc?$AAa?$AAt?$AA_?$AAs?$AA?$CI?$AAa?$AAs?$AAs?$AAe?$AAr?$AAt?$AAb?$AAu?$AAf?$AA?0?$AA?5?$AA?$CI?$AA6?$AA0?$AA?5?$AA?$CK?$AA?5?$AA9?$AA?$CJ?$AA?0?$AA?5?$AAL?$AA?$CC@ 00452f48     LIBCMTD:wassert.obj
 0002:00003008       ??_C@_1FG@GMPCGFKH@?$AAw?$AAc?$AAs?$AAc?$AAa?$AAt?$AA_?$AAs?$AA?$CI?$AAa?$AAs?$AAs?$AAe?$AAr?$AAt?$AAb?$AAu?$AAf?$AA?0?$AA?5?$AA?$CI?$AA6?$AA0?$AA?5?$AA?$CK?$AA?5?$AA9?$AA?$CJ?$AA?0?$AA?5?$AAd?$AAb@ 00453008     LIBCMTD:wassert.obj
 0002:00003060       ??_C@_1OA@EGMLFBHJ@?$AAF?$AAo?$AAr?$AA?5?$AAi?$AAn?$AAf?$AAo?$AAr?$AAm?$AAa?$AAt?$AAi?$AAo?$AAn?$AA?5?$AAo?$AAn?$AA?5?$AAh?$AAo?$AAw?$AA?5?$AAy?$AAo?$AAu?$AAr?$AA?5?$AAp?$AAr?$AAo?$AAg@ 00453060     LIBCMTD:wassert.obj
 0002:00003140       ??_C@_1BCO@FMFFDPPF@?$AAw?$AAc?$AAs?$AAc?$AAa?$AAt?$AA_?$AAs?$AA?$CI?$AAa?$AAs?$AAs?$AAe?$AAr?$AAt?$AAb?$AAu?$AAf?$AA?0?$AA?5?$AA?$CI?$AA6?$AA0?$AA?5?$AA?$CK?$AA?5?$AA9?$AA?$CJ?$AA?0?$AA?5?$AAL?$AA?$CC@ 00453140     LIBCMTD:wassert.obj
 0002:00003270       ??_C@_1EM@MBEKCGIC@?$AAw?$AAc?$AAs?$AAc?$AAa?$AAt?$AA_?$AAs?$AA?$CI?$AA?5?$AAa?$AAs?$AAs?$AAe?$AAr?$AAt?$AAb?$AAu?$AAf?$AA?0?$AA?5?$AA?$CI?$AA6?$AA0?$AA?5?$AA?$CK?$AA?5?$AA9?$AA?$CJ?$AA?0?$AA?5?$AAe@ 00453270     LIBCMTD:wassert.obj
 0002:000032c0       ??_C@_1CHM@CEIMNDLH@?$AAw?$AAc?$AAs?$AAn?$AAc?$AAa?$AAt?$AA_?$AAs?$AA?$CI?$AA?5?$AAa?$AAs?$AAs?$AAe?$AAr?$AAt?$AAb?$AAu?$AAf?$AA?0?$AA?5?$AA?$CI?$AA6?$AA0?$AA?5?$AA?$CK?$AA?5?$AA9?$AA?$CJ?$AA?0?$AA?5@ 004532c0     LIBCMTD:wassert.obj
 0002:00003540       ??_C@_1GC@HOBBPFHJ@?$AAw?$AAc?$AAs?$AAc?$AAa?$AAt?$AA_?$AAs?$AA?$CI?$AA?5?$AAa?$AAs?$AAs?$AAe?$AAr?$AAt?$AAb?$AAu?$AAf?$AA?0?$AA?5?$AA?$CI?$AA6?$AA0?$AA?5?$AA?$CK?$AA?5?$AA9?$AA?$CJ?$AA?0?$AA?5?$AAL@ 00453540     LIBCMTD:wassert.obj
 0002:000035a8       ??_C@_1KG@CFEIMPNH@?$AA_?$AAi?$AAt?$AAo?$AAw?$AA_?$AAs?$AA?$CI?$AA?5?$AAl?$AAi?$AAn?$AAe?$AAn?$AAo?$AA?0?$AA?5?$AAa?$AAs?$AAs?$AAe?$AAr?$AAt?$AAb?$AAu?$AAf?$AA?5?$AA?$CL?$AA?5?$AAw?$AAc?$AAs@ 004535a8     LIBCMTD:wassert.obj
 0002:00003650       ??_C@_1O@KCAFKHJE@?$AAL?$AAi?$AAn?$AAe?$AA?3?$AA?5?$AA?$AA@ 00453650     LIBCMTD:wassert.obj
 0002:00003660       ??_C@_1FG@NHDGJLMI@?$AAw?$AAc?$AAs?$AAc?$AAa?$AAt?$AA_?$AAs?$AA?$CI?$AA?5?$AAa?$AAs?$AAs?$AAe?$AAr?$AAt?$AAb?$AAu?$AAf?$AA?0?$AA?5?$AA?$CI?$AA6?$AA0?$AA?5?$AA?$CK?$AA?5?$AA9?$AA?$CJ?$AA?0?$AA?5?$AAL@ 00453660     LIBCMTD:wassert.obj
 0002:000036b8       ??_C@_1FE@IIFBBPFI@?$AAw?$AAc?$AAs?$AAc?$AAa?$AAt?$AA_?$AAs?$AA?$CI?$AA?5?$AAa?$AAs?$AAs?$AAe?$AAr?$AAt?$AAb?$AAu?$AAf?$AA?0?$AA?5?$AA?$CI?$AA6?$AA0?$AA?5?$AA?$CK?$AA?5?$AA9?$AA?$CJ?$AA?0?$AA?5?$AAf@ 004536b8     LIBCMTD:wassert.obj
 0002:00003710       ??_C@_1IC@CFFJBMAD@?$AAw?$AAc?$AAs?$AAc?$AAa?$AAt?$AA_?$AAs?$AA?$CI?$AA?5?$AAa?$AAs?$AAs?$AAe?$AAr?$AAt?$AAb?$AAu?$AAf?$AA?0?$AA?5?$AA?$CI?$AA6?$AA0?$AA?5?$AA?$CK?$AA?5?$AA9?$AA?$CJ?$AA?0?$AA?5?$AAp@ 00453710     LIBCMTD:wassert.obj
 0002:00003798       ??_C@_1HG@OJJMBIKO@?$AAw?$AAc?$AAs?$AAn?$AAc?$AAa?$AAt?$AA_?$AAs?$AA?$CI?$AA?5?$AAa?$AAs?$AAs?$AAe?$AAr?$AAt?$AAb?$AAu?$AAf?$AA?0?$AA?5?$AA?$CI?$AA6?$AA0?$AA?5?$AA?$CK?$AA?5?$AA9?$AA?$CJ?$AA?0?$AA?5@ 00453798     LIBCMTD:wassert.obj
 0002:00003810       ??_C@_1GO@BIHLMMND@?$AAw?$AAc?$AAs?$AAn?$AAc?$AAa?$AAt?$AA_?$AAs?$AA?$CI?$AA?5?$AAa?$AAs?$AAs?$AAe?$AAr?$AAt?$AAb?$AAu?$AAf?$AA?0?$AA?5?$AA?$CI?$AA6?$AA0?$AA?5?$AA?$CK?$AA?5?$AA9?$AA?$CJ?$AA?0?$AA?5@ 00453810     LIBCMTD:wassert.obj
 0002:00003880       ??_C@_1FO@IJLLDBEB@?$AAw?$AAc?$AAs?$AAc?$AAa?$AAt?$AA_?$AAs?$AA?$CI?$AA?5?$AAa?$AAs?$AAs?$AAe?$AAr?$AAt?$AAb?$AAu?$AAf?$AA?0?$AA?5?$AA?$CI?$AA6?$AA0?$AA?5?$AA?$CK?$AA?5?$AA9?$AA?$CJ?$AA?0?$AA?5?$AAp@ 00453880     LIBCMTD:wassert.obj
 0002:000038e0       ??_C@_1FG@CLEECKIJ@?$AAw?$AAc?$AAs?$AAc?$AAa?$AAt?$AA_?$AAs?$AA?$CI?$AA?5?$AAa?$AAs?$AAs?$AAe?$AAr?$AAt?$AAb?$AAu?$AAf?$AA?0?$AA?5?$AA?$CI?$AA6?$AA0?$AA?5?$AA?$CK?$AA?5?$AA9?$AA?$CJ?$AA?0?$AA?5?$AAd@ 004538e0     LIBCMTD:wassert.obj
 0002:00003938       ??_C@_1GG@PMHOPJKA@?$AAw?$AAc?$AAs?$AAn?$AAc?$AAa?$AAt?$AA_?$AAs?$AA?$CI?$AA?5?$AAa?$AAs?$AAs?$AAe?$AAr?$AAt?$AAb?$AAu?$AAf?$AA?0?$AA?5?$AA?$CI?$AA6?$AA0?$AA?5?$AA?$CK?$AA?5?$AA9?$AA?$CJ?$AA?0?$AA?5@ 00453938     LIBCMTD:wassert.obj
 0002:000039a0       ??_C@_1O@HEMHKNDC@?$AAF?$AAi?$AAl?$AAe?$AA?3?$AA?5?$AA?$AA@ 004539a0     LIBCMTD:wassert.obj
 0002:000039b0       ??_C@_1FG@HIDBOJF@?$AAw?$AAc?$AAs?$AAc?$AAa?$AAt?$AA_?$AAs?$AA?$CI?$AA?5?$AAa?$AAs?$AAs?$AAe?$AAr?$AAt?$AAb?$AAu?$AAf?$AA?0?$AA?5?$AA?$CI?$AA6?$AA0?$AA?5?$AA?$CK?$AA?5?$AA9?$AA?$CJ?$AA?0?$AA?5?$AAL@ 004539b0     LIBCMTD:wassert.obj
 0002:00003a08       ??_C@_1FC@FFKGGIKO@?$AAw?$AAc?$AAs?$AAc?$AAa?$AAt?$AA_?$AAs?$AA?$CI?$AA?5?$AAa?$AAs?$AAs?$AAe?$AAr?$AAt?$AAb?$AAu?$AAf?$AA?0?$AA?5?$AA?$CI?$AA6?$AA0?$AA?5?$AA?$CK?$AA?5?$AA9?$AA?$CJ?$AA?0?$AA?5?$AAn@ 00453a08     LIBCMTD:wassert.obj
 0002:00003a60       ??_C@_1EK@BDNABPEK@?$AAw?$AAc?$AAs?$AAc?$AAa?$AAt?$AA_?$AAs?$AA?$CI?$AA?5?$AAa?$AAs?$AAs?$AAe?$AAr?$AAt?$AAb?$AAu?$AAf?$AA?0?$AA?5?$AA?$CI?$AA6?$AA0?$AA?5?$AA?$CK?$AA?5?$AA9?$AA?$CJ?$AA?0?$AA?5?$AAp@ 00453a60     LIBCMTD:wassert.obj
 0002:00003ab0       ??_C@_1HK@JKBDGMGN@?$AAw?$AAc?$AAs?$AAn?$AAc?$AAp?$AAy?$AA_?$AAs?$AA?$CI?$AA?5?$AAp?$AAc?$AAh?$AA?0?$AA?5?$AA?$CI?$AA2?$AA6?$AA0?$AA?5?$AA?$CL?$AA?5?$AA1?$AA?$CJ?$AA?5?$AA?9?$AA?5?$AA?$CI?$AAp?$AAc?$AAh@ 00453ab0     LIBCMTD:wassert.obj
 0002:00003b30       ??_C@_1HA@EPFCONEE@?$AAw?$AAc?$AAs?$AAc?$AAp?$AAy?$AA_?$AAs?$AA?$CI?$AA?5?$AAp?$AAr?$AAo?$AAg?$AAn?$AAa?$AAm?$AAe?$AA?0?$AA?5?$AA2?$AA6?$AA0?$AA?5?$AA?$CL?$AA?5?$AA1?$AA?0?$AA?5?$AAL?$AA?$CC?$AA?$DM@ 00453b30     LIBCMTD:wassert.obj
 0002:00003ba0       ??_C@_1BE@PHKBBGE@?$AAP?$AAr?$AAo?$AAg?$AAr?$AAa?$AAm?$AA?3?$AA?5?$AA?$AA@ 00453ba0     LIBCMTD:wassert.obj
 0002:00003bb8       ??_C@_1FM@LKICECBD@?$AAw?$AAc?$AAs?$AAc?$AAa?$AAt?$AA_?$AAs?$AA?$CI?$AA?5?$AAa?$AAs?$AAs?$AAe?$AAr?$AAt?$AAb?$AAu?$AAf?$AA?0?$AA?5?$AA?$CI?$AA6?$AA0?$AA?5?$AA?$CK?$AA?5?$AA9?$AA?$CJ?$AA?0?$AA?5?$AAL@ 00453bb8     LIBCMTD:wassert.obj
 0002:00003c18       ??_C@_1FI@JIGMFG@?$AAw?$AAc?$AAs?$AAc?$AAa?$AAt?$AA_?$AAs?$AA?$CI?$AA?5?$AAa?$AAs?$AAs?$AAe?$AAr?$AAt?$AAb?$AAu?$AAf?$AA?0?$AA?5?$AA?$CI?$AA6?$AA0?$AA?5?$AA?$CK?$AA?5?$AA9?$AA?$CJ?$AA?0?$AA?5?$AAd@ 00453c18     LIBCMTD:wassert.obj
 0002:00003c70       ??_C@_1CE@OJBNHDMO@?$AAA?$AAs?$AAs?$AAe?$AAr?$AAt?$AAi?$AAo?$AAn?$AA?5?$AAf?$AAa?$AAi?$AAl?$AAe?$AAd?$AA?$CB?$AA?$AA@ 00453c70     LIBCMTD:wassert.obj
 0002:00003c98       ??_C@_1GM@EFCJNBAA@?$AAw?$AAc?$AAs?$AAc?$AAp?$AAy?$AA_?$AAs?$AA?$CI?$AA?5?$AAa?$AAs?$AAs?$AAe?$AAr?$AAt?$AAb?$AAu?$AAf?$AA?0?$AA?5?$AA?$CI?$AA6?$AA0?$AA?5?$AA?$CK?$AA?5?$AA9?$AA?$CJ?$AA?0?$AA?5?$AAL@ 00453c98     LIBCMTD:wassert.obj
 0002:00003d04       ??_C@_1BC@LNOOMFNA@?$AA_?$AAw?$AAa?$AAs?$AAs?$AAe?$AAr?$AAt?$AA?$AA@ 00453d04     LIBCMTD:wassert.obj
 0002:00003d18       ??_C@_1GA@COEIABIF@?$AAf?$AA?3?$AA?2?$AAd?$AAd?$AA?2?$AAv?$AAc?$AAt?$AAo?$AAo?$AAl?$AAs?$AA?2?$AAc?$AAr?$AAt?$AA_?$AAb?$AAl?$AAd?$AA?2?$AAs?$AAe?$AAl?$AAf?$AA_?$AAx?$AA8?$AA6?$AA?2?$AAc@ 00453d18     LIBCMTD:wassert.obj
 0002:00003d78       ??_C@_1DM@MADKGDLO@?$AA?$CI?$AAL?$AA?$CC?$AAB?$AAu?$AAf?$AAf?$AAe?$AAr?$AA?5?$AAi?$AAs?$AA?5?$AAt?$AAo?$AAo?$AA?5?$AAs?$AAm?$AAa?$AAl?$AAl?$AA?$CC?$AA?5?$AA?$CG?$AA?$CG?$AA?5?$AA0?$AA?$CJ?$AA?$AA@ 00453d78     LIBCMTD:wcscpy_s.obj
 0002:00003db4       ??_C@_1CI@HCPHDDLE@?$AAB?$AAu?$AAf?$AAf?$AAe?$AAr?$AA?5?$AAi?$AAs?$AA?5?$AAt?$AAo?$AAo?$AA?5?$AAs?$AAm?$AAa?$AAl?$AAl?$AA?$AA@ 00453db4     LIBCMTD:wcscpy_s.obj
 0002:00003ddc       ??_C@_1CG@OFBJMIGJ@?$AA?$CI?$AA?$CI?$AA?$CI?$AA_?$AAS?$AAr?$AAc?$AA?$CJ?$AA?$CJ?$AA?$CJ?$AA?5?$AA?$CB?$AA?$DN?$AA?5?$AAN?$AAU?$AAL?$AAL?$AA?$AA@ 00453ddc     LIBCMTD:wcscpy_s.obj
 0002:00003e04       ??_C@_1BC@KIONAFPO@?$AAw?$AAc?$AAs?$AAc?$AAp?$AAy?$AA_?$AAs?$AA?$AA@ 00453e04     LIBCMTD:wcscpy_s.obj
 0002:00003e18       ??_C@_1GI@BGBNCIMA@?$AAf?$AA?3?$AA?2?$AAd?$AAd?$AA?2?$AAv?$AAc?$AAt?$AAo?$AAo?$AAl?$AAs?$AA?2?$AAc?$AAr?$AAt?$AA_?$AAb?$AAl?$AAd?$AA?2?$AAs?$AAe?$AAl?$AAf?$AA_?$AAx?$AA8?$AA6?$AA?2?$AAc@ 00453e18     LIBCMTD:wcscpy_s.obj
 0002:00003e80       ??_C@_1FC@PFMLEHKI@?$AA?$CI?$AA?$CI?$AA_?$AAD?$AAs?$AAt?$AA?$CJ?$AA?$CJ?$AA?5?$AA?$CB?$AA?$DN?$AA?5?$AAN?$AAU?$AAL?$AAL?$AA?5?$AA?$CG?$AA?$CG?$AA?5?$AA?$CI?$AA?$CI?$AA_?$AAS?$AAi?$AAz?$AAe?$AAI?$AAn?$AAW?$AAo?$AAr@ 00453e80     LIBCMTD:wcscpy_s.obj
 0002:00003ed8       ??_C@_1FA@MJKDNFFB@?$AA?$CI?$AAL?$AA?$CC?$AAS?$AAt?$AAr?$AAi?$AAn?$AAg?$AA?5?$AAi?$AAs?$AA?5?$AAn?$AAo?$AAt?$AA?5?$AAn?$AAu?$AAl?$AAl?$AA?5?$AAt?$AAe?$AAr?$AAm?$AAi?$AAn?$AAa?$AAt?$AAe?$AAd@ 00453ed8     LIBCMTD:wcscat_s.obj
 0002:00003f28       ??_C@_1DM@FHLMIEG@?$AAS?$AAt?$AAr?$AAi?$AAn?$AAg?$AA?5?$AAi?$AAs?$AA?5?$AAn?$AAo?$AAt?$AA?5?$AAn?$AAu?$AAl?$AAl?$AA?5?$AAt?$AAe?$AAr?$AAm?$AAi?$AAn?$AAa?$AAt?$AAe?$AAd?$AA?$AA@ 00453f28     LIBCMTD:wcscat_s.obj
 0002:00003f64       ??_C@_1BC@PLIEPKPJ@?$AAw?$AAc?$AAs?$AAc?$AAa?$AAt?$AA_?$AAs?$AA?$AA@ 00453f64     LIBCMTD:wcscat_s.obj
 0002:00003f78       ??_C@_1GI@NOKGIAGA@?$AAf?$AA?3?$AA?2?$AAd?$AAd?$AA?2?$AAv?$AAc?$AAt?$AAo?$AAo?$AAl?$AAs?$AA?2?$AAc?$AAr?$AAt?$AA_?$AAb?$AAl?$AAd?$AA?2?$AAs?$AAe?$AAl?$AAf?$AA_?$AAx?$AA8?$AA6?$AA?2?$AAc@ 00453f78     LIBCMTD:wcscat_s.obj
 0002:00003fe0       ??_C@_1GG@CDHAPCGF@?$AAf?$AA?3?$AA?2?$AAd?$AAd?$AA?2?$AAv?$AAc?$AAt?$AAo?$AAo?$AAl?$AAs?$AA?2?$AAc?$AAr?$AAt?$AA_?$AAb?$AAl?$AAd?$AA?2?$AAs?$AAe?$AAl?$AAf?$AA_?$AAx?$AA8?$AA6?$AA?2?$AAc@ 00453fe0     LIBCMTD:handler.obj
 0002:00004048       ??_C@_1BC@JLLICHIC@?$AAp?$AAn?$AAh?$AA?5?$AA?$DN?$AA?$DN?$AA?5?$AA0?$AA?$AA@ 00454048     LIBCMTD:handler.obj
 0002:00004064       ??_C@_0BO@GNIAFIKK@Unknown?5Runtime?5Check?5Error?6?$AN?$AA@ 00454064     LIBCMTD:_error_.obj
 0002:00004084       ??_C@_0CM@NGINOKPC@Stack?5memory?5around?5_alloca?5was?5@ 00454084     LIBCMTD:_error_.obj
 0002:000040b0       ??_C@_0DG@HKJMLLLP@A?5local?5variable?5was?5used?5before@ 004540b0     LIBCMTD:_error_.obj
 0002:000040e8       ??_C@_0BN@FFOINMNJ@Stack?5memory?5was?5corrupted?6?$AN?$AA@ 004540e8     LIBCMTD:_error_.obj
 0002:00004108       ??_C@_0BBN@GPMLNJCF@A?5cast?5to?5a?5smaller?5data?5type?5ha@ 00454108     LIBCMTD:_error_.obj
 0002:00004228       ??_C@_0NN@NGPKDKPD@The?5value?5of?5ESP?5was?5not?5properl@ 00454228     LIBCMTD:_error_.obj
 0002:000043a4       ??_C@_0CA@IODNCDPG@Run?9Time?5Check?5Failure?5?$CD?$CFd?5?9?5?$CFs?$AA@ 004543a4     LIBCMTD:_error_.obj
 0002:000043c4       ??_C@_0BE@GNBOBNCK@Unknown?5Module?5Name?$AA@ 004543c4     LIBCMTD:_error_.obj
 0002:000043d8       ??_C@_0BB@PFFGGCJP@Unknown?5Filename?$AA@ 004543d8     LIBCMTD:_error_.obj
 0002:000043f0       ??_C@_1EA@NFKNIFJP@?$AAR?$AAu?$AAn?$AA?9?$AAT?$AAi?$AAm?$AAe?$AA?5?$AAC?$AAh?$AAe?$AAc?$AAk?$AA?5?$AAF?$AAa?$AAi?$AAl?$AAu?$AAr?$AAe?$AA?5?$AA?$CD?$AA?$CF?$AAd?$AA?5?$AA?9?$AA?5?$AA?$CF?$AAs?$AA?$AA@ 004543f0     LIBCMTD:_error_.obj
 0002:00004430       ??_C@_1GM@OLMCBDMB@?$AAR?$AAu?$AAn?$AAt?$AAi?$AAm?$AAe?$AA?5?$AAC?$AAh?$AAe?$AAc?$AAk?$AA?5?$AAE?$AAr?$AAr?$AAo?$AAr?$AA?4?$AA?6?$AA?$AN?$AA?5?$AAU?$AAn?$AAa?$AAb?$AAl?$AAe?$AA?5?$AAt?$AAo@ 00454430     LIBCMTD:_error_.obj
 0002:0000449c       ??_C@_0CG@IAFNJNEE@Stack?5corrupted?5near?5unknown?5var@ 0045449c     LIBCMTD:_error_.obj
 0002:000044c8       ??_C@_0EJ@LJKNEOLN@Stack?5area?5around?5_alloca?5memory@ 004544c8     LIBCMTD:_error_.obj
 0002:00004514       ??_C@_08KJEDNCKC@?$CFs?$CFs?$CFs?$CFs?$AA@ 00454514     LIBCMTD:_error_.obj
 0002:00004520       ??_C@_02LLMPMKNF@?$DO?5?$AA@ 00454520     LIBCMTD:_error_.obj
 0002:00004524       ??_C@_01EEMJAFIK@?6?$AA@   00454524     LIBCMTD:_error_.obj
 0002:00004528       ??_C@_0BC@KIBAILCI@?$CFs?$CFs?$CFp?$CFs?$CFld?$CFs?$CFd?$CFs?$AA@ 00454528     LIBCMTD:_error_.obj
 0002:00004540       ??_C@_0EI@CLEPFNGI@Stack?5area?5around?5_alloca?5memory@ 00454540     LIBCMTD:_error_.obj
 0002:00004588       ??_C@_0N@MHFFIMFG@?6Address?3?50x?$AA@ 00454588     LIBCMTD:_error_.obj
 0002:00004598       ??_C@_07DFDJCKFN@?6Size?3?5?$AA@ 00454598     LIBCMTD:_error_.obj
 0002:000045a0       ??_C@_0CK@DKGBICFE@?6Allocation?5number?5within?5this?5f@ 004545a0     LIBCMTD:_error_.obj
 0002:000045cc       ??_C@_08OMAHNMHJ@?6Data?3?5?$DM?$AA@ 004545cc     LIBCMTD:_error_.obj
 0002:000045d8       ??_C@_09FOPFMPEJ@wsprintfA?$AA@ 004545d8     LIBCMTD:_error_.obj
 0002:000045e4       ??_C@_1BG@OILDLIOJ@?$AAu?$AAs?$AAe?$AAr?$AA3?$AA2?$AA?4?$AAd?$AAl?$AAl?$AA?$AA@ 004545e4     LIBCMTD:_error_.obj
 0002:000045fc       ??_C@_05MKKEDADM@?$CF?42X?5?$AA@ 004545fc     LIBCMTD:_error_.obj
 0002:00004604       ??_C@_0DE@OHJBPMBP@A?5variable?5is?5being?5used?5without@ 00454604     LIBCMTD:_error_.obj
 0002:00004638       ??_C@_0BP@OGBCLIBO@Stack?5around?5_alloca?5corrupted?$AA@ 00454638     LIBCMTD:_userapi_.obj
 0002:00004658       ??_C@_0CK@CNLNOEPB@Local?5variable?5used?5before?5initi@ 00454658     LIBCMTD:_userapi_.obj
 0002:00004684       ??_C@_0BI@CIGMDCBH@Stack?5memory?5corruption?$AA@ 00454684     LIBCMTD:_userapi_.obj
 0002:0000469c       ??_C@_0CK@FEGOIOPB@Cast?5to?5smaller?5type?5causing?5los@ 0045469c     LIBCMTD:_userapi_.obj
 0002:000046c8       ??_C@_0BJ@HEGAHDFO@Stack?5pointer?5corruption?$AA@ 004546c8     LIBCMTD:_userapi_.obj
 0002:000046f8       ??_C@_0DP@CBBAPGOP@f?3?2dd?2vctools?2crt_bld?2self_x86?2c@ 004546f8     LIBCMTD:chkesp.obj
 0002:00004737       ??_C@_00CNPNBAHC@?$AA@     00454737     LIBCMTD:chkesp.obj
 0002:00004738       ??_C@_0NM@DNEDKLDF@The?5value?5of?5ESP?5was?5not?5properl@ 00454738     LIBCMTD:chkesp.obj
 0002:00004818       ??_C@_1HG@KNCBMCDD@?$AAf?$AA?3?$AA?2?$AAd?$AAd?$AA?2?$AAv?$AAc?$AAt?$AAo?$AAo?$AAl?$AAs?$AA?2?$AAc?$AAr?$AAt?$AA_?$AAb?$AAl?$AAd?$AA?2?$AAs?$AAe?$AAl?$AAf?$AA_?$AAx?$AA8?$AA6?$AA?2?$AAc@ 00454818     LIBCMTD:typname.obj
 0002:00004890       ??_C@_1CK@GELGGBDK@?$AAp?$AAN?$AAo?$AAd?$AAe?$AA?9?$AA?$DO?$AA_?$AAN?$AAe?$AAx?$AAt?$AA?5?$AA?$CB?$AA?$DN?$AA?5?$AAN?$AAU?$AAL?$AAL?$AA?$AA@ 00454890     LIBCMTD:typname.obj
 0002:000048c0       ??_C@_1JK@NAFNEPGC@?$AAs?$AAt?$AAr?$AAc?$AAp?$AAy?$AA_?$AAs?$AA?5?$AA?$CI?$AA?$CI?$AAc?$AAh?$AAa?$AAr?$AA?5?$AA?$CK?$AA?$CJ?$AA?$CI?$AA?$CI?$AAt?$AAy?$AAp?$AAe?$AA_?$AAi?$AAn?$AAf?$AAo?$AA?5?$AA?$CK?$AA?$CJ@ 004548c0     LIBCMTD:typname.obj
 0002:0000495c       ??_C@_1CM@OOICDMK@?$AAt?$AAy?$AAp?$AAe?$AA_?$AAi?$AAn?$AAf?$AAo?$AA?3?$AA?3?$AA_?$AAN?$AAa?$AAm?$AAe?$AA_?$AAb?$AAa?$AAs?$AAe?$AA?$AA@ 0045495c     LIBCMTD:typname.obj
 0002:00004988       ??_C@_1GI@EAJKJPED@?$AAs?$AAt?$AAr?$AAc?$AAp?$AAy?$AA_?$AAs?$AA?5?$AA?$CI?$AAp?$AAT?$AAm?$AAp?$AAT?$AAy?$AAp?$AAe?$AAN?$AAa?$AAm?$AAe?$AA?0?$AA?5?$AAl?$AAe?$AAn?$AA?$CL?$AA2?$AA?0?$AA?5?$AA?$CI@ 00454988     LIBCMTD:typname.obj
 0002:000049f0       ??_C@_1DO@OJJLFJPE@?$AAt?$AAy?$AAp?$AAe?$AA_?$AAi?$AAn?$AAf?$AAo?$AA?3?$AA?3?$AA_?$AAN?$AAa?$AAm?$AAe?$AA_?$AAb?$AAa?$AAs?$AAe?$AA_?$AAi?$AAn?$AAt?$AAe?$AAr?$AAn?$AAa?$AAl?$AA?$AA@ 004549f0     LIBCMTD:typname.obj
 0002:00004a30       ??_C@_1BO@BKOMIGKJ@?$AAr?$AAu?$AAn?$AAt?$AAi?$AAm?$AAe?$AA?5?$AAe?$AAr?$AAr?$AAo?$AAr?$AA?5?$AA?$AA@ 00454a30     LIBCMTD:crt0msg.obj
 0002:00004a50       ??_C@_15JNBOKNOG@?$AA?$AN?$AA?6?$AA?$AA@ 00454a50     LIBCMTD:crt0msg.obj
 0002:00004a58       ??_C@_1BM@JBBEPPHI@?$AAT?$AAL?$AAO?$AAS?$AAS?$AA?5?$AAe?$AAr?$AAr?$AAo?$AAr?$AA?$AN?$AA?6?$AA?$AA@ 00454a58     LIBCMTD:crt0msg.obj
 0002:00004a74       ??_C@_1BK@KMOMNAAI@?$AAS?$AAI?$AAN?$AAG?$AA?5?$AAe?$AAr?$AAr?$AAo?$AAr?$AA?$AN?$AA?6?$AA?$AA@ 00454a74     LIBCMTD:crt0msg.obj
 0002:00004a90       ??_C@_1BO@BFCDCGC@?$AAD?$AAO?$AAM?$AAA?$AAI?$AAN?$AA?5?$AAe?$AAr?$AAr?$AAo?$AAr?$AA?$AN?$AA?6?$AA?$AA@ 00454a90     LIBCMTD:crt0msg.obj
 0002:00004ab0       ??_C@_1BOO@KGEDBGAJ@?$AAR?$AA6?$AA0?$AA3?$AA3?$AA?$AN?$AA?6?$AA?9?$AA?5?$AAA?$AAt?$AAt?$AAe?$AAm?$AAp?$AAt?$AA?5?$AAt?$AAo?$AA?5?$AAu?$AAs?$AAe?$AA?5?$AAM?$AAS?$AAI?$AAL?$AA?5?$AAc?$AAo?$AAd@ 00454ab0     LIBCMTD:crt0msg.obj
 0002:00004ca0       ??_C@_1GG@GOPILAJP@?$AAR?$AA6?$AA0?$AA3?$AA2?$AA?$AN?$AA?6?$AA?9?$AA?5?$AAn?$AAo?$AAt?$AA?5?$AAe?$AAn?$AAo?$AAu?$AAg?$AAh?$AA?5?$AAs?$AAp?$AAa?$AAc?$AAe?$AA?5?$AAf?$AAo?$AAr?$AA?5?$AAl?$AAo@ 00454ca0     LIBCMTD:crt0msg.obj
 0002:00004d08       ??_C@_1MG@ENCOOIDF@?$AAR?$AA6?$AA0?$AA3?$AA1?$AA?$AN?$AA?6?$AA?9?$AA?5?$AAA?$AAt?$AAt?$AAe?$AAm?$AAp?$AAt?$AA?5?$AAt?$AAo?$AA?5?$AAi?$AAn?$AAi?$AAt?$AAi?$AAa?$AAl?$AAi?$AAz?$AAe?$AA?5?$AAt@ 00454d08     LIBCMTD:crt0msg.obj
 0002:00004dd0       ??_C@_1DO@BMFCDCD@?$AAR?$AA6?$AA0?$AA3?$AA0?$AA?$AN?$AA?6?$AA?9?$AA?5?$AAC?$AAR?$AAT?$AA?5?$AAn?$AAo?$AAt?$AA?5?$AAi?$AAn?$AAi?$AAt?$AAi?$AAa?$AAl?$AAi?$AAz?$AAe?$AAd?$AA?$AN?$AA?6?$AA?$AA@ 00454dd0     LIBCMTD:crt0msg.obj
 0002:00004e10       ??_C@_1EK@HHFLMAOL@?$AAR?$AA6?$AA0?$AA2?$AA8?$AA?$AN?$AA?6?$AA?9?$AA?5?$AAu?$AAn?$AAa?$AAb?$AAl?$AAe?$AA?5?$AAt?$AAo?$AA?5?$AAi?$AAn?$AAi?$AAt?$AAi?$AAa?$AAl?$AAi?$AAz?$AAe?$AA?5?$AAh?$AAe@ 00454e10     LIBCMTD:crt0msg.obj
 0002:00004e60       ??_C@_1GK@MFGOKLAG@?$AAR?$AA6?$AA0?$AA2?$AA7?$AA?$AN?$AA?6?$AA?9?$AA?5?$AAn?$AAo?$AAt?$AA?5?$AAe?$AAn?$AAo?$AAu?$AAg?$AAh?$AA?5?$AAs?$AAp?$AAa?$AAc?$AAe?$AA?5?$AAf?$AAo?$AAr?$AA?5?$AAl?$AAo@ 00454e60     LIBCMTD:crt0msg.obj
 0002:00004ed0       ??_C@_1GK@MCAAGJMO@?$AAR?$AA6?$AA0?$AA2?$AA6?$AA?$AN?$AA?6?$AA?9?$AA?5?$AAn?$AAo?$AAt?$AA?5?$AAe?$AAn?$AAo?$AAu?$AAg?$AAh?$AA?5?$AAs?$AAp?$AAa?$AAc?$AAe?$AA?5?$AAf?$AAo?$AAr?$AA?5?$AAs?$AAt@ 00454ed0     LIBCMTD:crt0msg.obj
 0002:00004f40       ??_C@_1EM@MAADIHMB@?$AAR?$AA6?$AA0?$AA2?$AA5?$AA?$AN?$AA?6?$AA?9?$AA?5?$AAp?$AAu?$AAr?$AAe?$AA?5?$AAv?$AAi?$AAr?$AAt?$AAu?$AAa?$AAl?$AA?5?$AAf?$AAu?$AAn?$AAc?$AAt?$AAi?$AAo?$AAn?$AA?5?$AAc@ 00454f40     LIBCMTD:crt0msg.obj
 0002:00004f90       ??_C@_1GK@FHCKBEFA@?$AAR?$AA6?$AA0?$AA2?$AA4?$AA?$AN?$AA?6?$AA?9?$AA?5?$AAn?$AAo?$AAt?$AA?5?$AAe?$AAn?$AAo?$AAu?$AAg?$AAh?$AA?5?$AAs?$AAp?$AAa?$AAc?$AAe?$AA?5?$AAf?$AAo?$AAr?$AA?5?$AA_?$AAo@ 00454f90     LIBCMTD:crt0msg.obj
 0002:00005000       ??_C@_1FC@ECHBIFBC@?$AAR?$AA6?$AA0?$AA1?$AA9?$AA?$AN?$AA?6?$AA?9?$AA?5?$AAu?$AAn?$AAa?$AAb?$AAl?$AAe?$AA?5?$AAt?$AAo?$AA?5?$AAo?$AAp?$AAe?$AAn?$AA?5?$AAc?$AAo?$AAn?$AAs?$AAo?$AAl?$AAe?$AA?5@ 00455000     LIBCMTD:crt0msg.obj
 0002:00005058       ??_C@_1EC@JIBHAOPH@?$AAR?$AA6?$AA0?$AA1?$AA8?$AA?$AN?$AA?6?$AA?9?$AA?5?$AAu?$AAn?$AAe?$AAx?$AAp?$AAe?$AAc?$AAt?$AAe?$AAd?$AA?5?$AAh?$AAe?$AAa?$AAp?$AA?5?$AAe?$AAr?$AAr?$AAo?$AAr?$AA?$AN?$AA?6@ 00455058     LIBCMTD:crt0msg.obj
 0002:000050a0       ??_C@_1FK@BEOGODMC@?$AAR?$AA6?$AA0?$AA1?$AA7?$AA?$AN?$AA?6?$AA?9?$AA?5?$AAu?$AAn?$AAe?$AAx?$AAp?$AAe?$AAc?$AAt?$AAe?$AAd?$AA?5?$AAm?$AAu?$AAl?$AAt?$AAi?$AAt?$AAh?$AAr?$AAe?$AAa?$AAd?$AA?5@ 004550a0     LIBCMTD:crt0msg.obj
 0002:00005100       ??_C@_1FI@LOGNIKDM@?$AAR?$AA6?$AA0?$AA1?$AA6?$AA?$AN?$AA?6?$AA?9?$AA?5?$AAn?$AAo?$AAt?$AA?5?$AAe?$AAn?$AAo?$AAu?$AAg?$AAh?$AA?5?$AAs?$AAp?$AAa?$AAc?$AAe?$AA?5?$AAf?$AAo?$AAr?$AA?5?$AAt?$AAh@ 00455100     LIBCMTD:crt0msg.obj
 0002:00005158       ??_C@_1EG@BEHAGFJD@?$AAR?$AA6?$AA0?$AA1?$AA0?$AA?$AN?$AA?6?$AA?9?$AA?5?$AAa?$AAb?$AAo?$AAr?$AAt?$AA?$CI?$AA?$CJ?$AA?5?$AAh?$AAa?$AAs?$AA?5?$AAb?$AAe?$AAe?$AAn?$AA?5?$AAc?$AAa?$AAl?$AAl?$AAe?$AAd@ 00455158     LIBCMTD:crt0msg.obj
 0002:000051a0       ??_C@_1FI@HONFMGBI@?$AAR?$AA6?$AA0?$AA0?$AA9?$AA?$AN?$AA?6?$AA?9?$AA?5?$AAn?$AAo?$AAt?$AA?5?$AAe?$AAn?$AAo?$AAu?$AAg?$AAh?$AA?5?$AAs?$AAp?$AAa?$AAc?$AAe?$AA?5?$AAf?$AAo?$AAr?$AA?5?$AAe?$AAn@ 004551a0     LIBCMTD:crt0msg.obj
 0002:000051f8       ??_C@_1FE@LLNEDJMD@?$AAR?$AA6?$AA0?$AA0?$AA8?$AA?$AN?$AA?6?$AA?9?$AA?5?$AAn?$AAo?$AAt?$AA?5?$AAe?$AAn?$AAo?$AAu?$AAg?$AAh?$AA?5?$AAs?$AAp?$AAa?$AAc?$AAe?$AA?5?$AAf?$AAo?$AAr?$AA?5?$AAa?$AAr@ 004551f8     LIBCMTD:crt0msg.obj
 0002:00005250       ??_C@_1FK@PGACCAFB@?$AAR?$AA6?$AA0?$AA0?$AA2?$AA?$AN?$AA?6?$AA?9?$AA?5?$AAf?$AAl?$AAo?$AAa?$AAt?$AAi?$AAn?$AAg?$AA?5?$AAp?$AAo?$AAi?$AAn?$AAt?$AA?5?$AAs?$AAu?$AAp?$AAp?$AAo?$AAr?$AAt?$AA?5@ 00455250     LIBCMTD:crt0msg.obj
 0002:00005360       ??_C@_1IG@NMONDPP@?$AAw?$AAc?$AAs?$AAc?$AAa?$AAt?$AA_?$AAs?$AA?$CI?$AAo?$AAu?$AAt?$AAm?$AAs?$AAg?$AA?0?$AA?5?$AA?$CI?$AAs?$AAi?$AAz?$AAe?$AAo?$AAf?$AA?$CI?$AAo?$AAu?$AAt?$AAm?$AAs?$AAg?$AA?$CJ@ 00455360     LIBCMTD:crt0msg.obj
 0002:000053e8       ??_C@_1IA@DCJGKHFO@?$AAw?$AAc?$AAs?$AAc?$AAa?$AAt?$AA_?$AAs?$AA?$CI?$AAo?$AAu?$AAt?$AAm?$AAs?$AAg?$AA?0?$AA?5?$AA?$CI?$AAs?$AAi?$AAz?$AAe?$AAo?$AAf?$AA?$CI?$AAo?$AAu?$AAt?$AAm?$AAs?$AAg?$AA?$CJ@ 004553e8     LIBCMTD:crt0msg.obj
 0002:00005468       ??_C@_1HI@FLHKGEBE@?$AAw?$AAc?$AAs?$AAn?$AAc?$AAp?$AAy?$AA_?$AAs?$AA?$CI?$AAp?$AAc?$AAh?$AA?0?$AA?5?$AAp?$AAr?$AAo?$AAg?$AAn?$AAa?$AAm?$AAe?$AA_?$AAs?$AAi?$AAz?$AAe?$AA?5?$AA?9?$AA?5?$AA?$CI@ 00455468     LIBCMTD:crt0msg.obj
 0002:000054e0       ??_C@_1HK@FJJNAABO@?$AAw?$AAc?$AAs?$AAc?$AAp?$AAy?$AA_?$AAs?$AA?$CI?$AAp?$AAr?$AAo?$AAg?$AAn?$AAa?$AAm?$AAe?$AA?0?$AA?5?$AAp?$AAr?$AAo?$AAg?$AAn?$AAa?$AAm?$AAe?$AA_?$AAs?$AAi?$AAz?$AAe@ 004554e0     LIBCMTD:crt0msg.obj
 0002:0000555c       ??_C@_1DE@JNGNBFGO@?$AAR?$AAu?$AAn?$AAt?$AAi?$AAm?$AAe?$AA?5?$AAE?$AAr?$AAr?$AAo?$AAr?$AA?$CB?$AA?6?$AA?6?$AAP?$AAr?$AAo?$AAg?$AAr?$AAa?$AAm?$AA?3?$AA?5?$AA?$AA@ 0045555c     LIBCMTD:crt0msg.obj
 0002:00005590       ??_C@_1KO@BKLCKNFL@?$AAw?$AAc?$AAs?$AAc?$AAp?$AAy?$AA_?$AAs?$AA?$CI?$AAo?$AAu?$AAt?$AAm?$AAs?$AAg?$AA?0?$AA?5?$AA?$CI?$AAs?$AAi?$AAz?$AAe?$AAo?$AAf?$AA?$CI?$AAo?$AAu?$AAt?$AAm?$AAs?$AAg?$AA?$CJ@ 00455590     LIBCMTD:crt0msg.obj
 0002:00005640       ??_C@_1BI@EAHMBMEC@?$AA_?$AAN?$AAM?$AAS?$AAG?$AA_?$AAW?$AAR?$AAI?$AAT?$AAE?$AA?$AA@ 00455640     LIBCMTD:crt0msg.obj
 0002:00005658       ??_C@_1GC@HKOJBOFF@?$AAf?$AA?3?$AA?2?$AAd?$AAd?$AA?2?$AAv?$AAc?$AAt?$AAo?$AAo?$AAl?$AAs?$AA?2?$AAc?$AAr?$AAt?$AA_?$AAb?$AAl?$AAd?$AA?2?$AAs?$AAe?$AAl?$AAf?$AA_?$AAx?$AA8?$AA6?$AA?2?$AAc@ 00455658     LIBCMTD:crt0msg.obj
 0002:000056c0       ??_C@_1GO@NGIGJNHH@?$AAs?$AAt?$AAr?$AAn?$AAc?$AAp?$AAy?$AA_?$AAs?$AA?$CI?$AA?$CK?$AAs?$AAt?$AAr?$AAa?$AAd?$AAd?$AAr?$AAe?$AAs?$AAs?$AA?0?$AA?5?$AAo?$AAu?$AAt?$AAs?$AAi?$AAz?$AAe?$AA?0?$AA?5@ 004556c0     LIBCMTD:inithelp.obj
 0002:00005730       ??_C@_1CA@KHHCPEI@?$AA_?$AA_?$AAg?$AAe?$AAt?$AAl?$AAo?$AAc?$AAa?$AAl?$AAe?$AAi?$AAn?$AAf?$AAo?$AA?$AA@ 00455730     LIBCMTD:inithelp.obj
 0002:00005750       ??_C@_1GE@PLPIMDHG@?$AAf?$AA?3?$AA?2?$AAd?$AAd?$AA?2?$AAv?$AAc?$AAt?$AAo?$AAo?$AAl?$AAs?$AA?2?$AAc?$AAr?$AAt?$AA_?$AAb?$AAl?$AAd?$AA?2?$AAs?$AAe?$AAl?$AAf?$AA_?$AAx?$AA8?$AA6?$AA?2?$AAc@ 00455750     LIBCMTD:inithelp.obj
 0002:000057b4       ??_C@_0DC@CFDMMFIG@f?3?2dd?2vctools?2crt_bld?2self_x86?2c@ 004557b4     LIBCMTD:inithelp.obj
 0002:000057e8       __pDestructExceptionObject 004557e8     LIBCMTD:frame.obj
 0002:000057ec       ??_C@_0O@DPKOEFFH@bad?5exception?$AA@ 004557ec     LIBCMTD:frame.obj
 0002:00005800       ??_7bad_exception@std@@6B@ 00455800     LIBCMTD:frame.obj
 0002:00005808       ??_C@_0DC@LMJHGCKC@f?3?2dd?2vctools?2crt_bld?2self_x86?2c@ 00455808     LIBCMTD:tidtable.obj
 0002:0000583c       ??_C@_07PEJMOBNF@FlsFree?$AA@ 0045583c     LIBCMTD:tidtable.obj
 0002:00005844       ??_C@_0M@JCPCPOEF@FlsSetValue?$AA@ 00455844     LIBCMTD:tidtable.obj
 0002:00005850       ??_C@_0M@GDNOONDI@FlsGetValue?$AA@ 00455850     LIBCMTD:tidtable.obj
 0002:0000585c       ??_C@_08KNHFBNJ@FlsAlloc?$AA@ 0045585c     LIBCMTD:tidtable.obj
 0002:00005868       ??_C@_1BK@DBDEIDLH@?$AAK?$AAE?$AAR?$AAN?$AAE?$AAL?$AA3?$AA2?$AA?4?$AAD?$AAL?$AAL?$AA?$AA@ 00455868     LIBCMTD:tidtable.obj
 0002:00005884       ??_C@_0CP@MKONOLCI@f?3?2dd?2vctools?2crt_bld?2self_x86?2c@ 00455884     LIBCMTD:mlock.obj
 0002:000058b4       ??_C@_06PJIGMIJB@Client?$AA@ 004558b4     LIBCMTD:dbgheap.obj
 0002:000058bc       ??_C@_06KMEJCCGM@Ignore?$AA@ 004558bc     LIBCMTD:dbgheap.obj
 0002:000058c4       ??_C@_03OGPFLFLO@CRT?$AA@  004558c4     LIBCMTD:dbgheap.obj
 0002:000058c8       ??_C@_06EFAGIKOH@Normal?$AA@ 004558c8     LIBCMTD:dbgheap.obj
 0002:000058d0       ??_C@_04HJMOFLDF@Free?$AA@ 004558d0     LIBCMTD:dbgheap.obj
 0002:000058ec       ??_C@_0DC@JEMAGEKG@Error?3?5memory?5allocation?3?5bad?5me@ 004558ec     LIBCMTD:dbgheap.obj
 0002:00005920       ??_C@_0CF@BICKFLAF@Invalid?5allocation?5size?3?5?$CFIu?5byt@ 00455920     LIBCMTD:dbgheap.obj
 0002:00005948       ??_C@_02DKCKIIND@?$CFs?$AA@ 00455948     LIBCMTD:dbgheap.obj
 0002:0000594c       ??_C@_0CB@CCLOLAHO@Client?5hook?5allocation?5failure?4?6@ 0045594c     LIBCMTD:dbgheap.obj
 0002:00005970       ??_C@_0DF@BBEGIFEK@Client?5hook?5allocation?5failure?5a@ 00455970     LIBCMTD:dbgheap.obj
 0002:000059a8       ??_C@_1GC@DNJKKEAA@?$AAf?$AA?3?$AA?2?$AAd?$AAd?$AA?2?$AAv?$AAc?$AAt?$AAo?$AAo?$AAl?$AAs?$AA?2?$AAc?$AAr?$AAt?$AA_?$AAb?$AAl?$AAd?$AA?2?$AAs?$AAe?$AAl?$AAf?$AA_?$AAx?$AA8?$AA6?$AA?2?$AAc@ 004559a8     LIBCMTD:dbgheap.obj
 0002:00005a0c       ??_C@_1CE@LJFEPPMP@?$AA_?$AAC?$AAr?$AAt?$AAC?$AAh?$AAe?$AAc?$AAk?$AAM?$AAe?$AAm?$AAo?$AAr?$AAy?$AA?$CI?$AA?$CJ?$AA?$AA@ 00455a0c     LIBCMTD:dbgheap.obj
 0002:00005a30       ??_C@_1DE@KOOKLFBB@?$AA_?$AAp?$AAF?$AAi?$AAr?$AAs?$AAt?$AAB?$AAl?$AAo?$AAc?$AAk?$AA?5?$AA?$DN?$AA?$DN?$AA?5?$AAp?$AAO?$AAl?$AAd?$AAB?$AAl?$AAo?$AAc?$AAk?$AA?$AA@ 00455a30     LIBCMTD:dbgheap.obj
 0002:00005a64       ??_C@_1DC@GEFKNOOL@?$AA_?$AAp?$AAL?$AAa?$AAs?$AAt?$AAB?$AAl?$AAo?$AAc?$AAk?$AA?5?$AA?$DN?$AA?$DN?$AA?5?$AAp?$AAO?$AAl?$AAd?$AAB?$AAl?$AAo?$AAc?$AAk?$AA?$AA@ 00455a64     LIBCMTD:dbgheap.obj
 0002:00005a98       ??_C@_1GE@PCKLOLAO@?$AAf?$AAR?$AAe?$AAa?$AAl?$AAl?$AAo?$AAc?$AA?5?$AA?$HM?$AA?$HM?$AA?5?$AA?$CI?$AA?$CB?$AAf?$AAR?$AAe?$AAa?$AAl?$AAl?$AAo?$AAc?$AA?5?$AA?$CG?$AA?$CG?$AA?5?$AAp?$AAN?$AAe?$AAw?$AAB?$AAl@ 00455a98     LIBCMTD:dbgheap.obj
 0002:00005afc       ??_C@_0DA@HFBKENN@Error?3?5possible?5heap?5corruption?5@ 00455afc     LIBCMTD:dbgheap.obj
 0002:00005b30       ??_C@_1IK@DCPKDGNH@?$AAp?$AAO?$AAl?$AAd?$AAB?$AAl?$AAo?$AAc?$AAk?$AA?9?$AA?$DO?$AAn?$AAL?$AAi?$AAn?$AAe?$AA?5?$AA?$DN?$AA?$DN?$AA?5?$AAI?$AAG?$AAN?$AAO?$AAR?$AAE?$AA_?$AAL?$AAI?$AAN?$AAE?$AA?5@ 00455b30     LIBCMTD:dbgheap.obj
 0002:00005bc0       ??_C@_1EE@GFOPCECE@?$AA_?$AAC?$AAr?$AAt?$AAI?$AAs?$AAV?$AAa?$AAl?$AAi?$AAd?$AAH?$AAe?$AAa?$AAp?$AAP?$AAo?$AAi?$AAn?$AAt?$AAe?$AAr?$AA?$CI?$AAp?$AAU?$AAs?$AAe?$AAr?$AAD?$AAa?$AAt?$AAa@ 00455bc0     LIBCMTD:dbgheap.obj
 0002:00005c08       ??_C@_0EM@LGFLMAGJ@The?5Block?5at?50x?$CFp?5was?5allocated?5@ 00455c08     LIBCMTD:dbgheap.obj
 0002:00005c58       ??_C@_0FA@EFEIGJKG@Error?3?5memory?5allocation?3?5bad?5me@ 00455c58     LIBCMTD:dbgheap.obj
 0002:00005ca8       ??_C@_0ED@GPCPBAGP@Invalid?5allocation?5size?3?5?$CFIu?5byt@ 00455ca8     LIBCMTD:dbgheap.obj
 0002:00005cec       ??_C@_0CE@DOFMDOL@Client?5hook?5re?9allocation?5failur@ 00455cec     LIBCMTD:dbgheap.obj
 0002:00005d10       ??_C@_0DI@KKJPDPGM@Client?5hook?5re?9allocation?5failur@ 00455d10     LIBCMTD:dbgheap.obj
 0002:00005d48       ??_C@_1BI@HAPNGHDP@?$AA_?$AAe?$AAx?$AAp?$AAa?$AAn?$AAd?$AA_?$AAd?$AAb?$AAg?$AA?$AA@ 00455d48     LIBCMTD:dbgheap.obj
 0002:00005d60       ??_C@_1CE@CJACEFBA@?$AAp?$AAU?$AAs?$AAe?$AAr?$AAD?$AAa?$AAt?$AAa?$AA?5?$AA?$CB?$AA?$DN?$AA?5?$AAN?$AAU?$AAL?$AAL?$AA?$AA@ 00455d60     LIBCMTD:dbgheap.obj
 0002:00005d84       ??_C@_1CM@MMAADDMD@?$AA_?$AAp?$AAF?$AAi?$AAr?$AAs?$AAt?$AAB?$AAl?$AAo?$AAc?$AAk?$AA?5?$AA?$DN?$AA?$DN?$AA?5?$AAp?$AAH?$AAe?$AAa?$AAd?$AA?$AA@ 00455d84     LIBCMTD:dbgheap.obj
 0002:00005db0       ??_C@_1CK@DMAGEMBG@?$AA_?$AAp?$AAL?$AAa?$AAs?$AAt?$AAB?$AAl?$AAo?$AAc?$AAk?$AA?5?$AA?$DN?$AA?$DN?$AA?5?$AAp?$AAH?$AAe?$AAa?$AAd?$AA?$AA@ 00455db0     LIBCMTD:dbgheap.obj
 0002:00005ddc       ??_C@_1DM@ODCJIDCP@?$AAp?$AAH?$AAe?$AAa?$AAd?$AA?9?$AA?$DO?$AAn?$AAB?$AAl?$AAo?$AAc?$AAk?$AAU?$AAs?$AAe?$AA?5?$AA?$DN?$AA?$DN?$AA?5?$AAn?$AAB?$AAl?$AAo?$AAc?$AAk?$AAU?$AAs?$AAe?$AA?$AA@ 00455ddc     LIBCMTD:dbgheap.obj
 0002:00005e18       ??_C@_1HK@HPCBMDFG@?$AAp?$AAH?$AAe?$AAa?$AAd?$AA?9?$AA?$DO?$AAn?$AAL?$AAi?$AAn?$AAe?$AA?5?$AA?$DN?$AA?$DN?$AA?5?$AAI?$AAG?$AAN?$AAO?$AAR?$AAE?$AA_?$AAL?$AAI?$AAN?$AAE?$AA?5?$AA?$CG?$AA?$CG?$AA?5?$AAp@ 00455e18     LIBCMTD:dbgheap.obj
 0002:00005e98       ??_C@_0IG@LEMBDCJK@HEAP?5CORRUPTION?5DETECTED?3?5after?5@ 00455e98     LIBCMTD:dbgheap.obj
 0002:00005f20       ??_C@_0KE@MBMNHHHN@HEAP?5CORRUPTION?5DETECTED?3?5after?5@ 00455f20     LIBCMTD:dbgheap.obj
 0002:00005fc8       ??_C@_0IK@PJCGLBOB@HEAP?5CORRUPTION?5DETECTED?3?5before@ 00455fc8     LIBCMTD:dbgheap.obj
 0002:00006058       ??_C@_0KI@JGFOHMEB@HEAP?5CORRUPTION?5DETECTED?3?5before@ 00456058     LIBCMTD:dbgheap.obj
 0002:00006100       ??_C@_0BL@KEIPLFAC@Client?5hook?5free?5failure?4?6?$AA@ 00456100     LIBCMTD:dbgheap.obj
 0002:00006120       ??_C@_0EJ@HEIBCIMJ@The?5Block?5at?50x?$CFp?5was?5allocated?5@ 00456120     LIBCMTD:dbgheap.obj
 0002:0000616c       ??_C@_1BG@MBKOGDLD@?$AA_?$AAm?$AAs?$AAi?$AAz?$AAe?$AA_?$AAd?$AAb?$AAg?$AA?$AA@ 0045616c     LIBCMTD:dbgheap.obj
 0002:00006184       ??_C@_0CI@JMLBEDHJ@?$CFhs?5located?5at?50x?$CFp?5is?5?$CFIu?5bytes@ 00456184     LIBCMTD:dbgheap.obj
 0002:000061b0       ??_C@_0EG@DGJMPDBH@?$CFhs?5located?5at?50x?$CFp?5is?5?$CFIu?5bytes@ 004561b0     LIBCMTD:dbgheap.obj
 0002:000061f8       ??_C@_0IC@BBJIOOJH@HEAP?5CORRUPTION?5DETECTED?3?5on?5top@ 004561f8     LIBCMTD:dbgheap.obj
 0002:00006280       ??_C@_0KA@IHNJJKPL@HEAP?5CORRUPTION?5DETECTED?3?5on?5top@ 00456280     LIBCMTD:dbgheap.obj
 0002:00006320       ??_C@_07OHKEFPKJ@DAMAGED?$AA@ 00456320     LIBCMTD:dbgheap.obj
 0002:00006328       ??_C@_0CL@HNNNMKMJ@_heapchk?5fails?5with?5unknown?5retu@ 00456328     LIBCMTD:dbgheap.obj
 0002:00006354       ??_C@_0CC@MFFCHFHO@_heapchk?5fails?5with?5_HEAPBADPTR?4@ 00456354     LIBCMTD:dbgheap.obj
 0002:00006378       ??_C@_0CC@MJGLGBDG@_heapchk?5fails?5with?5_HEAPBADEND?4@ 00456378     LIBCMTD:dbgheap.obj
 0002:0000639c       ??_C@_0CD@CPKEAPBD@_heapchk?5fails?5with?5_HEAPBADNODE@ 0045639c     LIBCMTD:dbgheap.obj
 0002:000063c0       ??_C@_0CE@MKKHMBMK@_heapchk?5fails?5with?5_HEAPBADBEGI@ 004563c0     LIBCMTD:dbgheap.obj
 0002:000063e4       ??_C@_1BO@GJFDNMNF@?$AA_?$AAC?$AAr?$AAt?$AAS?$AAe?$AAt?$AAD?$AAb?$AAg?$AAF?$AAl?$AAa?$AAg?$AA?$AA@ 004563e4     LIBCMTD:dbgheap.obj
 0002:00006408       ??_C@_1BHO@NNANJNF@?$AA?$CI?$AAf?$AAN?$AAe?$AAw?$AAB?$AAi?$AAt?$AAs?$AA?$DN?$AA?$DN?$AA_?$AAC?$AAR?$AAT?$AAD?$AAB?$AAG?$AA_?$AAR?$AAE?$AAP?$AAO?$AAR?$AAT?$AA_?$AAF?$AAL?$AAA?$AAG?$AA?$CJ?$AA?5@ 00456408     LIBCMTD:dbgheap.obj
 0002:00006588       ??_C@_1DE@GJCKCKEC@?$AA_?$AAC?$AAr?$AAt?$AAD?$AAo?$AAF?$AAo?$AAr?$AAA?$AAl?$AAl?$AAC?$AAl?$AAi?$AAe?$AAn?$AAt?$AAO?$AAb?$AAj?$AAe?$AAc?$AAt?$AAs?$AA?$AA@ 00456588     LIBCMTD:dbgheap.obj
 0002:000065bc       ??_C@_1BI@CJGCEEDL@?$AAp?$AAf?$AAn?$AA?5?$AA?$CB?$AA?$DN?$AA?5?$AAN?$AAU?$AAL?$AAL?$AA?$AA@ 004565bc     LIBCMTD:dbgheap.obj
 0002:000065d4       ??_C@_0CB@EAAIGELO@Bad?5memory?5block?5found?5at?50x?$CFp?4?6@ 004565d4     LIBCMTD:dbgheap.obj
 0002:000065f8       ??_C@_0DP@LEFMFBOD@Bad?5memory?5block?5found?5at?50x?$CFp?4?6@ 004565f8     LIBCMTD:dbgheap.obj
 0002:00006638       ??_C@_1CE@NJJKELF@?$AA_?$AAC?$AAr?$AAt?$AAM?$AAe?$AAm?$AAC?$AAh?$AAe?$AAc?$AAk?$AAp?$AAo?$AAi?$AAn?$AAt?$AA?$AA@ 00456638     LIBCMTD:dbgheap.obj
 0002:0000665c       ??_C@_1BM@MIMANDHC@?$AAs?$AAt?$AAa?$AAt?$AAe?$AA?5?$AA?$CB?$AA?$DN?$AA?5?$AAN?$AAU?$AAL?$AAL?$AA?$AA@ 0045665c     LIBCMTD:dbgheap.obj
 0002:00006678       ??_C@_1CC@DFPEDFBP@?$AAn?$AAe?$AAw?$AAS?$AAt?$AAa?$AAt?$AAe?$AA?5?$AA?$CB?$AA?$DN?$AA?5?$AAN?$AAU?$AAL?$AAL?$AA?$AA@ 00456678     LIBCMTD:dbgheap.obj
 0002:0000669c       ??_C@_1CC@DHPFEMMN@?$AAo?$AAl?$AAd?$AAS?$AAt?$AAa?$AAt?$AAe?$AA?5?$AA?$CB?$AA?$DN?$AA?5?$AAN?$AAU?$AAL?$AAL?$AA?$AA@ 0045669c     LIBCMTD:dbgheap.obj
 0002:000066c0       ??_C@_1CE@PDIENACM@?$AA_?$AAC?$AAr?$AAt?$AAM?$AAe?$AAm?$AAD?$AAi?$AAf?$AAf?$AAe?$AAr?$AAe?$AAn?$AAc?$AAe?$AA?$AA@ 004566c0     LIBCMTD:dbgheap.obj
 0002:000066e4       ??_C@_0BH@GFGKJDCO@Object?5dump?5complete?4?6?$AA@ 004566e4     LIBCMTD:dbgheap.obj
 0002:000066fc       ??_C@_0DA@MDLBNIBM@crt?5block?5at?50x?$CFp?0?5subtype?5?$CFx?0?5?$CF@ 004566fc     LIBCMTD:dbgheap.obj
 0002:0000672c       ??_C@_0CH@FAGDDGPN@normal?5block?5at?50x?$CFp?0?5?$CFIu?5bytes?5@ 0045672c     LIBCMTD:dbgheap.obj
 0002:00006754       ??_C@_0DD@GHNAAKBB@client?5block?5at?50x?$CFp?0?5subtype?5?$CFx@ 00456754     LIBCMTD:dbgheap.obj
 0002:00006788       ??_C@_06PKLGBFGM@?$HL?$CFld?$HN?5?$AA@ 00456788     LIBCMTD:dbgheap.obj
 0002:00006790       ??_C@_0L@JMEFFCCJ@?$CFhs?$CI?$CFd?$CJ?5?3?5?$AA@ 00456790     LIBCMTD:dbgheap.obj
 0002:0000679c       ??_C@_0BE@OIEFNFL@?$CDFile?5Error?$CD?$CI?$CFd?$CJ?5?3?5?$AA@ 0045679c     LIBCMTD:dbgheap.obj
 0002:000067b0       ??_C@_0BE@KCIPKCIA@Dumping?5objects?5?9?$DO?6?$AA@ 004567b0     LIBCMTD:dbgheap.obj
 0002:000067c4       ??_C@_0BA@HJBKCELP@?5Data?3?5?$DM?$CFs?$DO?5?$CFs?6?$AA@ 004567c4     LIBCMTD:dbgheap.obj
 0002:000067d4       ??_C@_1CG@LPFIACGM@?$AA_?$AAp?$AAr?$AAi?$AAn?$AAt?$AAM?$AAe?$AAm?$AAB?$AAl?$AAo?$AAc?$AAk?$AAD?$AAa?$AAt?$AAa?$AA?$AA@ 004567d4     LIBCMTD:dbgheap.obj
 0002:000067fc       ??_C@_0BI@JBFPOEJA@Detected?5memory?5leaks?$CB?6?$AA@ 004567fc     LIBCMTD:dbgheap.obj
 0002:00006814       ??_C@_0BP@DEDHGGGI@Total?5allocations?3?5?$CFId?5bytes?4?6?$AA@ 00456814     LIBCMTD:dbgheap.obj
 0002:00006834       ??_C@_0CB@BLHDAFNE@Largest?5number?5used?3?5?$CFId?5bytes?4?6@ 00456834     LIBCMTD:dbgheap.obj
 0002:00006858       ??_C@_0BO@DACNIABB@?$CFId?5bytes?5in?5?$CFId?5?$CFhs?5Blocks?4?6?$AA@ 00456858     LIBCMTD:dbgheap.obj
 0002:00006878       ??_C@_1CM@MPNIBKGK@?$AA_?$AAC?$AAr?$AAt?$AAM?$AAe?$AAm?$AAD?$AAu?$AAm?$AAp?$AAS?$AAt?$AAa?$AAt?$AAi?$AAs?$AAt?$AAi?$AAc?$AAs?$AA?$AA@ 00456878     LIBCMTD:dbgheap.obj
 0002:000068a4       ??_C@_1DK@LFLKFPDA@?$AAo?$AAf?$AAf?$AAs?$AAe?$AAt?$AA?5?$AA?$DN?$AA?$DN?$AA?5?$AA0?$AA?5?$AA?$HM?$AA?$HM?$AA?5?$AAo?$AAf?$AAf?$AAs?$AAe?$AAt?$AA?5?$AA?$DM?$AA?5?$AAs?$AAi?$AAz?$AAe?$AA?$AA@ 004568a4     LIBCMTD:dbgheap.obj
 0002:000068e0       ??_C@_1DG@DONCJBBJ@?$AA_?$AAa?$AAl?$AAi?$AAg?$AAn?$AAe?$AAd?$AA_?$AAo?$AAf?$AAf?$AAs?$AAe?$AAt?$AA_?$AAm?$AAa?$AAl?$AAl?$AAo?$AAc?$AA_?$AAd?$AAb?$AAg?$AA?$AA@ 004568e0     LIBCMTD:dbgheap.obj
 0002:00006918       ??_C@_1CE@NPMGPNNP@?$AAI?$AAS?$AA_?$AA2?$AA_?$AAP?$AAO?$AAW?$AA_?$AAN?$AA?$CI?$AAa?$AAl?$AAi?$AAg?$AAn?$AA?$CJ?$AA?$AA@ 00456918     LIBCMTD:dbgheap.obj
 0002:0000693c       ??_C@_1DI@NINIKFFK@?$AA_?$AAa?$AAl?$AAi?$AAg?$AAn?$AAe?$AAd?$AA_?$AAo?$AAf?$AAf?$AAs?$AAe?$AAt?$AA_?$AAr?$AAe?$AAa?$AAl?$AAl?$AAo?$AAc?$AA_?$AAd?$AAb?$AAg?$AA?$AA@ 0045693c     LIBCMTD:dbgheap.obj
 0002:00006974       ??_C@_0DL@PGHMMKNE@Damage?5before?50x?$CFp?5which?5was?5all@ 00456974     LIBCMTD:dbgheap.obj
 0002:000069b0       ??_C@_0EI@NDNJMAJK@The?5block?5at?50x?$CFp?5was?5not?5alloca@ 004569b0     LIBCMTD:dbgheap.obj
 0002:000069f8       ??_C@_0EF@PGELACII@The?5block?5at?50x?$CFp?5was?5not?5alloca@ 004569f8     LIBCMTD:dbgheap.obj
 0002:00006a40       ??_C@_1CG@CEGMHIMN@?$AA_?$AAa?$AAl?$AAi?$AAg?$AAn?$AAe?$AAd?$AA_?$AAm?$AAs?$AAi?$AAz?$AAe?$AA_?$AAd?$AAb?$AAg?$AA?$AA@ 00456a40     LIBCMTD:dbgheap.obj
 0002:00006a68       ??_C@_1CC@MOBIKHH@?$AAm?$AAe?$AAm?$AAb?$AAl?$AAo?$AAc?$AAk?$AA?5?$AA?$CB?$AA?$DN?$AA?5?$AAN?$AAU?$AAL?$AAL?$AA?$AA@ 00456a68     LIBCMTD:dbgheap.obj
 0002:00006a90       ??_C@_1NK@LOFHIHFC@?$AAf?$AAM?$AAo?$AAd?$AAe?$AA?5?$AA?$DN?$AA?$DN?$AA?5?$AA_?$AAC?$AAR?$AAT?$AAD?$AAB?$AAG?$AA_?$AAR?$AAE?$AAP?$AAO?$AAR?$AAT?$AA_?$AAM?$AAO?$AAD?$AAE?$AA?5?$AA?$HM?$AA?$HM?$AA?5@ 00456a90     LIBCMTD:dbgrptt.obj
 0002:00006b6c       ??_C@_1CE@FIHIECNJ@?$AA_?$AAC?$AAr?$AAt?$AAS?$AAe?$AAt?$AAR?$AAe?$AAp?$AAo?$AAr?$AAt?$AAM?$AAo?$AAd?$AAe?$AA?$AA@ 00456b6c     LIBCMTD:dbgrptt.obj
 0002:00006b90       ??_C@_1GC@FIGJJMEN@?$AAf?$AA?3?$AA?2?$AAd?$AAd?$AA?2?$AAv?$AAc?$AAt?$AAo?$AAo?$AAl?$AAs?$AA?2?$AAc?$AAr?$AAt?$AA_?$AAb?$AAl?$AAd?$AA?2?$AAs?$AAe?$AAl?$AAf?$AA_?$AAx?$AA8?$AA6?$AA?2?$AAc@ 00456b90     LIBCMTD:dbgrptt.obj
 0002:00006bf8       ??_C@_1FA@IFFFOLDJ@?$AAn?$AAR?$AAp?$AAt?$AAT?$AAy?$AAp?$AAe?$AA?5?$AA?$DO?$AA?$DN?$AA?5?$AA0?$AA?5?$AA?$CG?$AA?$CG?$AA?5?$AAn?$AAR?$AAp?$AAt?$AAT?$AAy?$AAp?$AAe?$AA?5?$AA?$DM?$AA?5?$AA_?$AAC?$AAR?$AAT@ 00456bf8     LIBCMTD:dbgrptt.obj
 0002:00006c48       ??_C@_1CE@IKKEDCME@?$AA_?$AAC?$AAr?$AAt?$AAS?$AAe?$AAt?$AAR?$AAe?$AAp?$AAo?$AAr?$AAt?$AAF?$AAi?$AAl?$AAe?$AA?$AA@ 00456c48     LIBCMTD:dbgrptt.obj
 0002:00006c70       ??_C@_1HO@PJOFIKFE@?$AA_?$AAC?$AAr?$AAt?$AAD?$AAb?$AAg?$AAR?$AAe?$AAp?$AAo?$AAr?$AAt?$AA?3?$AA?5?$AAS?$AAt?$AAr?$AAi?$AAn?$AAg?$AA?5?$AAt?$AAo?$AAo?$AA?5?$AAl?$AAo?$AAn?$AAg?$AA?5?$AAo@ 00456c70     LIBCMTD:dbgrptt.obj
 0002:00006cf0       ??_C@_1MC@IGEECMDB@?$AAw?$AAc?$AAs?$AAc?$AAp?$AAy?$AA_?$AAs?$AA?$CI?$AAs?$AAz?$AAO?$AAu?$AAt?$AAM?$AAe?$AAs?$AAs?$AAa?$AAg?$AAe?$AA2?$AA?0?$AA?5?$AA4?$AA0?$AA9?$AA6?$AA?0?$AA?5?$AAL?$AA?$CC@ 00456cf0     LIBCMTD:dbgrptt.obj
 0002:00006db8       ??_C@_1IM@OOKIFKOH@?$AAe?$AA?5?$AA?$DN?$AA?5?$AAm?$AAb?$AAs?$AAt?$AAo?$AAw?$AAc?$AAs?$AA_?$AAs?$AA?$CI?$AA?$CG?$AAr?$AAe?$AAt?$AA?0?$AA?5?$AAs?$AAz?$AAO?$AAu?$AAt?$AAM?$AAe?$AAs?$AAs?$AAa?$AAg@ 00456db8     LIBCMTD:dbgrptt.obj
 0002:00006e48       ??_C@_1FI@IBIOIHEG@?$AAs?$AAt?$AAr?$AAc?$AAp?$AAy?$AA_?$AAs?$AA?$CI?$AAs?$AAz?$AAO?$AAu?$AAt?$AAM?$AAe?$AAs?$AAs?$AAa?$AAg?$AAe?$AA?0?$AA?5?$AA4?$AA0?$AA9?$AA6?$AA?0?$AA?5?$AAs?$AAz?$AAL@ 00456e48     LIBCMTD:dbgrptt.obj
 0002:00006ea0       ??_C@_1JG@CPKCIOEE@?$AAs?$AAt?$AAr?$AAc?$AAp?$AAy?$AA_?$AAs?$AA?$CI?$AAs?$AAz?$AAO?$AAu?$AAt?$AAM?$AAe?$AAs?$AAs?$AAa?$AAg?$AAe?$AA?0?$AA?5?$AA4?$AA0?$AA9?$AA6?$AA?0?$AA?5?$AA?$CC?$AA_?$AAC@ 00456ea0     LIBCMTD:dbgrptt.obj
 0002:00006f38       ??_C@_0M@IPILFDFN@?$CFs?$CI?$CFd?$CJ?5?3?5?$CFs?$AA@ 00456f38     LIBCMTD:dbgrptt.obj
 0002:00006f48       ??_C@_1EI@LDHJEDO@?$AAs?$AAt?$AAr?$AAc?$AAa?$AAt?$AA_?$AAs?$AA?$CI?$AAs?$AAz?$AAL?$AAi?$AAn?$AAe?$AAM?$AAe?$AAs?$AAs?$AAa?$AAg?$AAe?$AA?0?$AA?5?$AA4?$AA0?$AA9?$AA6?$AA?0?$AA?5?$AA?$CC?$AA?2@ 00456f48     LIBCMTD:dbgrptt.obj
 0002:00006f90       ??_C@_01LIIJDEN@?$AN?$AA@  00456f90     LIBCMTD:dbgrptt.obj
 0002:00006f98       ??_C@_1EI@CACDLAFK@?$AAs?$AAt?$AAr?$AAc?$AAa?$AAt?$AA_?$AAs?$AA?$CI?$AAs?$AAz?$AAL?$AAi?$AAn?$AAe?$AAM?$AAe?$AAs?$AAs?$AAa?$AAg?$AAe?$AA?0?$AA?5?$AA4?$AA0?$AA9?$AA6?$AA?0?$AA?5?$AA?$CC?$AA?2@ 00456f98     LIBCMTD:dbgrptt.obj
 0002:00006fe0       ??_C@_1FK@NPGBPOFO@?$AAs?$AAt?$AAr?$AAc?$AAa?$AAt?$AA_?$AAs?$AA?$CI?$AAs?$AAz?$AAL?$AAi?$AAn?$AAe?$AAM?$AAe?$AAs?$AAs?$AAa?$AAg?$AAe?$AA?0?$AA?5?$AA4?$AA0?$AA9?$AA6?$AA?0?$AA?5?$AAs?$AAz@ 00456fe0     LIBCMTD:dbgrptt.obj
 0002:00007040       ??_C@_1KK@GIGAEDMO@?$AAs?$AAt?$AAr?$AAc?$AAp?$AAy?$AA_?$AAs?$AA?$CI?$AAs?$AAz?$AAL?$AAi?$AAn?$AAe?$AAM?$AAe?$AAs?$AAs?$AAa?$AAg?$AAe?$AA?0?$AA?5?$AA4?$AA0?$AA9?$AA6?$AA?0?$AA?5?$AAs?$AAz@ 00457040     LIBCMTD:dbgrptt.obj
 0002:000070ec       ??_C@_0BC@LAIDCHCH@Assertion?5failed?$CB?$AA@ 004570ec     LIBCMTD:dbgrptt.obj
 0002:00007100       ??_C@_0BD@CAENFOHP@Assertion?5failed?3?5?$AA@ 00457100     LIBCMTD:dbgrptt.obj
 0002:00007114       ??_C@_0CL@EACFGMNB@_CrtDbgReport?3?5String?5too?5long?5o@ 00457114     LIBCMTD:dbgrptt.obj
 0002:00007140       ??_C@_1JI@GAALPGBM@?$AAs?$AAt?$AAr?$AAc?$AAp?$AAy?$AA_?$AAs?$AA?$CI?$AAs?$AAz?$AAU?$AAs?$AAe?$AAr?$AAM?$AAe?$AAs?$AAs?$AAa?$AAg?$AAe?$AA?0?$AA?5?$AA4?$AA0?$AA9?$AA6?$AA?0?$AA?5?$AA?$CC?$AA_@ 00457140     LIBCMTD:dbgrptt.obj
 0002:000071d8       ??_C@_07BHGABMGB@?0?5Line?5?$AA@ 004571d8     LIBCMTD:dbgrptt.obj
 0002:000071e0       ??_C@_0P@DFJNDPOP@?$DMfile?5unknown?$DO?$AA@ 004571e0     LIBCMTD:dbgrptt.obj
 0002:000071f0       ??_C@_0CG@BNGLOCEO@Second?5Chance?5Assertion?5Failed?3?5@ 004571f0     LIBCMTD:dbgrptt.obj
 0002:00007218       ??_C@_1FA@JPHJBHEM@?$AA_?$AAi?$AAt?$AAo?$AAa?$AA_?$AAs?$AA?$CI?$AAn?$AAL?$AAi?$AAn?$AAe?$AA?0?$AA?5?$AAs?$AAz?$AAL?$AAi?$AAn?$AAe?$AAM?$AAe?$AAs?$AAs?$AAa?$AAg?$AAe?$AA?0?$AA?5?$AA4?$AA0@ 00457218     LIBCMTD:dbgrptt.obj
 0002:00007268       ??_C@_1CA@KHJHLKA@?$AA_?$AAV?$AAC?$AAr?$AAt?$AAD?$AAb?$AAg?$AAR?$AAe?$AAp?$AAo?$AAr?$AAt?$AAA?$AA?$AA@ 00457268     LIBCMTD:dbgrptt.obj
 0002:00007288       ??_C@_1IE@CPGKIAGP@?$AAw?$AAc?$AAs?$AAt?$AAo?$AAm?$AAb?$AAs?$AA_?$AAs?$AA?$CI?$AA?$CG?$AAr?$AAe?$AAt?$AA?0?$AA?5?$AAs?$AAz?$AAa?$AAO?$AAu?$AAt?$AAM?$AAe?$AAs?$AAs?$AAa?$AAg?$AAe?$AA?0?$AA?5@ 00457288     LIBCMTD:dbgrptt.obj
 0002:0000730c       ??_C@_0DP@GNPEPHJD@_CrtDbgReport?3?5String?5too?5long?5o@ 0045730c     LIBCMTD:dbgrptt.obj
 0002:00007350       ??_C@_1MA@LBAMNNOB@?$AAs?$AAt?$AAr?$AAc?$AAp?$AAy?$AA_?$AAs?$AA?$CI?$AAs?$AAz?$AAO?$AAu?$AAt?$AAM?$AAe?$AAs?$AAs?$AAa?$AAg?$AAe?$AA2?$AA?0?$AA?5?$AA4?$AA0?$AA9?$AA6?$AA?0?$AA?5?$AA?$CC?$AA_@ 00457350     LIBCMTD:dbgrptt.obj
 0002:00007410       ??_C@_1JC@EOAPFDLN@?$AAw?$AAc?$AAs?$AAt?$AAo?$AAm?$AAb?$AAs?$AA_?$AAs?$AA?$CI?$AA?$CI?$AA?$CI?$AAv?$AAo?$AAi?$AAd?$AA?5?$AA?$CK?$AA?$CJ?$AA0?$AA?$CJ?$AA?0?$AA?5?$AAs?$AAz?$AAO?$AAu?$AAt?$AAM?$AAe?$AAs@ 00457410     LIBCMTD:dbgrptt.obj
 0002:000074a8       ??_C@_1FI@DBAIJPJE@?$AAw?$AAc?$AAs?$AAc?$AAp?$AAy?$AA_?$AAs?$AA?$CI?$AAs?$AAz?$AAO?$AAu?$AAt?$AAM?$AAe?$AAs?$AAs?$AAa?$AAg?$AAe?$AA?0?$AA?5?$AA4?$AA0?$AA9?$AA6?$AA?0?$AA?5?$AAs?$AAz?$AAL@ 004574a8     LIBCMTD:dbgrptt.obj
 0002:00007500       ??_C@_1BI@JIDBEPIG@?$AA?$CF?$AAs?$AA?$CI?$AA?$CF?$AAd?$AA?$CJ?$AA?5?$AA?3?$AA?5?$AA?$CF?$AAs?$AA?$AA@ 00457500     LIBCMTD:dbgrptt.obj
 0002:00007518       ??_C@_1EK@PHCBEDKB@?$AAw?$AAc?$AAs?$AAc?$AAa?$AAt?$AA_?$AAs?$AA?$CI?$AAs?$AAz?$AAL?$AAi?$AAn?$AAe?$AAM?$AAe?$AAs?$AAs?$AAa?$AAg?$AAe?$AA?0?$AA?5?$AA4?$AA0?$AA9?$AA6?$AA?0?$AA?5?$AAL?$AA?$CC@ 00457518     LIBCMTD:dbgrptt.obj
 0002:00007564       ??_C@_13CMNBPIDO@?$AA?$AN?$AA?$AA@ 00457564     LIBCMTD:dbgrptt.obj
 0002:00007568       ??_C@_1EK@NMDFGHMF@?$AAw?$AAc?$AAs?$AAc?$AAa?$AAt?$AA_?$AAs?$AA?$CI?$AAs?$AAz?$AAL?$AAi?$AAn?$AAe?$AAM?$AAe?$AAs?$AAs?$AAa?$AAg?$AAe?$AA?0?$AA?5?$AA4?$AA0?$AA9?$AA6?$AA?0?$AA?5?$AAL?$AA?$CC@ 00457568     LIBCMTD:dbgrptt.obj
 0002:000075b8       ??_C@_1FK@HPADHBBD@?$AAw?$AAc?$AAs?$AAc?$AAa?$AAt?$AA_?$AAs?$AA?$CI?$AAs?$AAz?$AAL?$AAi?$AAn?$AAe?$AAM?$AAe?$AAs?$AAs?$AAa?$AAg?$AAe?$AA?0?$AA?5?$AA4?$AA0?$AA9?$AA6?$AA?0?$AA?5?$AAs?$AAz@ 004575b8     LIBCMTD:dbgrptt.obj
 0002:00007618       ??_C@_1KO@DGAHENCH@?$AAw?$AAc?$AAs?$AAc?$AAp?$AAy?$AA_?$AAs?$AA?$CI?$AAs?$AAz?$AAL?$AAi?$AAn?$AAe?$AAM?$AAe?$AAs?$AAs?$AAa?$AAg?$AAe?$AA?0?$AA?5?$AA4?$AA0?$AA9?$AA6?$AA?0?$AA?5?$AAs?$AAz@ 00457618     LIBCMTD:dbgrptt.obj
 0002:000076c8       ??_C@_1CG@FFFGGODN@?$AAA?$AAs?$AAs?$AAe?$AAr?$AAt?$AAi?$AAo?$AAn?$AA?5?$AAf?$AAa?$AAi?$AAl?$AAe?$AAd?$AA?3?$AA?5?$AA?$AA@ 004576c8     LIBCMTD:dbgrptt.obj
 0002:000076f0       ??_C@_1JK@KHFABAEO@?$AAw?$AAc?$AAs?$AAc?$AAp?$AAy?$AA_?$AAs?$AA?$CI?$AAs?$AAz?$AAU?$AAs?$AAe?$AAr?$AAM?$AAe?$AAs?$AAs?$AAa?$AAg?$AAe?$AA?0?$AA?5?$AA4?$AA0?$AA9?$AA6?$AA?0?$AA?5?$AAL?$AA?$CC@ 004576f0     LIBCMTD:dbgrptt.obj
 0002:0000778c       ??_C@_1BA@ELMMDCFC@?$AA?0?$AA?5?$AAL?$AAi?$AAn?$AAe?$AA?5?$AA?$AA@ 0045778c     LIBCMTD:dbgrptt.obj
 0002:0000779c       ??_C@_1BO@OCHMLCAG@?$AA?$DM?$AAf?$AAi?$AAl?$AAe?$AA?5?$AAu?$AAn?$AAk?$AAn?$AAo?$AAw?$AAn?$AA?$DO?$AA?$AA@ 0045779c     LIBCMTD:dbgrptt.obj
 0002:000077c0       ??_C@_1EM@MJFLEDMB@?$AAS?$AAe?$AAc?$AAo?$AAn?$AAd?$AA?5?$AAC?$AAh?$AAa?$AAn?$AAc?$AAe?$AA?5?$AAA?$AAs?$AAs?$AAe?$AAr?$AAt?$AAi?$AAo?$AAn?$AA?5?$AAF?$AAa?$AAi?$AAl?$AAe?$AAd?$AA?3?$AA?5@ 004577c0     LIBCMTD:dbgrptt.obj
 0002:00007810       ??_C@_1FA@CNLLOMHI@?$AA_?$AAi?$AAt?$AAo?$AAw?$AA_?$AAs?$AA?$CI?$AAn?$AAL?$AAi?$AAn?$AAe?$AA?0?$AA?5?$AAs?$AAz?$AAL?$AAi?$AAn?$AAe?$AAM?$AAe?$AAs?$AAs?$AAa?$AAg?$AAe?$AA?0?$AA?5?$AA4?$AA0@ 00457810     LIBCMTD:dbgrptt.obj
 0002:00007860       ??_C@_1CA@HPALHDOD@?$AA_?$AAV?$AAC?$AAr?$AAt?$AAD?$AAb?$AAg?$AAR?$AAe?$AAp?$AAo?$AAr?$AAt?$AAW?$AA?$AA@ 00457860     LIBCMTD:dbgrptt.obj
 0002:00007880       ??_C@_1BG@KCMPBBDK@?$AA_?$AAg?$AAe?$AAt?$AA_?$AAe?$AAr?$AAr?$AAn?$AAo?$AA?$AA@ 00457880     LIBCMTD:dosmap.obj
 0002:00007898       ??_C@_1GA@MFGIMPNL@?$AAf?$AA?3?$AA?2?$AAd?$AAd?$AA?2?$AAv?$AAc?$AAt?$AAo?$AAo?$AAl?$AAs?$AA?2?$AAc?$AAr?$AAt?$AA_?$AAb?$AAl?$AAd?$AA?2?$AAs?$AAe?$AAl?$AAf?$AA_?$AAx?$AA8?$AA6?$AA?2?$AAc@ 00457898     LIBCMTD:dosmap.obj
 0002:000078f8       ??_C@_1BO@LKEBEKJP@?$AAp?$AAV?$AAa?$AAl?$AAu?$AAe?$AA?5?$AA?$CB?$AA?$DN?$AA?5?$AAN?$AAU?$AAL?$AAL?$AA?$AA@ 004578f8     LIBCMTD:dosmap.obj
 0002:00007918       ??_C@_1BM@INIPHHDD@?$AA_?$AAg?$AAe?$AAt?$AA_?$AAd?$AAo?$AAs?$AAe?$AAr?$AAr?$AAn?$AAo?$AA?$AA@ 00457918     LIBCMTD:dosmap.obj
 0002:00007934       ??_C@_0P@MIGLKIOC@CorExitProcess?$AA@ 00457934     LIBCMTD:crt0dat.obj
 0002:00007944       ??_C@_1BI@BGOHAHKC@?$AAm?$AAs?$AAc?$AAo?$AAr?$AAe?$AAe?$AA?4?$AAd?$AAl?$AAl?$AA?$AA@ 00457944     LIBCMTD:crt0dat.obj
 0002:0000795c       ??_C@_1CC@CDIPMFPD@?$AA_?$AAw?$AAp?$AAg?$AAm?$AAp?$AAt?$AAr?$AA?5?$AA?$CB?$AA?$DN?$AA?5?$AAN?$AAU?$AAL?$AAL?$AA?$AA@ 0045795c     LIBCMTD:crt0dat.obj
 0002:00007980       ??_C@_1BK@PNLDCCDP@?$AA_?$AAg?$AAe?$AAt?$AA_?$AAw?$AAp?$AAg?$AAm?$AAp?$AAt?$AAr?$AA?$AA@ 00457980     LIBCMTD:crt0dat.obj
 0002:000079a0       ??_C@_1GC@DGCPEDNJ@?$AAf?$AA?3?$AA?2?$AAd?$AAd?$AA?2?$AAv?$AAc?$AAt?$AAo?$AAo?$AAl?$AAs?$AA?2?$AAc?$AAr?$AAt?$AA_?$AAb?$AAl?$AAd?$AA?2?$AAs?$AAe?$AAl?$AAf?$AA_?$AAx?$AA8?$AA6?$AA?2?$AAc@ 004579a0     LIBCMTD:crt0dat.obj
 0002:00007a04       ??_C@_1CA@BBNAFCKO@?$AA_?$AAp?$AAg?$AAm?$AAp?$AAt?$AAr?$AA?5?$AA?$CB?$AA?$DN?$AA?5?$AAN?$AAU?$AAL?$AAL?$AA?$AA@ 00457a04     LIBCMTD:crt0dat.obj
 0002:00007a24       ??_C@_1BI@COAAPHJK@?$AA_?$AAg?$AAe?$AAt?$AA_?$AAp?$AAg?$AAm?$AAp?$AAt?$AAr?$AA?$AA@ 00457a24     LIBCMTD:crt0dat.obj
 0002:00007a3c       ??_C@_1O@EJLDHPPL@?$AAs?$AAi?$AAg?$AAn?$AAa?$AAl?$AA?$AA@ 00457a3c     LIBCMTD:winsig.obj
 0002:00007a50       ??_C@_1GA@DBECNFG@?$AAf?$AA?3?$AA?2?$AAd?$AAd?$AA?2?$AAv?$AAc?$AAt?$AAo?$AAo?$AAl?$AAs?$AA?2?$AAc?$AAr?$AAt?$AA_?$AAb?$AAl?$AAd?$AA?2?$AAs?$AAe?$AAl?$AAf?$AA_?$AAx?$AA8?$AA6?$AA?2?$AAc@ 00457a50     LIBCMTD:winsig.obj
 0002:00007ab0       ??_C@_1DO@MLNEDKGB@?$AA?$CI?$AA?$CC?$AAI?$AAn?$AAv?$AAa?$AAl?$AAi?$AAd?$AA?5?$AAs?$AAi?$AAg?$AAn?$AAa?$AAl?$AA?5?$AAo?$AAr?$AA?5?$AAe?$AAr?$AAr?$AAo?$AAr?$AA?$CC?$AA?0?$AA?5?$AA0?$AA?$CJ?$AA?$AA@ 00457ab0     LIBCMTD:winsig.obj
 0002:00007af0       ??_C@_0DA@ELJOOIJF@f?3?2dd?2vctools?2crt_bld?2self_x86?2c@ 00457af0     LIBCMTD:winsig.obj
 0002:00007b20       ??_C@_1M@DMJEIKHL@?$AAr?$AAa?$AAi?$AAs?$AAe?$AA?$AA@ 00457b20     LIBCMTD:winsig.obj
 0002:00007b2c       ??_C@_0BI@DFKBFLJE@GetProcessWindowStation?$AA@ 00457b2c     LIBCMTD:crtmboxw.obj
 0002:00007b44       ??_C@_0BK@DEKFELLI@GetUserObjectInformationW?$AA@ 00457b44     LIBCMTD:crtmboxw.obj
 0002:00007b60       ??_C@_0BD@HHGDFDBJ@GetLastActivePopup?$AA@ 00457b60     LIBCMTD:crtmboxw.obj
 0002:00007b74       ??_C@_0BA@HNOPNCHB@GetActiveWindow?$AA@ 00457b74     LIBCMTD:crtmboxw.obj
 0002:00007b84       ??_C@_0M@DLDCCGNP@MessageBoxW?$AA@ 00457b84     LIBCMTD:crtmboxw.obj
 0002:00007b90       ??_C@_1BG@GOEBHBDC@?$AAU?$AAS?$AAE?$AAR?$AA3?$AA2?$AA?4?$AAD?$AAL?$AAL?$AA?$AA@ 00457b90     LIBCMTD:crtmboxw.obj
 0002:00007ba8       ??_C@_1CC@OLIJCKA@?$AA?$CI?$AAs?$AAt?$AAr?$AAi?$AAn?$AAg?$AA?5?$AA?$CB?$AA?$DN?$AA?5?$AAN?$AAU?$AAL?$AAL?$AA?$CJ?$AA?$AA@ 00457ba8     LIBCMTD:swprintf.obj
 0002:00007bcc       ??_C@_1BE@BMIJMLDD@?$AA_?$AAs?$AAw?$AAp?$AAr?$AAi?$AAn?$AAt?$AAf?$AA?$AA@ 00457bcc     LIBCMTD:swprintf.obj
 0002:00007be0       ??_C@_1GE@DKGHLBLP@?$AAf?$AA?3?$AA?2?$AAd?$AAd?$AA?2?$AAv?$AAc?$AAt?$AAo?$AAo?$AAl?$AAs?$AA?2?$AAc?$AAr?$AAt?$AA_?$AAb?$AAl?$AAd?$AA?2?$AAs?$AAe?$AAl?$AAf?$AA_?$AAx?$AA8?$AA6?$AA?2?$AAc@ 00457be0     LIBCMTD:swprintf.obj
 0002:00007c44       ??_C@_1CC@MGIEJOME@?$AA?$CI?$AAf?$AAo?$AAr?$AAm?$AAa?$AAt?$AA?5?$AA?$CB?$AA?$DN?$AA?5?$AAN?$AAU?$AAL?$AAL?$AA?$CJ?$AA?$AA@ 00457c44     LIBCMTD:swprintf.obj
 0002:00007c68       ??_C@_1CK@DDKKOLAN@?$AAs?$AAi?$AAz?$AAe?$AAI?$AAn?$AAB?$AAy?$AAt?$AAe?$AAs?$AA?5?$AA?$DO?$AA?$DN?$AA?5?$AAc?$AAo?$AAu?$AAn?$AAt?$AA?$AA@ 00457c68     LIBCMTD:memcpy_s.obj
 0002:00007c94       ??_C@_1BI@DCHLDCPP@?$AAs?$AAr?$AAc?$AA?5?$AA?$CB?$AA?$DN?$AA?5?$AAN?$AAU?$AAL?$AAL?$AA?$AA@ 00457c94     LIBCMTD:memcpy_s.obj
 0002:00007cac       ??_C@_1BC@GKHDJMGB@?$AAm?$AAe?$AAm?$AAc?$AAp?$AAy?$AA_?$AAs?$AA?$AA@ 00457cac     LIBCMTD:memcpy_s.obj
 0002:00007cc0       ??_C@_1GE@NEOPGGBM@?$AAf?$AA?3?$AA?2?$AAd?$AAd?$AA?2?$AAv?$AAc?$AAt?$AAo?$AAo?$AAl?$AAs?$AA?2?$AAc?$AAr?$AAt?$AA_?$AAb?$AAl?$AAd?$AA?2?$AAs?$AAe?$AAl?$AAf?$AA_?$AAx?$AA8?$AA6?$AA?2?$AAc@ 00457cc0     LIBCMTD:memcpy_s.obj
 0002:00007d24       ??_C@_1BI@GKKCBDMD@?$AAd?$AAs?$AAt?$AA?5?$AA?$CB?$AA?$DN?$AA?5?$AAN?$AAU?$AAL?$AAL?$AA?$AA@ 00457d24     LIBCMTD:memcpy_s.obj
 0002:00007d40       __indefinite               00457d40     LIBCMTD:_87disp_.obj
 0002:00007d4a       __piby2                    00457d4a     LIBCMTD:_87disp_.obj
 0002:00007d78       __DEFAULT_CW_in_mem        00457d78     LIBCMTD:_common_.obj
 0002:00007d7a       __pi_by_2_to_61            00457d7a     LIBCMTD:_common_.obj
 0002:00007db8       ??_C@_1GE@KOCFNGPB@?$AA_?$AAc?$AAo?$AAn?$AAt?$AAr?$AAo?$AAl?$AAf?$AAp?$AA_?$AAs?$AA?$CI?$AA?$CI?$AA?$CI?$AAv?$AAo?$AAi?$AAd?$AA?5?$AA?$CK?$AA?$CJ?$AA0?$AA?$CJ?$AA?0?$AA?5?$AA0?$AAx?$AA0?$AA0?$AA0?$AA1@ 00457db8     LIBCMTD:fp8.obj
 0002:00007e1c       ??_C@_1CK@JMKHCBEI@?$AA_?$AAs?$AAe?$AAt?$AAd?$AAe?$AAf?$AAa?$AAu?$AAl?$AAt?$AAp?$AAr?$AAe?$AAc?$AAi?$AAs?$AAi?$AAo?$AAn?$AA?$AA@ 00457e1c     LIBCMTD:fp8.obj
 0002:00007e48       ??_C@_1GG@PHGJJHBC@?$AAf?$AA?3?$AA?2?$AAd?$AAd?$AA?2?$AAv?$AAc?$AAt?$AAo?$AAo?$AAl?$AAs?$AA?2?$AAc?$AAr?$AAt?$AA_?$AAb?$AAl?$AAd?$AA?2?$AAs?$AAe?$AAl?$AAf?$AA_?$AAx?$AA8?$AA6?$AA?2?$AAc@ 00457e48     LIBCMTD:fp8.obj
 0002:00007eb0       __real@0000000000000000    00457eb0     LIBCMTD:cvt.obj
 0002:00007eb8       ??_C@_1CA@CBMNPEO@?$AAs?$AAi?$AAz?$AAe?$AAI?$AAn?$AAB?$AAy?$AAt?$AAe?$AAs?$AA?5?$AA?$DO?$AA?5?$AA0?$AA?$AA@ 00457eb8     LIBCMTD:cvt.obj
 0002:00007ed8       ??_C@_1BC@INKAPMHI@?$AA_?$AAc?$AAf?$AAt?$AAo?$AAe?$AA_?$AAl?$AA?$AA@ 00457ed8     LIBCMTD:cvt.obj
 0002:00007ef0       ??_C@_1GO@NCCGBNKI@?$AAf?$AA?3?$AA?2?$AAd?$AAd?$AA?2?$AAv?$AAc?$AAt?$AAo?$AAo?$AAl?$AAs?$AA?2?$AAc?$AAr?$AAt?$AA_?$AAb?$AAl?$AAd?$AA?2?$AAs?$AAe?$AAl?$AAf?$AA_?$AAx?$AA8?$AA6?$AA?2?$AAc@ 00457ef0     LIBCMTD:cvt.obj
 0002:00007f60       ??_C@_1BI@ICGGMGLK@?$AAb?$AAu?$AAf?$AA?5?$AA?$CB?$AA?$DN?$AA?5?$AAN?$AAU?$AAL?$AAL?$AA?$AA@ 00457f60     LIBCMTD:cvt.obj
 0002:00007f78       ??_C@_05KLBDPFGC@e?$CL000?$AA@ 00457f78     LIBCMTD:cvt.obj
 0002:00007f80       ??_C@_1LE@EOIFGNCJ@?$AAs?$AAt?$AAr?$AAc?$AAp?$AAy?$AA_?$AAs?$AA?$CI?$AAp?$AA?0?$AA?5?$AA?$CI?$AAs?$AAi?$AAz?$AAe?$AAI?$AAn?$AAB?$AAy?$AAt?$AAe?$AAs?$AA?5?$AA?$DN?$AA?$DN?$AA?5?$AA?$CI?$AAs?$AAi?$AAz@ 00457f80     LIBCMTD:cvt.obj
 0002:00008038       ??_C@_1HE@NACBNDPP@?$AAs?$AAi?$AAz?$AAe?$AAI?$AAn?$AAB?$AAy?$AAt?$AAe?$AAs?$AA?5?$AA?$DO?$AA?5?$AA?$CI?$AAs?$AAi?$AAz?$AAe?$AA_?$AAt?$AA?$CJ?$AA?$CI?$AA3?$AA?5?$AA?$CL?$AA?5?$AA?$CI?$AAn?$AAd?$AAe?$AAc@ 00458038     LIBCMTD:cvt.obj
 0002:000080ac       ??_C@_1BE@OLBNEILL@?$AA_?$AAc?$AAf?$AAt?$AAo?$AAe?$AA2?$AA_?$AAl?$AA?$AA@ 004580ac     LIBCMTD:cvt.obj
 0002:000080c0       ??_C@_1FC@IKIMAMJB@?$AAs?$AAi?$AAz?$AAe?$AAI?$AAn?$AAB?$AAy?$AAt?$AAe?$AAs?$AA?5?$AA?$DO?$AA?5?$AA?$CI?$AAs?$AAi?$AAz?$AAe?$AA_?$AAt?$AA?$CJ?$AA?$CI?$AA1?$AA?5?$AA?$CL?$AA?5?$AA4?$AA?5?$AA?$CL?$AA?5?$AAn@ 004580c0     LIBCMTD:cvt.obj
 0002:00008114       ??_C@_1BC@JOKPCIC@?$AA_?$AAc?$AAf?$AAt?$AAo?$AAa?$AA_?$AAl?$AA?$AA@ 00458114     LIBCMTD:cvt.obj
 0002:00008128       ??_C@_1BC@DCPPLJL@?$AA_?$AAc?$AAf?$AAt?$AAo?$AAf?$AA_?$AAl?$AA?$AA@ 00458128     LIBCMTD:cvt.obj
 0002:0000813c       ??_C@_1BE@CKPDLI@?$AA_?$AAc?$AAf?$AAt?$AAo?$AAf?$AA2?$AA_?$AAl?$AA?$AA@ 0045813c     LIBCMTD:cvt.obj
 0002:00008150       ??_C@_1BC@MPIFPLAF@?$AA_?$AAc?$AAf?$AAt?$AAo?$AAg?$AA_?$AAl?$AA?$AA@ 00458150     LIBCMTD:cvt.obj
 0002:00008164       ??_C@_1BC@CFJEPFGF@?$AAs?$AAt?$AAr?$AAc?$AAp?$AAy?$AA_?$AAs?$AA?$AA@ 00458164     LIBCMTD:strcpy_s.obj
 0002:00008178       ??_C@_1FC@NCPEPIBI@?$AA?$CI?$AA?$CI?$AA_?$AAD?$AAs?$AAt?$AA?$CJ?$AA?$CJ?$AA?5?$AA?$CB?$AA?$DN?$AA?5?$AAN?$AAU?$AAL?$AAL?$AA?5?$AA?$CG?$AA?$CG?$AA?5?$AA?$CI?$AA?$CI?$AA_?$AAS?$AAi?$AAz?$AAe?$AAI?$AAn?$AAB?$AAy?$AAt@ 00458178     LIBCMTD:strcpy_s.obj
 0002:000081cc       ??_C@_1CM@HABGDNLJ@?$AAl?$AAe?$AAn?$AAg?$AAt?$AAh?$AA?5?$AA?$DM?$AA?5?$AAs?$AAi?$AAz?$AAe?$AAI?$AAn?$AAT?$AAC?$AAh?$AAa?$AAr?$AAs?$AA?$AA@ 004581cc     LIBCMTD:xtows.obj
 0002:000081f8       ??_C@_1DE@PCJGDBBD@?$AA2?$AA?5?$AA?$DM?$AA?$DN?$AA?5?$AAr?$AAa?$AAd?$AAi?$AAx?$AA?5?$AA?$CG?$AA?$CG?$AA?5?$AAr?$AAa?$AAd?$AAi?$AAx?$AA?5?$AA?$DM?$AA?$DN?$AA?5?$AA3?$AA6?$AA?$AA@ 004581f8     LIBCMTD:xtows.obj
 0002:00008230       ??_C@_1FA@MKGGAGEI@?$AAs?$AAi?$AAz?$AAe?$AAI?$AAn?$AAT?$AAC?$AAh?$AAa?$AAr?$AAs?$AA?5?$AA?$DO?$AA?5?$AA?$CI?$AAs?$AAi?$AAz?$AAe?$AA_?$AAt?$AA?$CJ?$AA?$CI?$AAi?$AAs?$AA_?$AAn?$AAe?$AAg?$AA?5?$AA?$DP@ 00458230     LIBCMTD:xtows.obj
 0002:00008280       ??_C@_1CC@JNJFIMGE@?$AAs?$AAi?$AAz?$AAe?$AAI?$AAn?$AAT?$AAC?$AAh?$AAa?$AAr?$AAs?$AA?5?$AA?$DO?$AA?5?$AA0?$AA?$AA@ 00458280     LIBCMTD:xtows.obj
 0002:000082a4       ??_C@_1O@NCBFODOE@?$AAx?$AAt?$AAo?$AAw?$AA_?$AAs?$AA?$AA@ 004582a4     LIBCMTD:xtows.obj
 0002:000082b8       ??_C@_1FM@MFCBFCGB@?$AAf?$AA?3?$AA?2?$AAd?$AAd?$AA?2?$AAv?$AAc?$AAt?$AAo?$AAo?$AAl?$AAs?$AA?2?$AAc?$AAr?$AAt?$AA_?$AAb?$AAl?$AAd?$AA?2?$AAs?$AAe?$AAl?$AAf?$AA_?$AAx?$AA8?$AA6?$AA?2?$AAc@ 004582b8     LIBCMTD:xtows.obj
 0002:00008314       ??_C@_1BC@HDEJCFPB@?$AAx?$AA6?$AA4?$AAt?$AAo?$AAw?$AA_?$AAs?$AA?$AA@ 00458314     LIBCMTD:xtows.obj
 0002:00008328       ??_C@_1BE@KPKIKKCF@?$AAw?$AAc?$AAs?$AAn?$AAc?$AAa?$AAt?$AA_?$AAs?$AA?$AA@ 00458328     LIBCMTD:wcsncat_s.obj
 0002:00008340       ??_C@_1GK@DICCLCDF@?$AAf?$AA?3?$AA?2?$AAd?$AAd?$AA?2?$AAv?$AAc?$AAt?$AAo?$AAo?$AAl?$AAs?$AA?2?$AAc?$AAr?$AAt?$AA_?$AAb?$AAl?$AAd?$AA?2?$AAs?$AAe?$AAl?$AAf?$AA_?$AAx?$AA8?$AA6?$AA?2?$AAc@ 00458340     LIBCMTD:wcsncat_s.obj
 0002:000083ac       ??_C@_1BE@PMMBFFCC@?$AAw?$AAc?$AAs?$AAn?$AAc?$AAp?$AAy?$AA_?$AAs?$AA?$AA@ 004583ac     LIBCMTD:wcsncpy_s.obj
 0002:000083c0       ??_C@_1GK@PAJJBKJF@?$AAf?$AA?3?$AA?2?$AAd?$AAd?$AA?2?$AAv?$AAc?$AAt?$AAo?$AAo?$AAl?$AAs?$AA?2?$AAc?$AAr?$AAt?$AA_?$AAb?$AAl?$AAd?$AA?2?$AAs?$AAe?$AAl?$AAf?$AA_?$AAx?$AA8?$AA6?$AA?2?$AAc@ 004583c0     LIBCMTD:wcsncpy_s.obj
 0002:0000842c       ??_C@_1BC@BHLPNJBO@?$AAf?$AAw?$AAp?$AAr?$AAi?$AAn?$AAt?$AAf?$AA?$AA@ 0045842c     LIBCMTD:fwprintf.obj
 0002:00008440       ??_C@_1GE@NIBJAMDO@?$AAf?$AA?3?$AA?2?$AAd?$AAd?$AA?2?$AAv?$AAc?$AAt?$AAo?$AAo?$AAl?$AAs?$AA?2?$AAc?$AAr?$AAt?$AA_?$AAb?$AAl?$AAd?$AA?2?$AAs?$AAe?$AAl?$AAf?$AA_?$AAx?$AA8?$AA6?$AA?2?$AAc@ 00458440     LIBCMTD:fwprintf.obj
 0002:000084a4       ??_C@_1BM@JMKHIAHP@?$AA?$CI?$AAs?$AAt?$AAr?$AA?5?$AA?$CB?$AA?$DN?$AA?5?$AAN?$AAU?$AAL?$AAL?$AA?$CJ?$AA?$AA@ 004584a4     LIBCMTD:fwprintf.obj
 0002:000084c0       ??_C@_0DB@MIGHMKAN@f?3?2dd?2vctools?2crt_bld?2self_x86?2c@ 004584c0     LIBCMTD:setvbuf.obj
 0002:000084f8       ??_C@_1EG@IJNJIDNB@?$AA?$CI?$AA?$CI?$AA2?$AA?5?$AA?$DM?$AA?$DN?$AA?5?$AAs?$AAi?$AAz?$AAe?$AA?$CJ?$AA?5?$AA?$CG?$AA?$CG?$AA?5?$AA?$CI?$AAs?$AAi?$AAz?$AAe?$AA?5?$AA?$DM?$AA?$DN?$AA?5?$AAI?$AAN?$AAT?$AA_?$AAM?$AAA?$AAX@ 004584f8     LIBCMTD:setvbuf.obj
 0002:00008540       ??_C@_1HC@CBFEDAGG@?$AA?$CI?$AAt?$AAy?$AAp?$AAe?$AA?5?$AA?$DN?$AA?$DN?$AA?5?$AA_?$AAI?$AAO?$AAN?$AAB?$AAF?$AA?$CJ?$AA?5?$AA?$HM?$AA?$HM?$AA?5?$AA?$CI?$AAt?$AAy?$AAp?$AAe?$AA?5?$AA?$DN?$AA?$DN?$AA?5?$AA_?$AAI?$AAO@ 00458540     LIBCMTD:setvbuf.obj
 0002:000085b4       ??_C@_1BA@OGODIODK@?$AAs?$AAe?$AAt?$AAv?$AAb?$AAu?$AAf?$AA?$AA@ 004585b4     LIBCMTD:setvbuf.obj
 0002:000085c8       ??_C@_1GC@FPPJLAOD@?$AAf?$AA?3?$AA?2?$AAd?$AAd?$AA?2?$AAv?$AAc?$AAt?$AAo?$AAo?$AAl?$AAs?$AA?2?$AAc?$AAr?$AAt?$AA_?$AAb?$AAl?$AAd?$AA?2?$AAs?$AAe?$AAl?$AAf?$AA_?$AAx?$AA8?$AA6?$AA?2?$AAc@ 004585c8     LIBCMTD:setvbuf.obj
 0002:0000862c       ??_C@_0CP@BNKDODJJ@f?3?2dd?2vctools?2crt_bld?2self_x86?2c@ 0045862c     LIBCMTD:_file.obj
 0002:0000865c       ??_C@_1CA@LFDHAMEM@?$AA_?$AAs?$AAe?$AAt?$AA_?$AAe?$AAr?$AAr?$AAo?$AAr?$AA_?$AAm?$AAo?$AAd?$AAe?$AA?$AA@ 0045865c     LIBCMTD:errmode.obj
 0002:00008680       ??_C@_1GC@FGMGFCNB@?$AAf?$AA?3?$AA?2?$AAd?$AAd?$AA?2?$AAv?$AAc?$AAt?$AAo?$AAo?$AAl?$AAs?$AA?2?$AAc?$AAr?$AAt?$AA_?$AAb?$AAl?$AAd?$AA?2?$AAs?$AAe?$AAl?$AAf?$AA_?$AAx?$AA8?$AA6?$AA?2?$AAc@ 00458680     LIBCMTD:errmode.obj
 0002:000086e4       ??_C@_1DE@BCNCAIK@?$AA?$CI?$AA?$CC?$AAI?$AAn?$AAv?$AAa?$AAl?$AAi?$AAd?$AA?5?$AAe?$AAr?$AAr?$AAo?$AAr?$AA_?$AAm?$AAo?$AAd?$AAe?$AA?$CC?$AA?0?$AA?5?$AA0?$AA?$CJ?$AA?$AA@ 004586e4     LIBCMTD:errmode.obj
 0002:00008718       ??_C@_1EC@FABAOFFO@?$AA?$CI?$AAc?$AAo?$AAu?$AAn?$AAt?$AA?5?$AA?$DN?$AA?$DN?$AA?5?$AA0?$AA?$CJ?$AA?5?$AA?$HM?$AA?$HM?$AA?5?$AA?$CI?$AAs?$AAt?$AAr?$AAi?$AAn?$AAg?$AA?5?$AA?$CB?$AA?$DN?$AA?5?$AAN?$AAU?$AAL?$AAL?$AA?$CJ@ 00458718     LIBCMTD:vswprnc.obj
 0002:0000875c       ??_C@_1CE@IGKFIJFD@?$AA_?$AAv?$AAs?$AAw?$AAp?$AAr?$AAi?$AAn?$AAt?$AAf?$AA_?$AAh?$AAe?$AAl?$AAp?$AAe?$AAr?$AA?$AA@ 0045875c     LIBCMTD:vswprnc.obj
 0002:00008780       ??_C@_1GE@KINELFI@?$AAf?$AA?3?$AA?2?$AAd?$AAd?$AA?2?$AAv?$AAc?$AAt?$AAo?$AAo?$AAl?$AAs?$AA?2?$AAc?$AAr?$AAt?$AA_?$AAb?$AAl?$AAd?$AA?2?$AAs?$AAe?$AAl?$AAf?$AA_?$AAx?$AA8?$AA6?$AA?2?$AAc@ 00458780     LIBCMTD:vswprnc.obj
 0002:000087e4       ??_C@_1DA@HPBFKMEB@?$AA?$CI?$AA?$CC?$AAB?$AAu?$AAf?$AAf?$AAe?$AAr?$AA?5?$AAt?$AAo?$AAo?$AA?5?$AAs?$AAm?$AAa?$AAl?$AAl?$AA?$CC?$AA?0?$AA?5?$AA0?$AA?$CJ?$AA?$AA@ 004587e4     LIBCMTD:vswprnc.obj
 0002:00008818       ??_C@_1EE@MPCHJFGP@?$AAs?$AAt?$AAr?$AAi?$AAn?$AAg?$AA?5?$AA?$CB?$AA?$DN?$AA?5?$AAN?$AAU?$AAL?$AAL?$AA?5?$AA?$CG?$AA?$CG?$AA?5?$AAs?$AAi?$AAz?$AAe?$AAI?$AAn?$AAW?$AAo?$AAr?$AAd?$AAs?$AA?5?$AA?$DO?$AA?5@ 00458818     LIBCMTD:vswprnc.obj
 0002:0000885c       ??_C@_1BO@OALHJLCI@?$AA_?$AAv?$AAs?$AAw?$AAp?$AAr?$AAi?$AAn?$AAt?$AAf?$AA_?$AAs?$AA_?$AAl?$AA?$AA@ 0045885c     LIBCMTD:vswprnc.obj
 0002:0000887c       ??_C@_1BO@MLMCMBKN@?$AAf?$AAo?$AAr?$AAm?$AAa?$AAt?$AA?5?$AA?$CB?$AA?$DN?$AA?5?$AAN?$AAU?$AAL?$AAL?$AA?$AA@ 0045887c     LIBCMTD:vswprnc.obj
 0002:0000889c       ??_C@_1CA@BKFKMJFF@?$AA_?$AAv?$AAs?$AAn?$AAw?$AAp?$AAr?$AAi?$AAn?$AAt?$AAf?$AA_?$AAs?$AA_?$AAl?$AA?$AA@ 0045889c     LIBCMTD:vswprnc.obj
 0002:000088c0       __XcptActTab               004588c0     LIBCMTD:winxfltr.obj
 0002:00008950       __First_FPE_Indx           00458950     LIBCMTD:winxfltr.obj
 0002:00008954       __Num_FPE                  00458954     LIBCMTD:winxfltr.obj
 0002:00008958       __XcptActTabSize           00458958     LIBCMTD:winxfltr.obj
 0002:0000895c       __XcptActTabCount          0045895c     LIBCMTD:winxfltr.obj
 0002:00008960       ??_C@_1DE@MMOGFGHF@?$AAs?$AAt?$AAr?$AAc?$AAp?$AAy?$AA_?$AAs?$AA?$CI?$AA?$CK?$AAe?$AAn?$AAv?$AA?0?$AA?5?$AAc?$AAc?$AAh?$AAa?$AAr?$AAs?$AA?0?$AA?5?$AAp?$AA?$CJ?$AA?$AA@ 00458960     LIBCMTD:stdenvp.obj
 0002:00008994       ??_C@_1BC@GHMCNHHL@?$AA_?$AAs?$AAe?$AAt?$AAe?$AAn?$AAv?$AAp?$AA?$AA@ 00458994     LIBCMTD:stdenvp.obj
 0002:000089a8       ??_C@_1GC@DGBFLDBN@?$AAf?$AA?3?$AA?2?$AAd?$AAd?$AA?2?$AAv?$AAc?$AAt?$AAo?$AAo?$AAl?$AAs?$AA?2?$AAc?$AAr?$AAt?$AA_?$AAb?$AAl?$AAd?$AA?2?$AAs?$AAe?$AAl?$AAf?$AA_?$AAx?$AA8?$AA6?$AA?2?$AAc@ 004589a8     LIBCMTD:stdenvp.obj
 0002:00008a0c       ??_C@_0DB@BMEBJJKP@f?3?2dd?2vctools?2crt_bld?2self_x86?2c@ 00458a0c     LIBCMTD:stdenvp.obj
 0002:00008a40       ??_C@_0DB@OEPBJOLC@f?3?2dd?2vctools?2crt_bld?2self_x86?2c@ 00458a40     LIBCMTD:stdargv.obj
 0002:00008a74       ??_C@_0CP@PPLBCJDN@f?3?2dd?2vctools?2crt_bld?2self_x86?2c@ 00458a74     LIBCMTD:a_env.obj
 0002:00008aa4       ??_C@_0DA@NBLAKPEL@f?3?2dd?2vctools?2crt_bld?2self_x86?2c@ 00458aa4     LIBCMTD:ioinit.obj
 0002:00008ad8       ??_C@_1GE@JDDMFOID@?$AAf?$AA?3?$AA?2?$AAd?$AAd?$AA?2?$AAv?$AAc?$AAt?$AAo?$AAo?$AAl?$AAs?$AA?2?$AAc?$AAr?$AAt?$AA_?$AAb?$AAl?$AAd?$AA?2?$AAs?$AAe?$AAl?$AAf?$AA_?$AAx?$AA8?$AA6?$AA?2?$AAc@ 00458ad8     LIBCMTD:heapinit.obj
 0002:00008b3c       ??_C@_1BC@DENNNKIM@?$AA_?$AAc?$AAr?$AAt?$AAh?$AAe?$AAa?$AAp?$AA?$AA@ 00458b3c     LIBCMTD:heapinit.obj
 0002:00008b88       ??_C@_01KDCPPGHE@r?$AA@    00458b88     LIBCMTD:_pdblkup_.obj
 0002:00008b8c       ??_C@_0BB@KCIACLNC@PDBOpenValidate5?$AA@ 00458b8c     LIBCMTD:_pdblkup_.obj
 0002:00008ba0       ??_C@_1CK@HHHCOJPD@?$AAE?$AAn?$AAv?$AAi?$AAr?$AAo?$AAn?$AAm?$AAe?$AAn?$AAt?$AAD?$AAi?$AAr?$AAe?$AAc?$AAt?$AAo?$AAr?$AAy?$AA?$AA@ 00458ba0     LIBCMTD:_pdblkup_.obj
 0002:00008bd0       ??_C@_1FM@DNCABAP@?$AAS?$AAO?$AAF?$AAT?$AAW?$AAA?$AAR?$AAE?$AA?2?$AAM?$AAi?$AAc?$AAr?$AAo?$AAs?$AAo?$AAf?$AAt?$AA?2?$AAV?$AAi?$AAs?$AAu?$AAa?$AAl?$AAS?$AAt?$AAu?$AAd?$AAi?$AAo?$AA?2@ 00458bd0     LIBCMTD:_pdblkup_.obj
 0002:00008c2c       ??_C@_0M@HLOHPNFA@RegCloseKey?$AA@ 00458c2c     LIBCMTD:_pdblkup_.obj
 0002:00008c38       ??_C@_0BB@GLNAEDBD@RegQueryValueExW?$AA@ 00458c38     LIBCMTD:_pdblkup_.obj
 0002:00008c4c       ??_C@_0O@COHOBMLB@RegOpenKeyExW?$AA@ 00458c4c     LIBCMTD:_pdblkup_.obj
 0002:00008c5c       ??_C@_1BK@GAEMIDIL@?$AAA?$AAD?$AAV?$AAA?$AAP?$AAI?$AA3?$AA2?$AA?4?$AAD?$AAL?$AAL?$AA?$AA@ 00458c5c     LIBCMTD:_pdblkup_.obj
 0002:00008c94       ??_C@_03KHICJKCI@?4?4?4?$AA@ 00458c94     LIBCMTD:dbgrpt.obj
 0002:00008c98       ??_C@_0BB@NAGLCMLI@Assertion?5Failed?$AA@ 00458c98     LIBCMTD:dbgrpt.obj
 0002:00008cac       ??_C@_05NAOIJFC@Error?$AA@ 00458cac     LIBCMTD:dbgrpt.obj
 0002:00008cb4       ??_C@_07KGMMFLDN@Warning?$AA@ 00458cb4     LIBCMTD:dbgrpt.obj
 0002:00008cc8       ??_C@_1CG@GNMJDMIO@?$AA_?$AAC?$AAr?$AAt?$AAS?$AAe?$AAt?$AAR?$AAe?$AAp?$AAo?$AAr?$AAt?$AAH?$AAo?$AAo?$AAk?$AA2?$AA?$AA@ 00458cc8     LIBCMTD:dbgrpt.obj
 0002:00008cf0       ??_C@_0CD@EBCGLDDL@Microsoft?5Visual?5C?$CL?$CL?5Debug?5Libra@ 00458cf0     LIBCMTD:dbgrpt.obj
 0002:00008d18       ??_C@_0FF@CCONDJCB@Debug?5?$CFs?$CB?6?6Program?3?5?$CFs?$CFs?$CFs?$CFs?$CFs?$CFs@ 00458d18     LIBCMTD:dbgrpt.obj
 0002:00008d70       ??_C@_09OFBFHMBK@?6Module?3?5?$AA@ 00458d70     LIBCMTD:dbgrpt.obj
 0002:00008d7c       ??_C@_07OPHPPLBG@?6File?3?5?$AA@ 00458d7c     LIBCMTD:dbgrpt.obj
 0002:00008d84       ??_C@_07DBMPPHDI@?6Line?3?5?$AA@ 00458d84     LIBCMTD:dbgrpt.obj
 0002:00008d8c       ??_C@_02PHMGELLB@?6?6?$AA@ 00458d8c     LIBCMTD:dbgrpt.obj
 0002:00008d90       ??_C@_0N@MEECIJGN@Expression?3?5?$AA@ 00458d90     LIBCMTD:dbgrpt.obj
 0002:00008da0       ??_C@_0HD@GNBNFCCL@?6?6For?5information?5on?5how?5your?5pr@ 00458da0     LIBCMTD:dbgrpt.obj
 0002:00008e14       ??_C@_0BH@DNAGHKFM@?$DMprogram?5name?5unknown?$DO?$AA@ 00458e14     LIBCMTD:dbgrpt.obj
 0002:00008e30       ??_C@_1GG@DLDHOIGE@?$AAs?$AAt?$AAr?$AAc?$AAp?$AAy?$AA_?$AAs?$AA?$CI?$AAs?$AAz?$AAE?$AAx?$AAe?$AAN?$AAa?$AAm?$AAe?$AA?0?$AA?5?$AA2?$AA6?$AA0?$AA?0?$AA?5?$AA?$CC?$AA?$DM?$AAp?$AAr?$AAo?$AAg?$AAr@ 00458e30     LIBCMTD:dbgrpt.obj
 0002:00008e98       ??_C@_1CI@IDOKFLAJ@?$AA_?$AA_?$AAc?$AAr?$AAt?$AAM?$AAe?$AAs?$AAs?$AAa?$AAg?$AAe?$AAW?$AAi?$AAn?$AAd?$AAo?$AAw?$AAA?$AA?$AA@ 00458e98     LIBCMTD:dbgrpt.obj
 0002:00008ec0       ??_C@_0BK@CFCOFLF@?5Complete?5Object?5Locator?8?$AA@ 00458ec0     LIBCMTD:undname.obj
 0002:00008edc       ??_C@_0BN@MECKDCOJ@?5Class?5Hierarchy?5Descriptor?8?$AA@ 00458edc     LIBCMTD:undname.obj
 0002:00008efc       ??_C@_0BD@LGICGFMM@?5Base?5Class?5Array?8?$AA@ 00458efc     LIBCMTD:undname.obj
 0002:00008f10       ??_C@_0BM@LDKODKLH@?5Base?5Class?5Descriptor?5at?5?$CI?$AA@ 00458f10     LIBCMTD:undname.obj
 0002:00008f2c       ??_C@_0BC@DAFEJGAK@?5Type?5Descriptor?8?$AA@ 00458f2c     LIBCMTD:undname.obj
 0002:00008f40       ??_C@_0BM@PMGGMLDN@?$GAlocal?5static?5thread?5guard?8?$AA@ 00458f40     LIBCMTD:undname.obj
 0002:00008f5c       ??_C@_0CL@FGIJHLCE@?$GAmanaged?5vector?5copy?5constructor@ 00458f5c     LIBCMTD:undname.obj
 0002:00008f88       ??_C@_0CJ@GJELGAMM@?$GAvector?5vbase?5copy?5constructor?5i@ 00458f88     LIBCMTD:undname.obj
 0002:00008fb4       ??_C@_0CD@CGAJBKEJ@?$GAvector?5copy?5constructor?5iterato@ 00458fb4     LIBCMTD:undname.obj
 0002:00008fd8       ??_C@_0CB@PDBIFEP@?$GAdynamic?5atexit?5destructor?5for?5?8@ 00458fd8     LIBCMTD:undname.obj
 0002:00008ffc       ??_C@_0BL@CLIPGLGB@?$GAdynamic?5initializer?5for?5?8?$AA@ 00458ffc     LIBCMTD:undname.obj
 0002:00009018       ??_C@_0CM@FCBBDIGB@?$GAeh?5vector?5vbase?5copy?5constructo@ 00459018     LIBCMTD:undname.obj
 0002:00009044       ??_C@_0CG@HLDDJMAG@?$GAeh?5vector?5copy?5constructor?5iter@ 00459044     LIBCMTD:undname.obj
 0002:0000906c       ??_C@_0CF@IMGKMJNO@?$GAmanaged?5vector?5destructor?5itera@ 0045906c     LIBCMTD:undname.obj
 0002:00009094       ??_C@_0CG@CFDHKGGD@?$GAmanaged?5vector?5constructor?5iter@ 00459094     LIBCMTD:undname.obj
 0002:000090bc       ??_C@_0BN@CKNJLHMB@?$GAplacement?5delete?$FL?$FN?5closure?8?$AA@ 004590bc     LIBCMTD:undname.obj
 0002:000090dc       ??_C@_0BL@CNOONJFP@?$GAplacement?5delete?5closure?8?$AA@ 004590dc     LIBCMTD:undname.obj
 0002:000090f8       ??_C@_0P@HJKNJFNN@?$GAomni?5callsig?8?$AA@ 004590f8     LIBCMTD:undname.obj
 0002:00009108       ??_C@_09LBNFPBCA@?5delete?$FL?$FN?$AA@ 00459108     LIBCMTD:undname.obj
 0002:00009114       ??_C@_06FHBGPFGH@?5new?$FL?$FN?$AA@ 00459114     LIBCMTD:undname.obj
 0002:0000911c       ??_C@_0CE@IIHCMGGL@?$GAlocal?5vftable?5constructor?5closu@ 0045911c     LIBCMTD:undname.obj
 0002:00009140       ??_C@_0BA@KKLDJDLB@?$GAlocal?5vftable?8?$AA@ 00459140     LIBCMTD:undname.obj
 0002:00009150       ??_C@_05KHLCHHI@?$GARTTI?$AA@ 00459150     LIBCMTD:undname.obj
 0002:00009158       ??_C@_03KLGMFNMG@?$GAEH?$AA@ 00459158     LIBCMTD:undname.obj
 0002:0000915c       ??_C@_0BA@KBCDOMBN@?$GAudt?5returning?8?$AA@ 0045915c     LIBCMTD:undname.obj
 0002:0000916c       ??_C@_0BL@LLKPOHJI@?$GAcopy?5constructor?5closure?8?$AA@ 0045916c     LIBCMTD:undname.obj
 0002:00009188       ??_C@_0CH@OOJPLCPH@?$GAeh?5vector?5vbase?5constructor?5ite@ 00459188     LIBCMTD:undname.obj
 0002:000091b0       ??_C@_0CA@GCEOPDGL@?$GAeh?5vector?5destructor?5iterator?8?$AA@ 004591b0     LIBCMTD:undname.obj
 0002:000091d0       ??_C@_0CB@JONCMFFK@?$GAeh?5vector?5constructor?5iterator?8@ 004591d0     LIBCMTD:undname.obj
 0002:000091f4       ??_C@_0BL@NILFHHPC@?$GAvirtual?5displacement?5map?8?$AA@ 004591f4     LIBCMTD:undname.obj
 0002:00009210       ??_C@_0CE@IKBNEHA@?$GAvector?5vbase?5constructor?5iterat@ 00459210     LIBCMTD:undname.obj
 0002:00009234       ??_C@_0BN@LFPFMEDL@?$GAvector?5destructor?5iterator?8?$AA@ 00459234     LIBCMTD:undname.obj
 0002:00009254       ??_C@_0BO@PFGOCPJJ@?$GAvector?5constructor?5iterator?8?$AA@ 00459254     LIBCMTD:undname.obj
 0002:00009274       ??_C@_0BN@IMDCHIKM@?$GAscalar?5deleting?5destructor?8?$AA@ 00459274     LIBCMTD:undname.obj
 0002:00009294       ??_C@_0BO@OBMKPJIG@?$GAdefault?5constructor?5closure?8?$AA@ 00459294     LIBCMTD:undname.obj
 0002:000092b4       ??_C@_0BN@DEGPLNFK@?$GAvector?5deleting?5destructor?8?$AA@ 004592b4     LIBCMTD:undname.obj
 0002:000092d4       ??_C@_0BD@JDLKDPAB@?$GAvbase?5destructor?8?$AA@ 004592d4     LIBCMTD:undname.obj
 0002:000092e8       ??_C@_08OBABFOLI@?$GAstring?8?$AA@ 004592e8     LIBCMTD:undname.obj
 0002:000092f4       ??_C@_0BF@KDPPACIK@?$GAlocal?5static?5guard?8?$AA@ 004592f4     LIBCMTD:undname.obj
 0002:0000930c       ??_C@_08LLFFHHDJ@?$GAtypeof?8?$AA@ 0045930c     LIBCMTD:undname.obj
 0002:00009318       ??_C@_07FEEIOKP@?$GAvcall?8?$AA@ 00459318     LIBCMTD:undname.obj
 0002:00009320       ??_C@_09BLBHBJP@?$GAvbtable?8?$AA@ 00459320     LIBCMTD:undname.obj
 0002:0000932c       ??_C@_09IFPLHPGF@?$GAvftable?8?$AA@ 0045932c     LIBCMTD:undname.obj
 0002:00009338       ??_C@_02MHEGNOJ@?$FO?$DN?$AA@ 00459338     LIBCMTD:undname.obj
 0002:0000933c       ??_C@_02DHLNPPGH@?$HM?$DN?$AA@ 0045933c     LIBCMTD:undname.obj
 0002:00009340       ??_C@_02FGJGFEAB@?$CG?$DN?$AA@ 00459340     LIBCMTD:undname.obj
 0002:00009344       ??_C@_03CDNPDDLA@?$DM?$DM?$DN?$AA@ 00459344     LIBCMTD:undname.obj
 0002:00009348       ??_C@_03IKFCCPFF@?$DO?$DO?$DN?$AA@ 00459348     LIBCMTD:undname.obj
 0002:0000934c       ??_C@_02FENAOKFI@?$CF?$DN?$AA@ 0045934c     LIBCMTD:undname.obj
 0002:00009350       ??_C@_02FJEHGPIO@?1?$DN?$AA@ 00459350     LIBCMTD:undname.obj
 0002:00009354       ??_C@_02FKMDLLOA@?9?$DN?$AA@ 00459354     LIBCMTD:undname.obj
 0002:00009358       ??_C@_02FOEOMHFC@?$CL?$DN?$AA@ 00459358     LIBCMTD:undname.obj
 0002:0000935c       ??_C@_02FPIMKNGF@?$CK?$DN?$AA@ 0045935c     LIBCMTD:undname.obj
 0002:00009360       ??_C@_02NONPIBCD@?$HM?$HM?$AA@ 00459360     LIBCMTD:undname.obj
 0002:00009364       ??_C@_02PPKAJPJL@?$CG?$CG?$AA@ 00459364     LIBCMTD:undname.obj
 0002:00009368       ??_C@_01DNKMNLPK@?$HM?$AA@ 00459368     LIBCMTD:undname.obj
 0002:0000936c       ??_C@_01JKBOJNNK@?$FO?$AA@ 0045936c     LIBCMTD:undname.obj
 0002:00009370       ??_C@_01PJKLJHI@?$HO?$AA@  00459370     LIBCMTD:undname.obj
 0002:00009374       ??_C@_02HCKGKOFO@?$CI?$CJ?$AA@ 00459374     LIBCMTD:undname.obj
 0002:00009378       ??_C@_01IHBHIGKO@?0?$AA@   00459378     LIBCMTD:undname.obj
 0002:0000937c       ??_C@_02EEKDKGMJ@?$DO?$DN?$AA@ 0045937c     LIBCMTD:undname.obj
 0002:00009380       ??_C@_01PPODPGHN@?$DO?$AA@ 00459380     LIBCMTD:undname.obj
 0002:00009384       ??_C@_02EHCHHCKH@?$DM?$DN?$AA@ 00459384     LIBCMTD:undname.obj
 0002:00009388       ??_C@_01MNNFJEPP@?$DM?$AA@ 00459388     LIBCMTD:undname.obj
 0002:0000938c       ??_C@_01FGNFDNOH@?$CF?$AA@ 0045938c     LIBCMTD:undname.obj
 0002:00009390       ??_C@_01KMDKNFGN@?1?$AA@   00459390     LIBCMTD:undname.obj
 0002:00009394       ??_C@_03MNHNFDLC@?9?$DO?$CK?$AA@ 00459394     LIBCMTD:undname.obj
 0002:00009398       ??_C@_01HNPIGOCE@?$CG?$AA@ 00459398     LIBCMTD:undname.obj
 0002:0000939c       ??_C@_01MIFGBAGJ@?$CL?$AA@ 0045939c     LIBCMTD:undname.obj
 0002:000093a0       ??_C@_01JOAMLHOP@?9?$AA@   004593a0     LIBCMTD:undname.obj
 0002:000093a4       ??_C@_02BAABKJLB@?9?9?$AA@ 004593a4     LIBCMTD:undname.obj
 0002:000093a8       ??_C@_02ECNGHCIF@?$CL?$CL?$AA@ 004593a8     LIBCMTD:undname.obj
 0002:000093ac       ??_C@_01NBENCBCI@?$CK?$AA@ 004593ac     LIBCMTD:undname.obj
 0002:000093b0       ??_C@_02HBOOOICD@?9?$DO?$AA@ 004593b0     LIBCMTD:undname.obj
 0002:000093b4       ??_C@_08LHJFAFGD@operator?$AA@ 004593b4     LIBCMTD:undname.obj
 0002:000093c0       ??_C@_02GPECMEKF@?$FL?$FN?$AA@ 004593c0     LIBCMTD:undname.obj
 0002:000093c4       ??_C@_02FDNJECIE@?$CB?$DN?$AA@ 004593c4     LIBCMTD:undname.obj
 0002:000093c8       ??_C@_02EGOFBIJA@?$DN?$DN?$AA@ 004593c8     LIBCMTD:undname.obj
 0002:000093cc       ??_C@_01DCLJPIOD@?$CB?$AA@ 004593cc     LIBCMTD:undname.obj
 0002:000093d0       ??_C@_02FODMEDOG@?$DM?$DM?$AA@ 004593d0     LIBCMTD:undname.obj
 0002:000093d4       ??_C@_02GPIOPFAK@?$DO?$DO?$AA@ 004593d4     LIBCMTD:undname.obj
 0002:000093d8       ??_C@_01NEMOKFLO@?$DN?$AA@ 004593d8     LIBCMTD:undname.obj
 0002:000093dc       ??_C@_07FPCDHGMM@?5delete?$AA@ 004593dc     LIBCMTD:undname.obj
 0002:000093e4       ??_C@_04NIHEBCM@?5new?$AA@ 004593e4     LIBCMTD:undname.obj
 0002:000093ec       ??_C@_0M@GFIIJFMG@__unaligned?$AA@ 004593ec     LIBCMTD:undname.obj
 0002:000093f8       ??_C@_0L@PILCLIHE@__restrict?$AA@ 004593f8     LIBCMTD:undname.obj
 0002:00009404       ??_C@_07JOMMBBKO@__ptr64?$AA@ 00459404     LIBCMTD:undname.obj
 0002:0000940c       ??_C@_06GHPCKEAG@__eabi?$AA@ 0045940c     LIBCMTD:undname.obj
 0002:00009414       ??_C@_09HIJEGCPM@__clrcall?$AA@ 00459414     LIBCMTD:undname.obj
 0002:00009420       ??_C@_0L@JMKHOMEK@__fastcall?$AA@ 00459420     LIBCMTD:undname.obj
 0002:0000942c       ??_C@_0L@NPHFGOKO@__thiscall?$AA@ 0045942c     LIBCMTD:undname.obj
 0002:00009438       ??_C@_09IFJBGAPI@__stdcall?$AA@ 00459438     LIBCMTD:undname.obj
 0002:00009444       ??_C@_08GHMPAG@__pascal?$AA@ 00459444     LIBCMTD:undname.obj
 0002:00009450       ??_C@_07KOLFKCDI@__cdecl?$AA@ 00459450     LIBCMTD:undname.obj
 0002:00009458       ??_C@_08EHJDFFNH@__based?$CI?$AA@ 00459458     LIBCMTD:undname.obj
 0002:000095ec       ??_C@_04HEJADOOB@CV?3?5?$AA@ 004595ec     LIBCMTD:undname.obj
 0002:000095f4       ??_C@_02MOLJINC@?3?3?$AA@  004595f4     LIBCMTD:undname.obj
 0002:000095f8       ??_C@_01GEODFPGF@?8?$AA@   004595f8     LIBCMTD:undname.obj
 0002:000095fc       ??_C@_01NLNLIGKH@?$GA?$AA@ 004595fc     LIBCMTD:undname.obj
 0002:00009600       ??_C@_0O@KHGCOMHP@generic?9type?9?$AA@ 00459600     LIBCMTD:undname.obj
 0002:00009610       ??_C@_0BE@JAEOCHPE@template?9parameter?9?$AA@ 00459610     LIBCMTD:undname.obj
 0002:00009624       ??_C@_02OHHJMEON@?8?8?$AA@ 00459624     LIBCMTD:undname.obj
 0002:00009628       ??_C@_0BG@JNJLAMPM@?$GAanonymous?5namespace?8?$AA@ 00459628     LIBCMTD:undname.obj
 0002:00009640       ??_C@_0BN@IBLMMFAP@?$GAnon?9type?9template?9parameter?$AA@ 00459640     LIBCMTD:undname.obj
 0002:00009660       ??_C@_0BE@EODMJLIF@?$GAtemplate?9parameter?$AA@ 00459660     LIBCMTD:undname.obj
 0002:00009674       ??_C@_04GKJNKENE@void?$AA@ 00459674     LIBCMTD:undname.obj
 0002:0000967c       ??_C@_04HIBGFPH@NULL?$AA@  0045967c     LIBCMTD:undname.obj
 0002:00009684       ??_C@_0M@DHNBOJMP@extern?5?$CCC?$CC?5?$AA@ 00459684     LIBCMTD:undname.obj
 0002:00009690       ??_C@_08KJLFOPNE@?$FLthunk?$FN?3?$AA@ 00459690     LIBCMTD:undname.obj
 0002:0000969c       ??_C@_08GPDDCMKI@public?3?5?$AA@ 0045969c     LIBCMTD:undname.obj
 0002:000096a8       ??_C@_0M@GAIFPFIP@protected?3?5?$AA@ 004596a8     LIBCMTD:undname.obj
 0002:000096b4       ??_C@_09LAPHOOG@private?3?5?$AA@ 004596b4     LIBCMTD:undname.obj
 0002:000096c0       ??_C@_08NIEOINHE@virtual?5?$AA@ 004596c0     LIBCMTD:undname.obj
 0002:000096cc       ??_C@_07PGOEDBHP@static?5?$AA@ 004596cc     LIBCMTD:undname.obj
 0002:000096d4       ??_C@_0DA@HGFJFBBE@?$GAtemplate?5static?5data?5member?5des@ 004596d4     LIBCMTD:undname.obj
 0002:00009704       ??_C@_0DB@ILEFOCIJ@?$GAtemplate?5static?5data?5member?5con@ 00459704     LIBCMTD:undname.obj
 0002:00009738       ??_C@_0CB@KJDOOODE@?$GAlocal?5static?5destructor?5helper?8@ 00459738     LIBCMTD:undname.obj
 0002:0000975c       ??_C@_0L@HNGCOGAE@?$GAadjustor?$HL?$AA@ 0045975c     LIBCMTD:undname.obj
 0002:00009768       ??_C@_0L@GHPFDFH@?$GAvtordisp?$HL?$AA@ 00459768     LIBCMTD:undname.obj
 0002:00009774       ??_C@_0N@CBHHHENL@?$GAvtordispex?$HL?$AA@ 00459774     LIBCMTD:undname.obj
 0002:00009784       ??_C@_01CLKCMJKC@?5?$AA@   00459784     LIBCMTD:undname.obj
 0002:00009788       ??_C@_02IGFCGPIL@?$HN?8?$AA@ 00459788     LIBCMTD:undname.obj
 0002:0000978c       ??_C@_03OPGICMGF@?$HN?8?5?$AA@ 0045978c     LIBCMTD:undname.obj
 0002:00009790       ??_C@_02KCKGHPCA@?$CJ?5?$AA@ 00459790     LIBCMTD:undname.obj
 0002:00009794       ??_C@_05BEFAKPML@void?5?$AA@ 00459794     LIBCMTD:undname.obj
 0002:0000979c       ??_C@_0P@GCOCNKDM@std?3?3nullptr_t?$AA@ 0045979c     LIBCMTD:undname.obj
 0002:000097ac       ??_C@_08PABEKFH@volatile?$AA@ 004597ac     LIBCMTD:undname.obj
 0002:000097b8       ??_C@_0M@ELJOJFFH@?0?$DMellipsis?$DO?$AA@ 004597b8     LIBCMTD:undname.obj
 0002:000097c4       ??_C@_04EENFHACM@?0?4?4?4?$AA@ 004597c4     LIBCMTD:undname.obj
 0002:000097cc       ??_C@_0L@EGPHHEKN@?$DMellipsis?$DO?$AA@ 004597cc     LIBCMTD:undname.obj
 0002:000097d8       ??_C@_07HDJPLPEK@?5throw?$CI?$AA@ 004597d8     LIBCMTD:undname.obj
 0002:000097e0       ??_C@_09EFNPDFFP@?5volatile?$AA@ 004597e0     LIBCMTD:undname.obj
 0002:000097ec       ??_C@_05BNCCCJPP@const?$AA@ 004597ec     LIBCMTD:undname.obj
 0002:000097f4       ??_C@_07EDHNAJHC@signed?5?$AA@ 004597f4     LIBCMTD:undname.obj
 0002:000097fc       ??_C@_09EBBEKKIH@unsigned?5?$AA@ 004597fc     LIBCMTD:undname.obj
 0002:00009808       ??_C@_07NFANNNEC@UNKNOWN?$AA@ 00459808     LIBCMTD:undname.obj
 0002:00009810       ??_C@_06GCICPBLB@__w64?5?$AA@ 00459810     LIBCMTD:undname.obj
 0002:00009818       ??_C@_07CLGGIAMF@wchar_t?$AA@ 00459818     LIBCMTD:undname.obj
 0002:00009820       ??_C@_09EEKGDCPH@?$DMunknown?$DO?$AA@ 00459820     LIBCMTD:undname.obj
 0002:0000982c       ??_C@_08GAHOLHEO@__int128?$AA@ 0045982c     LIBCMTD:undname.obj
 0002:00009838       ??_C@_07LFCOJCAC@__int64?$AA@ 00459838     LIBCMTD:undname.obj
 0002:00009840       ??_C@_07OFLPPHGP@__int32?$AA@ 00459840     LIBCMTD:undname.obj
 0002:00009848       ??_C@_07ICFHOGAF@__int16?$AA@ 00459848     LIBCMTD:undname.obj
 0002:00009850       ??_C@_06EBGKOKIG@__int8?$AA@ 00459850     LIBCMTD:undname.obj
 0002:00009858       ??_C@_04DDKJGDCM@bool?$AA@ 00459858     LIBCMTD:undname.obj
 0002:00009860       ??_C@_06BNJCAIGJ@double?$AA@ 00459860     LIBCMTD:undname.obj
 0002:00009868       ??_C@_05CJIMAING@long?5?$AA@ 00459868     LIBCMTD:undname.obj
 0002:00009870       ??_C@_05KNFBNCOH@float?$AA@ 00459870     LIBCMTD:undname.obj
 0002:00009878       ??_C@_04GOKPGOLB@long?$AA@ 00459878     LIBCMTD:undname.obj
 0002:00009880       ??_C@_03JBIPMCLC@int?$AA@  00459880     LIBCMTD:undname.obj
 0002:00009884       ??_C@_05BFKKPKCG@short?$AA@ 00459884     LIBCMTD:undname.obj
 0002:0000988c       ??_C@_04ENMBGAPA@char?$AA@ 0045988c     LIBCMTD:undname.obj
 0002:00009894       ??_C@_05LJGMCFOG@enum?5?$AA@ 00459894     LIBCMTD:undname.obj
 0002:0000989c       ??_C@_0N@DLIEFKNA@cointerface?5?$AA@ 0045989c     LIBCMTD:undname.obj
 0002:000098ac       ??_C@_08KOFANOFK@coclass?5?$AA@ 004598ac     LIBCMTD:undname.obj
 0002:000098b8       ??_C@_06LJBABKPM@class?5?$AA@ 004598b8     LIBCMTD:undname.obj
 0002:000098c0       ??_C@_07DIBCDNGL@struct?5?$AA@ 004598c0     LIBCMTD:undname.obj
 0002:000098c8       ??_C@_06MOJHIBMG@union?5?$AA@ 004598c8     LIBCMTD:undname.obj
 0002:000098d0       ??_C@_0P@GCIFDJCJ@?$GAunknown?5ecsu?8?$AA@ 004598d0     LIBCMTD:undname.obj
 0002:000098e0       ??_C@_04LAHKHJMA@int?5?$AA@ 004598e0     LIBCMTD:undname.obj
 0002:000098e8       ??_C@_06EHJMALKF@short?5?$AA@ 004598e8     LIBCMTD:undname.obj
 0002:000098f0       ??_C@_05CIHEBHNO@char?5?$AA@ 004598f0     LIBCMTD:undname.obj
 0002:000098f8       ??_C@_06LIJLOJAG@const?5?$AA@ 004598f8     LIBCMTD:undname.obj
 0002:00009900       ??_C@_09GAIEOBLP@volatile?5?$AA@ 00459900     LIBCMTD:undname.obj
 0002:0000990c       ??_C@_0O@GKABPPIF@cli?3?3pin_ptr?$DM?$AA@ 0045990c     LIBCMTD:undname.obj
 0002:0000991c       ??_C@_0M@EALIELKG@cli?3?3array?$DM?$AA@ 0045991c     LIBCMTD:undname.obj
 0002:00009928       ??_C@_02GOGNNPBN@?$CJ?$FL?$AA@ 00459928     LIBCMTD:undname.obj
 0002:0000992c       ??_C@_06EEGAIFAK@?$HLflat?$HN?$AA@ 0045992c     LIBCMTD:undname.obj
 0002:00009934       ??_C@_02MDINNEEG@s?5?$AA@  00459934     LIBCMTD:undname.obj
 0002:00009938       ??_C@_05JIBOFOHK@?$HLfor?5?$AA@ 00459938     LIBCMTD:undname.obj
 0002:00009940       ??_7DNameNode@@6B@         00459940     LIBCMTD:undname.obj
 0002:0000994c       ??_7charNode@@6B@          0045994c     LIBCMTD:undname.obj
 0002:00009958       ??_7pcharNode@@6B@         00459958     LIBCMTD:undname.obj
 0002:00009964       ??_7pDNameNode@@6B@        00459964     LIBCMTD:undname.obj
 0002:00009970       ??_7DNameStatusNode@@6B@   00459970     LIBCMTD:undname.obj
 0002:0000997c       ??_C@_04OKOHEJBO@?5?$DP?$DP?5?$AA@ 0045997c     LIBCMTD:undname.obj
 0002:00009984       ??_7pairNode@@6B@          00459984     LIBCMTD:undname.obj
 0002:00009990       ??_C@_1BE@NDMJHJJG@?$AAs?$AAt?$AAr?$AAn?$AAc?$AAp?$AAy?$AA_?$AAs?$AA?$AA@ 00459990     LIBCMTD:strncpy_s.obj
 0002:000099a8       ??_C@_1GA@INJGGEBC@?$AAf?$AA?3?$AA?2?$AAd?$AAd?$AA?2?$AAv?$AAc?$AAt?$AAo?$AAo?$AAl?$AAs?$AA?2?$AAc?$AAr?$AAt?$AA_?$AAb?$AAl?$AAd?$AA?2?$AAs?$AAe?$AAl?$AAf?$AA_?$AAx?$AA8?$AA6?$AA?2?$AAc@ 004599a8     LIBCMTD:a_loc.obj
 0002:00009a08       ??_C@_1FE@KNPCCODH@?$AA?$CI?$AA?$CC?$AAC?$AAo?$AAr?$AAr?$AAu?$AAp?$AAt?$AAe?$AAd?$AA?5?$AAp?$AAo?$AAi?$AAn?$AAt?$AAe?$AAr?$AA?5?$AAp?$AAa?$AAs?$AAs?$AAe?$AAd?$AA?5?$AAt?$AAo?$AA?5?$AA_?$AAf@ 00459a08     LIBCMTD:a_loc.obj
 0002:00009a60       ??_C@_1GE@HMAALBPJ@?$AAf?$AA?3?$AA?2?$AAd?$AAd?$AA?2?$AAv?$AAc?$AAt?$AAo?$AAo?$AAl?$AAs?$AA?2?$AAc?$AAr?$AAt?$AA_?$AAb?$AAl?$AAd?$AA?2?$AAs?$AAe?$AAl?$AAf?$AA_?$AAx?$AA8?$AA6?$AA?2?$AAc@ 00459a60     LIBCMTD:localref.obj
 0002:00009ac8       ??_C@_1BKC@GGIENNAK@?$AA?$CI?$AA?$CI?$AAp?$AAt?$AAl?$AAo?$AAc?$AAi?$AA?9?$AA?$DO?$AAl?$AAc?$AA_?$AAc?$AAa?$AAt?$AAe?$AAg?$AAo?$AAr?$AAy?$AA?$FL?$AAc?$AAa?$AAt?$AAe?$AAg?$AAo?$AAr?$AAy?$AA?$FN?$AA?4@ 00459ac8     LIBCMTD:localref.obj
 0002:00009c6c       ??_C@_1BC@GDGBMEMK@?$AAH?$AAH?$AA?3?$AAm?$AAm?$AA?3?$AAs?$AAs?$AA?$AA@ 00459c6c     LIBCMTD:nlsdata2.obj
 0002:00009c80       ??_C@_1CI@KNAKOEBC@?$AAd?$AAd?$AAd?$AAd?$AA?0?$AA?5?$AAM?$AAM?$AAM?$AAM?$AA?5?$AAd?$AAd?$AA?0?$AA?5?$AAy?$AAy?$AAy?$AAy?$AA?$AA@ 00459c80     LIBCMTD:nlsdata2.obj
 0002:00009ca8       ??_C@_1BC@IEBCMHCM@?$AAM?$AAM?$AA?1?$AAd?$AAd?$AA?1?$AAy?$AAy?$AA?$AA@ 00459ca8     LIBCMTD:nlsdata2.obj
 0002:00009cbc       ??_C@_15CLMNNGEL@?$AAP?$AAM?$AA?$AA@ 00459cbc     LIBCMTD:nlsdata2.obj
 0002:00009cc4       ??_C@_15ODEHAHHF@?$AAA?$AAM?$AA?$AA@ 00459cc4     LIBCMTD:nlsdata2.obj
 0002:00009ccc       ??_C@_1BC@FEMKIFH@?$AAD?$AAe?$AAc?$AAe?$AAm?$AAb?$AAe?$AAr?$AA?$AA@ 00459ccc     LIBCMTD:nlsdata2.obj
 0002:00009ce0       ??_C@_1BC@BGLIFPF@?$AAN?$AAo?$AAv?$AAe?$AAm?$AAb?$AAe?$AAr?$AA?$AA@ 00459ce0     LIBCMTD:nlsdata2.obj
 0002:00009cf4       ??_C@_1BA@EPANDLNG@?$AAO?$AAc?$AAt?$AAo?$AAb?$AAe?$AAr?$AA?$AA@ 00459cf4     LIBCMTD:nlsdata2.obj
 0002:00009d04       ??_C@_1BE@DKAAMBJL@?$AAS?$AAe?$AAp?$AAt?$AAe?$AAm?$AAb?$AAe?$AAr?$AA?$AA@ 00459d04     LIBCMTD:nlsdata2.obj
 0002:00009d18       ??_C@_1O@PAHLKOAC@?$AAA?$AAu?$AAg?$AAu?$AAs?$AAt?$AA?$AA@ 00459d18     LIBCMTD:nlsdata2.obj
 0002:00009d28       ??_C@_19BIFMLPCD@?$AAJ?$AAu?$AAl?$AAy?$AA?$AA@ 00459d28     LIBCMTD:nlsdata2.obj
 0002:00009d34       ??_C@_19EPFLPGAP@?$AAJ?$AAu?$AAn?$AAe?$AA?$AA@ 00459d34     LIBCMTD:nlsdata2.obj
 0002:00009d40       ??_C@_1M@GJNLMHFD@?$AAA?$AAp?$AAr?$AAi?$AAl?$AA?$AA@ 00459d40     LIBCMTD:nlsdata2.obj
 0002:00009d4c       ??_C@_1M@IKEENEDF@?$AAM?$AAa?$AAr?$AAc?$AAh?$AA?$AA@ 00459d4c     LIBCMTD:nlsdata2.obj
 0002:00009d58       ??_C@_1BC@JGDDFFAM@?$AAF?$AAe?$AAb?$AAr?$AAu?$AAa?$AAr?$AAy?$AA?$AA@ 00459d58     LIBCMTD:nlsdata2.obj
 0002:00009d6c       ??_C@_1BA@EFMEIEBA@?$AAJ?$AAa?$AAn?$AAu?$AAa?$AAr?$AAy?$AA?$AA@ 00459d6c     LIBCMTD:nlsdata2.obj
 0002:00009d7c       ??_C@_17EGKACKIF@?$AAD?$AAe?$AAc?$AA?$AA@ 00459d7c     LIBCMTD:nlsdata2.obj
 0002:00009d84       ??_C@_17BBDMLCIG@?$AAN?$AAo?$AAv?$AA?$AA@ 00459d84     LIBCMTD:nlsdata2.obj
 0002:00009d8c       ??_C@_17FNLKOI@?$AAO?$AAc?$AAt?$AA?$AA@ 00459d8c     LIBCMTD:nlsdata2.obj
 0002:00009d94       ??_C@_17HCHCOKMG@?$AAS?$AAe?$AAp?$AA?$AA@ 00459d94     LIBCMTD:nlsdata2.obj
 0002:00009d9c       ??_C@_17ICPELBCN@?$AAA?$AAu?$AAg?$AA?$AA@ 00459d9c     LIBCMTD:nlsdata2.obj
 0002:00009da4       ??_C@_17IJPCKHK@?$AAJ?$AAu?$AAl?$AA?$AA@ 00459da4     LIBCMTD:nlsdata2.obj
 0002:00009dac       ??_C@_17KCJGOCPB@?$AAJ?$AAu?$AAn?$AA?$AA@ 00459dac     LIBCMTD:nlsdata2.obj
 0002:00009db4       ??_C@_17PNNKMEED@?$AAM?$AAa?$AAy?$AA?$AA@ 00459db4     LIBCMTD:nlsdata2.obj
 0002:00009dbc       ??_C@_17LFPOIHDD@?$AAA?$AAp?$AAr?$AA?$AA@ 00459dbc     LIBCMTD:nlsdata2.obj
 0002:00009dc4       ??_C@_17CKNLEDEC@?$AAM?$AAa?$AAr?$AA?$AA@ 00459dc4     LIBCMTD:nlsdata2.obj
 0002:00009dcc       ??_C@_17LMDJEKJN@?$AAF?$AAe?$AAb?$AA?$AA@ 00459dcc     LIBCMTD:nlsdata2.obj
 0002:00009dd4       ??_C@_17DKNBKCHM@?$AAJ?$AAa?$AAn?$AA?$AA@ 00459dd4     LIBCMTD:nlsdata2.obj
 0002:00009ddc       ??_C@_1BC@ENMNNPAJ@?$AAS?$AAa?$AAt?$AAu?$AAr?$AAd?$AAa?$AAy?$AA?$AA@ 00459ddc     LIBCMTD:nlsdata2.obj
 0002:00009df0       ??_C@_1O@PDICJHAG@?$AAF?$AAr?$AAi?$AAd?$AAa?$AAy?$AA?$AA@ 00459df0     LIBCMTD:nlsdata2.obj
 0002:00009e00       ??_C@_1BC@HHMNLIHE@?$AAT?$AAh?$AAu?$AAr?$AAs?$AAd?$AAa?$AAy?$AA?$AA@ 00459e00     LIBCMTD:nlsdata2.obj
 0002:00009e14       ??_C@_1BE@EBOGMDOH@?$AAW?$AAe?$AAd?$AAn?$AAe?$AAs?$AAd?$AAa?$AAy?$AA?$AA@ 00459e14     LIBCMTD:nlsdata2.obj
 0002:00009e28       ??_C@_1BA@ENFBFFEK@?$AAT?$AAu?$AAe?$AAs?$AAd?$AAa?$AAy?$AA?$AA@ 00459e28     LIBCMTD:nlsdata2.obj
 0002:00009e38       ??_C@_1O@MMNBFLIA@?$AAM?$AAo?$AAn?$AAd?$AAa?$AAy?$AA?$AA@ 00459e38     LIBCMTD:nlsdata2.obj
 0002:00009e48       ??_C@_1O@IHNHDHPB@?$AAS?$AAu?$AAn?$AAd?$AAa?$AAy?$AA?$AA@ 00459e48     LIBCMTD:nlsdata2.obj
 0002:00009e58       ??_C@_17GGIBDPIH@?$AAS?$AAa?$AAt?$AA?$AA@ 00459e58     LIBCMTD:nlsdata2.obj
 0002:00009e60       ??_C@_17HFOLPPLP@?$AAF?$AAr?$AAi?$AA?$AA@ 00459e60     LIBCMTD:nlsdata2.obj
 0002:00009e68       ??_C@_17PDPHAADD@?$AAT?$AAh?$AAu?$AA?$AA@ 00459e68     LIBCMTD:nlsdata2.obj
 0002:00009e70       ??_C@_17CJEDCEPE@?$AAW?$AAe?$AAd?$AA?$AA@ 00459e70     LIBCMTD:nlsdata2.obj
 0002:00009e78       ??_C@_17BMKGEGOJ@?$AAT?$AAu?$AAe?$AA?$AA@ 00459e78     LIBCMTD:nlsdata2.obj
 0002:00009e80       ??_C@_17KBOMKBF@?$AAM?$AAo?$AAn?$AA?$AA@ 00459e80     LIBCMTD:nlsdata2.obj
 0002:00009e88       ??_C@_17MBGCMIPB@?$AAS?$AAu?$AAn?$AA?$AA@ 00459e88     LIBCMTD:nlsdata2.obj
 0002:00009e90       ??_C@_08JCCMCCIL@HH?3mm?3ss?$AA@ 00459e90     LIBCMTD:nlsdata2.obj
 0002:00009e9c       ??_C@_0BE@CKGJFCPC@dddd?0?5MMMM?5dd?0?5yyyy?$AA@ 00459e9c     LIBCMTD:nlsdata2.obj
 0002:00009eb0       ??_C@_08BPBNCDIB@MM?1dd?1yy?$AA@ 00459eb0     LIBCMTD:nlsdata2.obj
 0002:00009ebc       ??_C@_02CJNFDJBF@PM?$AA@   00459ebc     LIBCMTD:nlsdata2.obj
 0002:00009ec0       ??_C@_02DEDBPAFC@AM?$AA@   00459ec0     LIBCMTD:nlsdata2.obj
 0002:00009ec4       ??_C@_08EDHMEBNP@December?$AA@ 00459ec4     LIBCMTD:nlsdata2.obj
 0002:00009ed0       ??_C@_08HCHEGEOA@November?$AA@ 00459ed0     LIBCMTD:nlsdata2.obj
 0002:00009edc       ??_C@_07JJNFCEND@October?$AA@ 00459edc     LIBCMTD:nlsdata2.obj
 0002:00009ee4       ??_C@_09BHHEALKD@September?$AA@ 00459ee4     LIBCMTD:nlsdata2.obj
 0002:00009ef0       ??_C@_06LBBHFDDG@August?$AA@ 00459ef0     LIBCMTD:nlsdata2.obj
 0002:00009ef8       ??_C@_04MIEPOIFP@July?$AA@ 00459ef8     LIBCMTD:nlsdata2.obj
 0002:00009f00       ??_C@_04CNLMGBGM@June?$AA@ 00459f00     LIBCMTD:nlsdata2.obj
 0002:00009f08       ??_C@_05DMJDNLEJ@April?$AA@ 00459f08     LIBCMTD:nlsdata2.obj
 0002:00009f10       ??_C@_05HPCKOFNC@March?$AA@ 00459f10     LIBCMTD:nlsdata2.obj
 0002:00009f18       ??_C@_08GNJGEPFN@February?$AA@ 00459f18     LIBCMTD:nlsdata2.obj
 0002:00009f24       ??_C@_07CGJPFGJA@January?$AA@ 00459f24     LIBCMTD:nlsdata2.obj
 0002:00009f2c       ??_C@_03MKABNOCG@Dec?$AA@  00459f2c     LIBCMTD:nlsdata2.obj
 0002:00009f30       ??_C@_03JPJOFNIA@Nov?$AA@  00459f30     LIBCMTD:nlsdata2.obj
 0002:00009f34       ??_C@_03BMAOKBAD@Oct?$AA@  00459f34     LIBCMTD:nlsdata2.obj
 0002:00009f38       ??_C@_03GGCAPAJC@Sep?$AA@  00459f38     LIBCMTD:nlsdata2.obj
 0002:00009f3c       ??_C@_03IFJFEIGA@Aug?$AA@  00459f3c     LIBCMTD:nlsdata2.obj
 0002:00009f40       ??_C@_03LBGABGKK@Jul?$AA@  00459f40     LIBCMTD:nlsdata2.obj
 0002:00009f44       ??_C@_03IDFGHECI@Jun?$AA@  00459f44     LIBCMTD:nlsdata2.obj
 0002:00009f48       ??_C@_03CNMDKL@May?$AA@    00459f48     LIBCMTD:nlsdata2.obj
 0002:00009f4c       ??_C@_03LEOLGMJP@Apr?$AA@  00459f4c     LIBCMTD:nlsdata2.obj
 0002:00009f50       ??_C@_03ODNJBKGA@Mar?$AA@  00459f50     LIBCMTD:nlsdata2.obj
 0002:00009f54       ??_C@_03HJBDCHOM@Feb?$AA@  00459f54     LIBCMTD:nlsdata2.obj
 0002:00009f58       ??_C@_03JIHJHPIE@Jan?$AA@  00459f58     LIBCMTD:nlsdata2.obj
 0002:00009f5c       ??_C@_08INBOOONO@Saturday?$AA@ 00459f5c     LIBCMTD:nlsdata2.obj
 0002:00009f68       ??_C@_06JECMNKMI@Friday?$AA@ 00459f68     LIBCMTD:nlsdata2.obj
 0002:00009f70       ??_C@_08HACCIKIA@Thursday?$AA@ 00459f70     LIBCMTD:nlsdata2.obj
 0002:00009f7c       ??_C@_09DLIGFAKA@Wednesday?$AA@ 00459f7c     LIBCMTD:nlsdata2.obj
 0002:00009f88       ??_C@_07BAAGCFCM@Tuesday?$AA@ 00459f88     LIBCMTD:nlsdata2.obj
 0002:00009f90       ??_C@_06JLEDEDGH@Monday?$AA@ 00459f90     LIBCMTD:nlsdata2.obj
 0002:00009f98       ??_C@_06OOPIFAJ@Sunday?$AA@ 00459f98     LIBCMTD:nlsdata2.obj
 0002:00009fa0       ??_C@_03FEFJNEK@Sat?$AA@   00459fa0     LIBCMTD:nlsdata2.obj
 0002:00009fa4       ??_C@_03IDIOELNC@Fri?$AA@  00459fa4     LIBCMTD:nlsdata2.obj
 0002:00009fa8       ??_C@_03IOFIKPDN@Thu?$AA@  00459fa8     LIBCMTD:nlsdata2.obj
 0002:00009fac       ??_C@_03MHOMLAJA@Wed?$AA@  00459fac     LIBCMTD:nlsdata2.obj
 0002:00009fb0       ??_C@_03NAGEINEP@Tue?$AA@  00459fb0     LIBCMTD:nlsdata2.obj
 0002:00009fb4       ??_C@_03PDAGKDH@Mon?$AA@   00459fb4     LIBCMTD:nlsdata2.obj
 0002:00009fb8       ??_C@_03KOEHGMDN@Sun?$AA@  00459fb8     LIBCMTD:nlsdata2.obj
 0002:00009fbc       ??_C@_0DB@MHMEONEC@f?3?2dd?2vctools?2crt_bld?2self_x86?2c@ 00459fbc     LIBCMTD:mbctype.obj
 0002:00009ff0       ??_C@_1BK@JMCGJOCC@?$AA_?$AAe?$AAx?$AAp?$AAa?$AAn?$AAd?$AA_?$AAb?$AAa?$AAs?$AAe?$AA?$AA@ 00459ff0     LIBCMTD:expand.obj
 0002:0000a010       ??_C@_1GA@EBHFLDNH@?$AAf?$AA?3?$AA?2?$AAd?$AAd?$AA?2?$AAv?$AAc?$AAt?$AAo?$AAo?$AAl?$AAs?$AA?2?$AAc?$AAr?$AAt?$AA_?$AAb?$AAl?$AAd?$AA?2?$AAs?$AAe?$AAl?$AAf?$AA_?$AAx?$AA8?$AA6?$AA?2?$AAc@ 0045a010     LIBCMTD:expand.obj
 0002:0000a070       ??_C@_1BO@KFIJIAEA@?$AAp?$AAB?$AAl?$AAo?$AAc?$AAk?$AA?5?$AA?$CB?$AA?$DN?$AA?5?$AAN?$AAU?$AAL?$AAL?$AA?$AA@ 0045a070     LIBCMTD:expand.obj
 0002:0000a090       ??_C@_1BA@KBJJGFFE@?$AAs?$AAp?$AAr?$AAi?$AAn?$AAt?$AAf?$AA?$AA@ 0045a090     LIBCMTD:sprintf.obj
 0002:0000a0a0       ??_C@_1GC@BMNPEKNN@?$AAf?$AA?3?$AA?2?$AAd?$AAd?$AA?2?$AAv?$AAc?$AAt?$AAo?$AAo?$AAl?$AAs?$AA?2?$AAc?$AAr?$AAt?$AA_?$AAb?$AAl?$AAd?$AA?2?$AAs?$AAe?$AAl?$AAf?$AA_?$AAx?$AA8?$AA6?$AA?2?$AAc@ 0045a0a0     LIBCMTD:sprintf.obj
 0002:0000a108       ??_C@_1GC@CHGJNMHG@?$AAf?$AA?3?$AA?2?$AAd?$AAd?$AA?2?$AAv?$AAc?$AAt?$AAo?$AAo?$AAl?$AAs?$AA?2?$AAc?$AAr?$AAt?$AA_?$AAb?$AAl?$AAd?$AA?2?$AAs?$AAe?$AAl?$AAf?$AA_?$AAx?$AA8?$AA6?$AA?2?$AAc@ 0045a108     LIBCMTD:isctype.obj
 0002:0000a16c       ??_C@_1DC@BPLPALML@?$AA?$CI?$AAu?$AAn?$AAs?$AAi?$AAg?$AAn?$AAe?$AAd?$AA?$CJ?$AA?$CI?$AAc?$AA?5?$AA?$CL?$AA?5?$AA1?$AA?$CJ?$AA?5?$AA?$DM?$AA?$DN?$AA?5?$AA2?$AA5?$AA6?$AA?$AA@ 0045a16c     LIBCMTD:isctype.obj
 0002:0000a1a0       ??_C@_1CG@JEHFHLNG@?$AA_?$AAm?$AAb?$AAs?$AAt?$AAo?$AAw?$AAc?$AAs?$AA_?$AAl?$AA_?$AAh?$AAe?$AAl?$AAp?$AAe?$AAr?$AA?$AA@ 0045a1a0     LIBCMTD:mbstowcs.obj
 0002:0000a1c8       ??_C@_1GE@LCCDHBMH@?$AAf?$AA?3?$AA?2?$AAd?$AAd?$AA?2?$AAv?$AAc?$AAt?$AAo?$AAo?$AAl?$AAs?$AA?2?$AAc?$AAr?$AAt?$AA_?$AAb?$AAl?$AAd?$AA?2?$AAs?$AAe?$AAl?$AAf?$AA_?$AAx?$AA8?$AA6?$AA?2?$AAc@ 0045a1c8     LIBCMTD:mbstowcs.obj
 0002:0000a22c       ??_C@_1BE@EEKACIGI@?$AAs?$AA?5?$AA?$CB?$AA?$DN?$AA?5?$AAN?$AAU?$AAL?$AAL?$AA?$AA@ 0045a22c     LIBCMTD:mbstowcs.obj
 0002:0000a240       ??_C@_1CO@JNPEPJAL@?$AAr?$AAe?$AAt?$AAs?$AAi?$AAz?$AAe?$AA?5?$AA?$DM?$AA?$DN?$AA?5?$AAs?$AAi?$AAz?$AAe?$AAI?$AAn?$AAW?$AAo?$AAr?$AAd?$AAs?$AA?$AA@ 0045a240     LIBCMTD:mbstowcs.obj
 0002:0000a270       ??_C@_1CM@LLECFMFH@?$AAb?$AAu?$AAf?$AAf?$AAe?$AAr?$AAS?$AAi?$AAz?$AAe?$AA?5?$AA?$DM?$AA?$DN?$AA?5?$AAI?$AAN?$AAT?$AA_?$AAM?$AAA?$AAX?$AA?$AA@ 0045a270     LIBCMTD:mbstowcs.obj
 0002:0000a29c       ??_C@_1BM@PHENIGHD@?$AA_?$AAm?$AAb?$AAs?$AAt?$AAo?$AAw?$AAc?$AAs?$AA_?$AAs?$AA_?$AAl?$AA?$AA@ 0045a29c     LIBCMTD:mbstowcs.obj
 0002:0000a2b8       ??_C@_1JA@JKDFMOPO@?$AA?$CI?$AAp?$AAw?$AAc?$AAs?$AA?5?$AA?$DN?$AA?$DN?$AA?5?$AAN?$AAU?$AAL?$AAL?$AA?5?$AA?$CG?$AA?$CG?$AA?5?$AAs?$AAi?$AAz?$AAe?$AAI?$AAn?$AAW?$AAo?$AAr?$AAd?$AAs?$AA?5?$AA?$DN?$AA?$DN?$AA?5@ 0045a2b8     LIBCMTD:mbstowcs.obj
 0002:0000a348       ??_C@_1BC@HGPNAKGC@?$AAs?$AAt?$AAr?$AAc?$AAa?$AAt?$AA_?$AAs?$AA?$AA@ 0045a348     LIBCMTD:strcat_s.obj
 0002:0000a35c       ??_C@_1CE@PCFPEIFI@?$AA_?$AAv?$AAs?$AAn?$AAp?$AAr?$AAi?$AAn?$AAt?$AAf?$AA_?$AAh?$AAe?$AAl?$AAp?$AAe?$AAr?$AA?$AA@ 0045a35c     LIBCMTD:vsnprnc.obj
 0002:0000a380       ??_C@_1GE@DPADKNCG@?$AAf?$AA?3?$AA?2?$AAd?$AAd?$AA?2?$AAv?$AAc?$AAt?$AAo?$AAo?$AAl?$AAs?$AA?2?$AAc?$AAr?$AAt?$AA_?$AAb?$AAl?$AAd?$AA?2?$AAs?$AAe?$AAl?$AAf?$AA_?$AAx?$AA8?$AA6?$AA?2?$AAc@ 0045a380     LIBCMTD:vsnprnc.obj
 0002:0000a3e8       ??_C@_1EE@OKCKIGFK@?$AAs?$AAt?$AAr?$AAi?$AAn?$AAg?$AA?5?$AA?$CB?$AA?$DN?$AA?5?$AAN?$AAU?$AAL?$AAL?$AA?5?$AA?$CG?$AA?$CG?$AA?5?$AAs?$AAi?$AAz?$AAe?$AAI?$AAn?$AAB?$AAy?$AAt?$AAe?$AAs?$AA?5?$AA?$DO?$AA?5@ 0045a3e8     LIBCMTD:vsnprnc.obj
 0002:0000a42c       ??_C@_1BM@BLJALHEF@?$AA_?$AAv?$AAs?$AAp?$AAr?$AAi?$AAn?$AAt?$AAf?$AA_?$AAs?$AA_?$AAl?$AA?$AA@ 0045a42c     LIBCMTD:vsnprnc.obj
 0002:0000a448       ??_C@_1BO@MMPELNIM@?$AA_?$AAv?$AAs?$AAn?$AAp?$AAr?$AAi?$AAn?$AAt?$AAf?$AA_?$AAs?$AA_?$AAl?$AA?$AA@ 0045a448     LIBCMTD:vsnprnc.obj
 0002:0000a468       ??_C@_1O@GIMBNLEI@?$AAx?$AAt?$AAo?$AAa?$AA_?$AAs?$AA?$AA@ 0045a468     LIBCMTD:xtoas.obj
 0002:0000a478       ??_C@_1BC@MJJNBNFN@?$AAx?$AA6?$AA4?$AAt?$AAo?$AAa?$AA_?$AAs?$AA?$AA@ 0045a478     LIBCMTD:xtoas.obj
 0002:0000a48c       ??_C@_1CG@LLJCAOHF@?$AA_?$AAw?$AAc?$AAs?$AAt?$AAo?$AAm?$AAb?$AAs?$AA_?$AAl?$AA_?$AAh?$AAe?$AAl?$AAp?$AAe?$AAr?$AA?$AA@ 0045a48c     LIBCMTD:wcstombs.obj
 0002:0000a4b8       ??_C@_1GE@OAENIBOD@?$AAf?$AA?3?$AA?2?$AAd?$AAd?$AA?2?$AAv?$AAc?$AAt?$AAo?$AAo?$AAl?$AAs?$AA?2?$AAc?$AAr?$AAt?$AA_?$AAb?$AAl?$AAd?$AA?2?$AAs?$AAe?$AAl?$AAf?$AA_?$AAx?$AA8?$AA6?$AA?2?$AAc@ 0045a4b8     LIBCMTD:wcstombs.obj
 0002:0000a51c       ??_C@_1BK@OIBENBPM@?$AAp?$AAw?$AAc?$AAs?$AA?5?$AA?$CB?$AA?$DN?$AA?5?$AAN?$AAU?$AAL?$AAL?$AA?$AA@ 0045a51c     LIBCMTD:wcstombs.obj
 0002:0000a538       ??_C@_1CM@KEOGBFLI@?$AAs?$AAi?$AAz?$AAe?$AAI?$AAn?$AAB?$AAy?$AAt?$AAe?$AAs?$AA?5?$AA?$DO?$AA?5?$AAr?$AAe?$AAt?$AAs?$AAi?$AAz?$AAe?$AA?$AA@ 0045a538     LIBCMTD:wcstombs.obj
 0002:0000a564       ??_C@_1BM@BDMCLLDL@?$AA_?$AAw?$AAc?$AAs?$AAt?$AAo?$AAm?$AAb?$AAs?$AA_?$AAs?$AA_?$AAl?$AA?$AA@ 0045a564     LIBCMTD:wcstombs.obj
 0002:0000a580       ??_C@_1IM@MFGKHGBP@?$AA?$CI?$AAd?$AAs?$AAt?$AA?5?$AA?$CB?$AA?$DN?$AA?5?$AAN?$AAU?$AAL?$AAL?$AA?5?$AA?$CG?$AA?$CG?$AA?5?$AAs?$AAi?$AAz?$AAe?$AAI?$AAn?$AAB?$AAy?$AAt?$AAe?$AAs?$AA?5?$AA?$DO?$AA?5?$AA0?$AA?$CJ@ 0045a580     LIBCMTD:wcstombs.obj
 0002:0000a60c       ??_C@_0BC@JEAENNKH@SystemFunction036?$AA@ 0045a60c     LIBCMTD:rand_s.obj
 0002:0000a620       ??_C@_1GA@EBEDGGGB@?$AA?$CI?$AA?$CC?$AAr?$AAa?$AAn?$AAd?$AA_?$AAs?$AA?5?$AAi?$AAs?$AA?5?$AAn?$AAo?$AAt?$AA?5?$AAa?$AAv?$AAa?$AAi?$AAl?$AAa?$AAb?$AAl?$AAe?$AA?5?$AAo?$AAn?$AA?5?$AAt?$AAh?$AAi@ 0045a620     LIBCMTD:rand_s.obj
 0002:0000a680       ??_C@_1O@IJGPPOGF@?$AAr?$AAa?$AAn?$AAd?$AA_?$AAs?$AA?$AA@ 0045a680     LIBCMTD:rand_s.obj
 0002:0000a690       ??_C@_1GA@HBGBBKCD@?$AAf?$AA?3?$AA?2?$AAd?$AAd?$AA?2?$AAv?$AAc?$AAt?$AAo?$AAo?$AAl?$AAs?$AA?2?$AAc?$AAr?$AAt?$AA_?$AAb?$AAl?$AAd?$AA?2?$AAs?$AAe?$AAl?$AAf?$AA_?$AAx?$AA8?$AA6?$AA?2?$AAc@ 0045a690     LIBCMTD:rand_s.obj
 0002:0000a6f0       ??_C@_1CK@GFDNDKK@?$AA_?$AAR?$AAa?$AAn?$AAd?$AAo?$AAm?$AAV?$AAa?$AAl?$AAu?$AAe?$AA?5?$AA?$CB?$AA?$DN?$AA?5?$AAN?$AAU?$AAL?$AAL?$AA?$AA@ 0045a6f0     LIBCMTD:rand_s.obj
 0002:0000a720       ??_C@_1HO@MLMGPAFH@?$AA?$CI?$AA?$CC?$AAi?$AAn?$AAc?$AAo?$AAn?$AAs?$AAi?$AAs?$AAt?$AAe?$AAn?$AAt?$AA?5?$AAI?$AAO?$AAB?$AA?5?$AAf?$AAi?$AAe?$AAl?$AAd?$AAs?$AA?$CC?$AA?0?$AA?5?$AAs?$AAt?$AAr?$AAe@ 0045a720     LIBCMTD:_flsbuf.obj
 0002:0000a7a0       ??_C@_1GC@GNCCMPNN@?$AAf?$AA?3?$AA?2?$AAd?$AAd?$AA?2?$AAv?$AAc?$AAt?$AAo?$AAo?$AAl?$AAs?$AA?2?$AAc?$AAr?$AAt?$AA_?$AAb?$AAl?$AAd?$AA?2?$AAs?$AAe?$AAl?$AAf?$AA_?$AAx?$AA8?$AA6?$AA?2?$AAc@ 0045a7a0     LIBCMTD:_flsbuf.obj
 0002:0000a804       ??_C@_1BI@MFCLPIBM@?$AAs?$AAt?$AAr?$AA?5?$AA?$CB?$AA?$DN?$AA?5?$AAN?$AAU?$AAL?$AAL?$AA?$AA@ 0045a804     LIBCMTD:_flsbuf.obj
 0002:0000a81c       ??_C@_0DA@NFBEBPEE@f?3?2dd?2vctools?2crt_bld?2self_x86?2c@ 0045a81c     LIBCMTD:woutput.obj
 0002:0000a850       ??_C@_1EK@PNGFDECN@?$AA?$CI?$AA?$CC?$AA?8?$AAn?$AA?8?$AA?5?$AAf?$AAo?$AAr?$AAm?$AAa?$AAt?$AA?5?$AAs?$AAp?$AAe?$AAc?$AAi?$AAf?$AAi?$AAe?$AAr?$AA?5?$AAd?$AAi?$AAs?$AAa?$AAb?$AAl?$AAe?$AAd?$AA?$CC@ 0045a850     LIBCMTD:woutput.obj
 0002:0000a89c       ??_C@_1BG@BBCDFOMA@?$AA_?$AAw?$AAo?$AAu?$AAt?$AAp?$AAu?$AAt?$AA_?$AAl?$AA?$AA@ 0045a89c     LIBCMTD:woutput.obj
 0002:0000a8b8       ??_C@_1GA@HHFOFBLN@?$AAf?$AA?3?$AA?2?$AAd?$AAd?$AA?2?$AAv?$AAc?$AAt?$AAo?$AAo?$AAl?$AAs?$AA?2?$AAc?$AAr?$AAt?$AA_?$AAb?$AAl?$AAd?$AA?2?$AAs?$AAe?$AAl?$AAf?$AA_?$AAx?$AA8?$AA6?$AA?2?$AAc@ 0045a8b8     LIBCMTD:woutput.obj
 0002:0000a918       ??_C@_1CC@FADMNIL@?$AA?$CI?$AAs?$AAt?$AAr?$AAe?$AAa?$AAm?$AA?5?$AA?$CB?$AA?$DN?$AA?5?$AAN?$AAU?$AAL?$AAL?$AA?$CJ?$AA?$AA@ 0045a918     LIBCMTD:woutput.obj
 0002:0000a93c       ??_C@_1BK@EPLNBKAK@?$AA_?$AAv?$AAs?$AAw?$AAp?$AAr?$AAi?$AAn?$AAt?$AAf?$AA_?$AAl?$AA?$AA@ 0045a93c     LIBCMTD:vswprint.obj
 0002:0000a958       ??_C@_1CG@IMMIEPNA@?$AA_?$AAv?$AAs?$AAc?$AAw?$AAp?$AAr?$AAi?$AAn?$AAt?$AAf?$AA_?$AAh?$AAe?$AAl?$AAp?$AAe?$AAr?$AA?$AA@ 0045a958     LIBCMTD:vswprint.obj
 0002:0000a980       ??_C@_1BK@CDOALEA@?$AA_?$AAc?$AAo?$AAn?$AAt?$AAr?$AAo?$AAl?$AAf?$AAp?$AA_?$AAs?$AA?$AA@ 0045a980     LIBCMTD:_contrlfp_.obj
 0002:0000a9a0       ??_C@_1HI@JIOCECAH@?$AAf?$AA?3?$AA?2?$AAd?$AAd?$AA?2?$AAv?$AAc?$AAt?$AAo?$AAo?$AAl?$AAs?$AA?2?$AAc?$AAr?$AAt?$AA_?$AAb?$AAl?$AAd?$AA?2?$AAs?$AAe?$AAl?$AAf?$AA_?$AAx?$AA8?$AA6?$AA?2?$AAc@ 0045a9a0     LIBCMTD:_contrlfp_.obj
 0002:0000aa18       ??_C@_1DG@JNDMIEJL@?$AA?$CI?$AA?$CC?$AAI?$AAn?$AAv?$AAa?$AAl?$AAi?$AAd?$AA?5?$AAi?$AAn?$AAp?$AAu?$AAt?$AA?5?$AAv?$AAa?$AAl?$AAu?$AAe?$AA?$CC?$AA?0?$AA?5?$AA0?$AA?$CJ?$AA?$AA@ 0045aa18     LIBCMTD:_contrlfp_.obj
 0002:0000aa50       ??_C@_1BK@CLIEHFDF@?$AAp?$AAf?$AAl?$AAt?$AA?5?$AA?$CB?$AA?$DN?$AA?5?$AAN?$AAU?$AAL?$AAL?$AA?$AA@ 0045aa50     LIBCMTD:_fptostr.obj
 0002:0000aa70       ??_C@_1GM@CEDLGDDI@?$AAs?$AAi?$AAz?$AAe?$AAI?$AAn?$AAB?$AAy?$AAt?$AAe?$AAs?$AA?5?$AA?$DO?$AA?5?$AA?$CI?$AAs?$AAi?$AAz?$AAe?$AA_?$AAt?$AA?$CJ?$AA?$CI?$AA?$CI?$AAd?$AAi?$AAg?$AAi?$AAt?$AAs?$AA?5?$AA?$DO@ 0045aa70     LIBCMTD:_fptostr.obj
 0002:0000aadc       ??_C@_1BC@OPALLEB@?$AA_?$AAf?$AAp?$AAt?$AAo?$AAs?$AAt?$AAr?$AA?$AA@ 0045aadc     LIBCMTD:_fptostr.obj
 0002:0000aaf0       ??_C@_1GE@BDKOPHIO@?$AAf?$AA?3?$AA?2?$AAd?$AAd?$AA?2?$AAv?$AAc?$AAt?$AAo?$AAo?$AAl?$AAs?$AA?2?$AAc?$AAr?$AAt?$AA_?$AAb?$AAl?$AAd?$AA?2?$AAs?$AAe?$AAl?$AAf?$AA_?$AAx?$AA8?$AA6?$AA?2?$AAc@ 0045aaf0     LIBCMTD:_fptostr.obj
 0002:0000ab58       ??_C@_1FK@KODCOBKF@?$AAs?$AAt?$AAr?$AAc?$AAp?$AAy?$AA_?$AAs?$AA?$CI?$AAr?$AAe?$AAs?$AAu?$AAl?$AAt?$AAs?$AAt?$AAr?$AA?0?$AA?5?$AAr?$AAe?$AAs?$AAu?$AAl?$AAt?$AAs?$AAi?$AAz?$AAe?$AA?0?$AA?5@ 0045ab58     LIBCMTD:_cfout_.obj
 0002:0000abb4       ??_C@_1BC@BPMMEHLK@?$AA_?$AAf?$AAl?$AAt?$AAo?$AAu?$AAt?$AA2?$AA?$AA@ 0045abb4     LIBCMTD:_cfout_.obj
 0002:0000abc8       ??_C@_1HC@PKFDNKN@?$AAf?$AA?3?$AA?2?$AAd?$AAd?$AA?2?$AAv?$AAc?$AAt?$AAo?$AAo?$AAl?$AAs?$AA?2?$AAc?$AAr?$AAt?$AA_?$AAb?$AAl?$AAd?$AA?2?$AAs?$AAe?$AAl?$AAf?$AA_?$AAx?$AA8?$AA6?$AA?2?$AAc@ 0045abc8     LIBCMTD:_cfout_.obj
 0002:0000ac3c       ??_C@_1CG@EBJECAJM@?$AA_?$AAs?$AAe?$AAt?$AA_?$AAo?$AAu?$AAt?$AAp?$AAu?$AAt?$AA_?$AAf?$AAo?$AAr?$AAm?$AAa?$AAt?$AA?$AA@ 0045ac3c     LIBCMTD:outputformat.obj
 0002:0000ac68       ??_C@_1GM@NFGGJJCM@?$AAf?$AA?3?$AA?2?$AAd?$AAd?$AA?2?$AAv?$AAc?$AAt?$AAo?$AAo?$AAl?$AAs?$AA?2?$AAc?$AAr?$AAt?$AA_?$AAb?$AAl?$AAd?$AA?2?$AAs?$AAe?$AAl?$AAf?$AA_?$AAx?$AA8?$AA6?$AA?2?$AAc@ 0045ac68     LIBCMTD:outputformat.obj
 0002:0000acd8       ??_C@_1EM@EGEEBJLG@?$AA?$CI?$AAo?$AAp?$AAt?$AAi?$AAo?$AAn?$AAs?$AA?5?$AA?$CG?$AA?5?$AA?$HO?$AA_?$AAT?$AAW?$AAO?$AA_?$AAD?$AAI?$AAG?$AAI?$AAT?$AA_?$AAE?$AAX?$AAP?$AAO?$AAN?$AAE?$AAN?$AAT?$AA?$CJ@ 0045acd8     LIBCMTD:outputformat.obj
 0002:0000ad28       ??_C@_1JE@ECKHFIFP@?$AA?$CI?$AA?$CC?$AAI?$AAn?$AAv?$AAa?$AAl?$AAi?$AAd?$AA?5?$AAf?$AAi?$AAl?$AAe?$AA?5?$AAd?$AAe?$AAs?$AAc?$AAr?$AAi?$AAp?$AAt?$AAo?$AAr?$AA?4?$AA?5?$AAF?$AAi?$AAl?$AAe?$AA?5@ 0045ad28     LIBCMTD:commit.obj
 0002:0000adbc       ??_C@_1DG@LNNHNFHJ@?$AA?$CI?$AA_?$AAo?$AAs?$AAf?$AAi?$AAl?$AAe?$AA?$CI?$AAf?$AAi?$AAl?$AAe?$AAd?$AAe?$AAs?$AA?$CJ?$AA?5?$AA?$CG?$AA?5?$AAF?$AAO?$AAP?$AAE?$AAN?$AA?$CJ?$AA?$AA@ 0045adbc     LIBCMTD:commit.obj
 0002:0000adf4       ??_C@_1BA@FLNMBBIM@?$AA_?$AAc?$AAo?$AAm?$AAm?$AAi?$AAt?$AA?$AA@ 0045adf4     LIBCMTD:commit.obj
 0002:0000ae08       ??_C@_1GA@BOPCOCFN@?$AAf?$AA?3?$AA?2?$AAd?$AAd?$AA?2?$AAv?$AAc?$AAt?$AAo?$AAo?$AAl?$AAs?$AA?2?$AAc?$AAr?$AAt?$AA_?$AAb?$AAl?$AAd?$AA?2?$AAs?$AAe?$AAl?$AAf?$AA_?$AAx?$AA8?$AA6?$AA?2?$AAc@ 0045ae08     LIBCMTD:commit.obj
 0002:0000ae68       ??_C@_1HC@KFLBHHBC@?$AA?$CI?$AAf?$AAi?$AAl?$AAe?$AAd?$AAe?$AAs?$AA?5?$AA?$DO?$AA?$DN?$AA?5?$AA0?$AA?5?$AA?$CG?$AA?$CG?$AA?5?$AA?$CI?$AAu?$AAn?$AAs?$AAi?$AAg?$AAn?$AAe?$AAd?$AA?$CJ?$AAf?$AAi?$AAl?$AAe?$AAd@ 0045ae68     LIBCMTD:commit.obj
 0002:0000aedc       ??_C@_1BA@JGHIEKKM@?$AA_?$AAf?$AAi?$AAl?$AAe?$AAn?$AAo?$AA?$AA@ 0045aedc     LIBCMTD:fileno.obj
 0002:0000aef0       ??_C@_1GA@PBJHELNC@?$AAf?$AA?3?$AA?2?$AAd?$AAd?$AA?2?$AAv?$AAc?$AAt?$AAo?$AAo?$AAl?$AAs?$AA?2?$AAc?$AAr?$AAt?$AA_?$AAb?$AAl?$AAd?$AA?2?$AAs?$AAe?$AAl?$AAf?$AA_?$AAx?$AA8?$AA6?$AA?2?$AAc@ 0045aef0     LIBCMTD:fileno.obj
 0002:0000af50       ??_C@_1CM@OKGMMMDH@?$AA?$CI?$AA_?$AAo?$AAs?$AAf?$AAi?$AAl?$AAe?$AA?$CI?$AAf?$AAh?$AA?$CJ?$AA?5?$AA?$CG?$AA?5?$AAF?$AAO?$AAP?$AAE?$AAN?$AA?$CJ?$AA?$AA@ 0045af50     LIBCMTD:write.obj
 0002:0000af7c       ??_C@_1O@KOFKDHPL@?$AA_?$AAw?$AAr?$AAi?$AAt?$AAe?$AA?$AA@ 0045af7c     LIBCMTD:write.obj
 0002:0000af90       ??_C@_1FO@EPLDPDDL@?$AAf?$AA?3?$AA?2?$AAd?$AAd?$AA?2?$AAv?$AAc?$AAt?$AAo?$AAo?$AAl?$AAs?$AA?2?$AAc?$AAr?$AAt?$AA_?$AAb?$AAl?$AAd?$AA?2?$AAs?$AAe?$AAl?$AAf?$AA_?$AAx?$AA8?$AA6?$AA?2?$AAc@ 0045af90     LIBCMTD:write.obj
 0002:0000aff0       ??_C@_1FO@LPCLHKGE@?$AA?$CI?$AAf?$AAh?$AA?5?$AA?$DO?$AA?$DN?$AA?5?$AA0?$AA?5?$AA?$CG?$AA?$CG?$AA?5?$AA?$CI?$AAu?$AAn?$AAs?$AAi?$AAg?$AAn?$AAe?$AAd?$AA?$CJ?$AAf?$AAh?$AA?5?$AA?$DM?$AA?5?$AA?$CI?$AAu?$AAn?$AAs?$AAi@ 0045aff0     LIBCMTD:write.obj
 0002:0000b050       ??_C@_1DI@CNMHHHLG@?$AAi?$AAs?$AAl?$AAe?$AAa?$AAd?$AAb?$AAy?$AAt?$AAe?$AA?$CI?$AA_?$AAd?$AAb?$AAc?$AAs?$AAB?$AAu?$AAf?$AAf?$AAe?$AAr?$AA?$CI?$AAf?$AAh?$AA?$CJ?$AA?$CJ?$AA?$AA@ 0045b050     LIBCMTD:write.obj
 0002:0000b088       ??_C@_1CC@EEOLPHGO@?$AA?$CI?$AA?$CI?$AAc?$AAn?$AAt?$AA?5?$AA?$CG?$AA?5?$AA1?$AA?$CJ?$AA?5?$AA?$DN?$AA?$DN?$AA?5?$AA0?$AA?$CJ?$AA?$AA@ 0045b088     LIBCMTD:write.obj
 0002:0000b0ac       ??_C@_1BM@NCANHCIP@?$AA_?$AAw?$AAr?$AAi?$AAt?$AAe?$AA_?$AAn?$AAo?$AAl?$AAo?$AAc?$AAk?$AA?$AA@ 0045b0ac     LIBCMTD:write.obj
 0002:0000b0c8       ??_C@_1BM@KFJLMBPG@?$AA?$CI?$AAb?$AAu?$AAf?$AA?5?$AA?$CB?$AA?$DN?$AA?5?$AAN?$AAU?$AAL?$AAL?$AA?$CJ?$AA?$AA@ 0045b0c8     LIBCMTD:write.obj
 0002:0000b0e4       ??_C@_0DB@OLNNDFNH@f?3?2dd?2vctools?2crt_bld?2self_x86?2c@ 0045b0e4     LIBCMTD:_sftbuf.obj
 0002:0000b118       ??_C@_1GC@DGAFOCMO@?$AAf?$AA?3?$AA?2?$AAd?$AAd?$AA?2?$AAv?$AAc?$AAt?$AAo?$AAo?$AAl?$AAs?$AA?2?$AAc?$AAr?$AAt?$AA_?$AAb?$AAl?$AAd?$AA?2?$AAs?$AAe?$AAl?$AAf?$AA_?$AAx?$AA8?$AA6?$AA?2?$AAc@ 0045b118     LIBCMTD:_sftbuf.obj
 0002:0000b17c       ??_C@_1CO@KCKAACMI@?$AAf?$AAl?$AAa?$AAg?$AA?5?$AA?$DN?$AA?$DN?$AA?5?$AA0?$AA?5?$AA?$HM?$AA?$HM?$AA?5?$AAf?$AAl?$AAa?$AAg?$AA?5?$AA?$DN?$AA?$DN?$AA?5?$AA1?$AA?$AA@ 0045b17c     LIBCMTD:_sftbuf.obj
 0002:0000b1ac       ??_C@_1CC@MONNFDCM@?$AAv?$AAf?$AAw?$AAp?$AAr?$AAi?$AAn?$AAt?$AAf?$AA_?$AAh?$AAe?$AAl?$AAp?$AAe?$AAr?$AA?$AA@ 0045b1ac     LIBCMTD:vfwprint.obj
 0002:0000b1d0       ??_C@_1GE@MBMBDAGC@?$AAf?$AA?3?$AA?2?$AAd?$AAd?$AA?2?$AAv?$AAc?$AAt?$AAo?$AAo?$AAl?$AAs?$AA?2?$AAc?$AAr?$AAt?$AA_?$AAb?$AAl?$AAd?$AA?2?$AAs?$AAe?$AAl?$AAf?$AA_?$AAx?$AA8?$AA6?$AA?2?$AAc@ 0045b1d0     LIBCMTD:vfwprint.obj
 0002:0000b238       ??_C@_1GE@MIMBMOF@?$AAf?$AA?3?$AA?2?$AAd?$AAd?$AA?2?$AAv?$AAc?$AAt?$AAo?$AAo?$AAl?$AAs?$AA?2?$AAc?$AAr?$AAt?$AA_?$AAb?$AAl?$AAd?$AA?2?$AAs?$AAe?$AAl?$AAf?$AA_?$AAx?$AA8?$AA6?$AA?2?$AAc@ 0045b238     LIBCMTD:_freebuf.obj
 0002:0000b29c       ??_C@_1BO@KIJENGPH@?$AAs?$AAt?$AAr?$AAe?$AAa?$AAm?$AA?5?$AA?$CB?$AA?$DN?$AA?5?$AAN?$AAU?$AAL?$AAL?$AA?$AA@ 0045b29c     LIBCMTD:_freebuf.obj
 0002:0000b2c0       ??_C@_1FK@LNCFKALM@?$AA?$CI?$AA?$CI?$AAs?$AAt?$AAa?$AAt?$AAe?$AA?5?$AA?$DN?$AA?$DN?$AA?5?$AAS?$AAT?$AA_?$AAN?$AAO?$AAR?$AAM?$AAA?$AAL?$AA?$CJ?$AA?5?$AA?$HM?$AA?$HM?$AA?5?$AA?$CI?$AAs?$AAt?$AAa?$AAt?$AAe?$AA?5@ 0045b2c0     LIBCMTD:woutputs.obj
 0002:0000b320       ??_C@_1EE@DMAIGNBG@?$AA?$CI?$AA?$CC?$AAI?$AAn?$AAc?$AAo?$AAr?$AAr?$AAe?$AAc?$AAt?$AA?5?$AAf?$AAo?$AAr?$AAm?$AAa?$AAt?$AA?5?$AAs?$AAp?$AAe?$AAc?$AAi?$AAf?$AAi?$AAe?$AAr?$AA?$CC?$AA?0?$AA?5?$AA0@ 0045b320     LIBCMTD:woutputs.obj
 0002:0000b364       ??_C@_1BK@ONMFGLDB@?$AA_?$AAw?$AAo?$AAu?$AAt?$AAp?$AAu?$AAt?$AA_?$AAs?$AA_?$AAl?$AA?$AA@ 0045b364     LIBCMTD:woutputs.obj
 0002:0000b380       ??_C@_1FK@BCPANIEK@?$AA?$CI?$AA?$CC?$AAM?$AAi?$AAs?$AAs?$AAi?$AAn?$AAg?$AA?5?$AAp?$AAo?$AAs?$AAi?$AAt?$AAi?$AAo?$AAn?$AA?5?$AAi?$AAn?$AA?5?$AAt?$AAh?$AAe?$AA?5?$AAf?$AAo?$AAr?$AAm?$AAa?$AAt@ 0045b380     LIBCMTD:woutputp.obj
 0002:0000b3e0       ??_C@_1JC@OACKELNN@?$AA_?$AAt?$AAv?$AAa?$AAl?$AAi?$AAd?$AAa?$AAt?$AAe?$AA_?$AAp?$AAa?$AAr?$AAa?$AAm?$AA_?$AAr?$AAe?$AAu?$AAs?$AAe?$AA?$CI?$AA?$CG?$AAp?$AAo?$AAs?$AA_?$AAv?$AAa?$AAl?$AAu@ 0045b3e0     LIBCMTD:woutputp.obj
 0002:0000b478       ??_C@_1IK@NBGDDCBN@?$AA_?$AAt?$AAv?$AAa?$AAl?$AAi?$AAd?$AAa?$AAt?$AAe?$AA_?$AAp?$AAa?$AAr?$AAa?$AAm?$AA_?$AAr?$AAe?$AAu?$AAs?$AAe?$AA?$CI?$AA?$CG?$AAp?$AAo?$AAs?$AA_?$AAv?$AAa?$AAl?$AAu@ 0045b478     LIBCMTD:woutputp.obj
 0002:0000b504       ??_C@_1DG@GOHGNKHE@?$AAp?$AAa?$AAs?$AAs?$AA?5?$AA?$DN?$AA?$DN?$AA?5?$AAF?$AAO?$AAR?$AAM?$AAA?$AAT?$AA_?$AAO?$AAU?$AAT?$AAP?$AAU?$AAT?$AA_?$AAP?$AAA?$AAS?$AAS?$AA?$AA@ 0045b504     LIBCMTD:woutputp.obj
 0002:0000b540       ??_C@_1IM@DNGHAPLB@?$AA_?$AAt?$AAv?$AAa?$AAl?$AAi?$AAd?$AAa?$AAt?$AAe?$AA_?$AAp?$AAa?$AAr?$AAa?$AAm?$AA_?$AAr?$AAe?$AAu?$AAs?$AAe?$AA?$CI?$AA?$CG?$AAp?$AAo?$AAs?$AA_?$AAv?$AAa?$AAl?$AAu@ 0045b540     LIBCMTD:woutputp.obj
 0002:0000b5d0       ??_C@_1IG@HJIMKDHC@?$AA_?$AAt?$AAv?$AAa?$AAl?$AAi?$AAd?$AAa?$AAt?$AAe?$AA_?$AAp?$AAa?$AAr?$AAa?$AAm?$AA_?$AAr?$AAe?$AAu?$AAs?$AAe?$AA?$CI?$AA?$CG?$AAp?$AAo?$AAs?$AA_?$AAv?$AAa?$AAl?$AAu@ 0045b5d0     LIBCMTD:woutputp.obj
 0002:0000b658       ??_C@_1IG@FDCPLALG@?$AA_?$AAt?$AAv?$AAa?$AAl?$AAi?$AAd?$AAa?$AAt?$AAe?$AA_?$AAp?$AAa?$AAr?$AAa?$AAm?$AA_?$AAr?$AAe?$AAu?$AAs?$AAe?$AA?$CI?$AA?$CG?$AAp?$AAo?$AAs?$AA_?$AAv?$AAa?$AAl?$AAu@ 0045b658     LIBCMTD:woutputp.obj
 0002:0000b6e0       ??_C@_1EM@BNPHBBIA@?$AA?$CI?$AA?$CI?$AAt?$AAy?$AAp?$AAe?$AA_?$AAp?$AAo?$AAs?$AA?$DO?$AA?$DN?$AA0?$AA?$CJ?$AA?5?$AA?$CG?$AA?$CG?$AA?5?$AA?$CI?$AAt?$AAy?$AAp?$AAe?$AA_?$AAp?$AAo?$AAs?$AA?$DM?$AA_?$AAA?$AAR?$AAG@ 0045b6e0     LIBCMTD:woutputp.obj
 0002:0000b730       ??_C@_1IK@EIEPDKHJ@?$AA_?$AAt?$AAv?$AAa?$AAl?$AAi?$AAd?$AAa?$AAt?$AAe?$AA_?$AAp?$AAa?$AAr?$AAa?$AAm?$AA_?$AAr?$AAe?$AAu?$AAs?$AAe?$AA?$CI?$AA?$CG?$AAp?$AAo?$AAs?$AA_?$AAv?$AAa?$AAl?$AAu@ 0045b730     LIBCMTD:woutputp.obj
 0002:0000b7c0       ??_C@_1JG@JBJBOCFB@?$AA?$CI?$AA?$CI?$AAp?$AAr?$AAe?$AAc?$AAi?$AAs?$AA_?$AAp?$AAo?$AAs?$AA?5?$AA?$DO?$AA?$DN?$AA?5?$AA0?$AA?$CJ?$AA?5?$AA?$CG?$AA?$CG?$AA?5?$AA?$CI?$AA?$CK?$AAe?$AAn?$AAd?$AA_?$AAp?$AAo?$AAs?$AA?5@ 0045b7c0     LIBCMTD:woutputp.obj
 0002:0000b858       ??_C@_1II@PIPIMLPF@?$AA_?$AAt?$AAv?$AAa?$AAl?$AAi?$AAd?$AAa?$AAt?$AAe?$AA_?$AAp?$AAa?$AAr?$AAa?$AAm?$AA_?$AAr?$AAe?$AAu?$AAs?$AAe?$AA?$CI?$AA?$CG?$AAp?$AAo?$AAs?$AA_?$AAv?$AAa?$AAl?$AAu@ 0045b858     LIBCMTD:woutputp.obj
 0002:0000b8e0       ??_C@_1JE@NMBHOLFI@?$AA?$CI?$AA?$CI?$AAw?$AAi?$AAd?$AAt?$AAh?$AA_?$AAp?$AAo?$AAs?$AA?5?$AA?$DO?$AA?$DN?$AA?5?$AA0?$AA?$CJ?$AA?5?$AA?$CG?$AA?$CG?$AA?5?$AA?$CI?$AA?$CK?$AAe?$AAn?$AAd?$AA_?$AAp?$AAo?$AAs?$AA?5?$AA?$DN@ 0045b8e0     LIBCMTD:woutputp.obj
 0002:0000b978       ??_C@_1JC@PFJNKEIO@?$AA?$CI?$AA?$CI?$AAt?$AAy?$AAp?$AAe?$AA_?$AAp?$AAo?$AAs?$AA?5?$AA?$DO?$AA?$DN?$AA?5?$AA0?$AA?$CJ?$AA?5?$AA?$CG?$AA?$CG?$AA?5?$AA?$CI?$AA?$CK?$AAe?$AAn?$AAd?$AA_?$AAp?$AAo?$AAs?$AA?5?$AA?$DN?$AA?$DN@ 0045b978     LIBCMTD:woutputp.obj
 0002:0000ba0c       ??_C@_1BK@GDEKGMNC@?$AA_?$AAw?$AAo?$AAu?$AAt?$AAp?$AAu?$AAt?$AA_?$AAp?$AA_?$AAl?$AA?$AA@ 0045ba0c     LIBCMTD:woutputp.obj
 0002:0000ba28       ??_C@_1BK@KHBCJPCH@?$AA_?$AAw?$AAm?$AAa?$AAk?$AAe?$AAp?$AAa?$AAt?$AAh?$AA_?$AAs?$AA?$AA@ 0045ba28     LIBCMTD:wmakepath_s.obj
 0002:0000ba48       ??_C@_1GO@DHMODCKM@?$AAf?$AA?3?$AA?2?$AAd?$AAd?$AA?2?$AAv?$AAc?$AAt?$AAo?$AAo?$AAl?$AAs?$AA?2?$AAc?$AAr?$AAt?$AA_?$AAb?$AAl?$AAd?$AA?2?$AAs?$AAe?$AAl?$AAf?$AA_?$AAx?$AA8?$AA6?$AA?2?$AAc@ 0045ba48     LIBCMTD:wmakepath_s.obj
 0002:0000bab8       ??_C@_1DE@MLEJGPLF@?$AA?$CI?$AAL?$AA?$CC?$AAI?$AAn?$AAv?$AAa?$AAl?$AAi?$AAd?$AA?5?$AAp?$AAa?$AAr?$AAa?$AAm?$AAe?$AAt?$AAe?$AAr?$AA?$CC?$AA?0?$AA?5?$AA0?$AA?$CJ?$AA?$AA@ 0045bab8     LIBCMTD:wsplitpath_s.obj
 0002:0000baec       ??_C@_1BM@OEAFIBCF@?$AA_?$AAw?$AAs?$AAp?$AAl?$AAi?$AAt?$AAp?$AAa?$AAt?$AAh?$AA_?$AAs?$AA?$AA@ 0045baec     LIBCMTD:wsplitpath_s.obj
 0002:0000bb08       ??_C@_1HA@GHKPFCBF@?$AAf?$AA?3?$AA?2?$AAd?$AAd?$AA?2?$AAv?$AAc?$AAt?$AAo?$AAo?$AAl?$AAs?$AA?2?$AAc?$AAr?$AAt?$AA_?$AAb?$AAl?$AAd?$AA?2?$AAs?$AAe?$AAl?$AAf?$AA_?$AAx?$AA8?$AA6?$AA?2?$AAc@ 0045bb08     LIBCMTD:wsplitpath_s.obj
 0002:0000bb78       ??_C@_1CI@MLPLHPBP@?$AA?$CI?$AA?$CI?$AA?$CI?$AA_?$AAP?$AAa?$AAt?$AAh?$AA?$CJ?$AA?$CJ?$AA?$CJ?$AA?5?$AA?$CB?$AA?$DN?$AA?5?$AAN?$AAU?$AAL?$AAL?$AA?$AA@ 0045bb78     LIBCMTD:wsplitpath_s.obj
 0002:0000bba0       ??_C@_0BK@CIDNPOGP@GetUserObjectInformationA?$AA@ 0045bba0     LIBCMTD:crtmbox.obj
 0002:0000bbbc       ??_C@_0M@CHKKJDAI@MessageBoxA?$AA@ 0045bbbc     LIBCMTD:crtmbox.obj
 0002:0000bbc8       ??_C@_1GE@GJCMHHMH@?$AAf?$AA?3?$AA?2?$AAd?$AAd?$AA?2?$AAv?$AAc?$AAt?$AAo?$AAo?$AAl?$AAs?$AA?2?$AAc?$AAr?$AAt?$AA_?$AAb?$AAl?$AAd?$AA?2?$AAs?$AAe?$AAl?$AAf?$AA_?$AAx?$AA8?$AA6?$AA?2?$AAc@ 0045bbc8     LIBCMTD:inittime.obj
 0002:0000bc30       ??_C@_1EE@FDHCFDHN@?$AAp?$AAl?$AAo?$AAc?$AAi?$AA?9?$AA?$DO?$AAl?$AAc?$AA_?$AAt?$AAi?$AAm?$AAe?$AA_?$AAc?$AAu?$AAr?$AAr?$AA?9?$AA?$DO?$AAr?$AAe?$AAf?$AAc?$AAo?$AAu?$AAn?$AAt?$AA?5?$AA?$DO?$AA?5@ 0045bc30     LIBCMTD:inittime.obj
 0002:0000bc74       ??_C@_0DC@KICHHNFK@f?3?2dd?2vctools?2crt_bld?2self_x86?2c@ 0045bc74     LIBCMTD:inittime.obj
 0002:0000bca8       ??_C@_1GC@EDJOCBCL@?$AAf?$AA?3?$AA?2?$AAd?$AAd?$AA?2?$AAv?$AAc?$AAt?$AAo?$AAo?$AAl?$AAs?$AA?2?$AAc?$AAr?$AAt?$AA_?$AAb?$AAl?$AAd?$AA?2?$AAs?$AAe?$AAl?$AAf?$AA_?$AAx?$AA8?$AA6?$AA?2?$AAc@ 0045bca8     LIBCMTD:initnum.obj
 0002:0000bd0c       ??_C@_1DM@IFKAINNE@?$AAp?$AAl?$AAo?$AAc?$AAi?$AA?9?$AA?$DO?$AAl?$AAc?$AAo?$AAn?$AAv?$AA_?$AAn?$AAu?$AAm?$AA_?$AAr?$AAe?$AAf?$AAc?$AAo?$AAu?$AAn?$AAt?$AA?5?$AA?$DO?$AA?5?$AA0?$AA?$AA@ 0045bd0c     LIBCMTD:initnum.obj
 0002:0000bd48       ??_C@_0DB@KKFMDHFI@f?3?2dd?2vctools?2crt_bld?2self_x86?2c@ 0045bd48     LIBCMTD:initnum.obj
 0002:0000bd80       ??_C@_1GC@IKADOFBJ@?$AAf?$AA?3?$AA?2?$AAd?$AAd?$AA?2?$AAv?$AAc?$AAt?$AAo?$AAo?$AAl?$AAs?$AA?2?$AAc?$AAr?$AAt?$AA_?$AAb?$AAl?$AAd?$AA?2?$AAs?$AAe?$AAl?$AAf?$AA_?$AAx?$AA8?$AA6?$AA?2?$AAc@ 0045bd80     LIBCMTD:initmon.obj
 0002:0000bde4       ??_C@_1DM@GKAPAMDO@?$AAp?$AAl?$AAo?$AAc?$AAi?$AA?9?$AA?$DO?$AAl?$AAc?$AAo?$AAn?$AAv?$AA_?$AAm?$AAo?$AAn?$AA_?$AAr?$AAe?$AAf?$AAc?$AAo?$AAu?$AAn?$AAt?$AA?5?$AA?$DO?$AA?5?$AA0?$AA?$AA@ 0045bde4     LIBCMTD:initmon.obj
 0002:0000be20       ??_C@_0DB@BECNGFDL@f?3?2dd?2vctools?2crt_bld?2self_x86?2c@ 0045be20     LIBCMTD:initmon.obj
 0002:0000be58       ___newctype                0045be58     LIBCMTD:ctype.obj
 0002:0000c158       __wctype                   0045c158     LIBCMTD:ctype.obj
 0002:0000c360       ___newclmap                0045c360     LIBCMTD:ctype.obj
 0002:0000c4e0       ___newcumap                0045c4e0     LIBCMTD:ctype.obj
 0002:0000c660       ??_C@_1O@CEDCILHN@?$AA?$CI?$AAn?$AAu?$AAl?$AAl?$AA?$CJ?$AA?$AA@ 0045c660     LIBCMTD:output.obj
 0002:0000c670       ??_C@_06OJHGLDPL@?$CInull?$CJ?$AA@ 0045c670     LIBCMTD:output.obj
 0002:0000c678       ___lookuptable             0045c678     LIBCMTD:output.obj
 0002:0000c6d4       ??_C@_1CC@IFFHEMNF@?$AA?$CI?$AAc?$AAh?$AA?5?$AA?$CB?$AA?$DN?$AA?5?$AA_?$AAT?$AA?$CI?$AA?8?$AA?2?$AA0?$AA?8?$AA?$CJ?$AA?$CJ?$AA?$AA@ 0045c6d4     LIBCMTD:output.obj
 0002:0000c6f8       ??_C@_1BAA@ODEGEDCK@?$AA?$CI?$AA?5?$AA?$CI?$AA_?$AAS?$AAt?$AAr?$AAe?$AAa?$AAm?$AA?9?$AA?$DO?$AA_?$AAf?$AAl?$AAa?$AAg?$AA?5?$AA?$CG?$AA?5?$AA_?$AAI?$AAO?$AAS?$AAT?$AAR?$AAG?$AA?$CJ?$AA?5?$AA?$HM?$AA?$HM?$AA?5@ 0045c6f8     LIBCMTD:output.obj
 0002:0000c7f8       ??_C@_1BE@IONLIDNC@?$AA_?$AAo?$AAu?$AAt?$AAp?$AAu?$AAt?$AA_?$AAl?$AA?$AA@ 0045c7f8     LIBCMTD:output.obj
 0002:0000c80c       ??_C@_1BI@IGILPKD@?$AA_?$AAv?$AAs?$AAp?$AAr?$AAi?$AAn?$AAt?$AAf?$AA_?$AAl?$AA?$AA@ 0045c80c     LIBCMTD:vsprintf.obj
 0002:0000c824       ??_C@_1CE@HMKDJHB@?$AA_?$AAv?$AAs?$AAc?$AAp?$AAr?$AAi?$AAn?$AAt?$AAf?$AA_?$AAh?$AAe?$AAl?$AAp?$AAe?$AAr?$AA?$AA@ 0045c824     LIBCMTD:vsprintf.obj
 0002:0000c848       ??_C@_07LCBHPJJN@LC_TIME?$AA@ 0045c848     LIBCMTD:setlocal.obj
 0002:0000c850       ??_C@_0L@DLHIECNL@LC_NUMERIC?$AA@ 0045c850     LIBCMTD:setlocal.obj
 0002:0000c85c       ??_C@_0M@MIENIKLA@LC_MONETARY?$AA@ 0045c85c     LIBCMTD:setlocal.obj
 0002:0000c868       ??_C@_08EADHIDAD@LC_CTYPE?$AA@ 0045c868     LIBCMTD:setlocal.obj
 0002:0000c874       ??_C@_0L@KFJHEKIK@LC_COLLATE?$AA@ 0045c874     LIBCMTD:setlocal.obj
 0002:0000c880       ??_C@_06NEFDFEKB@LC_ALL?$AA@ 0045c880     LIBCMTD:setlocal.obj
 0002:0000c888       ___lc_category             0045c888     LIBCMTD:setlocal.obj
 0002:0000c950       ??_C@_1CI@FGIONOJM@?$AA_?$AAc?$AAo?$AAn?$AAf?$AAi?$AAg?$AAt?$AAh?$AAr?$AAe?$AAa?$AAd?$AAl?$AAo?$AAc?$AAa?$AAl?$AAe?$AA?$AA@ 0045c950     LIBCMTD:setlocal.obj
 0002:0000c978       ??_C@_1GE@OLEIGPBJ@?$AAf?$AA?3?$AA?2?$AAd?$AAd?$AA?2?$AAv?$AAc?$AAt?$AAo?$AAo?$AAl?$AAs?$AA?2?$AAc?$AAr?$AAt?$AA_?$AAb?$AAl?$AAd?$AA?2?$AAs?$AAe?$AAl?$AAf?$AA_?$AAx?$AA8?$AA6?$AA?2?$AAc@ 0045c978     LIBCMTD:setlocal.obj
 0002:0000c9e0       ??_C@_1GA@LDEGDKD@?$AA?$CI?$AA?$CC?$AAI?$AAn?$AAv?$AAa?$AAl?$AAi?$AAd?$AA?5?$AAp?$AAa?$AAr?$AAa?$AAm?$AAe?$AAt?$AAe?$AAr?$AA?5?$AAf?$AAo?$AAr?$AA?5?$AA_?$AAc?$AAo?$AAn?$AAf?$AAi?$AAg?$AAt@ 0045c9e0     LIBCMTD:setlocal.obj
 0002:0000ca40       ??_C@_0DC@JCPFNMID@f?3?2dd?2vctools?2crt_bld?2self_x86?2c@ 0045ca40     LIBCMTD:setlocal.obj
 0002:0000ca74       ??_C@_1BE@DBJGBOJC@?$AAs?$AAe?$AAt?$AAl?$AAo?$AAc?$AAa?$AAl?$AAe?$AA?$AA@ 0045ca74     LIBCMTD:setlocal.obj
 0002:0000ca88       ??_C@_1FG@OHLFEKMC@?$AAL?$AAC?$AA_?$AAM?$AAI?$AAN?$AA?5?$AA?$DM?$AA?$DN?$AA?5?$AA_?$AAc?$AAa?$AAt?$AAe?$AAg?$AAo?$AAr?$AAy?$AA?5?$AA?$CG?$AA?$CG?$AA?5?$AA_?$AAc?$AAa?$AAt?$AAe?$AAg?$AAo?$AAr?$AAy@ 0045ca88     LIBCMTD:setlocal.obj
 0002:0000cae0       ??_C@_1IA@PFIKKKFB@?$AAs?$AAt?$AAr?$AAn?$AAc?$AAp?$AAy?$AA_?$AAs?$AA?$CI?$AAl?$AAc?$AAt?$AAe?$AAm?$AAp?$AA?0?$AA?5?$AA?$CI?$AAs?$AAi?$AAz?$AAe?$AAo?$AAf?$AA?$CI?$AAl?$AAc?$AAt?$AAe?$AAm?$AAp@ 0045cae0     LIBCMTD:setlocal.obj
 0002:0000cb60       ??_C@_1CE@OFNHIOO@?$AA_?$AAs?$AAe?$AAt?$AAl?$AAo?$AAc?$AAa?$AAl?$AAe?$AA_?$AAn?$AAo?$AAl?$AAo?$AAc?$AAk?$AA?$AA@ 0045cb60     LIBCMTD:setlocal.obj
 0002:0000cb84       ??_C@_01ICJEACDI@?$DL?$AA@ 0045cb84     LIBCMTD:setlocal.obj
 0002:0000cb88       ??_C@_02BALPLPBG@?$DN?$DL?$AA@ 0045cb88     LIBCMTD:setlocal.obj
 0002:0000cb90       ??_C@_1GO@JALHLJEH@?$AAs?$AAt?$AAr?$AAc?$AAp?$AAy?$AA_?$AAs?$AA?$CI?$AAp?$AAc?$AAh?$AA?5?$AA?$CL?$AA?5?$AAs?$AAi?$AAz?$AAe?$AAo?$AAf?$AA?$CI?$AAi?$AAn?$AAt?$AA?$CJ?$AA?0?$AA?5?$AAc?$AAc?$AAh?$AA?5@ 0045cb90     LIBCMTD:setlocal.obj
 0002:0000cc00       ??_C@_1CG@IEFIICPK@?$AA_?$AAs?$AAe?$AAt?$AAl?$AAo?$AAc?$AAa?$AAl?$AAe?$AA_?$AAs?$AAe?$AAt?$AA_?$AAc?$AAa?$AAt?$AA?$AA@ 0045cc00     LIBCMTD:setlocal.obj
 0002:0000cc28       ??_C@_1DA@GDKKLCLM@?$AAs?$AAt?$AAr?$AAc?$AAa?$AAt?$AA_?$AAs?$AA?$CI?$AAp?$AAc?$AAh?$AA?0?$AA?5?$AAc?$AAc?$AAh?$AA?0?$AA?5?$AA?$CC?$AA?$DL?$AA?$CC?$AA?$CJ?$AA?$AA@ 0045cc28     LIBCMTD:setlocal.obj
 0002:0000cc58       ??_C@_1CG@NNFIJLDA@?$AA_?$AAs?$AAe?$AAt?$AAl?$AAo?$AAc?$AAa?$AAl?$AAe?$AA_?$AAg?$AAe?$AAt?$AA_?$AAa?$AAl?$AAl?$AA?$AA@ 0045cc58     LIBCMTD:setlocal.obj
 0002:0000cc80       ??_C@_1FA@MHAOOIBO@?$AAs?$AAt?$AAr?$AAc?$AAp?$AAy?$AA_?$AAs?$AA?$CI?$AAo?$AAu?$AAt?$AAp?$AAu?$AAt?$AA?0?$AA?5?$AAs?$AAi?$AAz?$AAe?$AAI?$AAn?$AAC?$AAh?$AAa?$AAr?$AAs?$AA?0?$AA?5?$AAc?$AAa@ 0045cc80     LIBCMTD:setlocal.obj
 0002:0000ccd0       ??_C@_1IA@ONNFOEDA@?$AAs?$AAt?$AAr?$AAn?$AAc?$AAp?$AAy?$AA_?$AAs?$AA?$CI?$AAc?$AAa?$AAc?$AAh?$AAe?$AAi?$AAn?$AA?0?$AA?5?$AAc?$AAa?$AAc?$AAh?$AAe?$AAi?$AAn?$AAS?$AAi?$AAz?$AAe?$AA?0?$AA?5@ 0045ccd0     LIBCMTD:setlocal.obj
 0002:0000cd50       ??_C@_01GFHCPBMG@C?$AA@    0045cd50     LIBCMTD:setlocal.obj
 0002:0000cd58       ??_C@_1EG@MOMHKOD@?$AAs?$AAt?$AAr?$AAc?$AAp?$AAy?$AA_?$AAs?$AA?$CI?$AAo?$AAu?$AAt?$AAp?$AAu?$AAt?$AA?0?$AA?5?$AAs?$AAi?$AAz?$AAe?$AAI?$AAn?$AAC?$AAh?$AAa?$AAr?$AAs?$AA?0?$AA?5?$AA?$CC?$AAC@ 0045cd58     LIBCMTD:setlocal.obj
 0002:0000cda0       ??_C@_1BM@OIIBLEFG@?$AA_?$AAe?$AAx?$AAp?$AAa?$AAn?$AAd?$AAl?$AAo?$AAc?$AAa?$AAl?$AAe?$AA?$AA@ 0045cda0     LIBCMTD:setlocal.obj
 0002:0000cdc0       ??_C@_1BGM@IJDLABMC@?$AAs?$AAt?$AAr?$AAc?$AAa?$AAt?$AA_?$AAs?$AA?$CI?$AAo?$AAu?$AAt?$AAs?$AAt?$AAr?$AA?0?$AA?5?$AAs?$AAi?$AAz?$AAe?$AAI?$AAn?$AAB?$AAy?$AAt?$AAe?$AAs?$AA?0?$AA?5?$AA?$CI?$AA?5@ 0045cdc0     LIBCMTD:setlocal.obj
 0002:0000cf2c       ??_C@_1BC@PIABMDIP@?$AA_?$AAs?$AAt?$AAr?$AAc?$AAa?$AAt?$AAs?$AA?$AA@ 0045cf2c     LIBCMTD:setlocal.obj
 0002:0000cf40       ??_C@_1MM@NOPMGFHF@?$AAs?$AAt?$AAr?$AAn?$AAc?$AAp?$AAy?$AA_?$AAs?$AA?$CI?$AAn?$AAa?$AAm?$AAe?$AAs?$AA?9?$AA?$DO?$AAs?$AAz?$AAC?$AAo?$AAd?$AAe?$AAP?$AAa?$AAg?$AAe?$AA?0?$AA?5?$AA?$CI?$AAs?$AAi@ 0045cf40     LIBCMTD:setlocal.obj
 0002:0000d010       ??_C@_1MG@PHNILIAG@?$AAs?$AAt?$AAr?$AAn?$AAc?$AAp?$AAy?$AA_?$AAs?$AA?$CI?$AAn?$AAa?$AAm?$AAe?$AAs?$AA?9?$AA?$DO?$AAs?$AAz?$AAC?$AAo?$AAu?$AAn?$AAt?$AAr?$AAy?$AA?0?$AA?5?$AA?$CI?$AAs?$AAi?$AAz@ 0045d010     LIBCMTD:setlocal.obj
 0002:0000d0d8       ??_C@_1MM@BFEECMAF@?$AAs?$AAt?$AAr?$AAn?$AAc?$AAp?$AAy?$AA_?$AAs?$AA?$CI?$AAn?$AAa?$AAm?$AAe?$AAs?$AA?9?$AA?$DO?$AAs?$AAz?$AAL?$AAa?$AAn?$AAg?$AAu?$AAa?$AAg?$AAe?$AA?0?$AA?5?$AA?$CI?$AAs?$AAi@ 0045d0d8     LIBCMTD:setlocal.obj
 0002:0000d1a4       ??_C@_03EGDHDPFD@_?4?0?$AA@ 0045d1a4     LIBCMTD:setlocal.obj
 0002:0000d1a8       ??_C@_1NG@FMOPGKGG@?$AAs?$AAt?$AAr?$AAn?$AAc?$AAp?$AAy?$AA_?$AAs?$AA?$CI?$AAn?$AAa?$AAm?$AAe?$AAs?$AA?9?$AA?$DO?$AAs?$AAz?$AAC?$AAo?$AAd?$AAe?$AAP?$AAa?$AAg?$AAe?$AA?0?$AA?5?$AA?$CI?$AAs?$AAi@ 0045d1a8     LIBCMTD:setlocal.obj
 0002:0000d280       ??_C@_1BK@CBMMLAGJ@?$AA_?$AA_?$AAl?$AAc?$AA_?$AAs?$AAt?$AAr?$AAt?$AAo?$AAl?$AAc?$AA?$AA@ 0045d280     LIBCMTD:setlocal.obj
 0002:0000d29c       ??_C@_01LFCBOECM@?4?$AA@   0045d29c     LIBCMTD:setlocal.obj
 0002:0000d2a0       ??_C@_01IDAFKMJL@_?$AA@    0045d2a0     LIBCMTD:setlocal.obj
 0002:0000d2a8       ??_C@_1HC@IBDBLKCB@?$AAs?$AAt?$AAr?$AAc?$AAp?$AAy?$AA_?$AAs?$AA?$CI?$AAl?$AAo?$AAc?$AAa?$AAl?$AAe?$AA?0?$AA?5?$AAs?$AAi?$AAz?$AAe?$AAI?$AAn?$AAB?$AAy?$AAt?$AAe?$AAs?$AA?0?$AA?5?$AA?$CI?$AAc@ 0045d2a8     LIBCMTD:setlocal.obj
 0002:0000d31c       ??_C@_1BK@FGDJDEPG@?$AA_?$AA_?$AAl?$AAc?$AA_?$AAl?$AAc?$AAt?$AAo?$AAs?$AAt?$AAr?$AA?$AA@ 0045d31c     LIBCMTD:setlocal.obj
 0002:0000d338       ___lookuptable_s           0045d338     LIBCMTD:outputs.obj
 0002:0000d394       ??_C@_1BI@COFBLHCG@?$AA_?$AAo?$AAu?$AAt?$AAp?$AAu?$AAt?$AA_?$AAs?$AA_?$AAl?$AA?$AA@ 0045d394     LIBCMTD:outputs.obj
 0002:0000d3b0       ??_C@_1IK@MHEDJAMK@?$AA_?$AAt?$AAv?$AAa?$AAl?$AAi?$AAd?$AAa?$AAt?$AAe?$AA_?$AAp?$AAa?$AAr?$AAa?$AAm?$AA_?$AAr?$AAe?$AAu?$AAs?$AAe?$AA?$CI?$AA?$CG?$AAp?$AAo?$AAs?$AA_?$AAv?$AAa?$AAl?$AAu@ 0045d3b0     LIBCMTD:outputp.obj
 0002:0000d43c       ??_C@_1BI@KANOLAMF@?$AA_?$AAo?$AAu?$AAt?$AAp?$AAu?$AAt?$AA_?$AAp?$AA_?$AAl?$AA?$AA@ 0045d43c     LIBCMTD:outputp.obj
 0002:0000d454       ??_C@_1BE@KHFBJMNM@?$AA_?$AAl?$AAs?$AAe?$AAe?$AAk?$AAi?$AA6?$AA4?$AA?$AA@ 0045d454     LIBCMTD:lseeki64.obj
 0002:0000d468       ??_C@_1GE@MINKPNPH@?$AAf?$AA?3?$AA?2?$AAd?$AAd?$AA?2?$AAv?$AAc?$AAt?$AAo?$AAo?$AAl?$AAs?$AA?2?$AAc?$AAr?$AAt?$AA_?$AAb?$AAl?$AAd?$AA?2?$AAs?$AAe?$AAl?$AAf?$AA_?$AAx?$AA8?$AA6?$AA?2?$AAc@ 0045d468     LIBCMTD:lseeki64.obj
 0002:0000d4cc       ??_C@_0DB@JEHOCBEJ@f?3?2dd?2vctools?2crt_bld?2self_x86?2c@ 0045d4cc     LIBCMTD:_getbuf.obj
 0002:0000d500       ??_C@_1GC@DKMGNNCC@?$AAf?$AA?3?$AA?2?$AAd?$AAd?$AA?2?$AAv?$AAc?$AAt?$AAo?$AAo?$AAl?$AAs?$AA?2?$AAc?$AAr?$AAt?$AA_?$AAb?$AAl?$AAd?$AA?2?$AAs?$AAe?$AAl?$AAf?$AA_?$AAx?$AA8?$AA6?$AA?2?$AAc@ 0045d500     LIBCMTD:_getbuf.obj
 0002:0000d564       ??_C@_1BA@LEBDGIHM@?$AA_?$AAi?$AAs?$AAa?$AAt?$AAt?$AAy?$AA?$AA@ 0045d564     LIBCMTD:isatty.obj
 0002:0000d578       ??_C@_1GA@LPGDJDEN@?$AAf?$AA?3?$AA?2?$AAd?$AAd?$AA?2?$AAv?$AAc?$AAt?$AAo?$AAo?$AAl?$AAs?$AA?2?$AAc?$AAr?$AAt?$AA_?$AAb?$AAl?$AAd?$AA?2?$AAs?$AAe?$AAl?$AAf?$AA_?$AAx?$AA8?$AA6?$AA?2?$AAc@ 0045d578     LIBCMTD:isatty.obj
 0002:0000d5d8       ??_C@_1O@GKDHFACN@?$AAp?$AAr?$AAi?$AAn?$AAt?$AAf?$AA?$AA@ 0045d5d8     LIBCMTD:printf.obj
 0002:0000d5e8       ??_C@_1GA@LHEGHOAF@?$AAf?$AA?3?$AA?2?$AAd?$AAd?$AA?2?$AAv?$AAc?$AAt?$AAo?$AAo?$AAl?$AAs?$AA?2?$AAc?$AAr?$AAt?$AA_?$AAb?$AAl?$AAd?$AA?2?$AAs?$AAe?$AAl?$AAf?$AA_?$AAx?$AA8?$AA6?$AA?2?$AAc@ 0045d5e8     LIBCMTD:printf.obj
 0002:0000d648       ??_C@_1GA@GFFDGGFH@?$AAf?$AA?3?$AA?2?$AAd?$AAd?$AA?2?$AAv?$AAc?$AAt?$AAo?$AAo?$AAl?$AAs?$AA?2?$AAc?$AAr?$AAt?$AA_?$AAb?$AAl?$AAd?$AA?2?$AAs?$AAe?$AAl?$AAf?$AA_?$AAx?$AA8?$AA6?$AA?2?$AAc@ 0045d648     LIBCMTD:mbtowc.obj
 0002:0000d6a8       ??_C@_1NC@EINCOKCO@?$AA_?$AAl?$AAo?$AAc?$AA_?$AAu?$AAp?$AAd?$AAa?$AAt?$AAe?$AA?4?$AAG?$AAe?$AAt?$AAL?$AAo?$AAc?$AAa?$AAl?$AAe?$AAT?$AA?$CI?$AA?$CJ?$AA?9?$AA?$DO?$AAl?$AAo?$AAc?$AAi?$AAn?$AAf@ 0045d6a8     LIBCMTD:mbtowc.obj
 0002:0000d77c       ??_C@_1O@HJNPHHHB@?$AAf?$AAp?$AAu?$AAt?$AAw?$AAc?$AA?$AA@ 0045d77c     LIBCMTD:fputwc.obj
 0002:0000d790       ??_C@_1GA@BJIGKGEA@?$AAf?$AA?3?$AA?2?$AAd?$AAd?$AA?2?$AAv?$AAc?$AAt?$AAo?$AAo?$AAl?$AAs?$AA?2?$AAc?$AAr?$AAt?$AA_?$AAb?$AAl?$AAd?$AA?2?$AAs?$AAe?$AAl?$AAf?$AA_?$AAx?$AA8?$AA6?$AA?2?$AAc@ 0045d790     LIBCMTD:fputwc.obj
 0002:0000d7f0       ??_C@_0L@KDOEJCKC@_nextafter?$AA@ 0045d7f0     LIBCMTD:_fpexcept_.obj
 0002:0000d7fc       ??_C@_05JGDBENOH@_logb?$AA@ 0045d7fc     LIBCMTD:_fpexcept_.obj
 0002:0000d804       ??_C@_03ONILCKOB@_yn?$AA@  0045d804     LIBCMTD:_fpexcept_.obj
 0002:0000d808       ??_C@_03NAKIGLHK@_y1?$AA@  0045d808     LIBCMTD:_fpexcept_.obj
 0002:0000d80c       ??_C@_03MJLDFKDL@_y0?$AA@  0045d80c     LIBCMTD:_fpexcept_.obj
 0002:0000d810       ??_C@_05GKKHEGJL@frexp?$AA@ 0045d810     LIBCMTD:_fpexcept_.obj
 0002:0000d818       ??_C@_04KEPJIHGP@fmod?$AA@ 0045d818     LIBCMTD:_fpexcept_.obj
 0002:0000d820       ??_C@_06MEIMCGCF@_hypot?$AA@ 0045d820     LIBCMTD:_fpexcept_.obj
 0002:0000d828       ??_C@_05KBKMEMPO@_cabs?$AA@ 0045d828     LIBCMTD:_fpexcept_.obj
 0002:0000d830       ??_C@_05CEJMAHNP@ldexp?$AA@ 0045d830     LIBCMTD:_fpexcept_.obj
 0002:0000d838       ??_C@_04EHEDPDJG@modf?$AA@ 0045d838     LIBCMTD:_fpexcept_.obj
 0002:0000d840       ??_C@_04ODHECPBC@fabs?$AA@ 0045d840     LIBCMTD:_fpexcept_.obj
 0002:0000d848       ??_C@_05PBJFFIGL@floor?$AA@ 0045d848     LIBCMTD:_fpexcept_.obj
 0002:0000d850       ??_C@_04GFPJNGEK@ceil?$AA@ 0045d850     LIBCMTD:_fpexcept_.obj
 0002:0000d858       ??_C@_03IIINPABG@tan?$AA@  0045d858     LIBCMTD:_fpexcept_.obj
 0002:0000d85c       ??_C@_03LALBNOCG@cos?$AA@  0045d85c     LIBCMTD:_fpexcept_.obj
 0002:0000d860       ??_C@_03BLEJJJBH@sin?$AA@  0045d860     LIBCMTD:_fpexcept_.obj
 0002:0000d864       ??_C@_04EIAKFFMI@sqrt?$AA@ 0045d864     LIBCMTD:_fpexcept_.obj
 0002:0000d86c       ??_C@_05KNGEOGJB@atan2?$AA@ 0045d86c     LIBCMTD:_fpexcept_.obj
 0002:0000d874       ??_C@_04MLLJIGOK@atan?$AA@ 0045d874     LIBCMTD:_fpexcept_.obj
 0002:0000d87c       ??_C@_04PDIFKINK@acos?$AA@ 0045d87c     LIBCMTD:_fpexcept_.obj
 0002:0000d884       ??_C@_04FIHNOPOL@asin?$AA@ 0045d884     LIBCMTD:_fpexcept_.obj
 0002:0000d88c       ??_C@_04FJHINJAO@tanh?$AA@ 0045d88c     LIBCMTD:_fpexcept_.obj
 0002:0000d894       ??_C@_04HPJJNFIM@cosh?$AA@ 0045d894     LIBCMTD:_fpexcept_.obj
 0002:0000d89c       ??_C@_04COOMCNPB@sinh?$AA@ 0045d89c     LIBCMTD:_fpexcept_.obj
 0002:0000d8a4       ??_C@_05HGHHAHAP@log10?$AA@ 0045d8a4     LIBCMTD:_fpexcept_.obj
 0002:0000d8ac       ??_C@_03MGHMBJCF@log?$AA@  0045d8ac     LIBCMTD:_fpexcept_.obj
 0002:0000d8b0       ??_C@_03JGHBODFD@pow?$AA@  0045d8b0     LIBCMTD:_fpexcept_.obj
 0002:0000d8b4       ??_C@_03KHJOGHMM@exp?$AA@  0045d8b4     LIBCMTD:_fpexcept_.obj
 0002:0000d8b8       ?commonFlags@?1??_control87@@9@9 0045d8b8     LIBCMTD:_ieee87_.obj
 0002:0000d8c0       ??_C@_1GO@OKJGOMCB@?$AA_?$AAc?$AAo?$AAn?$AAt?$AAr?$AAo?$AAl?$AAf?$AAp?$AA_?$AAs?$AA?$CI?$AA?$CI?$AA?$CI?$AAv?$AAo?$AAi?$AAd?$AA?5?$AA?$CK?$AA?$CJ?$AA0?$AA?$CJ?$AA?0?$AA?5?$AAn?$AAe?$AAw?$AAc?$AAt?$AAr@ 0045d8c0     LIBCMTD:_ieee87_.obj
 0002:0000d930       ??_C@_1BO@OFDNCLL@?$AA_?$AAs?$AAe?$AAt?$AA_?$AAc?$AAo?$AAn?$AAt?$AAr?$AAo?$AAl?$AAf?$AAp?$AA?$AA@ 0045d930     LIBCMTD:_ieee87_.obj
 0002:0000d950       ??_C@_1HO@BFDKGHOI@?$AAf?$AA?3?$AA?2?$AAd?$AAd?$AA?2?$AAv?$AAc?$AAt?$AAo?$AAo?$AAl?$AAs?$AA?2?$AAc?$AAr?$AAt?$AA_?$AAb?$AAl?$AAd?$AA?2?$AAs?$AAe?$AAl?$AAf?$AA_?$AAx?$AA8?$AA6?$AA?2?$AAc@ 0045d950     LIBCMTD:_ieee87_.obj
 0002:0000d9d0       ??_C@_1BO@IHLJHOPI@?$AA_?$AA_?$AAs?$AAt?$AAr?$AAg?$AAt?$AAo?$AAl?$AAd?$AA1?$AA2?$AA_?$AAl?$AA?$AA@ 0045d9d0     LIBCMTD:_strgtold_.obj
 0002:0000d9f0       ??_C@_1IG@IGKPPFIM@?$AAf?$AA?3?$AA?2?$AAd?$AAd?$AA?2?$AAv?$AAc?$AAt?$AAo?$AAo?$AAl?$AAs?$AA?2?$AAc?$AAr?$AAt?$AA_?$AAb?$AAl?$AAd?$AA?2?$AAs?$AAe?$AAl?$AAf?$AA_?$AAx?$AA8?$AA6?$AA?2?$AAc@ 0045d9f0     LIBCMTD:_strgtold_.obj
 0002:0000da78       ??_C@_1CA@MBDBOHIB@?$AA_?$AAL?$AAo?$AAc?$AAa?$AAl?$AAe?$AA?5?$AA?$CB?$AA?$DN?$AA?5?$AAN?$AAU?$AAL?$AAL?$AA?$AA@ 0045da78     LIBCMTD:_strgtold_.obj
 0002:0000da98       ??_C@_06IMKFLFPG@1?$CDQNAN?$AA@ 0045da98     LIBCMTD:_x10fout_.obj
 0002:0000daa0       ??_C@_1EG@MCFPJJEM@?$AAs?$AAt?$AAr?$AAc?$AAp?$AAy?$AA_?$AAs?$AA?$CI?$AAf?$AAo?$AAs?$AA?9?$AA?$DO?$AAm?$AAa?$AAn?$AA?0?$AA?5?$AA2?$AA1?$AA?$CL?$AA1?$AA?0?$AA?5?$AA?$CC?$AA1?$AA?$CD?$AAQ?$AAN?$AAA?$AAN@ 0045daa0     LIBCMTD:_x10fout_.obj
 0002:0000dae8       ??_C@_05DNEBIAHO@1?$CDINF?$AA@ 0045dae8     LIBCMTD:_x10fout_.obj
 0002:0000daf0       ??_C@_1EE@ICBBBPAI@?$AAs?$AAt?$AAr?$AAc?$AAp?$AAy?$AA_?$AAs?$AA?$CI?$AAf?$AAo?$AAs?$AA?9?$AA?$DO?$AAm?$AAa?$AAn?$AA?0?$AA?5?$AA2?$AA1?$AA?$CL?$AA1?$AA?0?$AA?5?$AA?$CC?$AA1?$AA?$CD?$AAI?$AAN?$AAF?$AA?$CC@ 0045daf0     LIBCMTD:_x10fout_.obj
 0002:0000db34       ??_C@_05PHHOCPM@1?$CDIND?$AA@ 0045db34     LIBCMTD:_x10fout_.obj
 0002:0000db40       ??_C@_1EE@MADEBIHF@?$AAs?$AAt?$AAr?$AAc?$AAp?$AAy?$AA_?$AAs?$AA?$CI?$AAf?$AAo?$AAs?$AA?9?$AA?$DO?$AAm?$AAa?$AAn?$AA?0?$AA?5?$AA2?$AA1?$AA?$CL?$AA1?$AA?0?$AA?5?$AA?$CC?$AA1?$AA?$CD?$AAI?$AAN?$AAD?$AA?$CC@ 0045db40     LIBCMTD:_x10fout_.obj
 0002:0000db84       ??_C@_06PGGFOGJG@1?$CDSNAN?$AA@ 0045db84     LIBCMTD:_x10fout_.obj
 0002:0000db90       ??_C@_1EG@CDDBFNOB@?$AAs?$AAt?$AAr?$AAc?$AAp?$AAy?$AA_?$AAs?$AA?$CI?$AAf?$AAo?$AAs?$AA?9?$AA?$DO?$AAm?$AAa?$AAn?$AA?0?$AA?5?$AA2?$AA1?$AA?$CL?$AA1?$AA?0?$AA?5?$AA?$CC?$AA1?$AA?$CD?$AAS?$AAN?$AAA?$AAN@ 0045db90     LIBCMTD:_x10fout_.obj
 0002:0000dbd8       ??_C@_1BI@ELMAAFLN@?$AA$?$AAI?$AA1?$AA0?$AA_?$AAO?$AAU?$AAT?$AAP?$AAU?$AAT?$AA?$AA@ 0045dbd8     LIBCMTD:_x10fout_.obj
 0002:0000dbf0       ??_C@_1HG@HFJMHCFK@?$AAf?$AA?3?$AA?2?$AAd?$AAd?$AA?2?$AAv?$AAc?$AAt?$AAo?$AAo?$AAl?$AAs?$AA?2?$AAc?$AAr?$AAt?$AA_?$AAb?$AAl?$AAd?$AA?2?$AAs?$AAe?$AAl?$AAf?$AA_?$AAx?$AA8?$AA6?$AA?2?$AAc@ 0045dbf0     LIBCMTD:_x10fout_.obj
 0002:0000dc68       ??_C@_0DB@KIKNCIEC@f?3?2dd?2vctools?2crt_bld?2self_x86?2c@ 0045dc68     LIBCMTD:osfinfo.obj
 0002:0000dc9c       ??_C@_1BO@EMBOBGKE@?$AA_?$AAg?$AAe?$AAt?$AA_?$AAo?$AAs?$AAf?$AAh?$AAa?$AAn?$AAd?$AAl?$AAe?$AA?$AA@ 0045dc9c     LIBCMTD:osfinfo.obj
 0002:0000dcc0       ??_C@_1GC@MLKLDJJG@?$AAf?$AA?3?$AA?2?$AAd?$AAd?$AA?2?$AAv?$AAc?$AAt?$AAo?$AAo?$AAl?$AAs?$AA?2?$AAc?$AAr?$AAt?$AA_?$AAb?$AAl?$AAd?$AA?2?$AAs?$AAe?$AAl?$AAf?$AA_?$AAx?$AA8?$AA6?$AA?2?$AAc@ 0045dcc0     LIBCMTD:osfinfo.obj
 0002:0000dd24       ??_C@_1O@EGMJNCOI@?$AAf?$AAc?$AAl?$AAo?$AAs?$AAe?$AA?$AA@ 0045dd24     LIBCMTD:fclose.obj
 0002:0000dd38       ??_C@_1GA@KMIDAPAP@?$AAf?$AA?3?$AA?2?$AAd?$AAd?$AA?2?$AAv?$AAc?$AAt?$AAo?$AAo?$AAl?$AAs?$AA?2?$AAc?$AAr?$AAt?$AA_?$AAb?$AAl?$AAd?$AA?2?$AAs?$AAe?$AAl?$AAf?$AA_?$AAx?$AA8?$AA6?$AA?2?$AAc@ 0045dd38     LIBCMTD:fclose.obj
 0002:0000dd98       ??_C@_1BO@JINCABEC@?$AA_?$AAf?$AAc?$AAl?$AAo?$AAs?$AAe?$AA_?$AAn?$AAo?$AAl?$AAo?$AAc?$AAk?$AA?$AA@ 0045dd98     LIBCMTD:fclose.obj
 0002:0000ddb8       ??_C@_1FE@CEHLKAHD@?$AAi?$AAb?$AAa?$AAs?$AAe?$AA?5?$AA?$DN?$AA?$DN?$AA?5?$AA0?$AA?5?$AA?$HM?$AA?$HM?$AA?5?$AA?$CI?$AA2?$AA?5?$AA?$DM?$AA?$DN?$AA?5?$AAi?$AAb?$AAa?$AAs?$AAe?$AA?5?$AA?$CG?$AA?$CG?$AA?5?$AAi?$AAb?$AAa@ 0045ddb8     LIBCMTD:wcstol.obj
 0002:0000de0c       ??_C@_1BA@PCFLFGNC@?$AAw?$AAc?$AAs?$AAt?$AAo?$AAx?$AAl?$AA?$AA@ 0045de0c     LIBCMTD:wcstol.obj
 0002:0000de20       ??_C@_1GA@CADFOND@?$AAf?$AA?3?$AA?2?$AAd?$AAd?$AA?2?$AAv?$AAc?$AAt?$AAo?$AAo?$AAl?$AAs?$AA?2?$AAc?$AAr?$AAt?$AA_?$AAb?$AAl?$AAd?$AA?2?$AAs?$AAe?$AAl?$AAf?$AA_?$AAx?$AA8?$AA6?$AA?2?$AAc@ 0045de20     LIBCMTD:wcstol.obj
 0002:0000de80       ??_C@_1BK@LAOAACLJ@?$AAn?$AAp?$AAt?$AAr?$AA?5?$AA?$CB?$AA?$DN?$AA?5?$AAN?$AAU?$AAL?$AAL?$AA?$AA@ 0045de80     LIBCMTD:wcstol.obj
 0002:0000de9c       ??_C@_1BA@LOLAMAJG@?$AAs?$AAt?$AAr?$AAt?$AAo?$AAx?$AAl?$AA?$AA@ 0045de9c     LIBCMTD:strtol.obj
 0002:0000deb0       ??_C@_1GA@IPHKKOEI@?$AAf?$AA?3?$AA?2?$AAd?$AAd?$AA?2?$AAv?$AAc?$AAt?$AAo?$AAo?$AAl?$AAs?$AA?2?$AAc?$AAr?$AAt?$AA_?$AAb?$AAl?$AAd?$AA?2?$AAs?$AAe?$AAl?$AAf?$AA_?$AAx?$AA8?$AA6?$AA?2?$AAc@ 0045deb0     LIBCMTD:strtol.obj
 0002:0000df10       ??_C@_1BA@BMMDEPNE@?$AAs?$AAt?$AAr?$AAt?$AAo?$AAx?$AAq?$AA?$AA@ 0045df10     LIBCMTD:strtoq.obj
 0002:0000df20       ??_C@_1GA@GIMEIKLC@?$AAf?$AA?3?$AA?2?$AAd?$AAd?$AA?2?$AAv?$AAc?$AAt?$AAo?$AAo?$AAl?$AAs?$AA?2?$AAc?$AAr?$AAt?$AA_?$AAb?$AAl?$AAd?$AA?2?$AAs?$AAe?$AAl?$AAf?$AA_?$AAx?$AA8?$AA6?$AA?2?$AAc@ 0045df20     LIBCMTD:strtoq.obj
 0002:0000df80       ??_C@_1BI@IEADNOHF@?$AA_?$AAw?$AAc?$AAt?$AAo?$AAm?$AAb?$AA_?$AAs?$AA_?$AAl?$AA?$AA@ 0045df80     LIBCMTD:wctomb.obj
 0002:0000df98       ??_C@_1GA@LDLHPOO@?$AAf?$AA?3?$AA?2?$AAd?$AAd?$AA?2?$AAv?$AAc?$AAt?$AAo?$AAo?$AAl?$AAs?$AA?2?$AAc?$AAr?$AAt?$AA_?$AAb?$AAl?$AAd?$AA?2?$AAs?$AAe?$AAl?$AAf?$AA_?$AAx?$AA8?$AA6?$AA?2?$AAc@ 0045df98     LIBCMTD:wctomb.obj
 0002:0000dff8       ??_C@_1CO@HFMIILNF@?$AAs?$AAi?$AAz?$AAe?$AAI?$AAn?$AAB?$AAy?$AAt?$AAe?$AAs?$AA?5?$AA?$DM?$AA?$DN?$AA?5?$AAI?$AAN?$AAT?$AA_?$AAM?$AAA?$AAX?$AA?$AA@ 0045dff8     LIBCMTD:wctomb.obj
 0002:0000e028       ??_C@_1DG@NMBGBDM@?$AAp?$AAl?$AAo?$AAc?$AAi?$AA?9?$AA?$DO?$AAc?$AAt?$AAy?$AAp?$AAe?$AA1?$AA_?$AAr?$AAe?$AAf?$AAc?$AAo?$AAu?$AAn?$AAt?$AA?5?$AA?$DO?$AA?5?$AA0?$AA?$AA@ 0045e028     LIBCMTD:initctyp.obj
 0002:0000e060       ??_C@_1GE@OCPKBDKE@?$AAf?$AA?3?$AA?2?$AAd?$AAd?$AA?2?$AAv?$AAc?$AAt?$AAo?$AAo?$AAl?$AAs?$AA?2?$AAc?$AAr?$AAt?$AA_?$AAb?$AAl?$AAd?$AA?2?$AAs?$AAe?$AAl?$AAf?$AA_?$AAx?$AA8?$AA6?$AA?2?$AAc@ 0045e060     LIBCMTD:initctyp.obj
 0002:0000e0c4       ??_C@_0DC@EHLBFILA@f?3?2dd?2vctools?2crt_bld?2self_x86?2c@ 0045e0c4     LIBCMTD:initctyp.obj
 0002:0000e0f8       ??_C@_0O@FMJNFNKE@united?9states?$AA@ 0045e0f8     LIBCMTD:getqloc.obj
 0002:0000e108       ??_C@_0P@NDHFFKCA@united?9kingdom?$AA@ 0045e108     LIBCMTD:getqloc.obj
 0002:0000e118       ??_C@_0BC@HHDADLGF@trinidad?5?$CG?5tobago?$AA@ 0045e118     LIBCMTD:getqloc.obj
 0002:0000e12c       ??_C@_0M@IOAEBDAC@south?9korea?$AA@ 0045e12c     LIBCMTD:getqloc.obj
 0002:0000e138       ??_C@_0N@FIELFKIJ@south?9africa?$AA@ 0045e138     LIBCMTD:getqloc.obj
 0002:0000e148       ??_C@_0M@OPNDHCMC@south?5korea?$AA@ 0045e148     LIBCMTD:getqloc.obj
 0002:0000e154       ??_C@_0N@MDEOEPFI@south?5africa?$AA@ 0045e154     LIBCMTD:getqloc.obj
 0002:0000e164       ??_C@_06FKAPCJLB@slovak?$AA@ 0045e164     LIBCMTD:getqloc.obj
 0002:0000e16c       ??_C@_0M@EFJANOAL@puerto?9rico?$AA@ 0045e16c     LIBCMTD:getqloc.obj
 0002:0000e178       ??_C@_08PGOJKDAI@pr?9china?$AA@ 0045e178     LIBCMTD:getqloc.obj
 0002:0000e184       ??_C@_08JHDOMCMI@pr?5china?$AA@ 0045e184     LIBCMTD:getqloc.obj
 0002:0000e190       ??_C@_02JHCHFBLL@nz?$AA@   0045e190     LIBCMTD:getqloc.obj
 0002:0000e194       ??_C@_0M@LINHDHKP@new?9zealand?$AA@ 0045e194     LIBCMTD:getqloc.obj
 0002:0000e1a0       ??_C@_09IIIPPBDB@hong?9kong?$AA@ 0045e1a0     LIBCMTD:getqloc.obj
 0002:0000e1ac       ??_C@_07HJLCKBG@holland?$AA@ 0045e1ac     LIBCMTD:getqloc.obj
 0002:0000e1b4       ??_C@_0O@LEHGMHAG@great?5britain?$AA@ 0045e1b4     LIBCMTD:getqloc.obj
 0002:0000e1c4       ??_C@_07FACOMELA@england?$AA@ 0045e1c4     LIBCMTD:getqloc.obj
 0002:0000e1cc       ??_C@_05JIHCEICB@czech?$AA@ 0045e1cc     LIBCMTD:getqloc.obj
 0002:0000e1d4       ??_C@_05BBJOBLGB@china?$AA@ 0045e1d4     LIBCMTD:getqloc.obj
 0002:0000e1dc       ??_C@_07GPKPHICP@britain?$AA@ 0045e1dc     LIBCMTD:getqloc.obj
 0002:0000e1e4       ??_C@_07MHIPBHMG@america?$AA@ 0045e1e4     LIBCMTD:getqloc.obj
 0002:0000e1ec       ??_C@_03KIALPMKC@usa?$AA@  0045e1ec     LIBCMTD:getqloc.obj
 0002:0000e1f0       ??_C@_02FGJGKGGD@us?$AA@   0045e1f0     LIBCMTD:getqloc.obj
 0002:0000e1f4       ??_C@_02NEINDODK@uk?$AA@   0045e1f4     LIBCMTD:getqloc.obj
 0002:0000e1f8       ??_C@_05JMPCFJFJ@swiss?$AA@ 0045e1f8     LIBCMTD:getqloc.obj
 0002:0000e200       ??_C@_0BA@HLOCPIOD@swedish?9finland?$AA@ 0045e200     LIBCMTD:getqloc.obj
 0002:0000e210       ??_C@_0BC@PKCNIABK@spanish?9venezuela?$AA@ 0045e210     LIBCMTD:getqloc.obj
 0002:0000e224       ??_C@_0BA@GBHHMIJI@spanish?9uruguay?$AA@ 0045e224     LIBCMTD:getqloc.obj
 0002:0000e234       ??_C@_0BE@BHDOHPMC@spanish?9puerto?5rico?$AA@ 0045e234     LIBCMTD:getqloc.obj
 0002:0000e248       ??_C@_0N@KMOIDGGN@spanish?9peru?$AA@ 0045e248     LIBCMTD:getqloc.obj
 0002:0000e258       ??_C@_0BB@HMHLPGPH@spanish?9paraguay?$AA@ 0045e258     LIBCMTD:getqloc.obj
 0002:0000e26c       ??_C@_0P@MCPKNGFD@spanish?9panama?$AA@ 0045e26c     LIBCMTD:getqloc.obj
 0002:0000e27c       ??_C@_0BC@IHOHGAIL@spanish?9nicaragua?$AA@ 0045e27c     LIBCMTD:getqloc.obj
 0002:0000e290       ??_C@_0P@KLMJDNFJ@spanish?9modern?$AA@ 0045e290     LIBCMTD:getqloc.obj
 0002:0000e2a0       ??_C@_0BA@BPAPGBCM@spanish?9mexican?$AA@ 0045e2a0     LIBCMTD:getqloc.obj
 0002:0000e2b0       ??_C@_0BB@PDECHHHE@spanish?9honduras?$AA@ 0045e2b0     LIBCMTD:getqloc.obj
 0002:0000e2c4       ??_C@_0BC@KLHKFGDB@spanish?9guatemala?$AA@ 0045e2c4     LIBCMTD:getqloc.obj
 0002:0000e2d8       ??_C@_0BE@MFOOKJAI@spanish?9el?5salvador?$AA@ 0045e2d8     LIBCMTD:getqloc.obj
 0002:0000e2ec       ??_C@_0BA@FCOKFPFC@spanish?9ecuador?$AA@ 0045e2ec     LIBCMTD:getqloc.obj
 0002:0000e2fc       ??_C@_0BL@PLMGIMOO@spanish?9dominican?5republic?$AA@ 0045e2fc     LIBCMTD:getqloc.obj
 0002:0000e318       ??_C@_0BD@HLGDNMHB@spanish?9costa?5rica?$AA@ 0045e318     LIBCMTD:getqloc.obj
 0002:0000e32c       ??_C@_0BB@PKCBKCPE@spanish?9colombia?$AA@ 0045e32c     LIBCMTD:getqloc.obj
 0002:0000e340       ??_C@_0O@MCBIJGNE@spanish?9chile?$AA@ 0045e340     LIBCMTD:getqloc.obj
 0002:0000e350       ??_C@_0BA@BEFEIGJJ@spanish?9bolivia?$AA@ 0045e350     LIBCMTD:getqloc.obj
 0002:0000e360       ??_C@_0BC@EMECMPD@spanish?9argentina?$AA@ 0045e360     LIBCMTD:getqloc.obj
 0002:0000e374       ??_C@_0BF@EALFLENP@portuguese?9brazilian?$AA@ 0045e374     LIBCMTD:getqloc.obj
 0002:0000e38c       ??_C@_0BC@HBLEBLNN@norwegian?9nynorsk?$AA@ 0045e38c     LIBCMTD:getqloc.obj
 0002:0000e3a0       ??_C@_0BB@HMACDDCK@norwegian?9bokmal?$AA@ 0045e3a0     LIBCMTD:getqloc.obj
 0002:0000e3b4       ??_C@_09BAFFPPHE@norwegian?$AA@ 0045e3b4     LIBCMTD:getqloc.obj
 0002:0000e3c0       ??_C@_0O@EAJFJDFG@italian?9swiss?$AA@ 0045e3c0     LIBCMTD:getqloc.obj
 0002:0000e3d0       ??_C@_0O@CNOMPGD@irish?9english?$AA@ 0045e3d0     LIBCMTD:getqloc.obj
 0002:0000e3e0       ??_C@_0N@EDHBGCKG@german?9swiss?$AA@ 0045e3e0     LIBCMTD:getqloc.obj
 0002:0000e3f0       ??_C@_0BC@JACMHNBP@german?9luxembourg?$AA@ 0045e3f0     LIBCMTD:getqloc.obj
 0002:0000e404       ??_C@_0BE@HBGMGFEG@german?9lichtenstein?$AA@ 0045e404     LIBCMTD:getqloc.obj
 0002:0000e418       ??_C@_0BA@HKKBIBKL@german?9austrian?$AA@ 0045e418     LIBCMTD:getqloc.obj
 0002:0000e428       ??_C@_0N@GCAEPEBK@french?9swiss?$AA@ 0045e428     LIBCMTD:getqloc.obj
 0002:0000e438       ??_C@_0BC@DJFJJCK@french?9luxembourg?$AA@ 0045e438     LIBCMTD:getqloc.obj
 0002:0000e44c       ??_C@_0BA@NNCEDFIC@french?9canadian?$AA@ 0045e44c     LIBCMTD:getqloc.obj
 0002:0000e45c       ??_C@_0P@CMPOCLM@french?9belgian?$AA@ 0045e45c     LIBCMTD:getqloc.obj
 0002:0000e46c       ??_C@_0M@GHHDJOK@english?9usa?$AA@ 0045e46c     LIBCMTD:getqloc.obj
 0002:0000e478       ??_C@_0L@PLDJKEIL@english?9us?$AA@ 0045e478     LIBCMTD:getqloc.obj
 0002:0000e484       ??_C@_0L@HJCCDMNC@english?9uk?$AA@ 0045e484     LIBCMTD:getqloc.obj
 0002:0000e490       ??_C@_0BK@CKLIAGJB@english?9trinidad?5y?5tobago?$AA@ 0045e490     LIBCMTD:getqloc.obj
 0002:0000e4ac       ??_C@_0BF@JMJMGNNF@english?9south?5africa?$AA@ 0045e4ac     LIBCMTD:getqloc.obj
 0002:0000e4c4       ??_C@_0L@DKIIFDFD@english?9nz?$AA@ 0045e4c4     LIBCMTD:getqloc.obj
 0002:0000e4d0       ??_C@_0BA@ONHGJCLH@english?9jamaica?$AA@ 0045e4d0     LIBCMTD:getqloc.obj
 0002:0000e4e0       ??_C@_0M@HJBGHOPO@english?9ire?$AA@ 0045e4e0     LIBCMTD:getqloc.obj
 0002:0000e4ec       ??_C@_0BC@LFEKMIFB@english?9caribbean?$AA@ 0045e4ec     LIBCMTD:getqloc.obj
 0002:0000e500       ??_C@_0M@OLDPFKHI@english?9can?$AA@ 0045e500     LIBCMTD:getqloc.obj
 0002:0000e50c       ??_C@_0P@OMDEHBMP@english?9belize?$AA@ 0045e50c     LIBCMTD:getqloc.obj
 0002:0000e51c       ??_C@_0M@KFHFPFED@english?9aus?$AA@ 0045e51c     LIBCMTD:getqloc.obj
 0002:0000e528       ??_C@_0BB@MNMBKDFE@english?9american?$AA@ 0045e528     LIBCMTD:getqloc.obj
 0002:0000e53c       ??_C@_0O@KIDLNNBA@dutch?9belgian?$AA@ 0045e53c     LIBCMTD:getqloc.obj
 0002:0000e54c       ??_C@_0BE@JBKABBMH@chinese?9traditional?$AA@ 0045e54c     LIBCMTD:getqloc.obj
 0002:0000e560       ??_C@_0BC@MJJMPKCG@chinese?9singapore?$AA@ 0045e560     LIBCMTD:getqloc.obj
 0002:0000e574       ??_C@_0BD@FDKADDCP@chinese?9simplified?$AA@ 0045e574     LIBCMTD:getqloc.obj
 0002:0000e588       ??_C@_0BB@DBEFDDME@chinese?9hongkong?$AA@ 0045e588     LIBCMTD:getqloc.obj
 0002:0000e59c       ??_C@_07DHNMFMCI@chinese?$AA@ 0045e59c     LIBCMTD:getqloc.obj
 0002:0000e5a4       ??_C@_03FNDDCHI@chi?$AA@   0045e5a4     LIBCMTD:getqloc.obj
 0002:0000e5a8       ??_C@_03BMMIADDJ@chh?$AA@  0045e5a8     LIBCMTD:getqloc.obj
 0002:0000e5ac       ??_C@_08OAIPJDGI@canadian?$AA@ 0045e5ac     LIBCMTD:getqloc.obj
 0002:0000e5b8       ??_C@_07HBPMNPNJ@belgian?$AA@ 0045e5b8     LIBCMTD:getqloc.obj
 0002:0000e5c0       ??_C@_0L@OEKOPBEL@australian?$AA@ 0045e5c0     LIBCMTD:getqloc.obj
 0002:0000e5cc       ??_C@_0BB@MEIMBEDG@american?9english?$AA@ 0045e5cc     LIBCMTD:getqloc.obj
 0002:0000e5e0       ??_C@_0BB@DFMDPDGB@american?5english?$AA@ 0045e5e0     LIBCMTD:getqloc.obj
 0002:0000e5f4       ??_C@_08IJLOKOLL@american?$AA@ 0045e5f4     LIBCMTD:getqloc.obj
 0002:0000e600       ___rg_language             0045e600     LIBCMTD:getqloc.obj
 0002:0000e808       ___rg_country              0045e808     LIBCMTD:getqloc.obj
 0002:0000e8c0       ___rglangidNotDefault      0045e8c0     LIBCMTD:getqloc.obj
 0002:0000e8d4       ??_C@_0BC@NFIEMBLL@Norwegian?9Nynorsk?$AA@ 0045e8d4     LIBCMTD:getqloc.obj
 0002:0000e8e8       ??_C@_1OM@OECHDGCF@?$AAs?$AAt?$AAr?$AAc?$AAp?$AAy?$AA_?$AAs?$AA?$CI?$AAl?$AAp?$AAO?$AAu?$AAt?$AAS?$AAt?$AAr?$AA?9?$AA?$DO?$AAs?$AAz?$AAL?$AAa?$AAn?$AAg?$AAu?$AAa?$AAg?$AAe?$AA?0?$AA?5?$AA?$CI@ 0045e8e8     LIBCMTD:getqloc.obj
 0002:0000e9d4       ??_C@_1CO@NJACLALJ@?$AA_?$AA_?$AAg?$AAe?$AAt?$AA_?$AAq?$AAu?$AAa?$AAl?$AAi?$AAf?$AAi?$AAe?$AAd?$AA_?$AAl?$AAo?$AAc?$AAa?$AAl?$AAe?$AA?$AA@ 0045e9d4     LIBCMTD:getqloc.obj
 0002:0000ea08       ??_C@_1GC@FECJGAE@?$AAf?$AA?3?$AA?2?$AAd?$AAd?$AA?2?$AAv?$AAc?$AAt?$AAo?$AAo?$AAl?$AAs?$AA?2?$AAc?$AAr?$AAt?$AA_?$AAb?$AAl?$AAd?$AA?2?$AAs?$AAe?$AAl?$AAf?$AA_?$AAx?$AA8?$AA6?$AA?2?$AAc@ 0045ea08     LIBCMTD:getqloc.obj
 0002:0000ea6c       ??_C@_03NFKLAGEF@OCP?$AA@  0045ea6c     LIBCMTD:getqloc.obj
 0002:0000ea70       ??_C@_03DFHEHBHG@ACP?$AA@  0045ea70     LIBCMTD:getqloc.obj
 0002:0000ea74       ??_C@_1BO@JGFPDJCP@?$AAv?$AAp?$AAr?$AAi?$AAn?$AAt?$AAf?$AA_?$AAh?$AAe?$AAl?$AAp?$AAe?$AAr?$AA?$AA@ 0045ea74     LIBCMTD:vprintf.obj
 0002:0000ea98       ??_C@_1GC@DHFFJKMC@?$AAf?$AA?3?$AA?2?$AAd?$AAd?$AA?2?$AAv?$AAc?$AAt?$AAo?$AAo?$AAl?$AAs?$AA?2?$AAc?$AAr?$AAt?$AA_?$AAb?$AAl?$AAd?$AA?2?$AAs?$AAe?$AAl?$AAf?$AA_?$AAx?$AA8?$AA6?$AA?2?$AAc@ 0045ea98     LIBCMTD:vprintf.obj
 0002:0000eafc       ??_C@_1BA@BALFACEM@?$AAC?$AAO?$AAN?$AAO?$AAU?$AAT?$AA$?$AA?$AA@ 0045eafc     LIBCMTD:initcon.obj
 0002:0000eb0c       ??_C@_1O@EDEJGJBM@?$AA_?$AAc?$AAl?$AAo?$AAs?$AAe?$AA?$AA@ 0045eb0c     LIBCMTD:close.obj
 0002:0000eb20       ??_C@_1FO@NNGNFGFH@?$AAf?$AA?3?$AA?2?$AAd?$AAd?$AA?2?$AAv?$AAc?$AAt?$AAo?$AAo?$AAl?$AAs?$AA?2?$AAc?$AAr?$AAt?$AA_?$AAb?$AAl?$AAd?$AA?2?$AAs?$AAe?$AAl?$AAf?$AA_?$AAx?$AA8?$AA6?$AA?2?$AAc@ 0045eb20     LIBCMTD:close.obj
 0002:0000eb80       ??_C@_1BG@GLLONOEH@?$AA_?$AAs?$AAt?$AAr?$AAi?$AAc?$AAm?$AAp?$AA_?$AAl?$AA?$AA@ 0045eb80     LIBCMTD:stricmp.obj
 0002:0000eb98       ??_C@_1GC@OILHAOLL@?$AAf?$AA?3?$AA?2?$AAd?$AAd?$AA?2?$AAv?$AAc?$AAt?$AAo?$AAo?$AAl?$AAs?$AA?2?$AAc?$AAr?$AAt?$AA_?$AAb?$AAl?$AAd?$AA?2?$AAs?$AAe?$AAl?$AAf?$AA_?$AAx?$AA8?$AA6?$AA?2?$AAc@ 0045eb98     LIBCMTD:stricmp.obj
 0002:0000ebfc       ??_C@_1BC@JLGKKIIG@?$AA_?$AAs?$AAt?$AAr?$AAi?$AAc?$AAm?$AAp?$AA?$AA@ 0045ebfc     LIBCMTD:stricmp.obj
 0002:0000ec10       ??_C@_1CC@JLPHKJPH@?$AAc?$AAo?$AAu?$AAn?$AAt?$AA?5?$AA?$DM?$AA?$DN?$AA?5?$AAI?$AAN?$AAT?$AA_?$AAM?$AAA?$AAX?$AA?$AA@ 0045ec10     LIBCMTD:strnicmp.obj
 0002:0000ec34       ??_C@_1BI@BJLEPLEF@?$AA_?$AAs?$AAt?$AAr?$AAn?$AAi?$AAc?$AAm?$AAp?$AA_?$AAl?$AA?$AA@ 0045ec34     LIBCMTD:strnicmp.obj
 0002:0000ec50       ??_C@_1GE@CONPOJMA@?$AAf?$AA?3?$AA?2?$AAd?$AAd?$AA?2?$AAv?$AAc?$AAt?$AAo?$AAo?$AAl?$AAs?$AA?2?$AAc?$AAr?$AAt?$AA_?$AAb?$AAl?$AAd?$AA?2?$AAs?$AAe?$AAl?$AAf?$AA_?$AAx?$AA8?$AA6?$AA?2?$AAc@ 0045ec50     LIBCMTD:strnicmp.obj
 0002:0000ecb4       ??_C@_1BE@BHJDFFNA@?$AA_?$AAs?$AAt?$AAr?$AAn?$AAi?$AAc?$AAm?$AAp?$AA?$AA@ 0045ecb4     LIBCMTD:strnicmp.obj
 0002:0000ecc8       __load_config_used         0045ecc8     LIBCMTD:loadcfg.obj
 0002:0000ed6c       ??_R4CGameFrameWnd@@6BCWindowWnd@DuiLib@@@ 0045ed6c     GameDemo.obj
 0002:0000ed80       ??_R3CGameFrameWnd@@8      0045ed80     GameDemo.obj
 0002:0000ed90       ??_R2CGameFrameWnd@@8      0045ed90     GameDemo.obj
 0002:0000eda4       ??_R1A@?0A@EA@CGameFrameWnd@@8 0045eda4     GameDemo.obj
 0002:0000edc0       ??_R1A@?0A@EA@CWindowWnd@DuiLib@@8 0045edc0     GameDemo.obj
 0002:0000eddc       ??_R3CWindowWnd@DuiLib@@8  0045eddc     GameDemo.obj
 0002:0000edec       ??_R2CWindowWnd@DuiLib@@8  0045edec     GameDemo.obj
 0002:0000edf4       ??_R1BA@?0A@EA@INotifyUI@DuiLib@@8 0045edf4     GameDemo.obj
 0002:0000ee10       ??_R3INotifyUI@DuiLib@@8   0045ee10     GameDemo.obj
 0002:0000ee20       ??_R2INotifyUI@DuiLib@@8   0045ee20     GameDemo.obj
 0002:0000ee28       ??_R1A@?0A@EA@INotifyUI@DuiLib@@8 0045ee28     GameDemo.obj
 0002:0000ee44       ??_R1BE@?0A@EA@IListCallbackUI@DuiLib@@8 0045ee44     GameDemo.obj
 0002:0000ee60       ??_R3IListCallbackUI@DuiLib@@8 0045ee60     GameDemo.obj
 0002:0000ee70       ??_R2IListCallbackUI@DuiLib@@8 0045ee70     GameDemo.obj
 0002:0000ee78       ??_R1A@?0A@EA@IListCallbackUI@DuiLib@@8 0045ee78     GameDemo.obj
 0002:0000ee94       ??_R4CGameFrameWnd@@6BINotifyUI@DuiLib@@@ 0045ee94     GameDemo.obj
 0002:0000eea8       ??_R4CGameFrameWnd@@6BIListCallbackUI@DuiLib@@@ 0045eea8     GameDemo.obj
 0002:0000eebc       ??_R4INotifyUI@DuiLib@@6B@ 0045eebc     GameDemo.obj
 0002:0000eed0       ??_R4CListTextElementUI@DuiLib@@6BCControlUI@1@@ 0045eed0     GameDemo.obj
 0002:0000eee4       ??_R3CListTextElementUI@DuiLib@@8 0045eee4     GameDemo.obj
 0002:0000eef4       ??_R2CListTextElementUI@DuiLib@@8 0045eef4     GameDemo.obj
 0002:0000ef0c       ??_R1A@?0A@EA@CListTextElementUI@DuiLib@@8 0045ef0c     GameDemo.obj
 0002:0000ef28       ??_R1A@?0A@EA@CListLabelElementUI@DuiLib@@8 0045ef28     GameDemo.obj
 0002:0000ef44       ??_R3CListLabelElementUI@DuiLib@@8 0045ef44     GameDemo.obj
 0002:0000ef54       ??_R2CListLabelElementUI@DuiLib@@8 0045ef54     GameDemo.obj
 0002:0000ef68       ??_R1A@?0A@EA@CListElementUI@DuiLib@@8 0045ef68     GameDemo.obj
 0002:0000ef84       ??_R3CListElementUI@DuiLib@@8 0045ef84     GameDemo.obj
 0002:0000ef94       ??_R2CListElementUI@DuiLib@@8 0045ef94     GameDemo.obj
 0002:0000efa4       ??_R1A@?0A@EA@CControlUI@DuiLib@@8 0045efa4     GameDemo.obj
 0002:0000efc0       ??_R3CControlUI@DuiLib@@8  0045efc0     GameDemo.obj
 0002:0000efd0       ??_R2CControlUI@DuiLib@@8  0045efd0     GameDemo.obj
 0002:0000efd8       ??_R1EKA@?0A@EA@IListItemUI@DuiLib@@8 0045efd8     GameDemo.obj
 0002:0000eff4       ??_R3IListItemUI@DuiLib@@8 0045eff4     GameDemo.obj
 0002:0000f004       ??_R2IListItemUI@DuiLib@@8 0045f004     GameDemo.obj
 0002:0000f00c       ??_R1A@?0A@EA@IListItemUI@DuiLib@@8 0045f00c     GameDemo.obj
 0002:0000f028       ??_R4CListLabelElementUI@DuiLib@@6BCControlUI@1@@ 0045f028     GameDemo.obj
 0002:0000f03c       ??_R4CLoginFrameWnd@@6BCWindowWnd@DuiLib@@@ 0045f03c     GameDemo.obj
 0002:0000f050       ??_R3CLoginFrameWnd@@8     0045f050     GameDemo.obj
 0002:0000f060       ??_R2CLoginFrameWnd@@8     0045f060     GameDemo.obj
 0002:0000f074       ??_R1A@?0A@EA@CLoginFrameWnd@@8 0045f074     GameDemo.obj
 0002:0000f090       ??_R1BE@?0A@EA@IMessageFilterUI@DuiLib@@8 0045f090     GameDemo.obj
 0002:0000f0ac       ??_R3IMessageFilterUI@DuiLib@@8 0045f0ac     GameDemo.obj
 0002:0000f0bc       ??_R2IMessageFilterUI@DuiLib@@8 0045f0bc     GameDemo.obj
 0002:0000f0c4       ??_R1A@?0A@EA@IMessageFilterUI@DuiLib@@8 0045f0c4     GameDemo.obj
 0002:0000f0e0       ??_R4CLoginFrameWnd@@6BINotifyUI@DuiLib@@@ 0045f0e0     GameDemo.obj
 0002:0000f0f4       ??_R4CLoginFrameWnd@@6BIMessageFilterUI@DuiLib@@@ 0045f0f4     GameDemo.obj
 0002:0000f108       ??_R4IMessageFilterUI@DuiLib@@6B@ 0045f108     GameDemo.obj
 0002:0000f11c       ??_R4CDialogBuilderCallbackEx@@6B@ 0045f11c     GameDemo.obj
 0002:0000f130       ??_R3CDialogBuilderCallbackEx@@8 0045f130     GameDemo.obj
 0002:0000f140       ??_R2CDialogBuilderCallbackEx@@8 0045f140     GameDemo.obj
 0002:0000f14c       ??_R1A@?0A@EA@CDialogBuilderCallbackEx@@8 0045f14c     GameDemo.obj
 0002:0000f168       ??_R1A@?0A@EA@IDialogBuilderCallback@DuiLib@@8 0045f168     GameDemo.obj
 0002:0000f184       ??_R3IDialogBuilderCallback@DuiLib@@8 0045f184     GameDemo.obj
 0002:0000f194       ??_R2IDialogBuilderCallback@DuiLib@@8 0045f194     GameDemo.obj
 0002:0000f19c       ??_R4IDialogBuilderCallback@DuiLib@@6B@ 0045f19c     GameDemo.obj
 0002:0000f1b0       ??_R4GameListUI@@6BCControlUI@DuiLib@@@ 0045f1b0     GameDemo.obj
 0002:0000f1c4       ??_R3GameListUI@@8         0045f1c4     GameDemo.obj
 0002:0000f1d4       ??_R2GameListUI@@8         0045f1d4     GameDemo.obj
 0002:0000f1f8       ??_R1A@?0A@EA@GameListUI@@8 0045f1f8     GameDemo.obj
 0002:0000f214       ??_R1A@?0A@EA@CListUI@DuiLib@@8 0045f214     GameDemo.obj
 0002:0000f230       ??_R3CListUI@DuiLib@@8     0045f230     GameDemo.obj
 0002:0000f240       ??_R2CListUI@DuiLib@@8     0045f240     GameDemo.obj
 0002:0000f260       ??_R1A@?0A@EA@CVerticalLayoutUI@DuiLib@@8 0045f260     GameDemo.obj
 0002:0000f27c       ??_R3CVerticalLayoutUI@DuiLib@@8 0045f27c     GameDemo.obj
 0002:0000f28c       ??_R2CVerticalLayoutUI@DuiLib@@8 0045f28c     GameDemo.obj
 0002:0000f2a0       ??_R1A@?0A@EA@CContainerUI@DuiLib@@8 0045f2a0     GameDemo.obj
 0002:0000f2bc       ??_R3CContainerUI@DuiLib@@8 0045f2bc     GameDemo.obj
 0002:0000f2cc       ??_R2CContainerUI@DuiLib@@8 0045f2cc     GameDemo.obj
 0002:0000f2dc       ??_R1EKA@?0A@EA@IContainerUI@DuiLib@@8 0045f2dc     GameDemo.obj
 0002:0000f2f8       ??_R3IContainerUI@DuiLib@@8 0045f2f8     GameDemo.obj
 0002:0000f308       ??_R2IContainerUI@DuiLib@@8 0045f308     GameDemo.obj
 0002:0000f310       ??_R1A@?0A@EA@IContainerUI@DuiLib@@8 0045f310     GameDemo.obj
 0002:0000f32c       ??_R1EPE@?0A@EA@IListUI@DuiLib@@8 0045f32c     GameDemo.obj
 0002:0000f348       ??_R3IListUI@DuiLib@@8     0045f348     GameDemo.obj
 0002:0000f358       ??_R2IListUI@DuiLib@@8     0045f358     GameDemo.obj
 0002:0000f364       ??_R1A@?0A@EA@IListUI@DuiLib@@8 0045f364     GameDemo.obj
 0002:0000f380       ??_R1A@?0A@EA@IListOwnerUI@DuiLib@@8 0045f380     GameDemo.obj
 0002:0000f39c       ??_R3IListOwnerUI@DuiLib@@8 0045f39c     GameDemo.obj
 0002:0000f3ac       ??_R2IListOwnerUI@DuiLib@@8 0045f3ac     GameDemo.obj
 0002:0000f3b4       ??_R1EPE@?0A@EA@IListOwnerUI@DuiLib@@8 0045f3b4     GameDemo.obj
 0002:0000f3d0       ??_R4GameListUI@@6BIContainerUI@DuiLib@@@ 0045f3d0     GameDemo.obj
 0002:0000f3e4       ??_R4GameListUI@@6B@       0045f3e4     GameDemo.obj
 0002:0000f3f8       ??_R4DeskListUI@@6BCControlUI@DuiLib@@@ 0045f3f8     GameDemo.obj
 0002:0000f40c       ??_R3DeskListUI@@8         0045f40c     GameDemo.obj
 0002:0000f41c       ??_R2DeskListUI@@8         0045f41c     GameDemo.obj
 0002:0000f434       ??_R1A@?0A@EA@DeskListUI@@8 0045f434     GameDemo.obj
 0002:0000f450       ??_R1A@?0A@EA@CTileLayoutUI@DuiLib@@8 0045f450     GameDemo.obj
 0002:0000f46c       ??_R3CTileLayoutUI@DuiLib@@8 0045f46c     GameDemo.obj
 0002:0000f47c       ??_R2CTileLayoutUI@DuiLib@@8 0045f47c     GameDemo.obj
 0002:0000f490       ??_R4DeskListUI@@6BIContainerUI@DuiLib@@@ 0045f490     GameDemo.obj
 0002:0000f4a4       ??_R4IListCallbackUI@DuiLib@@6B@ 0045f4a4     GameDemo.obj
 0002:0000f4b8       ??_R4bad_alloc@std@@6B@    0045f4b8     GameDemo.obj
 0002:0000f4cc       ??_R3bad_alloc@std@@8      0045f4cc     GameDemo.obj
 0002:0000f4dc       ??_R2bad_alloc@std@@8      0045f4dc     GameDemo.obj
 0002:0000f4e8       ??_R1A@?0A@EA@bad_alloc@std@@8 0045f4e8     GameDemo.obj
 0002:0000f504       ??_R1A@?0A@EA@exception@std@@8 0045f504     GameDemo.obj
 0002:0000f520       ??_R3exception@std@@8      0045f520     GameDemo.obj
 0002:0000f530       ??_R2exception@std@@8      0045f530     GameDemo.obj
 0002:0000f538       ??_R4invalid_argument@std@@6B@ 0045f538     libcpmtd:xthrow.obj
 0002:0000f54c       ??_R3invalid_argument@std@@8 0045f54c     libcpmtd:xthrow.obj
 0002:0000f55c       ??_R2invalid_argument@std@@8 0045f55c     libcpmtd:xthrow.obj
 0002:0000f56c       ??_R1A@?0A@EA@invalid_argument@std@@8 0045f56c     libcpmtd:xthrow.obj
 0002:0000f588       ??_R1A@?0A@EA@logic_error@std@@8 0045f588     libcpmtd:xthrow.obj
 0002:0000f5a4       ??_R3logic_error@std@@8    0045f5a4     libcpmtd:xthrow.obj
 0002:0000f5b4       ??_R2logic_error@std@@8    0045f5b4     libcpmtd:xthrow.obj
 0002:0000f5c0       ??_R4logic_error@std@@6B@  0045f5c0     libcpmtd:xthrow.obj
 0002:0000f5d4       ??_R4length_error@std@@6B@ 0045f5d4     libcpmtd:xthrow.obj
 0002:0000f5e8       ??_R3length_error@std@@8   0045f5e8     libcpmtd:xthrow.obj
 0002:0000f5f8       ??_R2length_error@std@@8   0045f5f8     libcpmtd:xthrow.obj
 0002:0000f608       ??_R1A@?0A@EA@length_error@std@@8 0045f608     libcpmtd:xthrow.obj
 0002:0000f624       ??_R4out_of_range@std@@6B@ 0045f624     libcpmtd:xthrow.obj
 0002:0000f638       ??_R3out_of_range@std@@8   0045f638     libcpmtd:xthrow.obj
 0002:0000f648       ??_R2out_of_range@std@@8   0045f648     libcpmtd:xthrow.obj
 0002:0000f658       ??_R1A@?0A@EA@out_of_range@std@@8 0045f658     libcpmtd:xthrow.obj
 0002:0000f674       ??_R4overflow_error@std@@6B@ 0045f674     libcpmtd:xthrow.obj
 0002:0000f688       ??_R3overflow_error@std@@8 0045f688     libcpmtd:xthrow.obj
 0002:0000f698       ??_R2overflow_error@std@@8 0045f698     libcpmtd:xthrow.obj
 0002:0000f6a8       ??_R1A@?0A@EA@overflow_error@std@@8 0045f6a8     libcpmtd:xthrow.obj
 0002:0000f6c4       ??_R1A@?0A@EA@runtime_error@std@@8 0045f6c4     libcpmtd:xthrow.obj
 0002:0000f6e0       ??_R3runtime_error@std@@8  0045f6e0     libcpmtd:xthrow.obj
 0002:0000f6f0       ??_R2runtime_error@std@@8  0045f6f0     libcpmtd:xthrow.obj
 0002:0000f6fc       ??_R4runtime_error@std@@6B@ 0045f6fc     libcpmtd:xthrow.obj
 0002:0000f710       ??_R4type_info@@6B@        0045f710     LIBCMTD:typinfo.obj
 0002:0000f724       ??_R3type_info@@8          0045f724     LIBCMTD:typinfo.obj
 0002:0000f734       ??_R2type_info@@8          0045f734     LIBCMTD:typinfo.obj
 0002:0000f73c       ??_R1A@?0A@EA@type_info@@8 0045f73c     LIBCMTD:typinfo.obj
 0002:0000f758       ??_R4exception@std@@6B@    0045f758     LIBCMTD:stdexcpt.obj
 0002:0000f76c       ??_R4bad_cast@std@@6B@     0045f76c     LIBCMTD:stdexcpt.obj
 0002:0000f780       ??_R3bad_cast@std@@8       0045f780     LIBCMTD:stdexcpt.obj
 0002:0000f790       ??_R2bad_cast@std@@8       0045f790     LIBCMTD:stdexcpt.obj
 0002:0000f79c       ??_R1A@?0A@EA@bad_cast@std@@8 0045f79c     LIBCMTD:stdexcpt.obj
 0002:0000f7b8       ??_R4bad_typeid@std@@6B@   0045f7b8     LIBCMTD:stdexcpt.obj
 0002:0000f7cc       ??_R3bad_typeid@std@@8     0045f7cc     LIBCMTD:stdexcpt.obj
 0002:0000f7dc       ??_R2bad_typeid@std@@8     0045f7dc     LIBCMTD:stdexcpt.obj
 0002:0000f7e8       ??_R1A@?0A@EA@bad_typeid@std@@8 0045f7e8     LIBCMTD:stdexcpt.obj
 0002:0000f804       ??_R4__non_rtti_object@std@@6B@ 0045f804     LIBCMTD:stdexcpt.obj
 0002:0000f818       ??_R3__non_rtti_object@std@@8 0045f818     LIBCMTD:stdexcpt.obj
 0002:0000f828       ??_R2__non_rtti_object@std@@8 0045f828     LIBCMTD:stdexcpt.obj
 0002:0000f838       ??_R1A@?0A@EA@__non_rtti_object@std@@8 0045f838     LIBCMTD:stdexcpt.obj
 0002:0000f854       ??_R4bad_exception@std@@6B@ 0045f854     LIBCMTD:frame.obj
 0002:0000f868       ??_R3bad_exception@std@@8  0045f868     LIBCMTD:frame.obj
 0002:0000f878       ??_R2bad_exception@std@@8  0045f878     LIBCMTD:frame.obj
 0002:0000f884       ??_R1A@?0A@EA@bad_exception@std@@8 0045f884     LIBCMTD:frame.obj
 0002:0000f8a0       ___safe_se_handler_table   0045f8a0     <linker-defined>
 0002:0000f94c       ___rtc_iaa                 0045f94c     LIBCMTD:_initsect_.obj
 0002:0000f95c       ___rtc_izz                 0045f95c     LIBCMTD:_initsect_.obj
 0002:0000f960       ___rtc_taa                 0045f960     LIBCMTD:_initsect_.obj
 0002:0000f970       ___rtc_tzz                 0045f970     LIBCMTD:_initsect_.obj
 0002:0000ff40       __TI2?AVbad_alloc@std@@    0045ff40     GameDemo.obj
 0002:0000ff50       __CTA2?AVbad_alloc@std@@   0045ff50     GameDemo.obj
 0002:0000ff5c       __CT??_R0?AVbad_alloc@std@@@8??0bad_alloc@std@@QAE@ABV01@@Z12 0045ff5c     GameDemo.obj
 0002:0000ff78       __CT??_R0?AVexception@std@@@8??0exception@std@@QAE@ABV01@@Z12 0045ff78     GameDemo.obj
 0002:00010018       __TI3?AVinvalid_argument@std@@ 00460018     libcpmtd:xthrow.obj
 0002:00010028       __CTA3?AVinvalid_argument@std@@ 00460028     libcpmtd:xthrow.obj
 0002:00010038       __CT??_R0?AVinvalid_argument@std@@@8??0invalid_argument@std@@QAE@ABV01@@Z12 00460038     libcpmtd:xthrow.obj
 0002:00010054       __CT??_R0?AVlogic_error@std@@@8??0logic_error@std@@QAE@ABV01@@Z12 00460054     libcpmtd:xthrow.obj
 0002:00010070       __TI3?AVlength_error@std@@ 00460070     libcpmtd:xthrow.obj
 0002:00010080       __CTA3?AVlength_error@std@@ 00460080     libcpmtd:xthrow.obj
 0002:00010090       __CT??_R0?AVlength_error@std@@@8??0length_error@std@@QAE@ABV01@@Z12 00460090     libcpmtd:xthrow.obj
 0002:000100ac       __TI3?AVout_of_range@std@@ 004600ac     libcpmtd:xthrow.obj
 0002:000100bc       __CTA3?AVout_of_range@std@@ 004600bc     libcpmtd:xthrow.obj
 0002:000100cc       __CT??_R0?AVout_of_range@std@@@8??0out_of_range@std@@QAE@ABV01@@Z12 004600cc     libcpmtd:xthrow.obj
 0002:000100e8       __TI3?AVoverflow_error@std@@ 004600e8     libcpmtd:xthrow.obj
 0002:000100f8       __CTA3?AVoverflow_error@std@@ 004600f8     libcpmtd:xthrow.obj
 0002:00010108       __CT??_R0?AVoverflow_error@std@@@8??0overflow_error@std@@QAE@ABV01@@Z12 00460108     libcpmtd:xthrow.obj
 0002:00010124       __CT??_R0?AVruntime_error@std@@@8??0runtime_error@std@@QAE@ABV01@@Z12 00460124     libcpmtd:xthrow.obj
 0002:00010140       __TI2?AVruntime_error@std@@ 00460140     libcpmtd:xthrow.obj
 0002:00010150       __CTA2?AVruntime_error@std@@ 00460150     libcpmtd:xthrow.obj
 0002:000102bc       __TI2?AVbad_exception@std@@ 004602bc     LIBCMTD:frame.obj
 0002:000102cc       __CTA2?AVbad_exception@std@@ 004602cc     LIBCMTD:frame.obj
 0002:000102d8       __CT??_R0?AVbad_exception@std@@@8??0bad_exception@std@@QAE@ABV01@@Z12 004602d8     LIBCMTD:frame.obj
 0002:00010c44       __IMPORT_DESCRIPTOR_KERNEL32 00460c44     kernel32:KERNEL32.dll
 0002:00010c58       __IMPORT_DESCRIPTOR_USER32 00460c58     user32:USER32.dll
 0002:00010c6c       __IMPORT_DESCRIPTOR_GDI32  00460c6c     gdi32:GDI32.dll
 0002:00010c80       __IMPORT_DESCRIPTOR_ADVAPI32 00460c80     advapi32:ADVAPI32.dll
 0002:00010c94       __IMPORT_DESCRIPTOR_ole32  00460c94     ole32:ole32.dll
 0002:00010ca8       __IMPORT_DESCRIPTOR_DuiLib_ud 00460ca8     DuiLib_ud:DuiLib_ud.dll
 0002:00010cbc       __NULL_IMPORT_DESCRIPTOR   00460cbc     kernel32:KERNEL32.dll
 0003:00000000       ??_R0?AVCGameFrameWnd@@@8  00465000     GameDemo.obj
 0003:0000001c       ??_R0?AVCWindowWnd@DuiLib@@@8 0046501c     GameDemo.obj
 0003:0000003c       ??_R0?AVINotifyUI@DuiLib@@@8 0046503c     GameDemo.obj
 0003:0000005c       ??_R0?AVIListCallbackUI@DuiLib@@@8 0046505c     GameDemo.obj
 0003:00000084       ??_R0?AVCListTextElementUI@DuiLib@@@8 00465084     GameDemo.obj
 0003:000000ac       ??_R0?AVCListLabelElementUI@DuiLib@@@8 004650ac     GameDemo.obj
 0003:000000d8       ??_R0?AVCListElementUI@DuiLib@@@8 004650d8     GameDemo.obj
 0003:000000fc       ??_R0?AVCControlUI@DuiLib@@@8 004650fc     GameDemo.obj
 0003:0000011c       ??_R0?AVIListItemUI@DuiLib@@@8 0046511c     GameDemo.obj
 0003:00000140       ??_R0?AVCLoginFrameWnd@@@8 00465140     GameDemo.obj
 0003:00000160       ??_R0?AVIMessageFilterUI@DuiLib@@@8 00465160     GameDemo.obj
 0003:00000188       ??_R0?AVCDialogBuilderCallbackEx@@@8 00465188     GameDemo.obj
 0003:000001b0       ??_R0?AVIDialogBuilderCallback@DuiLib@@@8 004651b0     GameDemo.obj
 0003:000001dc       ??_R0?AVGameListUI@@@8     004651dc     GameDemo.obj
 0003:000001f8       ??_R0?AVCListUI@DuiLib@@@8 004651f8     GameDemo.obj
 0003:00000218       ??_R0?AVCVerticalLayoutUI@DuiLib@@@8 00465218     GameDemo.obj
 0003:00000240       ??_R0?AVCContainerUI@DuiLib@@@8 00465240     GameDemo.obj
 0003:00000264       ??_R0?AVIContainerUI@DuiLib@@@8 00465264     GameDemo.obj
 0003:00000288       ??_R0?AVIListUI@DuiLib@@@8 00465288     GameDemo.obj
 0003:000002a8       ??_R0?AVIListOwnerUI@DuiLib@@@8 004652a8     GameDemo.obj
 0003:000002cc       ??_R0?AVDeskListUI@@@8     004652cc     GameDemo.obj
 0003:000002e8       ??_R0?AVCTileLayoutUI@DuiLib@@@8 004652e8     GameDemo.obj
 0003:0000030c       ??_R0?AVbad_alloc@std@@@8  0046530c     GameDemo.obj
 0003:00000328       ??_R0?AVexception@std@@@8  00465328     GameDemo.obj
 0003:00000348       ??_R0?AVinvalid_argument@std@@@8 00465348     libcpmtd:xthrow.obj
 0003:0000036c       ??_R0?AVlogic_error@std@@@8 0046536c     libcpmtd:xthrow.obj
 0003:0000038c       ??_R0?AVlength_error@std@@@8 0046538c     libcpmtd:xthrow.obj
 0003:000003ac       ??_R0?AVout_of_range@std@@@8 004653ac     libcpmtd:xthrow.obj
 0003:000003cc       ??_R0?AVoverflow_error@std@@@8 004653cc     libcpmtd:xthrow.obj
 0003:000003f0       ??_R0?AVruntime_error@std@@@8 004653f0     libcpmtd:xthrow.obj
 0003:00000410       ___security_cookie         00465410     LIBCMTD:gs_cookie.obj
 0003:00000414       ___security_cookie_complement 00465414     LIBCMTD:gs_cookie.obj
 0003:00000418       ??_R0?AVtype_info@@@8      00465418     LIBCMTD:typinfo.obj
 0003:00000448       __fltused                  00465448     LIBCMTD:_fpinit_.obj
 0003:0000044c       __ldused                   0046544c     LIBCMTD:_fpinit_.obj
 0003:00000450       ??_R0?AVbad_cast@std@@@8   00465450     LIBCMTD:stdexcpt.obj
 0003:0000046c       ??_R0?AVbad_typeid@std@@@8 0046546c     LIBCMTD:stdexcpt.obj
 0003:0000048c       ??_R0?AV__non_rtti_object@std@@@8 0046548c     LIBCMTD:stdexcpt.obj
 0003:00000510       ___app_type                00465510     LIBCMTD:wincrt0.obj
 0003:00000514       ?_RTC_ErrorLevels@@3PAHA   00465514     LIBCMTD:_error_.obj
 0003:00000530       ___abort_behavior          00465530     LIBCMTD:abort.obj
 0003:00000534       ??_R0?AVbad_exception@std@@@8 00465534     LIBCMTD:frame.obj
 0003:00000560       ___flsindex                00465560     LIBCMTD:tidtable.obj
 0003:00000564       ___getvalueindex           00465564     LIBCMTD:tidtable.obj
 0003:00000688       __crtDbgFlag               00465688     LIBCMTD:dbgheap.obj
 0003:0000068c       ___crtDebugFillThreshold   0046568c     LIBCMTD:dbgheap.obj
 0003:00000694       __crtBreakAlloc            00465694     LIBCMTD:dbgheap.obj
 0003:0000069c       __crtAssertBusy            0046569c     LIBCMTD:dbgrptt.obj
 0003:000006a0       __CrtDbgMode               004656a0     LIBCMTD:dbgrptt.obj
 0003:000006ac       __CrtDbgFile               004656ac     LIBCMTD:dbgrptt.obj
 0003:00000830       __cfltcvt_tab              00465830     LIBCMTD:cmiscdat.obj
 0003:00000860       __pfnAllocHook             00465860     LIBCMTD:dbghook.obj
 0003:00000870       __iob                      00465870     LIBCMTD:_file.obj
 0003:00000af0       ___badioinfo               00465af0     LIBCMTD:ioinit.obj
 0003:00000b40       __NLG_Destination          00465b40     LIBCMTD:exsup.obj
 0003:00000b50       ___clocalestr              00465b50     LIBCMTD:nlsdata2.obj
 0003:00000b58       ___lc_time_c               00465b58     LIBCMTD:nlsdata2.obj
 0003:00000cc0       ___initiallocinfo          00465cc0     LIBCMTD:nlsdata2.obj
 0003:00000d98       ___ptlocinfo               00465d98     LIBCMTD:nlsdata2.obj
 0003:00000d9c       ___initiallocalestructinfo 00465d9c     LIBCMTD:nlsdata2.obj
 0003:00000da8       ___initialmbcinfo          00465da8     LIBCMTD:mbctype.obj
 0003:00000fc8       __mbctype                  00465fc8     LIBCMTD:mbctype.obj
 0003:000010d0       __mbcasemap                004660d0     LIBCMTD:mbctype.obj
 0003:000011d0       ___ptmbcinfo               004661d0     LIBCMTD:mbctype.obj
 0003:000012c8       ___globallocalestatus      004662c8     LIBCMTD:glstatus.obj
 0003:000012d0       ___lconv_static_decimal    004662d0     LIBCMTD:lconv.obj
 0003:000012d4       ___lconv_static_W_decimal  004662d4     LIBCMTD:lconv.obj
 0003:000012d8       ___lconv_c                 004662d8     LIBCMTD:lconv.obj
 0003:00001328       ___lconv                   00466328     LIBCMTD:lconv.obj
 0003:0000132c       __pctype                   0046632c     LIBCMTD:ctype.obj
 0003:00001330       __pwctype                  00466330     LIBCMTD:ctype.obj
 0003:00001334       ___nullstring              00466334     LIBCMTD:output.obj
 0003:00001338       ___wnullstring             00466338     LIBCMTD:output.obj
 0003:00001428       __matherr_flag             00466428     LIBCMTD:_matherr_.obj
 0003:00001478       ___mb_cur_max              00466478     LIBCMTD:nlsdata1.obj
 0003:0000147c       ___decimal_point           0046647c     LIBCMTD:nlsdata1.obj
 0003:00001480       ___decimal_point_length    00466480     LIBCMTD:nlsdata1.obj
 0003:00001490       __d_inf                    00466490     LIBCMTD:_util_.obj
 0003:00001498       __d_ind                    00466498     LIBCMTD:_util_.obj
 0003:000014a0       __d_max                    004664a0     LIBCMTD:_util_.obj
 0003:000014a8       __d_min                    004664a8     LIBCMTD:_util_.obj
 0003:000014b0       __d_mzero                  004664b0     LIBCMTD:_util_.obj
 0003:000014b8       __pow10pos                 004664b8     LIBCMTD:_constpow_.obj
 0003:00001618       __pow10neg                 00466618     LIBCMTD:_constpow_.obj
 0003:00001774       __confh                    00466774     LIBCMTD:initcon.obj
 0003:00001780       ?g_miniDumper@@3VCMiniDumper@@A 00466780     GameDemo.obj
 0003:00001dd4       ?s_pMiniDumper@CMiniDumper@@0PAV1@A 00466dd4     MiniDumper.obj
 0003:00001dd8       ?s_pCriticalSection@CMiniDumper@@0PAU_RTL_CRITICAL_SECTION@@A 00466dd8     MiniDumper.obj
 0003:00001e58       ___fastflag                00466e58     LIBCMTD:_fpinit_.obj
 0003:00001e5c       ___pInvalidArgHandler      00466e5c     LIBCMTD:invarg.obj
 0003:00001e60       __aenvptr                  00466e60     LIBCMTD:wincrt0.obj
 0003:00001e64       __wenvptr                  00466e64     LIBCMTD:wincrt0.obj
 0003:00001e68       ___error_mode              00466e68     LIBCMTD:wincrt0.obj
 0003:00001e6c       ?_pnhHeap@@3P6AHI@ZA       00466e6c     LIBCMTD:handler.obj
 0003:00002194       ?wsprintffp@@3P6AHPADPBDZZA 00467194     LIBCMTD:_error_.obj
 0003:000027d0       ___pPurecall               004677d0     LIBCMTD:inithelp.obj
 0003:000027d4       _gpFlsAlloc                004677d4     LIBCMTD:tidtable.obj
 0003:000027d8       _gpFlsGetValue             004677d8     LIBCMTD:tidtable.obj
 0003:000027dc       _gpFlsSetValue             004677dc     LIBCMTD:tidtable.obj
 0003:000027e0       _gpFlsFree                 004677e0     LIBCMTD:tidtable.obj
 0003:000027e4       ?__pInconsistency@@3P6AXXZA 004677e4     LIBCMTD:hooks.obj
 0003:00002964       ?_pfnDumpClient@@3P6AXPAXI@ZA 00467964     LIBCMTD:dbgheap.obj
 0003:0000296c       ___crtDebugCheckCount      0046796c     LIBCMTD:dbgheap.obj
 0003:00002974       __umaskval                 00467974     LIBCMTD:crt0dat.obj
 0003:00002978       ___argc                    00467978     LIBCMTD:crt0dat.obj
 0003:0000297c       ___argv                    0046797c     LIBCMTD:crt0dat.obj
 0003:00002980       ___wargv                   00467980     LIBCMTD:crt0dat.obj
 0003:00002984       __environ                  00467984     LIBCMTD:crt0dat.obj
 0003:00002988       ___initenv                 00467988     LIBCMTD:crt0dat.obj
 0003:0000298c       __wenviron                 0046798c     LIBCMTD:crt0dat.obj
 0003:00002990       ___winitenv                00467990     LIBCMTD:crt0dat.obj
 0003:00002994       __pgmptr                   00467994     LIBCMTD:crt0dat.obj
 0003:00002998       __wpgmptr                  00467998     LIBCMTD:crt0dat.obj
 0003:0000299c       __exitflag                 0046799c     LIBCMTD:crt0dat.obj
 0003:000029a0       __C_Termination_Done       004679a0     LIBCMTD:crt0dat.obj
 0003:000029a4       __C_Exit_Done              004679a4     LIBCMTD:crt0dat.obj
 0003:000029d4       __cflush                   004679d4     LIBCMTD:_file.obj
 0003:00002ae0       __crtheap                  00467ae0     LIBCMTD:heapinit.obj
 0003:00002ae4       __newmode                  00467ae4     LIBCMTD:_newmode.obj
 0003:00002b04       ?pArgList@UnDecorator@@0PAVReplicator@@A 00467b04     LIBCMTD:undname.obj
 0003:00002b08       ?pZNameList@UnDecorator@@0PAVReplicator@@A 00467b08     LIBCMTD:undname.obj
 0003:00002b0c       ?pTemplateArgList@UnDecorator@@0PAVReplicator@@A 00467b0c     LIBCMTD:undname.obj
 0003:00002b10       ?gName@UnDecorator@@0PBDB  00467b10     LIBCMTD:undname.obj
 0003:00002b14       ?name@UnDecorator@@0PBDB   00467b14     LIBCMTD:undname.obj
 0003:00002b18       ?outputString@UnDecorator@@0PADA 00467b18     LIBCMTD:undname.obj
 0003:00002b1c       ?maxStringLength@UnDecorator@@0HA 00467b1c     LIBCMTD:undname.obj
 0003:00002b20       ?disableFlags@UnDecorator@@0KA 00467b20     LIBCMTD:undname.obj
 0003:00002b24       ?m_pGetParameter@UnDecorator@@0P6APADJ@ZA 00467b24     LIBCMTD:undname.obj
 0003:00002b28       ?fExplicitTemplateParams@UnDecorator@@0_NA 00467b28     LIBCMTD:undname.obj
 0003:00002b29       ?fGetTemplateArgumentList@UnDecorator@@0_NA 00467b29     LIBCMTD:undname.obj
 0003:00002b80       ?nodes@?1??make@DNameStatusNode@@SAPAV2@W4DNameStatus@@@Z@4PAV2@A 00467b80     LIBCMTD:undname.obj
 0003:00002bb0       ??_B?1??make@DNameStatusNode@@SAPAV1@W4DNameStatus@@@Z@51 00467bb0     LIBCMTD:undname.obj
 0003:00002bb8       ___mbulinfo                00467bb8     LIBCMTD:mbctype.obj
 0003:00002bc4       ___mbcodepage              00467bc4     LIBCMTD:mbctype.obj
 0003:00002bc8       ___ismbcodepage            00467bc8     LIBCMTD:mbctype.obj
 0003:00002bcc       ___mblcid                  00467bcc     LIBCMTD:mbctype.obj
 0003:00002bd4       __outputformat             00467bd4     LIBCMTD:outputformat.obj
 0003:00002bd8       __stdbuf                   00467bd8     LIBCMTD:_sftbuf.obj
 0003:00002bf4       ___lconv_static_null       00467bf4     LIBCMTD:lconv.obj
 0003:00002bf8       ___lconv_static_W_null     00467bf8     LIBCMTD:lconv.obj
 0003:00002bfc       ___locale_changed          00467bfc     LIBCMTD:setlocal.obj
 0003:00002c04       ___setlc_active            00467c04     <common>
 0003:00002c08       ___unguarded_readlc_active 00467c08     <common>
 0003:00002c0c       __nhandle                  00467c0c     <common>
 0003:00002c20       ___pioinfo                 00467c20     <common>
 0003:00002d20       ___piob                    00467d20     <common>
 0003:00002d40       __bufin                    00467d40     <common>
 0003:00003d40       __nstream                  00468d40     <common>
 0003:00003d44       __debugger_hook_dummy      00468d44     <common>
 0003:00003d48       ___env_initialized         00468d48     <common>
 0003:00003d4c       ___onexitend               00468d4c     <common>
 0003:00003d50       ___onexitbegin             00468d50     <common>
 0003:00003d54       ___mbctype_initialized     00468d54     <common>
 0003:00003d58       ___dyn_tls_init_callback   00468d58     <common>
 0003:00003d5c       __pfnReportHook            00468d5c     <common>
 0003:00003d60       __pReportHookListW         00468d60     <common>
 0003:00003d64       __pReportHookList          00468d64     <common>
 0003:00003d68       ___sse2_available          00468d68     <common>
 0003:00003d6c       __acmdln                   00468d6c     <common>
 0003:00003d70       __NoHeapEnableTerminationOnCorruption 00468d70     <common>

 entry point at        0001:0000de90

 Static symbols

 0001:00007c24       __catch$?reserve@?$vector@PAVNode@GameListUI@@V?$allocator@PAVNode@GameListUI@@@std@@@std@@QAEXI@Z$0 00408c24 f i GameDemo.obj
 0001:00008c30       _time                      00409c30 f   MiniDumper.obj
 0001:0000abc0       ?CatchGuardHandler@@YA?AW4_EXCEPTION_DISPOSITION@@PAUEHExceptionRecord@@PAUCatchGuardRN@@PAX2@Z 0040bbc0 f   LIBCMTD:_trnsctrl_.obj
 0001:0000ad00       ?TranslatorGuardHandler@@YA?AW4_EXCEPTION_DISPOSITION@@PAUEHExceptionRecord@@PAUTranslatorGuardRN@@PAX2@Z 0040bd00 f   LIBCMTD:_trnsctrl_.obj
 0001:0000bae0       _xtow@16                   0040cae0 f   LIBCMTD:xtow.obj
 0001:0000bc70       @x64tow@20                 0040cc70 f   LIBCMTD:xtow.obj
 0001:0000c910       __onexit_nolock            0040d910 f   LIBCMTD:onexit.obj
 0001:0000d670       _swprintf                  0040e670 f   LIBCMTD:wassert.obj
 0001:0000deb0       ___tmainCRTStartup         0040eeb0 f   LIBCMTD:wincrt0.obj
 0001:0000e070       _fast_error_exit           0040f070 f   LIBCMTD:wincrt0.obj
 0001:0000e0a0       _check_managed_app         0040f0a0 f   LIBCMTD:wincrt0.obj
 0001:0000e3a0       ?failwithmessage@@YAXPAXHHPBD@Z 0040f3a0 f   LIBCMTD:_error_.obj
 0001:0000e5c0       ?DebuggerProbe@@YAHK@Z     0040f5c0 f   LIBCMTD:_error_.obj
 0001:0000e650       ?DebuggerRuntime@@YAHKHPAXPB_W@Z 0040f650 f   LIBCMTD:_error_.obj
 0001:0000e930       ?_getMemBlockDataString@@YAXPAD00I@Z 0040f930 f   LIBCMTD:_error_.obj
 0001:0000fc70       ?FindHandler@@YAXPAUEHExceptionRecord@@PAUEHRegistrationNode@@PAU_CONTEXT@@PAXPBU_s_FuncInfo@@EH1@Z 00410c70 f   LIBCMTD:frame.obj
 0001:000101c0       ?FindHandlerForForeignException@@YAXPAUEHExceptionRecord@@PAUEHRegistrationNode@@PAU_CONTEXT@@PAXPBU_s_FuncInfo@@HH1@Z 004111c0 f   LIBCMTD:frame.obj
 0001:00010600       ?CatchIt@@YAXPAUEHExceptionRecord@@PAUEHRegistrationNode@@PAU_CONTEXT@@PAXPBU_s_FuncInfo@@PBU_s_HandlerType@@PBU_s_CatchableType@@PBU_s_TryBlockMapEntry@@H1E@Z 00411600 f   LIBCMTD:frame.obj
 0001:000106c0       ?CallCatchBlock@@YAPAXPAUEHExceptionRecord@@PAUEHRegistrationNode@@PAU_CONTEXT@@PBU_s_FuncInfo@@PAXHK@Z 004116c0 f   LIBCMTD:frame.obj
 0001:00010950       ?ExFilterRethrow@@YAHPAU_EXCEPTION_POINTERS@@@Z 00411950 f   LIBCMTD:frame.obj
 0001:000115c0       ?IsInExceptionSpec@@YAEPAUEHExceptionRecord@@PBU_s_ESTypeList@@@Z 004125c0 f   LIBCMTD:frame.obj
 0001:00011680       ?CallUnexpected@@YAXPBU_s_ESTypeList@@@Z 00412680 f   LIBCMTD:frame.obj
 0001:000116ce       __catch$?CallUnexpected@@YAXPBU_s_ESTypeList@@@Z$0 004126ce f   LIBCMTD:frame.obj
 0001:00011710       ?Is_bad_exception_allowed@@YAEPBU_s_ESTypeList@@@Z 00412710 f   LIBCMTD:frame.obj
 0001:000125b0       __nh_malloc_dbg_impl       004135b0 f   LIBCMTD:dbgheap.obj
 0001:00012650       __heap_alloc_dbg_impl      00413650 f   LIBCMTD:dbgheap.obj
 0001:00012c20       _realloc_help              00413c20 f   LIBCMTD:dbgheap.obj
 0001:00013ce0       _CheckBytes                00414ce0 f   LIBCMTD:dbgheap.obj
 0001:00014bd0       ?_CrtMemDumpAllObjectsSince_stat@@YAXPBU_CrtMemState@@PAUlocaleinfo_struct@@@Z 00415bd0 f   LIBCMTD:dbgheap.obj
 0001:00014ee0       __printMemBlockData        00415ee0 f   LIBCMTD:dbgheap.obj
 0001:00015d20       _ValidateLocalCookies      00416d20 f   LIBCMTD:chandler4.obj
 0001:00017670       _doexit                    00418670 f   LIBCMTD:crt0dat.obj
 0001:00017960       __initterm                 00418960 f   LIBCMTD:crt0dat.obj
 0001:00017f90       _ctrlevent_capture@4       00418f90 f   LIBCMTD:winsig.obj
 0001:00018390       _siglookup                 00419390 f   LIBCMTD:winsig.obj
 0001:00019480       __cftoe2_l                 0041a480 f   LIBCMTD:cvt.obj
 0001:0001a220       __cftof2_l                 0041b220 f   LIBCMTD:cvt.obj
 0001:0001a800       __shift                    0041b800 f   LIBCMTD:cvt.obj
 0001:0001ae90       _xtow_s@20                 0041be90 f   LIBCMTD:xtows.obj
 0001:0001b2c0       @x64tow_s@24               0041c2c0 f   LIBCMTD:xtows.obj
 0001:0001c150       _flsall                    0041d150 f   LIBCMTD:fflush.obj
 0001:0001d9a0       _xcptlookup                0041e9a0 f   LIBCMTD:winxfltr.obj
 0001:0001dda0       _parse_cmdline             0041eda0 f   LIBCMTD:stdargv.obj
 0001:0001ea70       ?GetPdbDll@@YAPAUHINSTANCE__@@XZ 0041fa70 f   LIBCMTD:_pdblkup_.obj
 0001:0001eb60       ?GetPdbDllFromInstallPath@@YAPAUHINSTANCE__@@XZ 0041fb60 f   LIBCMTD:_pdblkup_.obj
 0001:0001ed20       ?GetPdbDllPathFromFilePath@@YAHPB_WPA_WI@Z 0041fd20 f   LIBCMTD:_pdblkup_.obj
 0001:00028ce0       ?und_strlen@@YAIPBD@Z      00429ce0 f   LIBCMTD:undname.obj
 0001:00028d20       ?und_memcpy@@YAXPADPBDI@Z  00429d20 f   LIBCMTD:undname.obj
 0001:00028d60       ?und_strncmp@@YAIPBD0I@Z   00429d60 f   LIBCMTD:undname.obj
 0001:00028f90       __unwind_handler4          00429f90 f   LIBCMTD:exsup4.obj
 0001:000294a0       ?__crtGetLocaleInfoA_stat@@YAHPAUlocaleinfo_struct@@KKPADH@Z 0042a4a0 f   LIBCMTD:a_loc.obj
 0001:00029700       __unwind_handler           0042a700 f   LIBCMTD:exsup.obj
 0001:0002a250       ?getSystemCP@@YAHH@Z       0042b250 f   LIBCMTD:mbctype.obj
 0001:0002a6b0       ?CPtoLCID@@YAHH@Z          0042b6b0 f   LIBCMTD:mbctype.obj
 0001:0002a730       ?setSBCS@@YAXPAUthreadmbcinfostruct@@@Z 0042b730 f   LIBCMTD:mbctype.obj
 0001:0002a810       ?setSBUpLow@@YAXPAUthreadmbcinfostruct@@@Z 0042b810 f   LIBCMTD:mbctype.obj
 0001:0002ad00       __is_LFH_enabled           0042bd00 f   LIBCMTD:expand.obj
 0001:0002cf40       _xtoa_s@20                 0042df40 f   LIBCMTD:xtoas.obj
 0001:0002d360       @x64toa_s@24               0042e360 f   LIBCMTD:xtoas.obj
 0001:0002dc10       ?wcsncnt@@YAIPB_WI@Z       0042ec10 f   LIBCMTD:wcstombs.obj
 0001:0002f5b0       _write_char                004305b0 f   LIBCMTD:woutput.obj
 0001:0002f610       _write_multi_char          00430610 f   LIBCMTD:woutput.obj
 0001:0002f650       _write_string              00430650 f   LIBCMTD:woutput.obj
 0001:00033c40       _write_char                00434c40 f   LIBCMTD:woutputs.obj
 0001:00033ca0       _write_multi_char          00434ca0 f   LIBCMTD:woutputs.obj
 0001:00033ce0       _write_string              00434ce0 f   LIBCMTD:woutputs.obj
 0001:00037640       _write_char                00438640 f   LIBCMTD:woutputp.obj
 0001:000376a0       _write_multi_char          004386a0 f   LIBCMTD:woutputp.obj
 0001:000376e0       _write_string              004386e0 f   LIBCMTD:woutputp.obj
 0001:00037aa0       ?x_ismbbtype_l@@YAHPAUlocaleinfo_struct@@IHH@Z 00438aa0 f   LIBCMTD:ismbbyte.obj
 0001:00038920       __get_lc_time              00439920 f   LIBCMTD:inittime.obj
 0001:00039f00       _fix_grouping              0043af00 f   LIBCMTD:initnum.obj
 0001:0003a5a0       _fix_grouping              0043b5a0 f   LIBCMTD:initmon.obj
 0001:0003a8e0       ?__crtLCMapStringA_stat@@YAHPAUlocaleinfo_struct@@KKPBDHPADHHH@Z 0043b8e0 f   LIBCMTD:a_map.obj
 0001:0003ab70       ?strncnt@@YAHPBDH@Z        0043bb70 f   LIBCMTD:a_map.obj
 0001:0003ac20       ?__crtGetStringTypeA_stat@@YAHPAUlocaleinfo_struct@@KPBDHPAGHHH@Z 0043bc20 f   LIBCMTD:a_str.obj
 0001:0003c000       _write_char                0043d000 f   LIBCMTD:output.obj
 0001:0003c0b0       _write_multi_char          0043d0b0 f   LIBCMTD:output.obj
 0001:0003c0f0       _write_string              0043d0f0 f   LIBCMTD:output.obj
 0001:0003ce40       __copytlocinfo_nolock      0043de40 f   LIBCMTD:setlocal.obj
 0001:0003d260       _sync_legacy_variables_lk  0043e260 f   LIBCMTD:setlocal.obj
 0001:0003d2a0       __setlocale_nolock         0043e2a0 f   LIBCMTD:setlocal.obj
 0001:0003d690       __setlocale_set_cat        0043e690 f   LIBCMTD:setlocal.obj
 0001:0003dbc0       __setlocale_get_all        0043ebc0 f   LIBCMTD:setlocal.obj
 0001:0003f8c0       _write_char                004408c0 f   LIBCMTD:outputs.obj
 0001:0003f970       _write_multi_char          00440970 f   LIBCMTD:outputs.obj
 0001:0003f9b0       _write_string              004409b0 f   LIBCMTD:outputs.obj
 0001:00043740       _write_char                00444740 f   LIBCMTD:outputp.obj
 0001:000437f0       _write_multi_char          004447f0 f   LIBCMTD:outputp.obj
 0001:00043830       _write_string              00444830 f   LIBCMTD:outputp.obj
 0001:00045320       __get_fname                00446320 f   LIBCMTD:_fpexcept_.obj
 0001:00045a50       __abstract_cw              00446a50 f   LIBCMTD:_ieee87_.obj
 0001:00045ba0       __hw_cw                    00446ba0 f   LIBCMTD:_ieee87_.obj
 0001:00045d00       __abstract_sw              00446d00 f   LIBCMTD:_ieee87_.obj
 0001:00045d90       ___statusfp_sse2           00446d90 f   LIBCMTD:_ieee87_.obj
 0001:00045db0       ___clearfp_sse2            00446db0 f   LIBCMTD:_ieee87_.obj
 0001:00045de0       ___control87_sse2          00446de0 f   LIBCMTD:_ieee87_.obj
 0001:00045e60       ___abstract_cw_sse2        00446e60 f   LIBCMTD:_ieee87_.obj
 0001:00045fb0       ___hw_cw_sse2              00446fb0 f   LIBCMTD:_ieee87_.obj
 0001:00046100       ___abstract_sw_sse2        00447100 f   LIBCMTD:_ieee87_.obj
 0001:00046190       ___fpreset_sse2            00447190 f   LIBCMTD:_ieee87_.obj
 0001:00048cd0       ?wcstoxl@@YAKPB_WPAPB_WHH@Z 00449cd0 f   LIBCMTD:wcstol.obj
 0001:00049130       ?strtoxl@@YAKPAUlocaleinfo_struct@@PBDPAPBDHH@Z 0044a130 f   LIBCMTD:strtol.obj
 0001:00049710       ?strtoxq@@YA_KPAUlocaleinfo_struct@@PBDPAPBDHH@Z 0044a710 f   LIBCMTD:strtoq.obj
 0001:0004ac80       _cmpBYTE                   0044bc80 f   LIBCMTD:memcmp.obj
 0001:0004acb0       _cmpResult                 0044bcb0 f   LIBCMTD:memcmp.obj
 0001:0004acd0       _unaligned_memcmp          0044bcd0 f   LIBCMTD:memcmp.obj
 0001:0004b3e0       _cmpWORD                   0044c3e0 f   LIBCMTD:memcmp.obj
 0001:0004b460       _cmpDWORD                  0044c460 f   LIBCMTD:memcmp.obj
 0001:0004b7e0       _TranslateName             0044c7e0 f   LIBCMTD:getqloc.obj
 0001:0004b870       _GetLcidFromLangCountry    0044c870 f   LIBCMTD:getqloc.obj
 0001:0004b930       _LangCountryEnumProc@4     0044c930 f   LIBCMTD:getqloc.obj
 0001:0004bd70       _GetLcidFromLanguage       0044cd70 f   LIBCMTD:getqloc.obj
 0001:0004bdf0       _LanguageEnumProc@4        0044cdf0 f   LIBCMTD:getqloc.obj
 0001:0004bf90       _GetLcidFromCountry        0044cf90 f   LIBCMTD:getqloc.obj
 0001:0004bfe0       _CountryEnumProc@4         0044cfe0 f   LIBCMTD:getqloc.obj
 0001:0004c0e0       _GetLcidFromDefault        0044d0e0 f   LIBCMTD:getqloc.obj
 0001:0004c120       _ProcessCodePage           0044d120 f   LIBCMTD:getqloc.obj
 0001:0004c1d0       _TestDefaultCountry        0044d1d0 f   LIBCMTD:getqloc.obj
 0001:0004c220       _TestDefaultLanguage       0044d220 f   LIBCMTD:getqloc.obj
 0001:0004c2a0       _LcidFromHexString         0044d2a0 f   LIBCMTD:getqloc.obj
 0001:0004c320       _GetPrimaryLen             0044d320 f   LIBCMTD:getqloc.obj
 0001:0004dc00       __unwindfunclet$?Notify@CGameFrameWnd@@UAEXAAUtagTNotifyUI@DuiLib@@@Z$0 0044ec00 f   GameDemo.obj
 0001:0004dc15       __unwindfunclet$?Notify@CGameFrameWnd@@UAEXAAUtagTNotifyUI@DuiLib@@@Z$1 0044ec15 f   GameDemo.obj
 0001:0004dc2a       __unwindfunclet$?Notify@CGameFrameWnd@@UAEXAAUtagTNotifyUI@DuiLib@@@Z$2 0044ec2a f   GameDemo.obj
 0001:0004dc3f       __unwindfunclet$?Notify@CGameFrameWnd@@UAEXAAUtagTNotifyUI@DuiLib@@@Z$3 0044ec3f f   GameDemo.obj
 0001:0004dc54       __unwindfunclet$?Notify@CGameFrameWnd@@UAEXAAUtagTNotifyUI@DuiLib@@@Z$4 0044ec54 f   GameDemo.obj
 0001:0004dc69       __ehhandler$?Notify@CGameFrameWnd@@UAEXAAUtagTNotifyUI@DuiLib@@@Z 0044ec69 f   GameDemo.obj
 0001:0004dca0       __unwindfunclet$?ExpandNode@GameListUI@@QAEXPAVNode@1@_N@Z$0 0044eca0 f   GameDemo.obj
 0001:0004dcb5       __ehhandler$?ExpandNode@GameListUI@@QAEXPAVNode@1@_N@Z 0044ecb5 f   GameDemo.obj
 0001:0004dce0       __unwindfunclet$?OnPrepare@CGameFrameWnd@@QAEXXZ$0 0044ece0 f   GameDemo.obj
 0001:0004dceb       __unwindfunclet$?OnPrepare@CGameFrameWnd@@QAEXXZ$1 0044eceb f   GameDemo.obj
 0001:0004dcf6       __ehhandler$?OnPrepare@CGameFrameWnd@@QAEXXZ 0044ecf6 f   GameDemo.obj
 0001:0004dd20       __unwindfunclet$?AddNode@GameListUI@@QAEPAVNode@1@PB_WPAV21@@Z$0 0044ed20 f   GameDemo.obj
 0001:0004dd2e       __unwindfunclet$?AddNode@GameListUI@@QAEPAVNode@1@PB_WPAV21@@Z$1 0044ed2e f   GameDemo.obj
 0001:0004dd3c       __unwindfunclet$?AddNode@GameListUI@@QAEPAVNode@1@PB_WPAV21@@Z$2 0044ed3c f   GameDemo.obj
 0001:0004dd51       __ehhandler$?AddNode@GameListUI@@QAEPAVNode@1@PB_WPAV21@@Z 0044ed51 f   GameDemo.obj
 0001:0004dd80       __unwindfunclet$??0Node@GameListUI@@QAE@XZ$0 0044ed80 f   GameDemo.obj
 0001:0004dd88       __ehhandler$??0Node@GameListUI@@QAE@XZ 0044ed88 f   GameDemo.obj
 0001:0004ddb0       __unwindfunclet$??1Node@GameListUI@@QAE@XZ$0 0044edb0 f   GameDemo.obj
 0001:0004ddb8       __unwindfunclet$??1Node@GameListUI@@QAE@XZ$1 0044edb8 f   GameDemo.obj
 0001:0004ddc3       __ehhandler$??1Node@GameListUI@@QAE@XZ 0044edc3 f   GameDemo.obj
 0001:0004dde0       __unwindfunclet$?Notify@CLoginFrameWnd@@UAEXAAUtagTNotifyUI@DuiLib@@@Z$0 0044ede0 f   GameDemo.obj
 0001:0004ddf5       __unwindfunclet$?Notify@CLoginFrameWnd@@UAEXAAUtagTNotifyUI@DuiLib@@@Z$1 0044edf5 f   GameDemo.obj
 0001:0004de0a       __unwindfunclet$?Notify@CLoginFrameWnd@@UAEXAAUtagTNotifyUI@DuiLib@@@Z$2 0044ee0a f   GameDemo.obj
 0001:0004de1f       __unwindfunclet$?Notify@CLoginFrameWnd@@UAEXAAUtagTNotifyUI@DuiLib@@@Z$3 0044ee1f f   GameDemo.obj
 0001:0004de34       __ehhandler$?Notify@CLoginFrameWnd@@UAEXAAUtagTNotifyUI@DuiLib@@@Z 0044ee34 f   GameDemo.obj
 0001:0004de60       __unwindfunclet$?OnCreate@CLoginFrameWnd@@QAEJIIJAAH@Z$0 0044ee60 f   GameDemo.obj
 0001:0004de75       __ehhandler$?OnCreate@CLoginFrameWnd@@QAEJIIJAAH@Z 0044ee75 f   GameDemo.obj
 0001:0004dea0       __unwindfunclet$?Init@CLoginFrameWnd@@QAEXXZ$0 0044eea0 f   GameDemo.obj
 0001:0004deb5       __ehhandler$?Init@CLoginFrameWnd@@QAEXXZ 0044eeb5 f   GameDemo.obj
 0001:0004dee0       __unwindfunclet$?MessageHandler@CLoginFrameWnd@@UAEJIIJAA_N@Z$0 0044eee0 f   GameDemo.obj
 0001:0004def5       __unwindfunclet$?MessageHandler@CLoginFrameWnd@@UAEJIIJAA_N@Z$1 0044eef5 f   GameDemo.obj
 0001:0004df0a       __ehhandler$?MessageHandler@CLoginFrameWnd@@UAEJIIJAA_N@Z 0044ef0a f   GameDemo.obj
 0001:0004df40       __unwindfunclet$?CreateControl@CDialogBuilderCallbackEx@@UAEPAVCControlUI@DuiLib@@PB_W@Z$0 0044ef40 f   GameDemo.obj
 0001:0004df4b       __unwindfunclet$?CreateControl@CDialogBuilderCallbackEx@@UAEPAVCControlUI@DuiLib@@PB_W@Z$1 0044ef4b f   GameDemo.obj
 0001:0004df56       __ehhandler$?CreateControl@CDialogBuilderCallbackEx@@UAEPAVCControlUI@DuiLib@@PB_W@Z 0044ef56 f   GameDemo.obj
 0001:0004df80       __unwindfunclet$??0GameListUI@@QAE@XZ$0 0044ef80 f   GameDemo.obj
 0001:0004df92       __unwindfunclet$??0GameListUI@@QAE@XZ$1 0044ef92 f   GameDemo.obj
 0001:0004df9d       __ehhandler$??0GameListUI@@QAE@XZ 0044ef9d f   GameDemo.obj
 0001:0004dfc0       __unwindfunclet$?RemoveAll@GameListUI@@UAEXXZ$0 0044efc0 f   GameDemo.obj
 0001:0004dfcb       __ehhandler$?RemoveAll@GameListUI@@UAEXXZ 0044efcb f   GameDemo.obj
 0001:0004dff0       __unwindfunclet$?remove_child@Node@GameListUI@@QAEXPAV12@@Z$0 0044eff0 f   GameDemo.obj
 0001:0004dff8       __unwindfunclet$?remove_child@Node@GameListUI@@QAEXPAV12@@Z$1 0044eff8 f   GameDemo.obj
 0001:0004e000       __ehhandler$?remove_child@Node@GameListUI@@QAEXPAV12@@Z 0044f000 f   GameDemo.obj
 0001:0004e020       __unwindfunclet$??1GameListUI@@UAE@XZ$0 0044f020 f   GameDemo.obj
 0001:0004e032       __ehhandler$??1GameListUI@@UAE@XZ 0044f032 f   GameDemo.obj
 0001:0004e050       __unwindfunclet$?_Adopt@_Iterator_base12@std@@QAEXPBU_Container_base12@2@@Z$0 0044f050 f   GameDemo.obj
 0001:0004e058       __ehhandler$?_Adopt@_Iterator_base12@std@@QAEXPBU_Container_base12@2@@Z 0044f058 f   GameDemo.obj
 0001:0004e080       __unwindfunclet$??1_Iterator_base12@std@@QAE@XZ$0 0044f080 f   GameDemo.obj
 0001:0004e088       __ehhandler$??1_Iterator_base12@std@@QAE@XZ 0044f088 f   GameDemo.obj
 0001:0004e0b0       __unwindfunclet$??0DeskListUI@@QAE@XZ$0 0044f0b0 f   GameDemo.obj
 0001:0004e0c2       __unwindfunclet$??0DeskListUI@@QAE@XZ$1 0044f0c2 f   GameDemo.obj
 0001:0004e0d7       __unwindfunclet$??0DeskListUI@@QAE@XZ$2 0044f0d7 f   GameDemo.obj
 0001:0004e0ec       __ehhandler$??0DeskListUI@@QAE@XZ 0044f0ec f   GameDemo.obj
 0001:0004e120       __unwindfunclet$?SendChatMessage@CGameFrameWnd@@QAEXXZ$0 0044f120 f   GameDemo.obj
 0001:0004e135       __unwindfunclet$?SendChatMessage@CGameFrameWnd@@QAEXXZ$1 0044f135 f   GameDemo.obj
 0001:0004e14a       __ehhandler$?SendChatMessage@CGameFrameWnd@@QAEXXZ 0044f14a f   GameDemo.obj
 0001:0004e180       __unwindfunclet$?GetItemText@CGameFrameWnd@@UAEPB_WPAVCControlUI@DuiLib@@HH@Z$0 0044f180 f   GameDemo.obj
 0001:0004e195       __ehhandler$?GetItemText@CGameFrameWnd@@UAEPB_WPAVCControlUI@DuiLib@@HH@Z 0044f195 f   GameDemo.obj
 0001:0004e1c0       __unwindfunclet$?OnCreate@CGameFrameWnd@@QAEJIIJAAH@Z$0 0044f1c0 f   GameDemo.obj
 0001:0004e1d5       __ehhandler$?OnCreate@CGameFrameWnd@@QAEJIIJAAH@Z 0044f1d5 f   GameDemo.obj
 0001:0004e200       __unwindfunclet$??1?$vector@PAVNode@GameListUI@@V?$allocator@PAVNode@GameListUI@@@std@@@std@@QAE@XZ$0 0044f200 f   GameDemo.obj
 0001:0004e208       __ehhandler$??1?$vector@PAVNode@GameListUI@@V?$allocator@PAVNode@GameListUI@@@std@@@std@@QAE@XZ 0044f208 f   GameDemo.obj
 0001:0004e230       __unwindfunclet$?erase@?$vector@PAVNode@GameListUI@@V?$allocator@PAVNode@GameListUI@@@std@@@std@@QAE?AV?$_Vector_iterator@V?$_Vector_val@PAVNode@GameListUI@@V?$allocator@PAVNode@GameListUI@@@std@@@std@@@2@V?$_Vector_const_iterator@V?$_Vector_val@PAVNode@GameListUI@@V?$allocator@PAVNode@GameListUI@@@std@@@std@@@2@@Z$0 0044f230 f   GameDemo.obj
 0001:0004e238       __unwindfunclet$?erase@?$vector@PAVNode@GameListUI@@V?$allocator@PAVNode@GameListUI@@@std@@@std@@QAE?AV?$_Vector_iterator@V?$_Vector_val@PAVNode@GameListUI@@V?$allocator@PAVNode@GameListUI@@@std@@@std@@@2@V?$_Vector_const_iterator@V?$_Vector_val@PAVNode@GameListUI@@V?$allocator@PAVNode@GameListUI@@@std@@@std@@@2@@Z$2 0044f238 f   GameDemo.obj
 0001:0004e251       __ehhandler$?erase@?$vector@PAVNode@GameListUI@@V?$allocator@PAVNode@GameListUI@@@std@@@std@@QAE?AV?$_Vector_iterator@V?$_Vector_val@PAVNode@GameListUI@@V?$allocator@PAVNode@GameListUI@@@std@@@std@@@2@V?$_Vector_const_iterator@V?$_Vector_val@PAVNode@GameListUI@@V?$allocator@PAVNode@GameListUI@@@std@@@std@@@2@@Z 0044f251 f   GameDemo.obj
 0001:0004e270       __unwindfunclet$?_Make_iter@?$vector@PAVNode@GameListUI@@V?$allocator@PAVNode@GameListUI@@@std@@@std@@QBE?AV?$_Vector_iterator@V?$_Vector_val@PAVNode@GameListUI@@V?$allocator@PAVNode@GameListUI@@@std@@@std@@@2@V?$_Vector_const_iterator@V?$_Vector_val@PAVNode@GameListUI@@V?$allocator@PAVNode@GameListUI@@@std@@@std@@@2@@Z$0 0044f270 f   GameDemo.obj
 0001:0004e278       __unwindfunclet$?_Make_iter@?$vector@PAVNode@GameListUI@@V?$allocator@PAVNode@GameListUI@@@std@@@std@@QBE?AV?$_Vector_iterator@V?$_Vector_val@PAVNode@GameListUI@@V?$allocator@PAVNode@GameListUI@@@std@@@std@@@2@V?$_Vector_const_iterator@V?$_Vector_val@PAVNode@GameListUI@@V?$allocator@PAVNode@GameListUI@@@std@@@std@@@2@@Z$1 0044f278 f   GameDemo.obj
 0001:0004e291       __ehhandler$?_Make_iter@?$vector@PAVNode@GameListUI@@V?$allocator@PAVNode@GameListUI@@@std@@@std@@QBE?AV?$_Vector_iterator@V?$_Vector_val@PAVNode@GameListUI@@V?$allocator@PAVNode@GameListUI@@@std@@@std@@@2@V?$_Vector_const_iterator@V?$_Vector_val@PAVNode@GameListUI@@V?$allocator@PAVNode@GameListUI@@@std@@@std@@@2@@Z 0044f291 f   GameDemo.obj
 0001:0004e2b0       __unwindfunclet$?_Orphan_range@?$vector@PAVNode@GameListUI@@V?$allocator@PAVNode@GameListUI@@@std@@@std@@IBEXPAPAVNode@GameListUI@@0@Z$0 0044f2b0 f   GameDemo.obj
 0001:0004e2b8       __ehhandler$?_Orphan_range@?$vector@PAVNode@GameListUI@@V?$allocator@PAVNode@GameListUI@@@std@@@std@@IBEXPAPAVNode@GameListUI@@0@Z 0044f2b8 f   GameDemo.obj
 0001:0004e2e0       __unwindfunclet$??0?$_Vector_val@PAVNode@GameListUI@@V?$allocator@PAVNode@GameListUI@@@std@@@std@@QAE@V?$allocator@PAVNode@GameListUI@@@1@@Z$0 0044f2e0 f   GameDemo.obj
 0001:0004e2e8       __ehhandler$??0?$_Vector_val@PAVNode@GameListUI@@V?$allocator@PAVNode@GameListUI@@@std@@@std@@QAE@V?$allocator@PAVNode@GameListUI@@@1@@Z 0044f2e8 f   GameDemo.obj
 0001:0004e310       __unwindfunclet$??1?$_Vector_val@PAVNode@GameListUI@@V?$allocator@PAVNode@GameListUI@@@std@@@std@@QAE@XZ$0 0044f310 f   GameDemo.obj
 0001:0004e318       __ehhandler$??1?$_Vector_val@PAVNode@GameListUI@@V?$allocator@PAVNode@GameListUI@@@std@@@std@@QAE@XZ 0044f318 f   GameDemo.obj
 0001:0004e340       __ehhandler$?reserve@?$vector@PAVNode@GameListUI@@V?$allocator@PAVNode@GameListUI@@@std@@@std@@QAEXI@Z 0044f340 f   GameDemo.obj
 0001:0004e360       __unwindfunclet$??0?$_Vector_const_iterator@V?$_Vector_val@PAVNode@GameListUI@@V?$allocator@PAVNode@GameListUI@@@std@@@std@@@std@@QAE@PAPAVNode@GameListUI@@PBU_Container_base12@1@@Z$0 0044f360 f   GameDemo.obj
 0001:0004e368       __ehhandler$??0?$_Vector_const_iterator@V?$_Vector_val@PAVNode@GameListUI@@V?$allocator@PAVNode@GameListUI@@@std@@@std@@@std@@QAE@PAPAVNode@GameListUI@@PBU_Container_base12@1@@Z 0044f368 f   GameDemo.obj
 0001:0004e390       __unwindfunclet$?construct@?$allocator@U_Container_proxy@std@@@std@@QAEXPAU_Container_proxy@2@$$QAU32@@Z$0 0044f390 f   GameDemo.obj
 0001:0004e3a1       __ehhandler$?construct@?$allocator@U_Container_proxy@std@@@std@@QAEXPAU_Container_proxy@2@$$QAU32@@Z 0044f3a1 f   GameDemo.obj
 0001:0004e3c0       __unwindfunclet$??$construct@AAPAVNode@GameListUI@@@?$allocator@PAVNode@GameListUI@@@std@@QAEXPAPAVNode@GameListUI@@AAPAV23@@Z$0 0044f3c0 f   GameDemo.obj
 0001:0004e3d1       __ehhandler$??$construct@AAPAVNode@GameListUI@@@?$allocator@PAVNode@GameListUI@@@std@@QAEXPAPAVNode@GameListUI@@AAPAV23@@Z 0044f3d1 f   GameDemo.obj
 0001:0004e3f0       __unwindfunclet$??$_Construct@PAVNode@GameListUI@@ABQAV12@@std@@YAXPAPAVNode@GameListUI@@ABQAV12@@Z$0 0044f3f0 f   GameDemo.obj
 0001:0004e401       __ehhandler$??$_Construct@PAVNode@GameListUI@@ABQAV12@@std@@YAXPAPAVNode@GameListUI@@ABQAV12@@Z 0044f401 f   GameDemo.obj
 0001:0004e420       __ehhandler$?CallUnexpected@@YAXPBU_s_ESTypeList@@@Z 0044f420 f   LIBCMTD:frame.obj
 0001:0004e440       __unwindfunclet$?make@DNameStatusNode@@SAPAV1@W4DNameStatus@@@Z$0 0044f440 f   LIBCMTD:undname.obj
 0001:0004e44e       __ehhandler$?make@DNameStatusNode@@SAPAV1@W4DNameStatus@@@Z 0044f44e f   LIBCMTD:undname.obj
 0001:0004e470       __unwindfunclet$?getSystemCP@@YAHH@Z$0 0044f470 f   LIBCMTD:mbctype.obj
 0001:0004e478       __ehhandler$?getSystemCP@@YAHH@Z 0044f478 f   LIBCMTD:mbctype.obj
 0001:0004e4a0       __unwindfunclet$?x_ismbbtype_l@@YAHPAUlocaleinfo_struct@@IHH@Z$0 0044f4a0 f   LIBCMTD:ismbbyte.obj
 0001:0004e4a8       __ehhandler$?x_ismbbtype_l@@YAHPAUlocaleinfo_struct@@IHH@Z 0044f4a8 f   LIBCMTD:ismbbyte.obj
 0001:0004e4d0       __unwindfunclet$?strtoxl@@YAKPAUlocaleinfo_struct@@PBDPAPBDHH@Z$0 0044f4d0 f   LIBCMTD:strtol.obj
 0001:0004e4d8       __ehhandler$?strtoxl@@YAKPAUlocaleinfo_struct@@PBDPAPBDHH@Z 0044f4d8 f   LIBCMTD:strtol.obj
 0001:0004e500       __unwindfunclet$?strtoxq@@YA_KPAUlocaleinfo_struct@@PBDPAPBDHH@Z$0 0044f500 f   LIBCMTD:strtoq.obj
 0001:0004e508       __ehhandler$?strtoxq@@YA_KPAUlocaleinfo_struct@@PBDPAPBDHH@Z 0044f508 f   LIBCMTD:strtoq.obj
 0001:0004e530       ??__Eg_miniDumper@@YAXXZ   0044f530 f   GameDemo.obj
 0001:0004e560       ??__Einitlocks@std@@YAXXZ  0044f560 f   libcpmtd:xlock.obj
 0001:0004e580       ??__Fg_miniDumper@@YAXXZ   0044f580 f   GameDemo.obj
 0001:0004e5a0       ??__Finitlocks@std@@YAXXZ  0044f5a0 f   libcpmtd:xlock.obj
 0001:0004e5c0       ??__Fnomem@?5???2@YAPAXI@Z@YAXXZ 0044f5c0 f   LIBCMTD:new.obj
